ARM GAS  C:\Users\jebush2\AppData\Local\Temp\ccOaylHj.s 			page 1


   1              		.syntax unified
   2              		.cpu cortex-m3
   3              		.fpu softvfp
   4              		.eabi_attribute 20, 1
   5              		.eabi_attribute 21, 1
   6              		.eabi_attribute 23, 3
   7              		.eabi_attribute 24, 1
   8              		.eabi_attribute 25, 1
   9              		.eabi_attribute 26, 1
  10              		.eabi_attribute 30, 4
  11              		.eabi_attribute 34, 1
  12              		.eabi_attribute 18, 4
  13              		.thumb
  14              		.syntax unified
  15              		.file	"cyfitter_cfg.c"
  16              		.text
  17              	.Ltext0:
  18              		.cfi_sections	.debug_frame
  19              		.section	.text.SetAnalogRoutingPumps,"ax",%progbits
  20              		.align	1
  21              		.global	SetAnalogRoutingPumps
  22              		.thumb
  23              		.thumb_func
  24              		.type	SetAnalogRoutingPumps, %function
  25              	SetAnalogRoutingPumps:
  26              	.LFB7:
  27              		.file 1 "Generated_Source\\PSoC5\\cyfitter_cfg.c"
   1:Generated_Source\PSoC5/cyfitter_cfg.c **** 
   2:Generated_Source\PSoC5/cyfitter_cfg.c **** /*******************************************************************************
   3:Generated_Source\PSoC5/cyfitter_cfg.c **** * File Name: cyfitter_cfg.c
   4:Generated_Source\PSoC5/cyfitter_cfg.c **** * 
   5:Generated_Source\PSoC5/cyfitter_cfg.c **** * PSoC Creator  4.2
   6:Generated_Source\PSoC5/cyfitter_cfg.c **** *
   7:Generated_Source\PSoC5/cyfitter_cfg.c **** * Description:
   8:Generated_Source\PSoC5/cyfitter_cfg.c **** * This file contains device initialization code.
   9:Generated_Source\PSoC5/cyfitter_cfg.c **** * Except for the user defined sections in CyClockStartupError(), this file should not be modified.
  10:Generated_Source\PSoC5/cyfitter_cfg.c **** * This file is automatically generated by PSoC Creator.
  11:Generated_Source\PSoC5/cyfitter_cfg.c **** *
  12:Generated_Source\PSoC5/cyfitter_cfg.c **** ********************************************************************************
  13:Generated_Source\PSoC5/cyfitter_cfg.c **** * Copyright (c) 2007-2018 Cypress Semiconductor.  All rights reserved.
  14:Generated_Source\PSoC5/cyfitter_cfg.c **** * You may use this file only in accordance with the license, terms, conditions, 
  15:Generated_Source\PSoC5/cyfitter_cfg.c **** * disclaimers, and limitations in the end user license agreement accompanying 
  16:Generated_Source\PSoC5/cyfitter_cfg.c **** * the software package with which this file was provided.
  17:Generated_Source\PSoC5/cyfitter_cfg.c **** ********************************************************************************/
  18:Generated_Source\PSoC5/cyfitter_cfg.c **** 
  19:Generated_Source\PSoC5/cyfitter_cfg.c **** #include <string.h>
  20:Generated_Source\PSoC5/cyfitter_cfg.c **** #include "cytypes.h"
  21:Generated_Source\PSoC5/cyfitter_cfg.c **** #include "cydevice_trm.h"
  22:Generated_Source\PSoC5/cyfitter_cfg.c **** #include "cyfitter.h"
  23:Generated_Source\PSoC5/cyfitter_cfg.c **** #include "CyLib.h"
  24:Generated_Source\PSoC5/cyfitter_cfg.c **** #include "cyfitter_cfg.h"
  25:Generated_Source\PSoC5/cyfitter_cfg.c **** #include "cyapicallbacks.h"
  26:Generated_Source\PSoC5/cyfitter_cfg.c **** 
  27:Generated_Source\PSoC5/cyfitter_cfg.c **** #define CY_NEED_CYCLOCKSTARTUPERROR 1
  28:Generated_Source\PSoC5/cyfitter_cfg.c **** 
  29:Generated_Source\PSoC5/cyfitter_cfg.c **** 
  30:Generated_Source\PSoC5/cyfitter_cfg.c **** #if defined(__GNUC__) || defined(__ARMCC_VERSION)
ARM GAS  C:\Users\jebush2\AppData\Local\Temp\ccOaylHj.s 			page 2


  31:Generated_Source\PSoC5/cyfitter_cfg.c ****     #define CYPACKED 
  32:Generated_Source\PSoC5/cyfitter_cfg.c ****     #define CYPACKED_ATTR __attribute__ ((packed))
  33:Generated_Source\PSoC5/cyfitter_cfg.c ****     #define CYALIGNED __attribute__ ((aligned))
  34:Generated_Source\PSoC5/cyfitter_cfg.c ****     #define CY_CFG_UNUSED __attribute__ ((unused))
  35:Generated_Source\PSoC5/cyfitter_cfg.c ****     #ifndef CY_CFG_SECTION
  36:Generated_Source\PSoC5/cyfitter_cfg.c ****         #define CY_CFG_SECTION __attribute__ ((section(".psocinit")))
  37:Generated_Source\PSoC5/cyfitter_cfg.c ****     #endif
  38:Generated_Source\PSoC5/cyfitter_cfg.c ****     
  39:Generated_Source\PSoC5/cyfitter_cfg.c ****     #if defined(__ARMCC_VERSION)
  40:Generated_Source\PSoC5/cyfitter_cfg.c ****         #define CY_CFG_MEMORY_BARRIER() __memory_changed()
  41:Generated_Source\PSoC5/cyfitter_cfg.c ****     #else
  42:Generated_Source\PSoC5/cyfitter_cfg.c ****         #define CY_CFG_MEMORY_BARRIER() __sync_synchronize()
  43:Generated_Source\PSoC5/cyfitter_cfg.c ****     #endif
  44:Generated_Source\PSoC5/cyfitter_cfg.c ****     
  45:Generated_Source\PSoC5/cyfitter_cfg.c **** #elif defined(__ICCARM__)
  46:Generated_Source\PSoC5/cyfitter_cfg.c ****     #include <intrinsics.h>
  47:Generated_Source\PSoC5/cyfitter_cfg.c **** 
  48:Generated_Source\PSoC5/cyfitter_cfg.c ****     #define CYPACKED __packed
  49:Generated_Source\PSoC5/cyfitter_cfg.c ****     #define CYPACKED_ATTR 
  50:Generated_Source\PSoC5/cyfitter_cfg.c ****     #define CYALIGNED _Pragma("data_alignment=4")
  51:Generated_Source\PSoC5/cyfitter_cfg.c ****     #define CY_CFG_UNUSED _Pragma("diag_suppress=Pe177")
  52:Generated_Source\PSoC5/cyfitter_cfg.c ****     #define CY_CFG_SECTION _Pragma("location=\".psocinit\"")
  53:Generated_Source\PSoC5/cyfitter_cfg.c ****     
  54:Generated_Source\PSoC5/cyfitter_cfg.c ****     #define CY_CFG_MEMORY_BARRIER() __DMB()
  55:Generated_Source\PSoC5/cyfitter_cfg.c ****     
  56:Generated_Source\PSoC5/cyfitter_cfg.c **** #else
  57:Generated_Source\PSoC5/cyfitter_cfg.c ****     #error Unsupported toolchain
  58:Generated_Source\PSoC5/cyfitter_cfg.c **** #endif
  59:Generated_Source\PSoC5/cyfitter_cfg.c **** 
  60:Generated_Source\PSoC5/cyfitter_cfg.c **** #ifndef CYCODE
  61:Generated_Source\PSoC5/cyfitter_cfg.c ****     #define CYCODE
  62:Generated_Source\PSoC5/cyfitter_cfg.c **** #endif
  63:Generated_Source\PSoC5/cyfitter_cfg.c **** #ifndef CYDATA
  64:Generated_Source\PSoC5/cyfitter_cfg.c ****     #define CYDATA
  65:Generated_Source\PSoC5/cyfitter_cfg.c **** #endif
  66:Generated_Source\PSoC5/cyfitter_cfg.c **** #ifndef CYFAR
  67:Generated_Source\PSoC5/cyfitter_cfg.c ****     #define CYFAR
  68:Generated_Source\PSoC5/cyfitter_cfg.c **** #endif
  69:Generated_Source\PSoC5/cyfitter_cfg.c **** #ifndef CYXDATA
  70:Generated_Source\PSoC5/cyfitter_cfg.c ****     #define CYXDATA
  71:Generated_Source\PSoC5/cyfitter_cfg.c **** #endif
  72:Generated_Source\PSoC5/cyfitter_cfg.c **** 
  73:Generated_Source\PSoC5/cyfitter_cfg.c **** 
  74:Generated_Source\PSoC5/cyfitter_cfg.c **** CY_CFG_UNUSED
  75:Generated_Source\PSoC5/cyfitter_cfg.c **** static void CYMEMZERO(void *s, size_t n);
  76:Generated_Source\PSoC5/cyfitter_cfg.c **** CY_CFG_UNUSED
  77:Generated_Source\PSoC5/cyfitter_cfg.c **** static void CYMEMZERO(void *s, size_t n)
  78:Generated_Source\PSoC5/cyfitter_cfg.c **** {
  79:Generated_Source\PSoC5/cyfitter_cfg.c **** 	(void)memset(s, 0, n);
  80:Generated_Source\PSoC5/cyfitter_cfg.c **** }
  81:Generated_Source\PSoC5/cyfitter_cfg.c **** CY_CFG_UNUSED
  82:Generated_Source\PSoC5/cyfitter_cfg.c **** static void CYCONFIGCPY(void *dest, const void *src, size_t n);
  83:Generated_Source\PSoC5/cyfitter_cfg.c **** CY_CFG_UNUSED
  84:Generated_Source\PSoC5/cyfitter_cfg.c **** static void CYCONFIGCPY(void *dest, const void *src, size_t n)
  85:Generated_Source\PSoC5/cyfitter_cfg.c **** {
  86:Generated_Source\PSoC5/cyfitter_cfg.c **** 	(void)memcpy(dest, src, n);
  87:Generated_Source\PSoC5/cyfitter_cfg.c **** }
ARM GAS  C:\Users\jebush2\AppData\Local\Temp\ccOaylHj.s 			page 3


  88:Generated_Source\PSoC5/cyfitter_cfg.c **** CY_CFG_UNUSED
  89:Generated_Source\PSoC5/cyfitter_cfg.c **** static void CYCONFIGCPYCODE(void *dest, const void *src, size_t n);
  90:Generated_Source\PSoC5/cyfitter_cfg.c **** CY_CFG_UNUSED
  91:Generated_Source\PSoC5/cyfitter_cfg.c **** static void CYCONFIGCPYCODE(void *dest, const void *src, size_t n)
  92:Generated_Source\PSoC5/cyfitter_cfg.c **** {
  93:Generated_Source\PSoC5/cyfitter_cfg.c **** 	(void)memcpy(dest, src, n);
  94:Generated_Source\PSoC5/cyfitter_cfg.c **** }
  95:Generated_Source\PSoC5/cyfitter_cfg.c **** 
  96:Generated_Source\PSoC5/cyfitter_cfg.c **** 
  97:Generated_Source\PSoC5/cyfitter_cfg.c **** 
  98:Generated_Source\PSoC5/cyfitter_cfg.c **** 
  99:Generated_Source\PSoC5/cyfitter_cfg.c **** /* Clock startup error codes                                                   */
 100:Generated_Source\PSoC5/cyfitter_cfg.c **** #define CYCLOCKSTART_NO_ERROR    0u
 101:Generated_Source\PSoC5/cyfitter_cfg.c **** #define CYCLOCKSTART_XTAL_ERROR  1u
 102:Generated_Source\PSoC5/cyfitter_cfg.c **** #define CYCLOCKSTART_32KHZ_ERROR 2u
 103:Generated_Source\PSoC5/cyfitter_cfg.c **** #define CYCLOCKSTART_PLL_ERROR   3u
 104:Generated_Source\PSoC5/cyfitter_cfg.c **** #define CYCLOCKSTART_FLL_ERROR   4u
 105:Generated_Source\PSoC5/cyfitter_cfg.c **** #define CYCLOCKSTART_WCO_ERROR   5u
 106:Generated_Source\PSoC5/cyfitter_cfg.c **** 
 107:Generated_Source\PSoC5/cyfitter_cfg.c **** 
 108:Generated_Source\PSoC5/cyfitter_cfg.c **** #ifdef CY_NEED_CYCLOCKSTARTUPERROR
 109:Generated_Source\PSoC5/cyfitter_cfg.c **** /*******************************************************************************
 110:Generated_Source\PSoC5/cyfitter_cfg.c **** * Function Name: CyClockStartupError
 111:Generated_Source\PSoC5/cyfitter_cfg.c **** ********************************************************************************
 112:Generated_Source\PSoC5/cyfitter_cfg.c **** * Summary:
 113:Generated_Source\PSoC5/cyfitter_cfg.c **** *  If an error is encountered during clock configuration (crystal startup error,
 114:Generated_Source\PSoC5/cyfitter_cfg.c **** *  PLL lock error, etc.), the system will end up here.  Unless reimplemented by
 115:Generated_Source\PSoC5/cyfitter_cfg.c **** *  the customer, this function will stop in an infinite loop.
 116:Generated_Source\PSoC5/cyfitter_cfg.c **** *
 117:Generated_Source\PSoC5/cyfitter_cfg.c **** * Parameters:
 118:Generated_Source\PSoC5/cyfitter_cfg.c **** *   void
 119:Generated_Source\PSoC5/cyfitter_cfg.c **** *
 120:Generated_Source\PSoC5/cyfitter_cfg.c **** * Return:
 121:Generated_Source\PSoC5/cyfitter_cfg.c **** *   void
 122:Generated_Source\PSoC5/cyfitter_cfg.c **** *
 123:Generated_Source\PSoC5/cyfitter_cfg.c **** *******************************************************************************/
 124:Generated_Source\PSoC5/cyfitter_cfg.c **** CY_CFG_UNUSED
 125:Generated_Source\PSoC5/cyfitter_cfg.c **** static void CyClockStartupError(uint8 errorCode);
 126:Generated_Source\PSoC5/cyfitter_cfg.c **** CY_CFG_UNUSED
 127:Generated_Source\PSoC5/cyfitter_cfg.c **** static void CyClockStartupError(uint8 errorCode)
 128:Generated_Source\PSoC5/cyfitter_cfg.c **** {
 129:Generated_Source\PSoC5/cyfitter_cfg.c ****     /* To remove the compiler warning if errorCode not used.                */
 130:Generated_Source\PSoC5/cyfitter_cfg.c ****     errorCode = errorCode;
 131:Generated_Source\PSoC5/cyfitter_cfg.c **** 
 132:Generated_Source\PSoC5/cyfitter_cfg.c ****     /* If we have a clock startup error (bad MHz crystal, PLL lock, etc.),  */
 133:Generated_Source\PSoC5/cyfitter_cfg.c ****     /* we will end up here to allow the customer to implement something to  */
 134:Generated_Source\PSoC5/cyfitter_cfg.c ****     /* deal with the clock condition.                                       */
 135:Generated_Source\PSoC5/cyfitter_cfg.c **** 
 136:Generated_Source\PSoC5/cyfitter_cfg.c **** #ifdef CY_CFG_CLOCK_STARTUP_ERROR_CALLBACK
 137:Generated_Source\PSoC5/cyfitter_cfg.c ****     CY_CFG_Clock_Startup_ErrorCallback();
 138:Generated_Source\PSoC5/cyfitter_cfg.c **** #else
 139:Generated_Source\PSoC5/cyfitter_cfg.c ****     /*  If not using CY_CFG_CLOCK_STARTUP_ERROR_CALLBACK, place your clock startup code here. */
 140:Generated_Source\PSoC5/cyfitter_cfg.c ****     /* `#START CyClockStartupError` */
 141:Generated_Source\PSoC5/cyfitter_cfg.c **** 
 142:Generated_Source\PSoC5/cyfitter_cfg.c **** 
 143:Generated_Source\PSoC5/cyfitter_cfg.c **** 
 144:Generated_Source\PSoC5/cyfitter_cfg.c ****     /* `#END` */
ARM GAS  C:\Users\jebush2\AppData\Local\Temp\ccOaylHj.s 			page 4


 145:Generated_Source\PSoC5/cyfitter_cfg.c **** 
 146:Generated_Source\PSoC5/cyfitter_cfg.c ****     while(1) {}
 147:Generated_Source\PSoC5/cyfitter_cfg.c **** #endif /* CY_CFG_CLOCK_STARTUP_ERROR_CALLBACK */
 148:Generated_Source\PSoC5/cyfitter_cfg.c **** }
 149:Generated_Source\PSoC5/cyfitter_cfg.c **** #endif
 150:Generated_Source\PSoC5/cyfitter_cfg.c **** 
 151:Generated_Source\PSoC5/cyfitter_cfg.c **** #define CY_CFG_BASE_ADDR_COUNT 34u
 152:Generated_Source\PSoC5/cyfitter_cfg.c **** CYPACKED typedef struct
 153:Generated_Source\PSoC5/cyfitter_cfg.c **** {
 154:Generated_Source\PSoC5/cyfitter_cfg.c **** 	uint8 offset;
 155:Generated_Source\PSoC5/cyfitter_cfg.c **** 	uint8 value;
 156:Generated_Source\PSoC5/cyfitter_cfg.c **** } CYPACKED_ATTR cy_cfg_addrvalue_t;
 157:Generated_Source\PSoC5/cyfitter_cfg.c **** 
 158:Generated_Source\PSoC5/cyfitter_cfg.c **** #define cy_cfg_addr_table ((const uint32 CYFAR *)0x48000000u)
 159:Generated_Source\PSoC5/cyfitter_cfg.c **** #define cy_cfg_data_table ((const cy_cfg_addrvalue_t CYFAR *)0x48000088u)
 160:Generated_Source\PSoC5/cyfitter_cfg.c **** 
 161:Generated_Source\PSoC5/cyfitter_cfg.c **** /* IOPINS0_0 Address: CYREG_PRT0_DM0 Size (bytes): 8 */
 162:Generated_Source\PSoC5/cyfitter_cfg.c **** #define BS_IOPINS0_0_VAL ((const uint8 CYFAR *)0x480003D0u)
 163:Generated_Source\PSoC5/cyfitter_cfg.c **** 
 164:Generated_Source\PSoC5/cyfitter_cfg.c **** /* IOPINS0_8 Address: CYREG_PRT15_DR Size (bytes): 10 */
 165:Generated_Source\PSoC5/cyfitter_cfg.c **** #define BS_IOPINS0_8_VAL ((const uint8 CYFAR *)0x480003D8u)
 166:Generated_Source\PSoC5/cyfitter_cfg.c **** 
 167:Generated_Source\PSoC5/cyfitter_cfg.c **** /* IOPINS0_1 Address: CYREG_PRT1_DM0 Size (bytes): 8 */
 168:Generated_Source\PSoC5/cyfitter_cfg.c **** #define BS_IOPINS0_1_VAL ((const uint8 CYFAR *)0x480003E4u)
 169:Generated_Source\PSoC5/cyfitter_cfg.c **** 
 170:Generated_Source\PSoC5/cyfitter_cfg.c **** /* IOPINS0_2 Address: CYREG_PRT2_DM0 Size (bytes): 8 */
 171:Generated_Source\PSoC5/cyfitter_cfg.c **** #define BS_IOPINS0_2_VAL ((const uint8 CYFAR *)0x480003ECu)
 172:Generated_Source\PSoC5/cyfitter_cfg.c **** 
 173:Generated_Source\PSoC5/cyfitter_cfg.c **** /* PHUB_CFGMEM1 Address: CYREG_PHUB_CFGMEM1_CFG0 Size (bytes): 4 */
 174:Generated_Source\PSoC5/cyfitter_cfg.c **** #define BS_PHUB_CFGMEM1_VAL ((const uint8 CYFAR *)0x480003F4u)
 175:Generated_Source\PSoC5/cyfitter_cfg.c **** 
 176:Generated_Source\PSoC5/cyfitter_cfg.c **** 
 177:Generated_Source\PSoC5/cyfitter_cfg.c **** /*******************************************************************************
 178:Generated_Source\PSoC5/cyfitter_cfg.c **** * Function Name: cfg_write_bytes32
 179:Generated_Source\PSoC5/cyfitter_cfg.c **** ********************************************************************************
 180:Generated_Source\PSoC5/cyfitter_cfg.c **** * Summary:
 181:Generated_Source\PSoC5/cyfitter_cfg.c **** *  This function is used for setting up the chip configuration areas that
 182:Generated_Source\PSoC5/cyfitter_cfg.c **** *  contain relatively sparse data.
 183:Generated_Source\PSoC5/cyfitter_cfg.c **** *
 184:Generated_Source\PSoC5/cyfitter_cfg.c **** * Parameters:
 185:Generated_Source\PSoC5/cyfitter_cfg.c **** *   void
 186:Generated_Source\PSoC5/cyfitter_cfg.c **** *
 187:Generated_Source\PSoC5/cyfitter_cfg.c **** * Return:
 188:Generated_Source\PSoC5/cyfitter_cfg.c **** *   void
 189:Generated_Source\PSoC5/cyfitter_cfg.c **** *
 190:Generated_Source\PSoC5/cyfitter_cfg.c **** *******************************************************************************/
 191:Generated_Source\PSoC5/cyfitter_cfg.c **** static void cfg_write_bytes32(const uint32 addr_table[], const cy_cfg_addrvalue_t data_table[]);
 192:Generated_Source\PSoC5/cyfitter_cfg.c **** static void cfg_write_bytes32(const uint32 addr_table[], const cy_cfg_addrvalue_t data_table[])
 193:Generated_Source\PSoC5/cyfitter_cfg.c **** {
 194:Generated_Source\PSoC5/cyfitter_cfg.c **** 	/* For 32-bit little-endian architectures */
 195:Generated_Source\PSoC5/cyfitter_cfg.c **** 	uint32 i, j = 0u;
 196:Generated_Source\PSoC5/cyfitter_cfg.c **** 	for (i = 0u; i < CY_CFG_BASE_ADDR_COUNT; i++)
 197:Generated_Source\PSoC5/cyfitter_cfg.c **** 	{
 198:Generated_Source\PSoC5/cyfitter_cfg.c **** 		uint32 baseAddr = addr_table[i];
 199:Generated_Source\PSoC5/cyfitter_cfg.c **** 		uint8 count = (uint8)baseAddr;
 200:Generated_Source\PSoC5/cyfitter_cfg.c **** 		baseAddr &= 0xFFFFFF00u;
 201:Generated_Source\PSoC5/cyfitter_cfg.c **** 		while (count != 0u)
ARM GAS  C:\Users\jebush2\AppData\Local\Temp\ccOaylHj.s 			page 5


 202:Generated_Source\PSoC5/cyfitter_cfg.c **** 		{
 203:Generated_Source\PSoC5/cyfitter_cfg.c **** 			CY_SET_REG8((void *)(baseAddr + data_table[j].offset), data_table[j].value);
 204:Generated_Source\PSoC5/cyfitter_cfg.c **** 			j++;
 205:Generated_Source\PSoC5/cyfitter_cfg.c **** 			count--;
 206:Generated_Source\PSoC5/cyfitter_cfg.c **** 		}
 207:Generated_Source\PSoC5/cyfitter_cfg.c **** 	}
 208:Generated_Source\PSoC5/cyfitter_cfg.c **** }
 209:Generated_Source\PSoC5/cyfitter_cfg.c **** 
 210:Generated_Source\PSoC5/cyfitter_cfg.c **** /*******************************************************************************
 211:Generated_Source\PSoC5/cyfitter_cfg.c **** * Function Name: ClockSetup
 212:Generated_Source\PSoC5/cyfitter_cfg.c **** ********************************************************************************
 213:Generated_Source\PSoC5/cyfitter_cfg.c **** *
 214:Generated_Source\PSoC5/cyfitter_cfg.c **** * Summary:
 215:Generated_Source\PSoC5/cyfitter_cfg.c **** *  Performs the initialization of all of the clocks in the device based on the
 216:Generated_Source\PSoC5/cyfitter_cfg.c **** *  settings in the Clock tab of the DWR.  This includes enabling the requested
 217:Generated_Source\PSoC5/cyfitter_cfg.c **** *  clocks and setting the necessary dividers to produce the desired frequency. 
 218:Generated_Source\PSoC5/cyfitter_cfg.c **** *
 219:Generated_Source\PSoC5/cyfitter_cfg.c **** * Parameters:
 220:Generated_Source\PSoC5/cyfitter_cfg.c **** *  void
 221:Generated_Source\PSoC5/cyfitter_cfg.c **** *
 222:Generated_Source\PSoC5/cyfitter_cfg.c **** * Return:
 223:Generated_Source\PSoC5/cyfitter_cfg.c **** *  void
 224:Generated_Source\PSoC5/cyfitter_cfg.c **** *
 225:Generated_Source\PSoC5/cyfitter_cfg.c **** *******************************************************************************/
 226:Generated_Source\PSoC5/cyfitter_cfg.c **** static void ClockSetup(void);
 227:Generated_Source\PSoC5/cyfitter_cfg.c **** static void ClockSetup(void)
 228:Generated_Source\PSoC5/cyfitter_cfg.c **** {
 229:Generated_Source\PSoC5/cyfitter_cfg.c **** 	uint32 timeout;
 230:Generated_Source\PSoC5/cyfitter_cfg.c **** 	uint8 pllLock;
 231:Generated_Source\PSoC5/cyfitter_cfg.c **** 
 232:Generated_Source\PSoC5/cyfitter_cfg.c **** 
 233:Generated_Source\PSoC5/cyfitter_cfg.c **** 	/* Configure Digital Clocks based on settings from Clock DWR */
 234:Generated_Source\PSoC5/cyfitter_cfg.c **** 	CY_SET_XTND_REG16((void CYFAR *)(CYREG_CLKDIST_DCFG0_CFG0), 0x001Du);
 235:Generated_Source\PSoC5/cyfitter_cfg.c **** 	CY_SET_XTND_REG8((void CYFAR *)(CYREG_CLKDIST_DCFG0_CFG0 + 0x2u), 0x18u);
 236:Generated_Source\PSoC5/cyfitter_cfg.c **** 	CY_SET_XTND_REG16((void CYFAR *)(CYREG_CLKDIST_DCFG1_CFG0), 0x5DBFu);
 237:Generated_Source\PSoC5/cyfitter_cfg.c **** 	CY_SET_XTND_REG8((void CYFAR *)(CYREG_CLKDIST_DCFG1_CFG0 + 0x2u), 0x19u);
 238:Generated_Source\PSoC5/cyfitter_cfg.c **** 
 239:Generated_Source\PSoC5/cyfitter_cfg.c **** 	/* Configure ILO based on settings from Clock DWR */
 240:Generated_Source\PSoC5/cyfitter_cfg.c **** 	CY_SET_XTND_REG8((void CYFAR *)(CYREG_SLOWCLK_ILO_CR0), 0x06u);
 241:Generated_Source\PSoC5/cyfitter_cfg.c **** 
 242:Generated_Source\PSoC5/cyfitter_cfg.c **** 	/* Configure IMO based on settings from Clock DWR */
 243:Generated_Source\PSoC5/cyfitter_cfg.c **** 	CY_SET_XTND_REG8((void CYFAR *)(CYREG_FASTCLK_IMO_CR), 0x52u);
 244:Generated_Source\PSoC5/cyfitter_cfg.c **** 	CY_SET_XTND_REG8((void CYFAR *)(CYREG_IMO_TR1), (CY_GET_XTND_REG8((void CYFAR *)CYREG_FLSHID_CUST_
 245:Generated_Source\PSoC5/cyfitter_cfg.c **** 
 246:Generated_Source\PSoC5/cyfitter_cfg.c **** 	/* Configure PLL based on settings from Clock DWR */
 247:Generated_Source\PSoC5/cyfitter_cfg.c **** 	CY_SET_XTND_REG16((void CYFAR *)(CYREG_FASTCLK_PLL_P), 0x0710u);
 248:Generated_Source\PSoC5/cyfitter_cfg.c **** 	CY_SET_XTND_REG16((void CYFAR *)(CYREG_FASTCLK_PLL_CFG0), 0x1251u);
 249:Generated_Source\PSoC5/cyfitter_cfg.c **** 	/* Wait up to 250us for the PLL to lock */
 250:Generated_Source\PSoC5/cyfitter_cfg.c **** 	pllLock = 0u;
 251:Generated_Source\PSoC5/cyfitter_cfg.c **** 	for (timeout = 250u / 10u; (timeout > 0u) && (pllLock != 0x03u); timeout--)
 252:Generated_Source\PSoC5/cyfitter_cfg.c **** 	{ 
 253:Generated_Source\PSoC5/cyfitter_cfg.c **** 		pllLock = 0x03u & ((uint8)((uint8)pllLock << 1) | ((CY_GET_XTND_REG8((void CYFAR *)CYREG_FASTCLK_
 254:Generated_Source\PSoC5/cyfitter_cfg.c **** 		CyDelayCycles(10u * 48u); /* Delay 10us based on 48MHz clock */
 255:Generated_Source\PSoC5/cyfitter_cfg.c **** 	}
 256:Generated_Source\PSoC5/cyfitter_cfg.c **** 	/* If we ran out of time the PLL didn't lock so go to the error function */
 257:Generated_Source\PSoC5/cyfitter_cfg.c **** 	if (timeout == 0u)
 258:Generated_Source\PSoC5/cyfitter_cfg.c **** 	{
ARM GAS  C:\Users\jebush2\AppData\Local\Temp\ccOaylHj.s 			page 6


 259:Generated_Source\PSoC5/cyfitter_cfg.c **** 		CyClockStartupError(CYCLOCKSTART_PLL_ERROR);
 260:Generated_Source\PSoC5/cyfitter_cfg.c **** 	}
 261:Generated_Source\PSoC5/cyfitter_cfg.c **** 
 262:Generated_Source\PSoC5/cyfitter_cfg.c **** 	/* Configure Bus/Master Clock based on settings from Clock DWR */
 263:Generated_Source\PSoC5/cyfitter_cfg.c **** 	CY_SET_XTND_REG16((void CYFAR *)(CYREG_CLKDIST_MSTR0), 0x0100u);
 264:Generated_Source\PSoC5/cyfitter_cfg.c **** 	CY_SET_XTND_REG8((void CYFAR *)(CYREG_CLKDIST_MSTR0), 0x07u);
 265:Generated_Source\PSoC5/cyfitter_cfg.c **** 	CY_SET_XTND_REG8((void CYFAR *)(CYREG_CLKDIST_BCFG0), 0x00u);
 266:Generated_Source\PSoC5/cyfitter_cfg.c **** 	CY_SET_XTND_REG8((void CYFAR *)(CYREG_CLKDIST_BCFG2), 0x48u);
 267:Generated_Source\PSoC5/cyfitter_cfg.c **** 	CY_SET_XTND_REG8((void CYFAR *)(CYREG_CLKDIST_MSTR0), 0x00u);
 268:Generated_Source\PSoC5/cyfitter_cfg.c **** 
 269:Generated_Source\PSoC5/cyfitter_cfg.c **** 	/* Configure USB Clock based on settings from Clock DWR */
 270:Generated_Source\PSoC5/cyfitter_cfg.c **** 	CY_SET_XTND_REG8((void CYFAR *)(CYREG_CLKDIST_UCFG), 0x00u);
 271:Generated_Source\PSoC5/cyfitter_cfg.c **** 	CY_SET_XTND_REG8((void CYFAR *)(CYREG_CLKDIST_LD), 0x02u);
 272:Generated_Source\PSoC5/cyfitter_cfg.c **** 
 273:Generated_Source\PSoC5/cyfitter_cfg.c **** 	CY_SET_XTND_REG8((void CYFAR *)(CYREG_PM_ACT_CFG2), ((CY_GET_XTND_REG8((void CYFAR *)CYREG_PM_ACT_
 274:Generated_Source\PSoC5/cyfitter_cfg.c **** }
 275:Generated_Source\PSoC5/cyfitter_cfg.c **** 
 276:Generated_Source\PSoC5/cyfitter_cfg.c **** 
 277:Generated_Source\PSoC5/cyfitter_cfg.c **** /* Analog API Functions */
 278:Generated_Source\PSoC5/cyfitter_cfg.c **** 
 279:Generated_Source\PSoC5/cyfitter_cfg.c **** 
 280:Generated_Source\PSoC5/cyfitter_cfg.c **** /*******************************************************************************
 281:Generated_Source\PSoC5/cyfitter_cfg.c **** * Function Name: AnalogSetDefault
 282:Generated_Source\PSoC5/cyfitter_cfg.c **** ********************************************************************************
 283:Generated_Source\PSoC5/cyfitter_cfg.c **** *
 284:Generated_Source\PSoC5/cyfitter_cfg.c **** * Summary:
 285:Generated_Source\PSoC5/cyfitter_cfg.c **** *  Sets up the analog portions of the chip to default values based on chip
 286:Generated_Source\PSoC5/cyfitter_cfg.c **** *  configuration options from the project.
 287:Generated_Source\PSoC5/cyfitter_cfg.c **** *
 288:Generated_Source\PSoC5/cyfitter_cfg.c **** * Parameters:
 289:Generated_Source\PSoC5/cyfitter_cfg.c **** *  void
 290:Generated_Source\PSoC5/cyfitter_cfg.c **** *
 291:Generated_Source\PSoC5/cyfitter_cfg.c **** * Return:
 292:Generated_Source\PSoC5/cyfitter_cfg.c **** *  void
 293:Generated_Source\PSoC5/cyfitter_cfg.c **** *
 294:Generated_Source\PSoC5/cyfitter_cfg.c **** *******************************************************************************/
 295:Generated_Source\PSoC5/cyfitter_cfg.c **** static void AnalogSetDefault(void);
 296:Generated_Source\PSoC5/cyfitter_cfg.c **** static void AnalogSetDefault(void)
 297:Generated_Source\PSoC5/cyfitter_cfg.c **** {
 298:Generated_Source\PSoC5/cyfitter_cfg.c **** 	uint8 bg_xover_inl_trim = CY_GET_XTND_REG8((void CYFAR *)(CYREG_FLSHID_MFG_CFG_BG_XOVER_INL_TRIM +
 299:Generated_Source\PSoC5/cyfitter_cfg.c **** 	uint8 cr4 = CY_GET_XTND_REG8((void CYFAR *)(CYREG_RESET_CR4));
 300:Generated_Source\PSoC5/cyfitter_cfg.c **** 	uint8 cr5 = CY_GET_XTND_REG8((void CYFAR *)(CYREG_RESET_CR5));
 301:Generated_Source\PSoC5/cyfitter_cfg.c **** 	CY_SET_XTND_REG8((void CYFAR *)(CYREG_BG_DFT0), (bg_xover_inl_trim & 0x07u));
 302:Generated_Source\PSoC5/cyfitter_cfg.c **** 	CY_SET_XTND_REG8((void CYFAR *)(CYREG_BG_DFT1), ((bg_xover_inl_trim >> 4) & 0x0Fu));
 303:Generated_Source\PSoC5/cyfitter_cfg.c **** 	/* Disable PRES while setting up SAR voltage reference */
 304:Generated_Source\PSoC5/cyfitter_cfg.c **** 	CY_SET_XTND_REG8((void CYFAR *)(CYREG_RESET_CR4), (cr4 | 0x03u));
 305:Generated_Source\PSoC5/cyfitter_cfg.c **** 	CY_SET_XTND_REG8((void CYFAR *)(CYREG_RESET_CR5), (cr5 | 0x03u));
 306:Generated_Source\PSoC5/cyfitter_cfg.c **** 	CY_SET_XTND_REG8((void CYFAR *)CYREG_PRT0_AG, 0x3Fu);
 307:Generated_Source\PSoC5/cyfitter_cfg.c **** 	CY_SET_XTND_REG8((void CYFAR *)CYREG_SAR0_CSR1, 0x80u);
 308:Generated_Source\PSoC5/cyfitter_cfg.c **** 	CY_SET_XTND_REG8((void CYFAR *)CYREG_SAR0_SW0, 0xA0u);
 309:Generated_Source\PSoC5/cyfitter_cfg.c **** 	CY_SET_XTND_REG8((void CYFAR *)CYREG_SAR0_SW4, 0x50u);
 310:Generated_Source\PSoC5/cyfitter_cfg.c **** 	CyDelayUs(10u); /* Allow vref to settle before re-enabling PRES */
 311:Generated_Source\PSoC5/cyfitter_cfg.c **** 	CY_SET_XTND_REG8((void CYFAR *)(CYREG_RESET_CR5), (cr5));
 312:Generated_Source\PSoC5/cyfitter_cfg.c **** 	CY_SET_XTND_REG8((void CYFAR *)(CYREG_RESET_CR4), (cr4));
 313:Generated_Source\PSoC5/cyfitter_cfg.c **** 	CY_SET_XTND_REG8((void CYFAR *)CYREG_PUMP_CR0, 0x44u);
 314:Generated_Source\PSoC5/cyfitter_cfg.c **** }
 315:Generated_Source\PSoC5/cyfitter_cfg.c **** 
ARM GAS  C:\Users\jebush2\AppData\Local\Temp\ccOaylHj.s 			page 7


 316:Generated_Source\PSoC5/cyfitter_cfg.c **** 
 317:Generated_Source\PSoC5/cyfitter_cfg.c **** /*******************************************************************************
 318:Generated_Source\PSoC5/cyfitter_cfg.c **** * Function Name: SetAnalogRoutingPumps
 319:Generated_Source\PSoC5/cyfitter_cfg.c **** ********************************************************************************
 320:Generated_Source\PSoC5/cyfitter_cfg.c **** *
 321:Generated_Source\PSoC5/cyfitter_cfg.c **** * Summary:
 322:Generated_Source\PSoC5/cyfitter_cfg.c **** * Enables or disables the analog pumps feeding analog routing switches.
 323:Generated_Source\PSoC5/cyfitter_cfg.c **** * Intended to be called at startup, based on the Vdda system configuration;
 324:Generated_Source\PSoC5/cyfitter_cfg.c **** * may be called during operation when the user informs us that the Vdda voltage
 325:Generated_Source\PSoC5/cyfitter_cfg.c **** * crossed the pump threshold.
 326:Generated_Source\PSoC5/cyfitter_cfg.c **** *
 327:Generated_Source\PSoC5/cyfitter_cfg.c **** * Parameters:
 328:Generated_Source\PSoC5/cyfitter_cfg.c **** *  enabled - 1 to enable the pumps, 0 to disable the pumps
 329:Generated_Source\PSoC5/cyfitter_cfg.c **** *
 330:Generated_Source\PSoC5/cyfitter_cfg.c **** * Return:
 331:Generated_Source\PSoC5/cyfitter_cfg.c **** *  void
 332:Generated_Source\PSoC5/cyfitter_cfg.c **** *
 333:Generated_Source\PSoC5/cyfitter_cfg.c **** *******************************************************************************/
 334:Generated_Source\PSoC5/cyfitter_cfg.c **** void SetAnalogRoutingPumps(uint8 enabled)
 335:Generated_Source\PSoC5/cyfitter_cfg.c **** {
  28              		.loc 1 335 0
  29              		.cfi_startproc
  30              		@ args = 0, pretend = 0, frame = 0
  31              		@ frame_needed = 0, uses_anonymous_args = 0
  32              		@ link register save eliminated.
  33              	.LVL0:
 336:Generated_Source\PSoC5/cyfitter_cfg.c **** 	uint8 regValue = CY_GET_XTND_REG8((void CYFAR *)CYREG_PUMP_CR0);
  34              		.loc 1 336 0
  35 0000 054A     		ldr	r2, .L5
  36 0002 1378     		ldrb	r3, [r2]	@ zero_extendqisi2
  37 0004 DBB2     		uxtb	r3, r3
  38              	.LVL1:
 337:Generated_Source\PSoC5/cyfitter_cfg.c **** 	if (enabled != 0u)
  39              		.loc 1 337 0
  40 0006 10B1     		cbz	r0, .L2
 338:Generated_Source\PSoC5/cyfitter_cfg.c **** 	{
 339:Generated_Source\PSoC5/cyfitter_cfg.c **** 		regValue |= 0x22u;
  41              		.loc 1 339 0
  42 0008 43F02203 		orr	r3, r3, #34
  43              	.LVL2:
  44 000c 01E0     		b	.L3
  45              	.L2:
 340:Generated_Source\PSoC5/cyfitter_cfg.c **** 	}
 341:Generated_Source\PSoC5/cyfitter_cfg.c **** 	else
 342:Generated_Source\PSoC5/cyfitter_cfg.c **** 	{
 343:Generated_Source\PSoC5/cyfitter_cfg.c **** 		regValue &= (uint8)~0x22u;
  46              		.loc 1 343 0
  47 000e 03F0DD03 		and	r3, r3, #221
  48              	.LVL3:
  49              	.L3:
 344:Generated_Source\PSoC5/cyfitter_cfg.c **** 	}
 345:Generated_Source\PSoC5/cyfitter_cfg.c **** 	CY_SET_XTND_REG8((void CYFAR *)CYREG_PUMP_CR0, regValue);
  50              		.loc 1 345 0
  51 0012 1370     		strb	r3, [r2]
  52 0014 7047     		bx	lr
  53              	.L6:
  54 0016 00BF     		.align	2
ARM GAS  C:\Users\jebush2\AppData\Local\Temp\ccOaylHj.s 			page 8


  55              	.L5:
  56 0018 76580040 		.word	1073764470
  57              		.cfi_endproc
  58              	.LFE7:
  59              		.size	SetAnalogRoutingPumps, .-SetAnalogRoutingPumps
  60              		.section	.text.cyfitter_cfg,"ax",%progbits
  61              		.align	1
  62              		.global	cyfitter_cfg
  63              		.thumb
  64              		.thumb_func
  65              		.type	cyfitter_cfg, %function
  66              	cyfitter_cfg:
  67              	.LFB8:
 346:Generated_Source\PSoC5/cyfitter_cfg.c **** }
 347:Generated_Source\PSoC5/cyfitter_cfg.c **** 
 348:Generated_Source\PSoC5/cyfitter_cfg.c **** 
 349:Generated_Source\PSoC5/cyfitter_cfg.c **** #define CY_AMUX_UNUSED CYREG_BOOST_SR
 350:Generated_Source\PSoC5/cyfitter_cfg.c **** 
 351:Generated_Source\PSoC5/cyfitter_cfg.c **** 
 352:Generated_Source\PSoC5/cyfitter_cfg.c **** /*******************************************************************************
 353:Generated_Source\PSoC5/cyfitter_cfg.c **** * Function Name: cyfitter_cfg
 354:Generated_Source\PSoC5/cyfitter_cfg.c **** ********************************************************************************
 355:Generated_Source\PSoC5/cyfitter_cfg.c **** * Summary:
 356:Generated_Source\PSoC5/cyfitter_cfg.c **** *  This function is called by the start-up code for the selected device. It
 357:Generated_Source\PSoC5/cyfitter_cfg.c **** *  performs all of the necessary device configuration based on the design
 358:Generated_Source\PSoC5/cyfitter_cfg.c **** *  settings.  This includes settings from the Design Wide Resources (DWR) such
 359:Generated_Source\PSoC5/cyfitter_cfg.c **** *  as Clocks and Pins as well as any component configuration that is necessary.
 360:Generated_Source\PSoC5/cyfitter_cfg.c **** *
 361:Generated_Source\PSoC5/cyfitter_cfg.c **** * Parameters:
 362:Generated_Source\PSoC5/cyfitter_cfg.c **** *   void
 363:Generated_Source\PSoC5/cyfitter_cfg.c **** *
 364:Generated_Source\PSoC5/cyfitter_cfg.c **** * Return:
 365:Generated_Source\PSoC5/cyfitter_cfg.c **** *   void
 366:Generated_Source\PSoC5/cyfitter_cfg.c **** *
 367:Generated_Source\PSoC5/cyfitter_cfg.c **** *******************************************************************************/
 368:Generated_Source\PSoC5/cyfitter_cfg.c **** 
 369:Generated_Source\PSoC5/cyfitter_cfg.c **** void cyfitter_cfg(void)
 370:Generated_Source\PSoC5/cyfitter_cfg.c **** {
  68              		.loc 1 370 0
  69              		.cfi_startproc
  70              		@ args = 0, pretend = 0, frame = 0
  71              		@ frame_needed = 0, uses_anonymous_args = 0
  72 0000 2DE9F041 		push	{r4, r5, r6, r7, r8, lr}
  73              		.cfi_def_cfa_offset 24
  74              		.cfi_offset 4, -24
  75              		.cfi_offset 5, -20
  76              		.cfi_offset 6, -16
  77              		.cfi_offset 7, -12
  78              		.cfi_offset 8, -8
  79              		.cfi_offset 14, -4
 371:Generated_Source\PSoC5/cyfitter_cfg.c **** #ifdef CYGlobalIntDisable
 372:Generated_Source\PSoC5/cyfitter_cfg.c **** 	/* Disable interrupts by default. Let user enable if/when they want. */
 373:Generated_Source\PSoC5/cyfitter_cfg.c **** 	CYGlobalIntDisable
  80              		.loc 1 373 0
  81              		.syntax unified
  82              	@ 373 "Generated_Source\PSoC5\cyfitter_cfg.c" 1
  83 0004 72B6     		CPSID   i
ARM GAS  C:\Users\jebush2\AppData\Local\Temp\ccOaylHj.s 			page 9


  84              	@ 0 "" 2
 374:Generated_Source\PSoC5/cyfitter_cfg.c **** #endif
 375:Generated_Source\PSoC5/cyfitter_cfg.c **** 
 376:Generated_Source\PSoC5/cyfitter_cfg.c **** 	/* Enable/Disable Debug functionality based on settings from System DWR */
 377:Generated_Source\PSoC5/cyfitter_cfg.c **** 	CY_SET_XTND_REG8((void CYFAR *)CYREG_MLOGIC_DEBUG, (CY_GET_XTND_REG8((void CYFAR *)CYREG_MLOGIC_DE
  85              		.loc 1 377 0
  86              		.thumb
  87              		.syntax unified
  88 0006 724A     		ldr	r2, .L22
  89              	.LBB44:
  90              	.LBB45:
 378:Generated_Source\PSoC5/cyfitter_cfg.c **** 
 379:Generated_Source\PSoC5/cyfitter_cfg.c **** 	{
 380:Generated_Source\PSoC5/cyfitter_cfg.c **** 
 381:Generated_Source\PSoC5/cyfitter_cfg.c **** 		CYPACKED typedef struct {
 382:Generated_Source\PSoC5/cyfitter_cfg.c **** 			void CYFAR *address;
 383:Generated_Source\PSoC5/cyfitter_cfg.c **** 			uint16 size;
 384:Generated_Source\PSoC5/cyfitter_cfg.c **** 		} CYPACKED_ATTR cfg_memset_t;
 385:Generated_Source\PSoC5/cyfitter_cfg.c **** 
 386:Generated_Source\PSoC5/cyfitter_cfg.c **** 		static const cfg_memset_t CYCODE cfg_memset_list[] = {
 387:Generated_Source\PSoC5/cyfitter_cfg.c **** 			/* address, size */
 388:Generated_Source\PSoC5/cyfitter_cfg.c **** 			{(void CYFAR *)(CYREG_TMR0_CFG0), 12u},
 389:Generated_Source\PSoC5/cyfitter_cfg.c **** 			{(void CYFAR *)(CYREG_PRT3_DR), 64u},
 390:Generated_Source\PSoC5/cyfitter_cfg.c **** 			{(void CYFAR *)(CYREG_PRT12_DR), 16u},
 391:Generated_Source\PSoC5/cyfitter_cfg.c **** 			{(void CYFAR *)(CYDEV_UCFG_B0_P0_U0_BASE), 4096u},
 392:Generated_Source\PSoC5/cyfitter_cfg.c **** 			{(void CYFAR *)(CYDEV_UCFG_B1_P2_U0_BASE), 2048u},
 393:Generated_Source\PSoC5/cyfitter_cfg.c **** 			{(void CYFAR *)(CYDEV_UCFG_DSI0_BASE), 2560u},
 394:Generated_Source\PSoC5/cyfitter_cfg.c **** 			{(void CYFAR *)(CYDEV_UCFG_DSI12_BASE), 512u},
 395:Generated_Source\PSoC5/cyfitter_cfg.c **** 			{(void CYFAR *)(CYREG_BCTL0_MDCLK_EN), 32u},
 396:Generated_Source\PSoC5/cyfitter_cfg.c **** 		};
 397:Generated_Source\PSoC5/cyfitter_cfg.c **** 
 398:Generated_Source\PSoC5/cyfitter_cfg.c **** 		uint8 CYDATA i;
 399:Generated_Source\PSoC5/cyfitter_cfg.c **** 
 400:Generated_Source\PSoC5/cyfitter_cfg.c **** 		/* Zero out critical memory blocks before beginning configuration */
 401:Generated_Source\PSoC5/cyfitter_cfg.c **** 		for (i = 0u; i < (sizeof(cfg_memset_list)/sizeof(cfg_memset_list[0])); i++)
 402:Generated_Source\PSoC5/cyfitter_cfg.c **** 		{
 403:Generated_Source\PSoC5/cyfitter_cfg.c **** 			const cfg_memset_t CYCODE * CYDATA ms = &cfg_memset_list[i];
 404:Generated_Source\PSoC5/cyfitter_cfg.c **** 			CYMEMZERO(ms->address, (size_t)(uint32)(ms->size));
  91              		.loc 1 404 0
  92 0008 724D     		ldr	r5, .L22+4
  93              	.LBE45:
  94              	.LBE44:
 377:Generated_Source\PSoC5/cyfitter_cfg.c **** 
  95              		.loc 1 377 0
  96 000a 1378     		ldrb	r3, [r2]	@ zero_extendqisi2
  97 000c 0024     		movs	r4, #0
  98 000e 43F00403 		orr	r3, r3, #4
  99 0012 1370     		strb	r3, [r2]
 100              	.LVL4:
 101              	.LBB60:
 102              	.LBB48:
 103              		.loc 1 404 0
 104 0014 0626     		movs	r6, #6
 105              	.LVL5:
 106              	.L8:
 107              		.loc 1 404 0 is_stmt 0 discriminator 3
 108 0016 06FB0453 		mla	r3, r6, r4, r5
ARM GAS  C:\Users\jebush2\AppData\Local\Temp\ccOaylHj.s 			page 10


 109              	.LBB46:
 110              	.LBB47:
  79:Generated_Source\PSoC5/cyfitter_cfg.c **** }
 111              		.loc 1 79 0 is_stmt 1 discriminator 3
 112 001a 0021     		movs	r1, #0
 113 001c 9A88     		ldrh	r2, [r3, #4]	@ unaligned
 114 001e 1868     		ldr	r0, [r3]	@ unaligned
 115 0020 0134     		adds	r4, r4, #1
 116              	.LVL6:
 117 0022 FFF7FEFF 		bl	memset
 118              	.LVL7:
 119              	.LBE47:
 120              	.LBE46:
 121              	.LBE48:
 401:Generated_Source\PSoC5/cyfitter_cfg.c **** 		{
 122              		.loc 1 401 0 discriminator 3
 123 0026 082C     		cmp	r4, #8
 124 0028 F5D1     		bne	.L8
 125 002a 6B48     		ldr	r0, .L22+8
 126              	.LBB49:
 127              	.LBB50:
 196:Generated_Source\PSoC5/cyfitter_cfg.c **** 	{
 128              		.loc 1 196 0
 129 002c 6B4D     		ldr	r5, .L22+12
 130              	.LBE50:
 131              	.LBE49:
 132 002e 0024     		movs	r4, #0
 133              	.LVL8:
 134              	.L11:
 135              	.LBB53:
 136              	.LBB52:
 137              	.LBB51:
 198:Generated_Source\PSoC5/cyfitter_cfg.c **** 		uint8 count = (uint8)baseAddr;
 138              		.loc 1 198 0
 139 0030 50F8041F 		ldr	r1, [r0, #4]!
 140              	.LVL9:
 141 0034 04F11053 		add	r3, r4, #603979776
 142 0038 03F14402 		add	r2, r3, #68
 200:Generated_Source\PSoC5/cyfitter_cfg.c **** 		while (count != 0u)
 143              		.loc 1 200 0
 144 003c 21F0FF06 		bic	r6, r1, #255
 145              	.LVL10:
 146 0040 4533     		adds	r3, r3, #69
 147 0042 C9B2     		uxtb	r1, r1
 148 0044 0B44     		add	r3, r3, r1
 149 0046 5200     		lsls	r2, r2, #1
 150 0048 5B00     		lsls	r3, r3, #1
 151              	.LVL11:
 152              	.L9:
 153 004a 0232     		adds	r2, r2, #2
 201:Generated_Source\PSoC5/cyfitter_cfg.c **** 		{
 154              		.loc 1 201 0
 155 004c 9A42     		cmp	r2, r3
 156 004e 06D0     		beq	.L21
 203:Generated_Source\PSoC5/cyfitter_cfg.c **** 			j++;
 157              		.loc 1 203 0
 158 0050 12F8027C 		ldrb	r7, [r2, #-2]	@ zero_extendqisi2
ARM GAS  C:\Users\jebush2\AppData\Local\Temp\ccOaylHj.s 			page 11


 159 0054 12F801EC 		ldrb	lr, [r2, #-1]	@ zero_extendqisi2
 160 0058 07F806E0 		strb	lr, [r7, r6]
 161 005c F5E7     		b	.L9
 162              	.L21:
 163              	.LBE51:
 196:Generated_Source\PSoC5/cyfitter_cfg.c **** 	{
 164              		.loc 1 196 0
 165 005e A842     		cmp	r0, r5
 166 0060 0C44     		add	r4, r4, r1
 167              	.LVL12:
 168 0062 E5D1     		bne	.L11
 169              	.LVL13:
 170              	.LBE52:
 171              	.LBE53:
 172              	.LBB54:
 173              	.LBB55:
  79:Generated_Source\PSoC5/cyfitter_cfg.c **** }
 174              		.loc 1 79 0
 175 0064 5E4B     		ldr	r3, .L22+16
 176 0066 0025     		movs	r5, #0
 177 0068 1D60     		str	r5, [r3]
 178              	.LVL14:
 179 006a 5E4B     		ldr	r3, .L22+20
 180              	.LBE55:
 181              	.LBE54:
 405:Generated_Source\PSoC5/cyfitter_cfg.c **** 		}
 406:Generated_Source\PSoC5/cyfitter_cfg.c **** 
 407:Generated_Source\PSoC5/cyfitter_cfg.c **** 		cfg_write_bytes32(cy_cfg_addr_table, cy_cfg_data_table);
 408:Generated_Source\PSoC5/cyfitter_cfg.c **** 
 409:Generated_Source\PSoC5/cyfitter_cfg.c **** 		/* Perform normal device configuration. Order is not critical for these items. */
 410:Generated_Source\PSoC5/cyfitter_cfg.c **** 		CYMEMZERO((void CYFAR *)(CYREG_PHUB_CFGMEM0_CFG0), 4u);
 411:Generated_Source\PSoC5/cyfitter_cfg.c **** 		CYCONFIGCPY((void CYFAR *)(CYREG_PHUB_CFGMEM1_CFG0), (const void CYFAR *)(BS_PHUB_CFGMEM1_VAL), 4
 412:Generated_Source\PSoC5/cyfitter_cfg.c **** 
 413:Generated_Source\PSoC5/cyfitter_cfg.c **** 		/* Enable digital routing */
 414:Generated_Source\PSoC5/cyfitter_cfg.c **** 		CY_SET_XTND_REG8((void CYFAR *)CYREG_BCTL0_BANK_CTL, CY_GET_XTND_REG8((void CYFAR *)CYREG_BCTL0_B
 415:Generated_Source\PSoC5/cyfitter_cfg.c **** 		CY_SET_XTND_REG8((void CYFAR *)CYREG_BCTL1_BANK_CTL, CY_GET_XTND_REG8((void CYFAR *)CYREG_BCTL1_B
 416:Generated_Source\PSoC5/cyfitter_cfg.c **** 
 417:Generated_Source\PSoC5/cyfitter_cfg.c **** 		/* Enable UDB array */
 418:Generated_Source\PSoC5/cyfitter_cfg.c **** 		CY_SET_XTND_REG8((void CYFAR *)CYREG_PM_ACT_CFG0, CY_GET_XTND_REG8((void CYFAR *)CYREG_PM_ACT_CFG
 182              		.loc 1 418 0
 183 006c 5E4C     		ldr	r4, .L22+24
 184 006e 1A68     		ldr	r2, [r3]
 185              	.LBB56:
 186              	.LBB57:
  86:Generated_Source\PSoC5/cyfitter_cfg.c **** }
 187              		.loc 1 86 0
 188 0070 5E4B     		ldr	r3, .L22+28
 189              	.LBE57:
 190              	.LBE56:
 191              	.LBE60:
 192              	.LBB61:
 193              	.LBB62:
 194 0072 5F4E     		ldr	r6, .L22+32
 195              	.LBE62:
 196              	.LBE61:
 197              	.LBB64:
 198              	.LBB59:
ARM GAS  C:\Users\jebush2\AppData\Local\Temp\ccOaylHj.s 			page 12


 199              	.LBB58:
 200 0074 1A60     		str	r2, [r3]
 201              	.LVL15:
 202              	.LBE58:
 203              	.LBE59:
 414:Generated_Source\PSoC5/cyfitter_cfg.c **** 		CY_SET_XTND_REG8((void CYFAR *)CYREG_BCTL1_BANK_CTL, CY_GET_XTND_REG8((void CYFAR *)CYREG_BCTL1_B
 204              		.loc 1 414 0
 205 0076 5F4A     		ldr	r2, .L22+36
 206              	.LBE64:
 207              	.LBB65:
 208              	.LBB66:
 253:Generated_Source\PSoC5/cyfitter_cfg.c **** 		CyDelayCycles(10u * 48u); /* Delay 10us based on 48MHz clock */
 209              		.loc 1 253 0
 210 0078 5F4F     		ldr	r7, .L22+40
 211              	.LBE66:
 212              	.LBE65:
 213              	.LBB71:
 414:Generated_Source\PSoC5/cyfitter_cfg.c **** 		CY_SET_XTND_REG8((void CYFAR *)CYREG_BCTL1_BANK_CTL, CY_GET_XTND_REG8((void CYFAR *)CYREG_BCTL1_B
 214              		.loc 1 414 0
 215 007a 1378     		ldrb	r3, [r2]	@ zero_extendqisi2
 216 007c 43F00203 		orr	r3, r3, #2
 217 0080 1370     		strb	r3, [r2]
 415:Generated_Source\PSoC5/cyfitter_cfg.c **** 
 218              		.loc 1 415 0
 219 0082 137C     		ldrb	r3, [r2, #16]	@ zero_extendqisi2
 220 0084 43F00203 		orr	r3, r3, #2
 221 0088 1374     		strb	r3, [r2, #16]
 222              		.loc 1 418 0
 223 008a 2378     		ldrb	r3, [r4]	@ zero_extendqisi2
 419:Generated_Source\PSoC5/cyfitter_cfg.c **** 		CY_SET_XTND_REG8((void CYFAR *)CYREG_PM_AVAIL_CR2, CY_GET_XTND_REG8((void CYFAR *)CYREG_PM_AVAIL_
 224              		.loc 1 419 0
 225 008c A2F58632 		sub	r2, r2, #68608
 418:Generated_Source\PSoC5/cyfitter_cfg.c **** 		CY_SET_XTND_REG8((void CYFAR *)CYREG_PM_AVAIL_CR2, CY_GET_XTND_REG8((void CYFAR *)CYREG_PM_AVAIL_
 226              		.loc 1 418 0
 227 0090 43F04003 		orr	r3, r3, #64
 228 0094 2370     		strb	r3, [r4]
 229              		.loc 1 419 0
 230 0096 413A     		subs	r2, r2, #65
 231 0098 1378     		ldrb	r3, [r2]	@ zero_extendqisi2
 232 009a 43F01003 		orr	r3, r3, #16
 233 009e 1370     		strb	r3, [r2]
 234              	.LVL16:
 235              	.LBE71:
 236              	.LBB72:
 237              	.LBB73:
  86:Generated_Source\PSoC5/cyfitter_cfg.c **** }
 238              		.loc 1 86 0
 239 00a0 564B     		ldr	r3, .L22+44
 240 00a2 03CB     		ldmia	r3!, {r0, r1}
 241 00a4 C2F8400D 		str	r0, [r2, #3392]	@ unaligned
 242 00a8 C2F8441D 		str	r1, [r2, #3396]	@ unaligned
 243              	.LVL17:
 244              	.LBE73:
 245              	.LBE72:
 246              	.LBB74:
 247              	.LBB63:
 248 00ac 93E80700 		ldmia	r3, {r0, r1, r2}
ARM GAS  C:\Users\jebush2\AppData\Local\Temp\ccOaylHj.s 			page 13


 249 00b0 03C6     		stmia	r6!, {r0, r1}
 250 00b2 3280     		strh	r2, [r6]	@ movhi
 251              	.LVL18:
 252              	.LBE63:
 253              	.LBE74:
 254              	.LBB75:
 255              	.LBB76:
 256 00b4 524A     		ldr	r2, .L22+48
 257 00b6 0C33     		adds	r3, r3, #12
 258 00b8 03CB     		ldmia	r3!, {r0, r1}
 259 00ba 1060     		str	r0, [r2]	@ unaligned
 260 00bc 5160     		str	r1, [r2, #4]	@ unaligned
 261              	.LVL19:
 262              	.LBE76:
 263              	.LBE75:
 264              	.LBB77:
 265              	.LBB78:
 266 00be 03CB     		ldmia	r3!, {r0, r1}
 267              	.LBE78:
 268              	.LBE77:
 420:Generated_Source\PSoC5/cyfitter_cfg.c **** 	}
 421:Generated_Source\PSoC5/cyfitter_cfg.c **** 
 422:Generated_Source\PSoC5/cyfitter_cfg.c **** 
 423:Generated_Source\PSoC5/cyfitter_cfg.c **** 	/* Perform second pass device configuration. These items must be configured in specific order afte
 424:Generated_Source\PSoC5/cyfitter_cfg.c **** 	CYCONFIGCPY((void CYFAR *)(CYREG_PRT0_DM0), (const void CYFAR *)(BS_IOPINS0_0_VAL), 8u);
 425:Generated_Source\PSoC5/cyfitter_cfg.c **** 	CYCONFIGCPY((void CYFAR *)(CYREG_PRT15_DR), (const void CYFAR *)(BS_IOPINS0_8_VAL), 10u);
 426:Generated_Source\PSoC5/cyfitter_cfg.c **** 	CYCONFIGCPY((void CYFAR *)(CYREG_PRT1_DM0), (const void CYFAR *)(BS_IOPINS0_1_VAL), 8u);
 427:Generated_Source\PSoC5/cyfitter_cfg.c **** 	CYCONFIGCPY((void CYFAR *)(CYREG_PRT2_DM0), (const void CYFAR *)(BS_IOPINS0_2_VAL), 8u);
 428:Generated_Source\PSoC5/cyfitter_cfg.c **** 	/* Switch Boost to the precision bandgap reference from its internal reference */
 429:Generated_Source\PSoC5/cyfitter_cfg.c **** 	CY_SET_REG8((void CYXDATA *)CYREG_BOOST_CR2, (CY_GET_REG8((void CYXDATA *)CYREG_BOOST_CR2) | 0x08u
 269              		.loc 1 429 0
 270 00c0 A2F55F62 		sub	r2, r2, #3568
 271              	.LBB80:
 272              	.LBB79:
  86:Generated_Source\PSoC5/cyfitter_cfg.c **** }
 273              		.loc 1 86 0
 274 00c4 C2F8000E 		str	r0, [r2, #3584]	@ unaligned
 275 00c8 C2F8041E 		str	r1, [r2, #3588]	@ unaligned
 276              	.LVL20:
 277              	.LBE79:
 278              	.LBE80:
 279              		.loc 1 429 0
 280 00cc 1378     		ldrb	r3, [r2]	@ zero_extendqisi2
 281              	.LBB81:
 282              	.LBB67:
 237:Generated_Source\PSoC5/cyfitter_cfg.c **** 
 283              		.loc 1 237 0
 284 00ce 1926     		movs	r6, #25
 285              	.LBE67:
 286              	.LBE81:
 287              		.loc 1 429 0
 288 00d0 43F00803 		orr	r3, r3, #8
 289 00d4 1370     		strb	r3, [r2]
 430:Generated_Source\PSoC5/cyfitter_cfg.c **** 
 431:Generated_Source\PSoC5/cyfitter_cfg.c **** 	/* Set Flash Cycles based on max possible frequency in case a glitch occurs during ClockSetup(). *
 432:Generated_Source\PSoC5/cyfitter_cfg.c **** 	CY_SET_XTND_REG8((void CYFAR *)(CYREG_CACHE_CC_CTL), (((CYDEV_INSTRUCT_CACHE_ENABLED) != 0) ? 0x61
 290              		.loc 1 432 0
ARM GAS  C:\Users\jebush2\AppData\Local\Temp\ccOaylHj.s 			page 14


 291 00d6 4B4B     		ldr	r3, .L22+52
 292 00d8 6122     		movs	r2, #97
 293 00da 1A70     		strb	r2, [r3]
 294              	.LBB82:
 295              	.LBB68:
 234:Generated_Source\PSoC5/cyfitter_cfg.c **** 	CY_SET_XTND_REG8((void CYFAR *)(CYREG_CLKDIST_DCFG0_CFG0 + 0x2u), 0x18u);
 296              		.loc 1 234 0
 297 00dc A3F5F063 		sub	r3, r3, #1920
 298 00e0 1D22     		movs	r2, #29
 299 00e2 1A80     		strh	r2, [r3]	@ movhi
 235:Generated_Source\PSoC5/cyfitter_cfg.c **** 	CY_SET_XTND_REG16((void CYFAR *)(CYREG_CLKDIST_DCFG1_CFG0), 0x5DBFu);
 300              		.loc 1 235 0
 301 00e4 1822     		movs	r2, #24
 302 00e6 9A70     		strb	r2, [r3, #2]
 236:Generated_Source\PSoC5/cyfitter_cfg.c **** 	CY_SET_XTND_REG8((void CYFAR *)(CYREG_CLKDIST_DCFG1_CFG0 + 0x2u), 0x19u);
 303              		.loc 1 236 0
 304 00e8 45F6BF52 		movw	r2, #23999
 305 00ec 9A80     		strh	r2, [r3, #4]	@ movhi
 240:Generated_Source\PSoC5/cyfitter_cfg.c **** 
 306              		.loc 1 240 0
 307 00ee 0622     		movs	r2, #6
 237:Generated_Source\PSoC5/cyfitter_cfg.c **** 
 308              		.loc 1 237 0
 309 00f0 9E71     		strb	r6, [r3, #6]
 240:Generated_Source\PSoC5/cyfitter_cfg.c **** 
 310              		.loc 1 240 0
 311 00f2 83F88022 		strb	r2, [r3, #640]
 243:Generated_Source\PSoC5/cyfitter_cfg.c **** 	CY_SET_XTND_REG8((void CYFAR *)(CYREG_IMO_TR1), (CY_GET_XTND_REG8((void CYFAR *)CYREG_FLSHID_CUST_
 312              		.loc 1 243 0
 313 00f6 5222     		movs	r2, #82
 314 00f8 03F5C073 		add	r3, r3, #384
 315 00fc 1A70     		strb	r2, [r3]
 244:Generated_Source\PSoC5/cyfitter_cfg.c **** 
 316              		.loc 1 244 0
 317 00fe 424B     		ldr	r3, .L22+56
 318 0100 424A     		ldr	r2, .L22+60
 319 0102 1B78     		ldrb	r3, [r3]	@ zero_extendqisi2
 320 0104 DBB2     		uxtb	r3, r3
 321 0106 1370     		strb	r3, [r2]
 247:Generated_Source\PSoC5/cyfitter_cfg.c **** 	CY_SET_XTND_REG16((void CYFAR *)(CYREG_FASTCLK_PLL_CFG0), 0x1251u);
 322              		.loc 1 247 0
 323 0108 414B     		ldr	r3, .L22+64
 324 010a 4FF4E262 		mov	r2, #1808
 325 010e 1A80     		strh	r2, [r3]	@ movhi
 248:Generated_Source\PSoC5/cyfitter_cfg.c **** 	/* Wait up to 250us for the PLL to lock */
 326              		.loc 1 248 0
 327 0110 41F25122 		movw	r2, #4689
 328 0114 23F8022C 		strh	r2, [r3, #-2]	@ movhi
 329              	.LVL21:
 330              	.L13:
 253:Generated_Source\PSoC5/cyfitter_cfg.c **** 		CyDelayCycles(10u * 48u); /* Delay 10us based on 48MHz clock */
 331              		.loc 1 253 0
 332 0118 3B78     		ldrb	r3, [r7]	@ zero_extendqisi2
 254:Generated_Source\PSoC5/cyfitter_cfg.c **** 	}
 333              		.loc 1 254 0
 334 011a 4FF4F070 		mov	r0, #480
 253:Generated_Source\PSoC5/cyfitter_cfg.c **** 		CyDelayCycles(10u * 48u); /* Delay 10us based on 48MHz clock */
ARM GAS  C:\Users\jebush2\AppData\Local\Temp\ccOaylHj.s 			page 15


 335              		.loc 1 253 0
 336 011e 03F00103 		and	r3, r3, #1
 337 0122 43EA4505 		orr	r5, r3, r5, lsl #1
 338              	.LVL22:
 254:Generated_Source\PSoC5/cyfitter_cfg.c **** 	}
 339              		.loc 1 254 0
 340 0126 FFF7FEFF 		bl	CyDelayCycles
 341              	.LVL23:
 251:Generated_Source\PSoC5/cyfitter_cfg.c **** 	{ 
 342              		.loc 1 251 0
 343 012a 013E     		subs	r6, r6, #1
 344              	.LVL24:
 253:Generated_Source\PSoC5/cyfitter_cfg.c **** 		CyDelayCycles(10u * 48u); /* Delay 10us based on 48MHz clock */
 345              		.loc 1 253 0
 346 012c 05F00305 		and	r5, r5, #3
 347              	.LVL25:
 251:Generated_Source\PSoC5/cyfitter_cfg.c **** 	{ 
 348              		.loc 1 251 0
 349 0130 4DD0     		beq	.L12
 350              	.LVL26:
 351 0132 032D     		cmp	r5, #3
 352 0134 F0D1     		bne	.L13
 263:Generated_Source\PSoC5/cyfitter_cfg.c **** 	CY_SET_XTND_REG8((void CYFAR *)(CYREG_CLKDIST_MSTR0), 0x07u);
 353              		.loc 1 263 0
 354 0136 374A     		ldr	r2, .L22+68
 355 0138 4FF48073 		mov	r3, #256
 356 013c 1380     		strh	r3, [r2]	@ movhi
 265:Generated_Source\PSoC5/cyfitter_cfg.c **** 	CY_SET_XTND_REG8((void CYFAR *)(CYREG_CLKDIST_BCFG2), 0x48u);
 357              		.loc 1 265 0
 358 013e 3649     		ldr	r1, .L22+72
 264:Generated_Source\PSoC5/cyfitter_cfg.c **** 	CY_SET_XTND_REG8((void CYFAR *)(CYREG_CLKDIST_BCFG0), 0x00u);
 359              		.loc 1 264 0
 360 0140 0723     		movs	r3, #7
 361 0142 1370     		strb	r3, [r2]
 266:Generated_Source\PSoC5/cyfitter_cfg.c **** 	CY_SET_XTND_REG8((void CYFAR *)(CYREG_CLKDIST_MSTR0), 0x00u);
 362              		.loc 1 266 0
 363 0144 4820     		movs	r0, #72
 265:Generated_Source\PSoC5/cyfitter_cfg.c **** 	CY_SET_XTND_REG8((void CYFAR *)(CYREG_CLKDIST_BCFG2), 0x48u);
 364              		.loc 1 265 0
 365 0146 0023     		movs	r3, #0
 366 0148 0B70     		strb	r3, [r1]
 266:Generated_Source\PSoC5/cyfitter_cfg.c **** 	CY_SET_XTND_REG8((void CYFAR *)(CYREG_CLKDIST_MSTR0), 0x00u);
 367              		.loc 1 266 0
 368 014a 8870     		strb	r0, [r1, #2]
 267:Generated_Source\PSoC5/cyfitter_cfg.c **** 
 369              		.loc 1 267 0
 370 014c 1370     		strb	r3, [r2]
 270:Generated_Source\PSoC5/cyfitter_cfg.c **** 	CY_SET_XTND_REG8((void CYFAR *)(CYREG_CLKDIST_LD), 0x02u);
 371              		.loc 1 270 0
 372 014e 5371     		strb	r3, [r2, #5]
 271:Generated_Source\PSoC5/cyfitter_cfg.c **** 
 373              		.loc 1 271 0
 374 0150 324B     		ldr	r3, .L22+76
 375 0152 0222     		movs	r2, #2
 376 0154 1A70     		strb	r2, [r3]
 273:Generated_Source\PSoC5/cyfitter_cfg.c **** }
 377              		.loc 1 273 0
ARM GAS  C:\Users\jebush2\AppData\Local\Temp\ccOaylHj.s 			page 16


 378 0156 324A     		ldr	r2, .L22+80
 379              	.LBE68:
 380              	.LBE82:
 381              	.LBB83:
 382              	.LBB84:
 299:Generated_Source\PSoC5/cyfitter_cfg.c **** 	uint8 cr5 = CY_GET_XTND_REG8((void CYFAR *)(CYREG_RESET_CR5));
 383              		.loc 1 299 0
 384 0158 324F     		ldr	r7, .L22+84
 385              	.LBE84:
 386              	.LBE83:
 387              	.LBB88:
 388              	.LBB69:
 273:Generated_Source\PSoC5/cyfitter_cfg.c **** }
 389              		.loc 1 273 0
 390 015a 1378     		ldrb	r3, [r2]	@ zero_extendqisi2
 391              	.LBE69:
 392              	.LBE88:
 393              	.LBB89:
 394              	.LBB85:
 300:Generated_Source\PSoC5/cyfitter_cfg.c **** 	CY_SET_XTND_REG8((void CYFAR *)(CYREG_BG_DFT0), (bg_xover_inl_trim & 0x07u));
 395              		.loc 1 300 0
 396 015c DFF8DC80 		ldr	r8, .L22+108
 397              	.LBE85:
 398              	.LBE89:
 399              	.LBB90:
 400              	.LBB70:
 273:Generated_Source\PSoC5/cyfitter_cfg.c **** }
 401              		.loc 1 273 0
 402 0160 43F00303 		orr	r3, r3, #3
 403 0164 1370     		strb	r3, [r2]
 404              	.LVL27:
 405              	.LBE70:
 406              	.LBE90:
 433:Generated_Source\PSoC5/cyfitter_cfg.c **** 	/* Setup clocks based on selections from Clock DWR */
 434:Generated_Source\PSoC5/cyfitter_cfg.c **** 	ClockSetup();
 435:Generated_Source\PSoC5/cyfitter_cfg.c **** 	/* Set Flash Cycles based on newly configured 48.00MHz Bus Clock. */
 436:Generated_Source\PSoC5/cyfitter_cfg.c **** 	CY_SET_XTND_REG8((void CYFAR *)(CYREG_CACHE_CC_CTL), (((CYDEV_INSTRUCT_CACHE_ENABLED) != 0) ? 0xC1
 407              		.loc 1 436 0
 408 0166 274B     		ldr	r3, .L22+52
 409 0168 C122     		movs	r2, #193
 410 016a 1A70     		strb	r2, [r3]
 411              	.LBB91:
 412              	.LBB86:
 298:Generated_Source\PSoC5/cyfitter_cfg.c **** 	uint8 cr4 = CY_GET_XTND_REG8((void CYFAR *)(CYREG_RESET_CR4));
 413              		.loc 1 298 0
 414 016c 2E4B     		ldr	r3, .L22+88
 301:Generated_Source\PSoC5/cyfitter_cfg.c **** 	CY_SET_XTND_REG8((void CYFAR *)(CYREG_BG_DFT1), ((bg_xover_inl_trim >> 4) & 0x0Fu));
 415              		.loc 1 301 0
 416 016e 2F4A     		ldr	r2, .L22+92
 298:Generated_Source\PSoC5/cyfitter_cfg.c **** 	uint8 cr4 = CY_GET_XTND_REG8((void CYFAR *)(CYREG_RESET_CR4));
 417              		.loc 1 298 0
 418 0170 1B78     		ldrb	r3, [r3]	@ zero_extendqisi2
 299:Generated_Source\PSoC5/cyfitter_cfg.c **** 	uint8 cr5 = CY_GET_XTND_REG8((void CYFAR *)(CYREG_RESET_CR5));
 419              		.loc 1 299 0
 420 0172 3D78     		ldrb	r5, [r7]	@ zero_extendqisi2
 298:Generated_Source\PSoC5/cyfitter_cfg.c **** 	uint8 cr4 = CY_GET_XTND_REG8((void CYFAR *)(CYREG_RESET_CR4));
 421              		.loc 1 298 0
ARM GAS  C:\Users\jebush2\AppData\Local\Temp\ccOaylHj.s 			page 17


 422 0174 DBB2     		uxtb	r3, r3
 423              	.LVL28:
 300:Generated_Source\PSoC5/cyfitter_cfg.c **** 	CY_SET_XTND_REG8((void CYFAR *)(CYREG_BG_DFT0), (bg_xover_inl_trim & 0x07u));
 424              		.loc 1 300 0
 425 0176 98F80060 		ldrb	r6, [r8]	@ zero_extendqisi2
 301:Generated_Source\PSoC5/cyfitter_cfg.c **** 	CY_SET_XTND_REG8((void CYFAR *)(CYREG_BG_DFT1), ((bg_xover_inl_trim >> 4) & 0x0Fu));
 426              		.loc 1 301 0
 427 017a 03F00701 		and	r1, r3, #7
 299:Generated_Source\PSoC5/cyfitter_cfg.c **** 	uint8 cr5 = CY_GET_XTND_REG8((void CYFAR *)(CYREG_RESET_CR5));
 428              		.loc 1 299 0
 429 017e EDB2     		uxtb	r5, r5
 430              	.LVL29:
 302:Generated_Source\PSoC5/cyfitter_cfg.c **** 	/* Disable PRES while setting up SAR voltage reference */
 431              		.loc 1 302 0
 432 0180 1B09     		lsrs	r3, r3, #4
 433              	.LVL30:
 301:Generated_Source\PSoC5/cyfitter_cfg.c **** 	CY_SET_XTND_REG8((void CYFAR *)(CYREG_BG_DFT1), ((bg_xover_inl_trim >> 4) & 0x0Fu));
 434              		.loc 1 301 0
 435 0182 1170     		strb	r1, [r2]
 300:Generated_Source\PSoC5/cyfitter_cfg.c **** 	CY_SET_XTND_REG8((void CYFAR *)(CYREG_BG_DFT0), (bg_xover_inl_trim & 0x07u));
 436              		.loc 1 300 0
 437 0184 F6B2     		uxtb	r6, r6
 438              	.LVL31:
 302:Generated_Source\PSoC5/cyfitter_cfg.c **** 	/* Disable PRES while setting up SAR voltage reference */
 439              		.loc 1 302 0
 440 0186 5370     		strb	r3, [r2, #1]
 304:Generated_Source\PSoC5/cyfitter_cfg.c **** 	CY_SET_XTND_REG8((void CYFAR *)(CYREG_RESET_CR5), (cr5 | 0x03u));
 441              		.loc 1 304 0
 442 0188 45F00303 		orr	r3, r5, #3
 443 018c 3B70     		strb	r3, [r7]
 305:Generated_Source\PSoC5/cyfitter_cfg.c **** 	CY_SET_XTND_REG8((void CYFAR *)CYREG_PRT0_AG, 0x3Fu);
 444              		.loc 1 305 0
 445 018e 46F00303 		orr	r3, r6, #3
 446 0192 88F80030 		strb	r3, [r8]
 306:Generated_Source\PSoC5/cyfitter_cfg.c **** 	CY_SET_XTND_REG8((void CYFAR *)CYREG_SAR0_CSR1, 0x80u);
 447              		.loc 1 306 0
 448 0196 264B     		ldr	r3, .L22+96
 449 0198 3F22     		movs	r2, #63
 450 019a 1A70     		strb	r2, [r3]
 307:Generated_Source\PSoC5/cyfitter_cfg.c **** 	CY_SET_XTND_REG8((void CYFAR *)CYREG_SAR0_SW0, 0xA0u);
 451              		.loc 1 307 0
 452 019c 8022     		movs	r2, #128
 453 019e 83F8F427 		strb	r2, [r3, #2036]
 308:Generated_Source\PSoC5/cyfitter_cfg.c **** 	CY_SET_XTND_REG8((void CYFAR *)CYREG_SAR0_SW4, 0x50u);
 454              		.loc 1 308 0
 455 01a2 A022     		movs	r2, #160
 456 01a4 83F8132A 		strb	r2, [r3, #2579]
 309:Generated_Source\PSoC5/cyfitter_cfg.c **** 	CyDelayUs(10u); /* Allow vref to settle before re-enabling PRES */
 457              		.loc 1 309 0
 458 01a8 5022     		movs	r2, #80
 459 01aa 83F8172A 		strb	r2, [r3, #2583]
 310:Generated_Source\PSoC5/cyfitter_cfg.c **** 	CY_SET_XTND_REG8((void CYFAR *)(CYREG_RESET_CR5), (cr5));
 460              		.loc 1 310 0
 461 01ae 0A20     		movs	r0, #10
 462 01b0 FFF7FEFF 		bl	CyDelayUs
 463              	.LVL32:
 313:Generated_Source\PSoC5/cyfitter_cfg.c **** }
ARM GAS  C:\Users\jebush2\AppData\Local\Temp\ccOaylHj.s 			page 18


 464              		.loc 1 313 0
 465 01b4 1F4B     		ldr	r3, .L22+100
 311:Generated_Source\PSoC5/cyfitter_cfg.c **** 	CY_SET_XTND_REG8((void CYFAR *)(CYREG_RESET_CR4), (cr4));
 466              		.loc 1 311 0
 467 01b6 88F80060 		strb	r6, [r8]
 313:Generated_Source\PSoC5/cyfitter_cfg.c **** }
 468              		.loc 1 313 0
 469 01ba 4422     		movs	r2, #68
 312:Generated_Source\PSoC5/cyfitter_cfg.c **** 	CY_SET_XTND_REG8((void CYFAR *)CYREG_PUMP_CR0, 0x44u);
 470              		.loc 1 312 0
 471 01bc 3D70     		strb	r5, [r7]
 472              	.LBE86:
 473              	.LBE91:
 474              	.LBB92:
 475              	.LBB93:
  86:Generated_Source\PSoC5/cyfitter_cfg.c **** }
 476              		.loc 1 86 0
 477 01be 1E4D     		ldr	r5, .L22+104
 478              	.LVL33:
 479              	.LBE93:
 480              	.LBE92:
 481              	.LBB95:
 482              	.LBB87:
 313:Generated_Source\PSoC5/cyfitter_cfg.c **** }
 483              		.loc 1 313 0
 484 01c0 1A70     		strb	r2, [r3]
 485              	.LVL34:
 486              	.LBE87:
 487              	.LBE95:
 488              	.LBB96:
 489              	.LBB94:
  86:Generated_Source\PSoC5/cyfitter_cfg.c **** }
 490              		.loc 1 86 0
 491 01c2 94E80F00 		ldmia	r4, {r0, r1, r2, r3}
 492 01c6 07C5     		stmia	r5!, {r0, r1, r2}
 493 01c8 2B80     		strh	r3, [r5]	@ movhi
 494              	.LVL35:
 495 01ca BDE8F081 		pop	{r4, r5, r6, r7, r8, pc}
 496              	.LVL36:
 497              	.L12:
 498 01ce FEE7     		b	.L12
 499              	.L23:
 500              		.align	2
 501              	.L22:
 502 01d0 E8460040 		.word	1073759976
 503 01d4 00000000 		.word	.LANCHOR0
 504 01d8 FCFFFF47 		.word	1207959548
 505 01dc 84000048 		.word	1207959684
 506 01e0 00760040 		.word	1073772032
 507 01e4 F4030048 		.word	1207960564
 508 01e8 A0430040 		.word	1073759136
 509 01ec 08760040 		.word	1073772040
 510 01f0 F0510040 		.word	1073762800
 511 01f4 03500140 		.word	1073827843
 512 01f8 25420040 		.word	1073758757
 513 01fc D0030048 		.word	1207960528
 514 0200 12510040 		.word	1073762578
ARM GAS  C:\Users\jebush2\AppData\Local\Temp\ccOaylHj.s 			page 19


 515 0204 00480040 		.word	1073760256
 516 0208 0F010049 		.word	1224737039
 517 020c A1460040 		.word	1073759905
 518 0210 22420040 		.word	1073758754
 519 0214 04400040 		.word	1073758212
 520 0218 06400040 		.word	1073758214
 521 021c 01400040 		.word	1073758209
 522 0220 A2430040 		.word	1073759138
 523 0224 F8460040 		.word	1073759992
 524 0228 CF010049 		.word	1224737231
 525 022c 6E580040 		.word	1073764462
 526 0230 0D510040 		.word	1073762573
 527 0234 76580040 		.word	1073764470
 528 0238 B0430040 		.word	1073759152
 529 023c F9460040 		.word	1073759993
 530              	.LBE94:
 531              	.LBE96:
 532              		.cfi_endproc
 533              	.LFE8:
 534              		.size	cyfitter_cfg, .-cyfitter_cfg
 535              		.section	.rodata
 536              		.set	.LANCHOR0,. + 0
 537              		.type	cfg_memset_list.5015, %object
 538              		.size	cfg_memset_list.5015, 48
 539              	cfg_memset_list.5015:
 540 0000 004F0040 		.4byte	1073762048
 541 0004 0C00     		.2byte	12
 542 0006 30510040 		.4byte	1073762608
 543 000a 4000     		.2byte	64
 544 000c C0510040 		.4byte	1073762752
 545 0010 1000     		.2byte	16
 546 0012 00000140 		.4byte	1073807360
 547 0016 0010     		.2byte	4096
 548 0018 00140140 		.4byte	1073812480
 549 001c 0008     		.2byte	2048
 550 001e 00400140 		.4byte	1073823744
 551 0022 000A     		.2byte	2560
 552 0024 004C0140 		.4byte	1073826816
 553 0028 0002     		.2byte	512
 554 002a 00500140 		.4byte	1073827840
 555 002e 2000     		.2byte	32
 556              		.text
 557              	.Letext0:
 558              		.file 2 "c:\\program files (x86)\\cypress\\psoc creator\\4.2\\psoc creator\\import\\gnu\\arm\\5.4.
 559              		.file 3 "Generated_Source\\PSoC5\\cytypes.h"
 560              		.file 4 "Generated_Source\\PSoC5\\CyLib.h"