ARM GAS  C:\Users\jebush2\AppData\Local\Temp\ccAwaVMZ.s 			page 1


   1              		.syntax unified
   2              		.cpu cortex-m3
   3              		.fpu softvfp
   4              		.eabi_attribute 20, 1
   5              		.eabi_attribute 21, 1
   6              		.eabi_attribute 23, 3
   7              		.eabi_attribute 24, 1
   8              		.eabi_attribute 25, 1
   9              		.eabi_attribute 26, 1
  10              		.eabi_attribute 30, 4
  11              		.eabi_attribute 34, 1
  12              		.eabi_attribute 18, 4
  13              		.thumb
  14              		.syntax unified
  15              		.file	"main.c"
  16              		.text
  17              	.Ltext0:
  18              		.cfi_sections	.debug_frame
  19              		.section	.text.sample_isr,"ax",%progbits
  20              		.align	1
  21              		.global	sample_isr
  22              		.thumb
  23              		.thumb_func
  24              		.type	sample_isr, %function
  25              	sample_isr:
  26              	.LFB65:
  27              		.file 1 "main.c"
   1:main.c        **** /* ========================================
   2:main.c        ****  *
   3:main.c        ****  * Copyright YOUR COMPANY, THE YEAR
   4:main.c        ****  * All Rights Reserved
   5:main.c        ****  * UNPUBLISHED, LICENSED SOFTWARE.
   6:main.c        ****  *
   7:main.c        ****  * CONFIDENTIAL AND PROPRIETARY INFORMATION
   8:main.c        ****  * WHICH IS THE PROPERTY OF your company.
   9:main.c        ****  *
  10:main.c        ****  * ========================================
  11:main.c        **** */
  12:main.c        **** #include "project.h"
  13:main.c        **** #include <stdio.h>
  14:main.c        **** 
  15:main.c        **** #define STARTBYTE 0xFF
  16:main.c        **** #define ENDBYTE 0x77
  17:main.c        **** 
  18:main.c        **** #define OVERSAMPLING (10)
  19:main.c        **** 
  20:main.c        **** CY_ISR_PROTO(sample_isr);
  21:main.c        **** 
  22:main.c        **** volatile int take_sample = 0;
  23:main.c        **** 
  24:main.c        **** struct packet {
  25:main.c        ****     uint8 startbyte;
  26:main.c        ****     uint8 checksum;
  27:main.c        ****     int16 channels[3];
  28:main.c        **** };
  29:main.c        **** 
  30:main.c        **** void set_checksum(struct packet *pkt)
ARM GAS  C:\Users\jebush2\AppData\Local\Temp\ccAwaVMZ.s 			page 2


  31:main.c        **** {
  32:main.c        ****     uint8 *data = (uint8 *)(&(pkt->channels[0]));
  33:main.c        ****     uint8 checksum = 0;
  34:main.c        ****     for (int i = 0; i < 6; ++i) {
  35:main.c        ****         checksum = (uint8)(((uint16)checksum + (uint16)data[i]) % 255);
  36:main.c        ****     }
  37:main.c        ****     pkt->checksum = checksum;
  38:main.c        **** }
  39:main.c        **** 
  40:main.c        **** CY_ISR(sample_isr) {
  28              		.loc 1 40 0
  29              		.cfi_startproc
  30              		@ args = 0, pretend = 0, frame = 0
  31              		@ frame_needed = 0, uses_anonymous_args = 0
  32 0000 08B5     		push	{r3, lr}
  33              		.cfi_def_cfa_offset 8
  34              		.cfi_offset 3, -8
  35              		.cfi_offset 14, -4
  41:main.c        ****     Sample_Timer_ReadStatusRegister();
  36              		.loc 1 41 0
  37 0002 FFF7FEFF 		bl	Sample_Timer_ReadStatusRegister
  38              	.LVL0:
  42:main.c        ****     take_sample = 1;
  39              		.loc 1 42 0
  40 0006 024B     		ldr	r3, .L2
  41 0008 0122     		movs	r2, #1
  42 000a 1A60     		str	r2, [r3]
  43 000c 08BD     		pop	{r3, pc}
  44              	.L3:
  45 000e 00BF     		.align	2
  46              	.L2:
  47 0010 00000000 		.word	.LANCHOR0
  48              		.cfi_endproc
  49              	.LFE65:
  50              		.size	sample_isr, .-sample_isr
  51              		.section	.text.set_checksum,"ax",%progbits
  52              		.align	1
  53              		.global	set_checksum
  54              		.thumb
  55              		.thumb_func
  56              		.type	set_checksum, %function
  57              	set_checksum:
  58              	.LFB64:
  31:main.c        ****     uint8 *data = (uint8 *)(&(pkt->channels[0]));
  59              		.loc 1 31 0
  60              		.cfi_startproc
  61              		@ args = 0, pretend = 0, frame = 0
  62              		@ frame_needed = 0, uses_anonymous_args = 0
  63              	.LVL1:
  64 0000 30B5     		push	{r4, r5, lr}
  65              		.cfi_def_cfa_offset 12
  66              		.cfi_offset 4, -12
  67              		.cfi_offset 5, -8
  68              		.cfi_offset 14, -4
  69 0002 421C     		adds	r2, r0, #1
  70 0004 C41D     		adds	r4, r0, #7
  33:main.c        ****     for (int i = 0; i < 6; ++i) {
ARM GAS  C:\Users\jebush2\AppData\Local\Temp\ccAwaVMZ.s 			page 3


  71              		.loc 1 33 0
  72 0006 0023     		movs	r3, #0
  73              	.LBB2:
  35:main.c        ****     }
  74              		.loc 1 35 0
  75 0008 FF25     		movs	r5, #255
  76              	.LVL2:
  77              	.L5:
  35:main.c        ****     }
  78              		.loc 1 35 0 is_stmt 0 discriminator 3
  79 000a 12F8011F 		ldrb	r1, [r2, #1]!	@ zero_extendqisi2
  80              	.LVL3:
  81 000e 0B44     		add	r3, r3, r1
  82              	.LVL4:
  83 0010 93FBF5F1 		sdiv	r1, r3, r5
  34:main.c        ****         checksum = (uint8)(((uint16)checksum + (uint16)data[i]) % 255);
  84              		.loc 1 34 0 is_stmt 1 discriminator 3
  85 0014 9442     		cmp	r4, r2
  35:main.c        ****     }
  86              		.loc 1 35 0 discriminator 3
  87 0016 0B44     		add	r3, r3, r1
  88 0018 03F0FF03 		and	r3, r3, #255
  89              	.LVL5:
  34:main.c        ****         checksum = (uint8)(((uint16)checksum + (uint16)data[i]) % 255);
  90              		.loc 1 34 0 discriminator 3
  91 001c F5D1     		bne	.L5
  92              	.LBE2:
  37:main.c        **** }
  93              		.loc 1 37 0
  94 001e 4370     		strb	r3, [r0, #1]
  95 0020 30BD     		pop	{r4, r5, pc}
  96              		.cfi_endproc
  97              	.LFE64:
  98              		.size	set_checksum, .-set_checksum
  99              		.section	.text.startup.main,"ax",%progbits
 100              		.align	1
 101              		.global	main
 102              		.thumb
 103              		.thumb_func
 104              		.type	main, %function
 105              	main:
 106              	.LFB66:
  43:main.c        **** }
  44:main.c        **** 
  45:main.c        **** int main(void)
  46:main.c        **** {
 107              		.loc 1 46 0
 108              		.cfi_startproc
 109              		@ args = 0, pretend = 0, frame = 24
 110              		@ frame_needed = 0, uses_anonymous_args = 0
 111 0000 2DE9F041 		push	{r4, r5, r6, r7, r8, lr}
 112              		.cfi_def_cfa_offset 24
 113              		.cfi_offset 4, -24
 114              		.cfi_offset 5, -20
 115              		.cfi_offset 6, -16
 116              		.cfi_offset 7, -12
 117              		.cfi_offset 8, -8
ARM GAS  C:\Users\jebush2\AppData\Local\Temp\ccAwaVMZ.s 			page 4


 118              		.cfi_offset 14, -4
 119 0004 86B0     		sub	sp, sp, #24
 120              		.cfi_def_cfa_offset 48
  47:main.c        ****     CyGlobalIntEnable; /* Enable global interrupts. */
 121              		.loc 1 47 0
 122              		.syntax unified
 123              	@ 47 "main.c" 1
 124 0006 62B6     		CPSIE   i
 125              	@ 0 "" 2
  48:main.c        **** 
  49:main.c        ****     struct packet data = {.startbyte = STARTBYTE};
 126              		.loc 1 49 0
 127              		.thumb
 128              		.syntax unified
 129 0008 FF23     		movs	r3, #255
 130 000a 0024     		movs	r4, #0
 131 000c 0194     		str	r4, [sp, #4]
 132 000e 0294     		str	r4, [sp, #8]
 133 0010 8DF80430 		strb	r3, [sp, #4]
  50:main.c        ****     
  51:main.c        ****     /* Place your initialization/startup code here (e.g. MyInst_Start()) */
  52:main.c        ****     Seat_ADC_Start();
  53:main.c        **** 
  54:main.c        ****     USBUART_Init();
  55:main.c        ****     USBUART_CDC_Init();
  56:main.c        ****     USBUART_Start(0, USBUART_5V_OPERATION);
  57:main.c        ****     
  58:main.c        ****     Sample_Interrupt_StartEx(sample_isr);
  59:main.c        ****     Sample_Timer_Start();
  60:main.c        ****     
  61:main.c        ****     char output[40];
  62:main.c        ****     
  63:main.c        ****     for(;;)
  64:main.c        ****     {
  65:main.c        ****         if (take_sample) {
 134              		.loc 1 65 0
 135 0014 284E     		ldr	r6, .L21
  52:main.c        **** 
 136              		.loc 1 52 0
 137 0016 FFF7FEFF 		bl	Seat_ADC_Start
 138              	.LVL6:
  54:main.c        ****     USBUART_CDC_Init();
 139              		.loc 1 54 0
 140 001a FFF7FEFF 		bl	USBUART_Init
 141              	.LVL7:
  55:main.c        ****     USBUART_Start(0, USBUART_5V_OPERATION);
 142              		.loc 1 55 0
 143 001e FFF7FEFF 		bl	USBUART_CDC_Init
 144              	.LVL8:
  56:main.c        ****     
 145              		.loc 1 56 0
 146 0022 0121     		movs	r1, #1
 147 0024 2046     		mov	r0, r4
 148 0026 FFF7FEFF 		bl	USBUART_Start
 149              	.LVL9:
  58:main.c        ****     Sample_Timer_Start();
 150              		.loc 1 58 0
ARM GAS  C:\Users\jebush2\AppData\Local\Temp\ccAwaVMZ.s 			page 5


 151 002a 2448     		ldr	r0, .L21+4
 152 002c FFF7FEFF 		bl	Sample_Interrupt_StartEx
 153              	.LVL10:
 154              		.loc 1 65 0
 155 0030 3746     		mov	r7, r6
  59:main.c        ****     
 156              		.loc 1 59 0
 157 0032 FFF7FEFF 		bl	Sample_Timer_Start
 158              	.LVL11:
 159              	.L9:
 160              		.loc 1 65 0
 161 0036 3368     		ldr	r3, [r6]
 162 0038 002B     		cmp	r3, #0
 163 003a FCD0     		beq	.L9
 164              	.LBB3:
  66:main.c        ****             int32 accumulator[3];
  67:main.c        ****             
  68:main.c        ****             take_sample = 0;
 165              		.loc 1 68 0
 166 003c 3C60     		str	r4, [r7]
  69:main.c        ****             LED_Write(!LED_Read());
 167              		.loc 1 69 0
 168 003e FFF7FEFF 		bl	LED_Read
 169              	.LVL12:
 170 0042 B0FA80F0 		clz	r0, r0
 171 0046 4009     		lsrs	r0, r0, #5
 172 0048 FFF7FEFF 		bl	LED_Write
 173              	.LVL13:
 174              	.LBB4:
  70:main.c        ****             
  71:main.c        ****             
  72:main.c        ****             for (int i = 0; i < 3; ++i) {
  73:main.c        ****                 accumulator[i] = 0;
 175              		.loc 1 73 0
 176 004c 4FF00A08 		mov	r8, #10
 177 0050 0394     		str	r4, [sp, #12]
 178              	.LVL14:
 179 0052 0494     		str	r4, [sp, #16]
 180              	.LVL15:
 181 0054 0594     		str	r4, [sp, #20]
 182              	.LVL16:
 183              	.L11:
 184              	.LBE4:
 185              	.LBB5:
  74:main.c        ****             }
  75:main.c        ****             for (int i = 0; i < OVERSAMPLING; ++i) {
  76:main.c        ****                     Seat_ADC_StartConvert();
 186              		.loc 1 76 0
 187 0056 FFF7FEFF 		bl	Seat_ADC_StartConvert
 188              	.LVL17:
  77:main.c        ****                     Seat_ADC_IsEndConversion(Seat_ADC_WAIT_FOR_RESULT);
 189              		.loc 1 77 0
 190 005a 0020     		movs	r0, #0
 191 005c FFF7FEFF 		bl	Seat_ADC_IsEndConversion
 192              	.LVL18:
 193              	.LBB6:
  78:main.c        ****                     
ARM GAS  C:\Users\jebush2\AppData\Local\Temp\ccAwaVMZ.s 			page 6


  79:main.c        ****                 for (int n = 0; n < 3; ++n) {
 194              		.loc 1 79 0
 195 0060 0025     		movs	r5, #0
 196              	.LVL19:
 197              	.L10:
  80:main.c        ****                     accumulator[n] += Seat_ADC_GetResult16(n);
 198              		.loc 1 80 0 discriminator 3
 199 0062 A8B2     		uxth	r0, r5
 200 0064 FFF7FEFF 		bl	Seat_ADC_GetResult16
 201              	.LVL20:
 202 0068 03AA     		add	r2, sp, #12
 203 006a 52F82530 		ldr	r3, [r2, r5, lsl #2]
 204 006e 1844     		add	r0, r0, r3
 205 0070 42F82500 		str	r0, [r2, r5, lsl #2]
  79:main.c        ****                     accumulator[n] += Seat_ADC_GetResult16(n);
 206              		.loc 1 79 0 discriminator 3
 207 0074 0135     		adds	r5, r5, #1
 208              	.LVL21:
 209 0076 032D     		cmp	r5, #3
 210 0078 F3D1     		bne	.L10
 211              	.LVL22:
 212              	.LBE6:
  75:main.c        ****                     Seat_ADC_StartConvert();
 213              		.loc 1 75 0 discriminator 2
 214 007a B8F10108 		subs	r8, r8, #1
 215              	.LVL23:
 216 007e EAD1     		bne	.L11
 217              	.LVL24:
 218              	.LBE5:
 219              	.LBB7:
  81:main.c        ****                     
  82:main.c        ****                 }
  83:main.c        ****             }
  84:main.c        ****             for (int i = 0; i < 3; ++i) {
  85:main.c        ****                 data.channels[i] = (int16)(accumulator[i] / OVERSAMPLING);
 220              		.loc 1 85 0
 221 0080 039B     		ldr	r3, [sp, #12]
 222 0082 0A22     		movs	r2, #10
 223 0084 93FBF2F3 		sdiv	r3, r3, r2
 224 0088 ADF80630 		strh	r3, [sp, #6]	@ movhi
 225              	.LVL25:
 226 008c 049B     		ldr	r3, [sp, #16]
 227              	.LBE7:
  86:main.c        ****             }
  87:main.c        ****             
  88:main.c        ****             set_checksum(&data);
 228              		.loc 1 88 0
 229 008e 01A8     		add	r0, sp, #4
 230              	.LBB8:
  85:main.c        ****             }
 231              		.loc 1 85 0
 232 0090 93FBF2F3 		sdiv	r3, r3, r2
 233 0094 ADF80830 		strh	r3, [sp, #8]	@ movhi
 234              	.LVL26:
 235 0098 059B     		ldr	r3, [sp, #20]
 236 009a 93FBF2F3 		sdiv	r3, r3, r2
 237 009e ADF80A30 		strh	r3, [sp, #10]	@ movhi
ARM GAS  C:\Users\jebush2\AppData\Local\Temp\ccAwaVMZ.s 			page 7


 238              	.LVL27:
 239              	.LBE8:
 240              		.loc 1 88 0
 241 00a2 FFF7FEFF 		bl	set_checksum
 242              	.LVL28:
  89:main.c        ****             
  90:main.c        ****             if (USBUART_CDCIsReady()) {
 243              		.loc 1 90 0
 244 00a6 FFF7FEFF 		bl	USBUART_CDCIsReady
 245              	.LVL29:
 246 00aa 0028     		cmp	r0, #0
 247 00ac C3D0     		beq	.L9
  91:main.c        ****                 USBUART_PutData((uint8 *)&data, sizeof(struct packet));
 248              		.loc 1 91 0
 249 00ae 0821     		movs	r1, #8
 250 00b0 01A8     		add	r0, sp, #4
 251 00b2 FFF7FEFF 		bl	USBUART_PutData
 252              	.LVL30:
 253 00b6 BEE7     		b	.L9
 254              	.L22:
 255              		.align	2
 256              	.L21:
 257 00b8 00000000 		.word	.LANCHOR0
 258 00bc 00000000 		.word	sample_isr
 259              	.LBE3:
 260              		.cfi_endproc
 261              	.LFE66:
 262              		.size	main, .-main
 263              		.global	take_sample
 264              		.bss
 265              		.align	2
 266              		.set	.LANCHOR0,. + 0
 267              		.type	take_sample, %object
 268              		.size	take_sample, 4
 269              	take_sample:
 270 0000 00000000 		.space	4
 271              		.text
 272              	.Letext0:
 273              		.file 2 "c:\\program files (x86)\\cypress\\psoc creator\\4.2\\psoc creator\\import\\gnu\\arm\\5.4.
 274              		.file 3 "c:\\program files (x86)\\cypress\\psoc creator\\4.2\\psoc creator\\import\\gnu\\arm\\5.4.
 275              		.file 4 "Generated_Source\\PSoC5/cytypes.h"
 276              		.file 5 "Generated_Source\\PSoC5/core_cm3.h"
 277              		.file 6 "Generated_Source\\PSoC5/Sample_Timer.h"
 278              		.file 7 "Generated_Source\\PSoC5/Seat_ADC.h"
 279              		.file 8 "Generated_Source\\PSoC5/LED.h"
 280              		.file 9 "Generated_Source\\PSoC5/USBUART_cdc.h"
 281              		.file 10 "Generated_Source\\PSoC5/USBUART.h"
 282              		.file 11 "Generated_Source\\PSoC5/Sample_Interrupt.h"