ARM GAS  C:\Users\jebush2\AppData\Local\Temp\cc2ZJRVc.s 			page 1


   1              		.syntax unified
   2              		.cpu cortex-m3
   3              		.fpu softvfp
   4              		.eabi_attribute 20, 1
   5              		.eabi_attribute 21, 1
   6              		.eabi_attribute 23, 3
   7              		.eabi_attribute 24, 1
   8              		.eabi_attribute 25, 1
   9              		.eabi_attribute 26, 1
  10              		.eabi_attribute 30, 4
  11              		.eabi_attribute 34, 1
  12              		.eabi_attribute 18, 4
  13              		.thumb
  14              		.syntax unified
  15              		.file	"PGA_2.c"
  16              		.text
  17              	.Ltext0:
  18              		.cfi_sections	.debug_frame
  19              		.section	.text.PGA_2_Enable,"ax",%progbits
  20              		.align	1
  21              		.global	PGA_2_Enable
  22              		.thumb
  23              		.thumb_func
  24              		.type	PGA_2_Enable, %function
  25              	PGA_2_Enable:
  26              	.LFB1:
  27              		.file 1 "Generated_Source\\PSoC5\\PGA_2.c"
   1:Generated_Source\PSoC5/PGA_2.c **** /*******************************************************************************
   2:Generated_Source\PSoC5/PGA_2.c **** * File Name: PGA_2.c  
   3:Generated_Source\PSoC5/PGA_2.c **** * Version 2.0
   4:Generated_Source\PSoC5/PGA_2.c **** *
   5:Generated_Source\PSoC5/PGA_2.c **** * Description:
   6:Generated_Source\PSoC5/PGA_2.c **** *  This file provides the source code to the API for the PGA 
   7:Generated_Source\PSoC5/PGA_2.c **** *  User Module.
   8:Generated_Source\PSoC5/PGA_2.c **** *
   9:Generated_Source\PSoC5/PGA_2.c **** * Note:
  10:Generated_Source\PSoC5/PGA_2.c **** *
  11:Generated_Source\PSoC5/PGA_2.c **** ********************************************************************************
  12:Generated_Source\PSoC5/PGA_2.c **** * Copyright 2008-2012, Cypress Semiconductor Corporation.  All rights reserved.
  13:Generated_Source\PSoC5/PGA_2.c **** * You may use this file only in accordance with the license, terms, conditions, 
  14:Generated_Source\PSoC5/PGA_2.c **** * disclaimers, and limitations in the end user license agreement accompanying 
  15:Generated_Source\PSoC5/PGA_2.c **** * the software package with which this file was provided.
  16:Generated_Source\PSoC5/PGA_2.c **** *******************************************************************************/
  17:Generated_Source\PSoC5/PGA_2.c **** 
  18:Generated_Source\PSoC5/PGA_2.c **** #include "PGA_2.h"
  19:Generated_Source\PSoC5/PGA_2.c **** 
  20:Generated_Source\PSoC5/PGA_2.c **** #if (!CY_PSOC5A)
  21:Generated_Source\PSoC5/PGA_2.c ****     #if (CYDEV_VARIABLE_VDDA == 1u)
  22:Generated_Source\PSoC5/PGA_2.c ****         #include "CyScBoostClk.h"
  23:Generated_Source\PSoC5/PGA_2.c ****     #endif /* (CYDEV_VARIABLE_VDDA == 1u) */
  24:Generated_Source\PSoC5/PGA_2.c **** #endif /* (!CY_PSOC5A) */
  25:Generated_Source\PSoC5/PGA_2.c **** 
  26:Generated_Source\PSoC5/PGA_2.c **** #if (CY_PSOC5A)
  27:Generated_Source\PSoC5/PGA_2.c ****     static PGA_2_BACKUP_STRUCT  PGA_2_P5backup;
  28:Generated_Source\PSoC5/PGA_2.c **** #endif /* (CY_ PSOC5A) */
  29:Generated_Source\PSoC5/PGA_2.c **** 
  30:Generated_Source\PSoC5/PGA_2.c **** uint8 PGA_2_initVar = 0u;
ARM GAS  C:\Users\jebush2\AppData\Local\Temp\cc2ZJRVc.s 			page 2


  31:Generated_Source\PSoC5/PGA_2.c **** 
  32:Generated_Source\PSoC5/PGA_2.c **** 
  33:Generated_Source\PSoC5/PGA_2.c **** /*******************************************************************************   
  34:Generated_Source\PSoC5/PGA_2.c **** * Function Name: PGA_2_Init
  35:Generated_Source\PSoC5/PGA_2.c **** ********************************************************************************
  36:Generated_Source\PSoC5/PGA_2.c **** *
  37:Generated_Source\PSoC5/PGA_2.c **** * Summary:
  38:Generated_Source\PSoC5/PGA_2.c **** *  Initialize component's parameters to the parameters set by user in the 
  39:Generated_Source\PSoC5/PGA_2.c **** *  customizer of the component placed onto schematic. Usually called in 
  40:Generated_Source\PSoC5/PGA_2.c **** *  PGA_2_Start().
  41:Generated_Source\PSoC5/PGA_2.c **** *
  42:Generated_Source\PSoC5/PGA_2.c **** * Parameters:
  43:Generated_Source\PSoC5/PGA_2.c **** *  void
  44:Generated_Source\PSoC5/PGA_2.c **** *
  45:Generated_Source\PSoC5/PGA_2.c **** * Return:
  46:Generated_Source\PSoC5/PGA_2.c **** *  void
  47:Generated_Source\PSoC5/PGA_2.c **** *
  48:Generated_Source\PSoC5/PGA_2.c **** *******************************************************************************/
  49:Generated_Source\PSoC5/PGA_2.c **** void PGA_2_Init(void) 
  50:Generated_Source\PSoC5/PGA_2.c **** {
  51:Generated_Source\PSoC5/PGA_2.c ****     /* Set PGA mode */
  52:Generated_Source\PSoC5/PGA_2.c ****     PGA_2_CR0_REG = PGA_2_MODE_PGA;      
  53:Generated_Source\PSoC5/PGA_2.c ****     /* Set non-inverting PGA mode and reference mode */
  54:Generated_Source\PSoC5/PGA_2.c ****     PGA_2_CR1_REG |= PGA_2_PGA_NINV;  
  55:Generated_Source\PSoC5/PGA_2.c ****     /* Set default gain and ref mode */
  56:Generated_Source\PSoC5/PGA_2.c ****     PGA_2_CR2_REG = PGA_2_VREF_MODE;
  57:Generated_Source\PSoC5/PGA_2.c ****     /* Set gain and compensation */
  58:Generated_Source\PSoC5/PGA_2.c ****     PGA_2_SetGain(PGA_2_DEFAULT_GAIN);
  59:Generated_Source\PSoC5/PGA_2.c ****     /* Set power */
  60:Generated_Source\PSoC5/PGA_2.c ****     PGA_2_SetPower(PGA_2_DEFAULT_POWER);
  61:Generated_Source\PSoC5/PGA_2.c **** }
  62:Generated_Source\PSoC5/PGA_2.c **** 
  63:Generated_Source\PSoC5/PGA_2.c **** 
  64:Generated_Source\PSoC5/PGA_2.c **** /*******************************************************************************   
  65:Generated_Source\PSoC5/PGA_2.c **** * Function Name: PGA_2_Enable
  66:Generated_Source\PSoC5/PGA_2.c **** ********************************************************************************
  67:Generated_Source\PSoC5/PGA_2.c **** *
  68:Generated_Source\PSoC5/PGA_2.c **** * Summary:
  69:Generated_Source\PSoC5/PGA_2.c **** *  Enables the PGA block operation.
  70:Generated_Source\PSoC5/PGA_2.c **** *
  71:Generated_Source\PSoC5/PGA_2.c **** * Parameters:
  72:Generated_Source\PSoC5/PGA_2.c **** *  void
  73:Generated_Source\PSoC5/PGA_2.c **** *
  74:Generated_Source\PSoC5/PGA_2.c **** * Return:
  75:Generated_Source\PSoC5/PGA_2.c **** *  void
  76:Generated_Source\PSoC5/PGA_2.c **** *
  77:Generated_Source\PSoC5/PGA_2.c **** *******************************************************************************/
  78:Generated_Source\PSoC5/PGA_2.c **** void PGA_2_Enable(void) 
  79:Generated_Source\PSoC5/PGA_2.c **** {
  28              		.loc 1 79 0
  29              		.cfi_startproc
  30              		@ args = 0, pretend = 0, frame = 0
  31              		@ frame_needed = 0, uses_anonymous_args = 0
  32              		@ link register save eliminated.
  80:Generated_Source\PSoC5/PGA_2.c ****     /* This is to restore the value of register CR1 and CR2 which is saved 
  81:Generated_Source\PSoC5/PGA_2.c ****       in prior to the modifications in stop() API */
  82:Generated_Source\PSoC5/PGA_2.c ****     #if (CY_PSOC5A)
ARM GAS  C:\Users\jebush2\AppData\Local\Temp\cc2ZJRVc.s 			page 3


  83:Generated_Source\PSoC5/PGA_2.c ****         if(PGA_2_P5backup.enableState == 1u)
  84:Generated_Source\PSoC5/PGA_2.c ****         {
  85:Generated_Source\PSoC5/PGA_2.c ****             PGA_2_CR1_REG = PGA_2_P5backup.scCR1Reg;
  86:Generated_Source\PSoC5/PGA_2.c ****             PGA_2_CR2_REG = PGA_2_P5backup.scCR2Reg;
  87:Generated_Source\PSoC5/PGA_2.c ****             PGA_2_P5backup.enableState = 0u;
  88:Generated_Source\PSoC5/PGA_2.c ****         }
  89:Generated_Source\PSoC5/PGA_2.c ****     #endif /* CY_PSOC5A */   
  90:Generated_Source\PSoC5/PGA_2.c **** 
  91:Generated_Source\PSoC5/PGA_2.c ****     /* Enable power to the Amp in Active mode*/
  92:Generated_Source\PSoC5/PGA_2.c ****     PGA_2_PM_ACT_CFG_REG |= PGA_2_ACT_PWR_EN;
  33              		.loc 1 92 0
  34 0000 084A     		ldr	r2, .L2
  35 0002 1378     		ldrb	r3, [r2]	@ zero_extendqisi2
  36 0004 43F00403 		orr	r3, r3, #4
  37 0008 1370     		strb	r3, [r2]
  93:Generated_Source\PSoC5/PGA_2.c **** 
  94:Generated_Source\PSoC5/PGA_2.c ****     /* Enable power to the Amp in Alternative Active mode*/
  95:Generated_Source\PSoC5/PGA_2.c ****     PGA_2_PM_STBY_CFG_REG |= PGA_2_STBY_PWR_EN;
  38              		.loc 1 95 0
  39 000a 137C     		ldrb	r3, [r2, #16]	@ zero_extendqisi2
  40 000c 43F00403 		orr	r3, r3, #4
  41 0010 1374     		strb	r3, [r2, #16]
  96:Generated_Source\PSoC5/PGA_2.c ****     
  97:Generated_Source\PSoC5/PGA_2.c ****     PGA_2_PUMP_CR1_REG |= PGA_2_PUMP_CR1_SC_CLKSEL;
  42              		.loc 1 97 0
  43 0012 02F5A652 		add	r2, r2, #5312
  44 0016 0E32     		adds	r2, r2, #14
  45 0018 1378     		ldrb	r3, [r2]	@ zero_extendqisi2
  46 001a 43F08003 		orr	r3, r3, #128
  47 001e 1370     		strb	r3, [r2]
  48 0020 7047     		bx	lr
  49              	.L3:
  50 0022 00BF     		.align	2
  51              	.L2:
  52 0024 A9430040 		.word	1073759145
  53              		.cfi_endproc
  54              	.LFE1:
  55              		.size	PGA_2_Enable, .-PGA_2_Enable
  56              		.section	.text.PGA_2_Stop,"ax",%progbits
  57              		.align	1
  58              		.global	PGA_2_Stop
  59              		.thumb
  60              		.thumb_func
  61              		.type	PGA_2_Stop, %function
  62              	PGA_2_Stop:
  63              	.LFB3:
  98:Generated_Source\PSoC5/PGA_2.c ****     
  99:Generated_Source\PSoC5/PGA_2.c ****     #if (!CY_PSOC5A)
 100:Generated_Source\PSoC5/PGA_2.c ****         #if (CYDEV_VARIABLE_VDDA == 1u)
 101:Generated_Source\PSoC5/PGA_2.c ****             if(CyScPumpEnabled == 1u)
 102:Generated_Source\PSoC5/PGA_2.c ****             {
 103:Generated_Source\PSoC5/PGA_2.c ****                 PGA_2_BSTCLK_REG &= (uint8)(~PGA_2_BST_CLK_INDEX_MASK);
 104:Generated_Source\PSoC5/PGA_2.c ****                 PGA_2_BSTCLK_REG |= PGA_2_BST_CLK_EN | CyScBoostClk__INDEX;
 105:Generated_Source\PSoC5/PGA_2.c ****                 PGA_2_SC_MISC_REG |= PGA_2_PUMP_FORCE;
 106:Generated_Source\PSoC5/PGA_2.c ****                 CyScBoostClk_Start();
 107:Generated_Source\PSoC5/PGA_2.c ****             }
 108:Generated_Source\PSoC5/PGA_2.c ****             else
ARM GAS  C:\Users\jebush2\AppData\Local\Temp\cc2ZJRVc.s 			page 4


 109:Generated_Source\PSoC5/PGA_2.c ****             {
 110:Generated_Source\PSoC5/PGA_2.c ****                 PGA_2_BSTCLK_REG &= (uint8)(~PGA_2_BST_CLK_EN);
 111:Generated_Source\PSoC5/PGA_2.c ****                 PGA_2_SC_MISC_REG &= (uint8)(~PGA_2_PUMP_FORCE);
 112:Generated_Source\PSoC5/PGA_2.c ****             }
 113:Generated_Source\PSoC5/PGA_2.c ****         #endif /* (CYDEV_VARIABLE_VDDA == 1u) */
 114:Generated_Source\PSoC5/PGA_2.c ****     #endif /* (!CY_PSOC5A) */
 115:Generated_Source\PSoC5/PGA_2.c **** }
 116:Generated_Source\PSoC5/PGA_2.c **** 
 117:Generated_Source\PSoC5/PGA_2.c **** 
 118:Generated_Source\PSoC5/PGA_2.c **** /*******************************************************************************
 119:Generated_Source\PSoC5/PGA_2.c **** * Function Name: PGA_2_Start
 120:Generated_Source\PSoC5/PGA_2.c **** ********************************************************************************
 121:Generated_Source\PSoC5/PGA_2.c **** *
 122:Generated_Source\PSoC5/PGA_2.c **** * Summary:
 123:Generated_Source\PSoC5/PGA_2.c **** *  The start function initializes the PGA with the default values and sets
 124:Generated_Source\PSoC5/PGA_2.c **** *  the power to the given level. A power level of 0, is same as executing
 125:Generated_Source\PSoC5/PGA_2.c **** *  the stop function.
 126:Generated_Source\PSoC5/PGA_2.c **** *
 127:Generated_Source\PSoC5/PGA_2.c **** * Parameters:
 128:Generated_Source\PSoC5/PGA_2.c **** *  void
 129:Generated_Source\PSoC5/PGA_2.c **** *
 130:Generated_Source\PSoC5/PGA_2.c **** * Return:
 131:Generated_Source\PSoC5/PGA_2.c **** *  void
 132:Generated_Source\PSoC5/PGA_2.c **** *
 133:Generated_Source\PSoC5/PGA_2.c **** *******************************************************************************/
 134:Generated_Source\PSoC5/PGA_2.c **** void PGA_2_Start(void) 
 135:Generated_Source\PSoC5/PGA_2.c **** {
 136:Generated_Source\PSoC5/PGA_2.c **** 
 137:Generated_Source\PSoC5/PGA_2.c ****     /* This is to restore the value of register CR1 and CR2 which is saved 
 138:Generated_Source\PSoC5/PGA_2.c ****       in prior to the modification in stop() API */
 139:Generated_Source\PSoC5/PGA_2.c **** 
 140:Generated_Source\PSoC5/PGA_2.c ****     if(PGA_2_initVar == 0u)
 141:Generated_Source\PSoC5/PGA_2.c ****     {
 142:Generated_Source\PSoC5/PGA_2.c ****         PGA_2_Init();
 143:Generated_Source\PSoC5/PGA_2.c ****         PGA_2_initVar = 1u;
 144:Generated_Source\PSoC5/PGA_2.c ****     }
 145:Generated_Source\PSoC5/PGA_2.c **** 
 146:Generated_Source\PSoC5/PGA_2.c ****     PGA_2_Enable();
 147:Generated_Source\PSoC5/PGA_2.c **** }
 148:Generated_Source\PSoC5/PGA_2.c **** 
 149:Generated_Source\PSoC5/PGA_2.c **** 
 150:Generated_Source\PSoC5/PGA_2.c **** /*******************************************************************************
 151:Generated_Source\PSoC5/PGA_2.c **** * Function Name: PGA_2_Stop
 152:Generated_Source\PSoC5/PGA_2.c **** ********************************************************************************
 153:Generated_Source\PSoC5/PGA_2.c **** *
 154:Generated_Source\PSoC5/PGA_2.c **** * Summary:
 155:Generated_Source\PSoC5/PGA_2.c **** *  Powers down amplifier to lowest power state.
 156:Generated_Source\PSoC5/PGA_2.c **** *
 157:Generated_Source\PSoC5/PGA_2.c **** * Parameters:
 158:Generated_Source\PSoC5/PGA_2.c **** *  void
 159:Generated_Source\PSoC5/PGA_2.c **** *
 160:Generated_Source\PSoC5/PGA_2.c **** * Return:
 161:Generated_Source\PSoC5/PGA_2.c **** *  void
 162:Generated_Source\PSoC5/PGA_2.c **** *
 163:Generated_Source\PSoC5/PGA_2.c **** *******************************************************************************/
 164:Generated_Source\PSoC5/PGA_2.c **** void PGA_2_Stop(void) 
 165:Generated_Source\PSoC5/PGA_2.c **** { 
ARM GAS  C:\Users\jebush2\AppData\Local\Temp\cc2ZJRVc.s 			page 5


  64              		.loc 1 165 0
  65              		.cfi_startproc
  66              		@ args = 0, pretend = 0, frame = 0
  67              		@ frame_needed = 0, uses_anonymous_args = 0
  68              		@ link register save eliminated.
 166:Generated_Source\PSoC5/PGA_2.c ****     /* Disble power to the Amp in Active mode template */
 167:Generated_Source\PSoC5/PGA_2.c ****     PGA_2_PM_ACT_CFG_REG &= (uint8)(~PGA_2_ACT_PWR_EN);
  69              		.loc 1 167 0
  70 0000 044A     		ldr	r2, .L5
  71 0002 1378     		ldrb	r3, [r2]	@ zero_extendqisi2
  72 0004 03F0FB03 		and	r3, r3, #251
  73 0008 1370     		strb	r3, [r2]
 168:Generated_Source\PSoC5/PGA_2.c **** 
 169:Generated_Source\PSoC5/PGA_2.c ****     /* Disble power to the Amp in Alternative Active mode template */
 170:Generated_Source\PSoC5/PGA_2.c ****     PGA_2_PM_STBY_CFG_REG &= (uint8)(~PGA_2_STBY_PWR_EN);
  74              		.loc 1 170 0
  75 000a 137C     		ldrb	r3, [r2, #16]	@ zero_extendqisi2
  76 000c 03F0FB03 		and	r3, r3, #251
  77 0010 1374     		strb	r3, [r2, #16]
  78 0012 7047     		bx	lr
  79              	.L6:
  80              		.align	2
  81              	.L5:
  82 0014 A9430040 		.word	1073759145
  83              		.cfi_endproc
  84              	.LFE3:
  85              		.size	PGA_2_Stop, .-PGA_2_Stop
  86              		.section	.text.PGA_2_SetPower,"ax",%progbits
  87              		.align	1
  88              		.global	PGA_2_SetPower
  89              		.thumb
  90              		.thumb_func
  91              		.type	PGA_2_SetPower, %function
  92              	PGA_2_SetPower:
  93              	.LFB4:
 171:Generated_Source\PSoC5/PGA_2.c **** 
 172:Generated_Source\PSoC5/PGA_2.c ****     #if (!CY_PSOC5A)
 173:Generated_Source\PSoC5/PGA_2.c ****         #if (CYDEV_VARIABLE_VDDA == 1u)
 174:Generated_Source\PSoC5/PGA_2.c ****             PGA_2_BSTCLK_REG &= (uint8)(~PGA_2_BST_CLK_EN);
 175:Generated_Source\PSoC5/PGA_2.c ****             /* Disable pumps only if there aren't any SC block in use */
 176:Generated_Source\PSoC5/PGA_2.c ****             if ((PGA_2_PM_ACT_CFG_REG & PGA_2_PM_ACT_CFG_MASK) == 0u)
 177:Generated_Source\PSoC5/PGA_2.c ****             {
 178:Generated_Source\PSoC5/PGA_2.c ****                 PGA_2_SC_MISC_REG &= (uint8)(~PGA_2_PUMP_FORCE);
 179:Generated_Source\PSoC5/PGA_2.c ****                 PGA_2_PUMP_CR1_REG &= (uint8)(~PGA_2_PUMP_CR1_SC_CLKSEL);
 180:Generated_Source\PSoC5/PGA_2.c ****                 CyScBoostClk_Stop();
 181:Generated_Source\PSoC5/PGA_2.c ****             }
 182:Generated_Source\PSoC5/PGA_2.c ****         #endif /* CYDEV_VARIABLE_VDDA == 1u */
 183:Generated_Source\PSoC5/PGA_2.c ****     #endif /* (CY_PSOC3 || CY_PSOC5LP) */
 184:Generated_Source\PSoC5/PGA_2.c **** 
 185:Generated_Source\PSoC5/PGA_2.c ****     /* This sets PGA in zero current mode and output routes are valid */
 186:Generated_Source\PSoC5/PGA_2.c ****     #if (CY_PSOC5A)
 187:Generated_Source\PSoC5/PGA_2.c ****         PGA_2_P5backup.scCR1Reg = PGA_2_CR1_REG;
 188:Generated_Source\PSoC5/PGA_2.c ****         PGA_2_P5backup.scCR2Reg = PGA_2_CR2_REG;
 189:Generated_Source\PSoC5/PGA_2.c ****         PGA_2_CR1_REG = 0x00u;
 190:Generated_Source\PSoC5/PGA_2.c ****         PGA_2_CR2_REG = 0x00u;
 191:Generated_Source\PSoC5/PGA_2.c ****         PGA_2_P5backup.enableState = 1u;
 192:Generated_Source\PSoC5/PGA_2.c ****     #endif /* CY_PSOC5A */
ARM GAS  C:\Users\jebush2\AppData\Local\Temp\cc2ZJRVc.s 			page 6


 193:Generated_Source\PSoC5/PGA_2.c **** }
 194:Generated_Source\PSoC5/PGA_2.c **** 
 195:Generated_Source\PSoC5/PGA_2.c **** 
 196:Generated_Source\PSoC5/PGA_2.c **** /*******************************************************************************
 197:Generated_Source\PSoC5/PGA_2.c **** * Function Name: PGA_2_SetPower
 198:Generated_Source\PSoC5/PGA_2.c **** ********************************************************************************
 199:Generated_Source\PSoC5/PGA_2.c **** *
 200:Generated_Source\PSoC5/PGA_2.c **** * Summary:
 201:Generated_Source\PSoC5/PGA_2.c **** *  Set the power of the PGA.
 202:Generated_Source\PSoC5/PGA_2.c **** *
 203:Generated_Source\PSoC5/PGA_2.c **** * Parameters:
 204:Generated_Source\PSoC5/PGA_2.c **** *  power: Sets power level between (0) and (3) high power
 205:Generated_Source\PSoC5/PGA_2.c **** *
 206:Generated_Source\PSoC5/PGA_2.c **** * Return:
 207:Generated_Source\PSoC5/PGA_2.c **** *  void
 208:Generated_Source\PSoC5/PGA_2.c **** *
 209:Generated_Source\PSoC5/PGA_2.c **** *******************************************************************************/
 210:Generated_Source\PSoC5/PGA_2.c **** void PGA_2_SetPower(uint8 power) 
 211:Generated_Source\PSoC5/PGA_2.c **** {
  94              		.loc 1 211 0
  95              		.cfi_startproc
  96              		@ args = 0, pretend = 0, frame = 0
  97              		@ frame_needed = 0, uses_anonymous_args = 0
  98              		@ link register save eliminated.
  99              	.LVL0:
 212:Generated_Source\PSoC5/PGA_2.c ****     uint8 tmpCR;
 213:Generated_Source\PSoC5/PGA_2.c **** 
 214:Generated_Source\PSoC5/PGA_2.c ****     tmpCR = PGA_2_CR1_REG & (uint8)(~PGA_2_DRIVE_MASK);
 100              		.loc 1 214 0
 101 0000 044A     		ldr	r2, .L8
 215:Generated_Source\PSoC5/PGA_2.c ****     tmpCR |= (power & PGA_2_DRIVE_MASK);
 102              		.loc 1 215 0
 103 0002 00F00300 		and	r0, r0, #3
 104              	.LVL1:
 214:Generated_Source\PSoC5/PGA_2.c ****     tmpCR |= (power & PGA_2_DRIVE_MASK);
 105              		.loc 1 214 0
 106 0006 1378     		ldrb	r3, [r2]	@ zero_extendqisi2
 107 0008 03F0FC03 		and	r3, r3, #252
 108              	.LVL2:
 109              		.loc 1 215 0
 110 000c 1843     		orrs	r0, r0, r3
 111              	.LVL3:
 216:Generated_Source\PSoC5/PGA_2.c ****     PGA_2_CR1_REG = tmpCR;  
 112              		.loc 1 216 0
 113 000e 1070     		strb	r0, [r2]
 114 0010 7047     		bx	lr
 115              	.L9:
 116 0012 00BF     		.align	2
 117              	.L8:
 118 0014 09580040 		.word	1073764361
 119              		.cfi_endproc
 120              	.LFE4:
 121              		.size	PGA_2_SetPower, .-PGA_2_SetPower
 122              		.section	.text.PGA_2_SetGain,"ax",%progbits
 123              		.align	1
 124              		.global	PGA_2_SetGain
 125              		.thumb
ARM GAS  C:\Users\jebush2\AppData\Local\Temp\cc2ZJRVc.s 			page 7


 126              		.thumb_func
 127              		.type	PGA_2_SetGain, %function
 128              	PGA_2_SetGain:
 129              	.LFB5:
 217:Generated_Source\PSoC5/PGA_2.c **** }
 218:Generated_Source\PSoC5/PGA_2.c **** 
 219:Generated_Source\PSoC5/PGA_2.c **** 
 220:Generated_Source\PSoC5/PGA_2.c **** /*******************************************************************************
 221:Generated_Source\PSoC5/PGA_2.c **** * Function Name: PGA_2_SetGain
 222:Generated_Source\PSoC5/PGA_2.c **** ********************************************************************************
 223:Generated_Source\PSoC5/PGA_2.c **** *
 224:Generated_Source\PSoC5/PGA_2.c **** * Summary:
 225:Generated_Source\PSoC5/PGA_2.c **** *  This function sets values of the input and feedback resistors to set a 
 226:Generated_Source\PSoC5/PGA_2.c **** *  specific gain of the amplifier.
 227:Generated_Source\PSoC5/PGA_2.c **** *
 228:Generated_Source\PSoC5/PGA_2.c **** * Parameters:
 229:Generated_Source\PSoC5/PGA_2.c **** *  gain: Gain value of PGA (See header file for gain values.)
 230:Generated_Source\PSoC5/PGA_2.c **** *
 231:Generated_Source\PSoC5/PGA_2.c **** * Return:
 232:Generated_Source\PSoC5/PGA_2.c **** *  void 
 233:Generated_Source\PSoC5/PGA_2.c **** *
 234:Generated_Source\PSoC5/PGA_2.c **** *******************************************************************************/
 235:Generated_Source\PSoC5/PGA_2.c **** void PGA_2_SetGain(uint8 gain) 
 236:Generated_Source\PSoC5/PGA_2.c **** {
 130              		.loc 1 236 0
 131              		.cfi_startproc
 132              		@ args = 0, pretend = 0, frame = 24
 133              		@ frame_needed = 0, uses_anonymous_args = 0
 134              	.LVL4:
 135 0000 10B5     		push	{r4, lr}
 136              		.cfi_def_cfa_offset 8
 137              		.cfi_offset 4, -8
 138              		.cfi_offset 14, -4
 139 0002 86B0     		sub	sp, sp, #24
 140              		.cfi_def_cfa_offset 32
 237:Generated_Source\PSoC5/PGA_2.c ****     /* Constant array for gain settings */
 238:Generated_Source\PSoC5/PGA_2.c ****     const uint8 PGA_2_GainArray[9] = { 
 141              		.loc 1 238 0
 142 0004 6C46     		mov	r4, sp
 236:Generated_Source\PSoC5/PGA_2.c ****     /* Constant array for gain settings */
 143              		.loc 1 236 0
 144 0006 0246     		mov	r2, r0
 145              		.loc 1 238 0
 146 0008 174B     		ldr	r3, .L13
 239:Generated_Source\PSoC5/PGA_2.c ****         (PGA_2_RVAL_0K   | PGA_2_R20_40B_40K | PGA_2_BIAS_LOW), /* G=1  */
 240:Generated_Source\PSoC5/PGA_2.c ****         (PGA_2_RVAL_40K  | PGA_2_R20_40B_40K | PGA_2_BIAS_LOW), /* G=2  */
 241:Generated_Source\PSoC5/PGA_2.c ****         (PGA_2_RVAL_120K | PGA_2_R20_40B_40K | PGA_2_BIAS_LOW), /* G=4  */
 242:Generated_Source\PSoC5/PGA_2.c ****         (PGA_2_RVAL_280K | PGA_2_R20_40B_40K | PGA_2_BIAS_LOW), /* G=8  */
 243:Generated_Source\PSoC5/PGA_2.c ****         (PGA_2_RVAL_600K | PGA_2_R20_40B_40K | PGA_2_BIAS_LOW), /* G=16 */
 244:Generated_Source\PSoC5/PGA_2.c ****         (PGA_2_RVAL_460K | PGA_2_R20_40B_40K | PGA_2_BIAS_LOW), /* G=24, Sets Rin as 20k */
 245:Generated_Source\PSoC5/PGA_2.c ****         (PGA_2_RVAL_620K | PGA_2_R20_40B_20K | PGA_2_BIAS_LOW), /* G=32 */
 246:Generated_Source\PSoC5/PGA_2.c ****         (PGA_2_RVAL_470K | PGA_2_R20_40B_20K | PGA_2_BIAS_LOW), /* G=48, Sets Rin as 10k */
 247:Generated_Source\PSoC5/PGA_2.c ****         (PGA_2_RVAL_490K | PGA_2_R20_40B_20K | PGA_2_BIAS_LOW)  /* G=50, Sets Rin as 10k */
 248:Generated_Source\PSoC5/PGA_2.c ****     };
 249:Generated_Source\PSoC5/PGA_2.c ****     
 250:Generated_Source\PSoC5/PGA_2.c ****     /* Constant array for gain compenstion settings */
 251:Generated_Source\PSoC5/PGA_2.c ****     const uint8 PGA_2_GainComp[9] = { 
ARM GAS  C:\Users\jebush2\AppData\Local\Temp\cc2ZJRVc.s 			page 8


 252:Generated_Source\PSoC5/PGA_2.c ****         ( PGA_2_COMP_4P35PF  | (uint8)( PGA_2_REDC_00 >> 2 )), /* G=1  */
 253:Generated_Source\PSoC5/PGA_2.c ****         ( PGA_2_COMP_4P35PF  | (uint8)( PGA_2_REDC_01 >> 2 )), /* G=2  */
 254:Generated_Source\PSoC5/PGA_2.c ****         ( PGA_2_COMP_3P0PF   | (uint8)( PGA_2_REDC_01 >> 2 )), /* G=4  */
 255:Generated_Source\PSoC5/PGA_2.c ****         ( PGA_2_COMP_3P0PF   | (uint8)( PGA_2_REDC_01 >> 2 )), /* G=8  */
 256:Generated_Source\PSoC5/PGA_2.c ****         ( PGA_2_COMP_3P6PF   | (uint8)( PGA_2_REDC_01 >> 2 )), /* G=16 */
 257:Generated_Source\PSoC5/PGA_2.c ****         ( PGA_2_COMP_3P6PF   | (uint8)( PGA_2_REDC_11 >> 2 )), /* G=24 */
 258:Generated_Source\PSoC5/PGA_2.c ****         ( PGA_2_COMP_3P6PF   | (uint8)( PGA_2_REDC_11 >> 2 )), /* G=32 */
 259:Generated_Source\PSoC5/PGA_2.c ****         ( PGA_2_COMP_3P6PF   | (uint8)( PGA_2_REDC_00 >> 2 )), /* G=48 */
 260:Generated_Source\PSoC5/PGA_2.c ****         ( PGA_2_COMP_3P6PF   | (uint8)( PGA_2_REDC_00 >> 2 ))  /* G=50 */
 261:Generated_Source\PSoC5/PGA_2.c ****     };
 262:Generated_Source\PSoC5/PGA_2.c ****     
 263:Generated_Source\PSoC5/PGA_2.c ****     /* Only set new gain if it is a valid gain */
 264:Generated_Source\PSoC5/PGA_2.c ****     if( gain <= PGA_2_GAIN_MAX)
 147              		.loc 1 264 0
 148 000a 082A     		cmp	r2, #8
 238:Generated_Source\PSoC5/PGA_2.c ****         (PGA_2_RVAL_0K   | PGA_2_R20_40B_40K | PGA_2_BIAS_LOW), /* G=1  */
 149              		.loc 1 238 0
 150 000c 5968     		ldr	r1, [r3, #4]	@ unaligned
 151 000e 1868     		ldr	r0, [r3]	@ unaligned
 152              	.LVL5:
 153 0010 03C4     		stmia	r4!, {r0, r1}
 154 0012 197A     		ldrb	r1, [r3, #8]	@ zero_extendqisi2
 251:Generated_Source\PSoC5/PGA_2.c ****         ( PGA_2_COMP_4P35PF  | (uint8)( PGA_2_REDC_00 >> 2 )), /* G=1  */
 155              		.loc 1 251 0
 156 0014 53F8090F 		ldr	r0, [r3, #9]!	@ unaligned
 238:Generated_Source\PSoC5/PGA_2.c ****         (PGA_2_RVAL_0K   | PGA_2_R20_40B_40K | PGA_2_BIAS_LOW), /* G=1  */
 157              		.loc 1 238 0
 158 0018 2170     		strb	r1, [r4]
 251:Generated_Source\PSoC5/PGA_2.c ****         ( PGA_2_COMP_4P35PF  | (uint8)( PGA_2_REDC_00 >> 2 )), /* G=1  */
 159              		.loc 1 251 0
 160 001a 5968     		ldr	r1, [r3, #4]	@ unaligned
 161 001c 03AC     		add	r4, sp, #12
 162 001e 03C4     		stmia	r4!, {r0, r1}
 163 0020 1B7A     		ldrb	r3, [r3, #8]	@ zero_extendqisi2
 164 0022 2370     		strb	r3, [r4]
 165              		.loc 1 264 0
 166 0024 1ED8     		bhi	.L10
 265:Generated_Source\PSoC5/PGA_2.c ****     {
 266:Generated_Source\PSoC5/PGA_2.c ****         /* Clear resistors, redc, and bias */
 267:Generated_Source\PSoC5/PGA_2.c ****         PGA_2_CR2_REG &= (uint8)(~(PGA_2_RVAL_MASK | PGA_2_R20_40B_MASK | 
 167              		.loc 1 267 0
 168 0026 114C     		ldr	r4, .L13+4
 268:Generated_Source\PSoC5/PGA_2.c ****                                 PGA_2_REDC_MASK | PGA_2_BIAS_MASK ));
 269:Generated_Source\PSoC5/PGA_2.c **** 
 270:Generated_Source\PSoC5/PGA_2.c ****         /* Set gain value resistors, redc comp, and bias */
 271:Generated_Source\PSoC5/PGA_2.c ****         PGA_2_CR2_REG |= (PGA_2_GainArray[gain] |
 272:Generated_Source\PSoC5/PGA_2.c ****                                 ((uint8)(PGA_2_GainComp[gain] << 2 ) & PGA_2_REDC_MASK));
 169              		.loc 1 272 0
 170 0028 06A9     		add	r1, sp, #24
 267:Generated_Source\PSoC5/PGA_2.c ****                                 PGA_2_REDC_MASK | PGA_2_BIAS_MASK ));
 171              		.loc 1 267 0
 172 002a 2378     		ldrb	r3, [r4]	@ zero_extendqisi2
 173              		.loc 1 272 0
 174 002c 8818     		adds	r0, r1, r2
 267:Generated_Source\PSoC5/PGA_2.c ****                                 PGA_2_REDC_MASK | PGA_2_BIAS_MASK ));
 175              		.loc 1 267 0
 176 002e 03F08003 		and	r3, r3, #128
ARM GAS  C:\Users\jebush2\AppData\Local\Temp\cc2ZJRVc.s 			page 9


 177 0032 DBB2     		uxtb	r3, r3
 178 0034 2370     		strb	r3, [r4]
 271:Generated_Source\PSoC5/PGA_2.c ****                                 ((uint8)(PGA_2_GainComp[gain] << 2 ) & PGA_2_REDC_MASK));
 179              		.loc 1 271 0
 180 0036 10F80C1C 		ldrb	r1, [r0, #-12]	@ zero_extendqisi2
 181 003a 2378     		ldrb	r3, [r4]	@ zero_extendqisi2
 182 003c 10F8182C 		ldrb	r2, [r0, #-24]	@ zero_extendqisi2
 183 0040 8900     		lsls	r1, r1, #2
 184 0042 01F00C01 		and	r1, r1, #12
 185 0046 1343     		orrs	r3, r3, r2
 186 0048 0B43     		orrs	r3, r3, r1
 273:Generated_Source\PSoC5/PGA_2.c **** 
 274:Generated_Source\PSoC5/PGA_2.c ****         /* Clear sc_comp  */
 275:Generated_Source\PSoC5/PGA_2.c ****         PGA_2_CR1_REG &= (uint8)(~PGA_2_COMP_MASK);
 187              		.loc 1 275 0
 188 004a 094A     		ldr	r2, .L13+8
 271:Generated_Source\PSoC5/PGA_2.c ****                                 ((uint8)(PGA_2_GainComp[gain] << 2 ) & PGA_2_REDC_MASK));
 189              		.loc 1 271 0
 190 004c 2370     		strb	r3, [r4]
 191              		.loc 1 275 0
 192 004e 1378     		ldrb	r3, [r2]	@ zero_extendqisi2
 193 0050 03F0F303 		and	r3, r3, #243
 194 0054 1370     		strb	r3, [r2]
 276:Generated_Source\PSoC5/PGA_2.c ****         /* Set sc_comp  */
 277:Generated_Source\PSoC5/PGA_2.c ****         PGA_2_CR1_REG |= ( PGA_2_GainComp[gain] | PGA_2_COMP_MASK );
 195              		.loc 1 277 0
 196 0056 1378     		ldrb	r3, [r2]	@ zero_extendqisi2
 197 0058 10F80C1C 		ldrb	r1, [r0, #-12]	@ zero_extendqisi2
 198 005c 43F00C03 		orr	r3, r3, #12
 199 0060 0B43     		orrs	r3, r3, r1
 200 0062 1370     		strb	r3, [r2]
 201              	.L10:
 278:Generated_Source\PSoC5/PGA_2.c ****     }
 279:Generated_Source\PSoC5/PGA_2.c **** }
 202              		.loc 1 279 0
 203 0064 06B0     		add	sp, sp, #24
 204              		.cfi_def_cfa_offset 8
 205              		@ sp needed
 206 0066 10BD     		pop	{r4, pc}
 207              	.L14:
 208              		.align	2
 209              	.L13:
 210 0068 00000000 		.word	.LANCHOR0
 211 006c 0A580040 		.word	1073764362
 212 0070 09580040 		.word	1073764361
 213              		.cfi_endproc
 214              	.LFE5:
 215              		.size	PGA_2_SetGain, .-PGA_2_SetGain
 216              		.section	.text.PGA_2_Init,"ax",%progbits
 217              		.align	1
 218              		.global	PGA_2_Init
 219              		.thumb
 220              		.thumb_func
 221              		.type	PGA_2_Init, %function
 222              	PGA_2_Init:
 223              	.LFB0:
  50:Generated_Source\PSoC5/PGA_2.c ****     /* Set PGA mode */
ARM GAS  C:\Users\jebush2\AppData\Local\Temp\cc2ZJRVc.s 			page 10


 224              		.loc 1 50 0
 225              		.cfi_startproc
 226              		@ args = 0, pretend = 0, frame = 0
 227              		@ frame_needed = 0, uses_anonymous_args = 0
 228 0000 08B5     		push	{r3, lr}
 229              		.cfi_def_cfa_offset 8
 230              		.cfi_offset 3, -8
 231              		.cfi_offset 14, -4
  52:Generated_Source\PSoC5/PGA_2.c ****     /* Set non-inverting PGA mode and reference mode */
 232              		.loc 1 52 0
 233 0002 094B     		ldr	r3, .L16
 234 0004 0C22     		movs	r2, #12
 235 0006 1A70     		strb	r2, [r3]
  54:Generated_Source\PSoC5/PGA_2.c ****     /* Set default gain and ref mode */
 236              		.loc 1 54 0
 237 0008 084A     		ldr	r2, .L16+4
  58:Generated_Source\PSoC5/PGA_2.c ****     /* Set power */
 238              		.loc 1 58 0
 239 000a 0120     		movs	r0, #1
  54:Generated_Source\PSoC5/PGA_2.c ****     /* Set default gain and ref mode */
 240              		.loc 1 54 0
 241 000c 1378     		ldrb	r3, [r2]	@ zero_extendqisi2
 242 000e 43F02003 		orr	r3, r3, #32
 243 0012 1370     		strb	r3, [r2]
  56:Generated_Source\PSoC5/PGA_2.c ****     /* Set gain and compensation */
 244              		.loc 1 56 0
 245 0014 064B     		ldr	r3, .L16+8
 246 0016 8022     		movs	r2, #128
 247 0018 1A70     		strb	r2, [r3]
  58:Generated_Source\PSoC5/PGA_2.c ****     /* Set power */
 248              		.loc 1 58 0
 249 001a FFF7FEFF 		bl	PGA_2_SetGain
 250              	.LVL6:
  61:Generated_Source\PSoC5/PGA_2.c **** 
 251              		.loc 1 61 0
 252 001e BDE80840 		pop	{r3, lr}
 253              		.cfi_restore 14
 254              		.cfi_restore 3
 255              		.cfi_def_cfa_offset 0
  60:Generated_Source\PSoC5/PGA_2.c **** }
 256              		.loc 1 60 0
 257 0022 0120     		movs	r0, #1
 258 0024 FFF7FEBF 		b	PGA_2_SetPower
 259              	.LVL7:
 260              	.L17:
 261              		.align	2
 262              	.L16:
 263 0028 08580040 		.word	1073764360
 264 002c 09580040 		.word	1073764361
 265 0030 0A580040 		.word	1073764362
 266              		.cfi_endproc
 267              	.LFE0:
 268              		.size	PGA_2_Init, .-PGA_2_Init
 269              		.section	.text.PGA_2_Start,"ax",%progbits
 270              		.align	1
 271              		.global	PGA_2_Start
 272              		.thumb
ARM GAS  C:\Users\jebush2\AppData\Local\Temp\cc2ZJRVc.s 			page 11


 273              		.thumb_func
 274              		.type	PGA_2_Start, %function
 275              	PGA_2_Start:
 276              	.LFB2:
 135:Generated_Source\PSoC5/PGA_2.c **** 
 277              		.loc 1 135 0
 278              		.cfi_startproc
 279              		@ args = 0, pretend = 0, frame = 0
 280              		@ frame_needed = 0, uses_anonymous_args = 0
 281 0000 10B5     		push	{r4, lr}
 282              		.cfi_def_cfa_offset 8
 283              		.cfi_offset 4, -8
 284              		.cfi_offset 14, -4
 140:Generated_Source\PSoC5/PGA_2.c ****     {
 285              		.loc 1 140 0
 286 0002 054C     		ldr	r4, .L20
 287 0004 2378     		ldrb	r3, [r4]	@ zero_extendqisi2
 288 0006 1BB9     		cbnz	r3, .L19
 142:Generated_Source\PSoC5/PGA_2.c ****         PGA_2_initVar = 1u;
 289              		.loc 1 142 0
 290 0008 FFF7FEFF 		bl	PGA_2_Init
 291              	.LVL8:
 143:Generated_Source\PSoC5/PGA_2.c ****     }
 292              		.loc 1 143 0
 293 000c 0123     		movs	r3, #1
 294 000e 2370     		strb	r3, [r4]
 295              	.L19:
 147:Generated_Source\PSoC5/PGA_2.c **** 
 296              		.loc 1 147 0
 297 0010 BDE81040 		pop	{r4, lr}
 298              		.cfi_restore 14
 299              		.cfi_restore 4
 300              		.cfi_def_cfa_offset 0
 146:Generated_Source\PSoC5/PGA_2.c **** }
 301              		.loc 1 146 0
 302 0014 FFF7FEBF 		b	PGA_2_Enable
 303              	.LVL9:
 304              	.L21:
 305              		.align	2
 306              	.L20:
 307 0018 00000000 		.word	.LANCHOR1
 308              		.cfi_endproc
 309              	.LFE2:
 310              		.size	PGA_2_Start, .-PGA_2_Start
 311              		.global	PGA_2_initVar
 312              		.section	.rodata
 313              		.set	.LANCHOR0,. + 0
 314              	.LC0:
 315 0000 01       		.byte	1
 316 0001 11       		.byte	17
 317 0002 21       		.byte	33
 318 0003 31       		.byte	49
 319 0004 41       		.byte	65
 320 0005 61       		.byte	97
 321 0006 53       		.byte	83
 322 0007 63       		.byte	99
 323 0008 73       		.byte	115
ARM GAS  C:\Users\jebush2\AppData\Local\Temp\cc2ZJRVc.s 			page 12


 324              	.LC1:
 325 0009 08       		.byte	8
 326 000a 09       		.byte	9
 327 000b 01       		.byte	1
 328 000c 01       		.byte	1
 329 000d 05       		.byte	5
 330 000e 07       		.byte	7
 331 000f 07       		.byte	7
 332 0010 04       		.byte	4
 333 0011 04       		.byte	4
 334              		.bss
 335              		.set	.LANCHOR1,. + 0
 336              		.type	PGA_2_initVar, %object
 337              		.size	PGA_2_initVar, 1
 338              	PGA_2_initVar:
 339 0000 00       		.space	1
 340              		.text
 341              	.Letext0:
 342              		.file 2 "Generated_Source\\PSoC5\\cytypes.h"