ARM GAS  C:\Users\jebush2\AppData\Local\Temp\ccpvBk7b.s 			page 1


   1              		.syntax unified
   2              		.cpu cortex-m3
   3              		.fpu softvfp
   4              		.eabi_attribute 20, 1
   5              		.eabi_attribute 21, 1
   6              		.eabi_attribute 23, 3
   7              		.eabi_attribute 24, 1
   8              		.eabi_attribute 25, 1
   9              		.eabi_attribute 26, 1
  10              		.eabi_attribute 30, 4
  11              		.eabi_attribute 34, 1
  12              		.eabi_attribute 18, 4
  13              		.thumb
  14              		.syntax unified
  15              		.file	"Seat_ADC2.c"
  16              		.text
  17              	.Ltext0:
  18              		.cfi_sections	.debug_frame
  19              		.section	.text.Seat_ADC2_Enable,"ax",%progbits
  20              		.align	1
  21              		.global	Seat_ADC2_Enable
  22              		.thumb
  23              		.thumb_func
  24              		.type	Seat_ADC2_Enable, %function
  25              	Seat_ADC2_Enable:
  26              	.LFB2:
  27              		.file 1 "Generated_Source\\PSoC5\\Seat_ADC2.c"
   1:Generated_Source\PSoC5/Seat_ADC2.c **** /*******************************************************************************
   2:Generated_Source\PSoC5/Seat_ADC2.c **** * File Name: Seat_ADC2.c
   3:Generated_Source\PSoC5/Seat_ADC2.c **** * Version 3.10
   4:Generated_Source\PSoC5/Seat_ADC2.c **** *
   5:Generated_Source\PSoC5/Seat_ADC2.c **** * Description:
   6:Generated_Source\PSoC5/Seat_ADC2.c **** *  This file provides the source code to the API for the Successive
   7:Generated_Source\PSoC5/Seat_ADC2.c **** *  approximation ADC Component.
   8:Generated_Source\PSoC5/Seat_ADC2.c **** *
   9:Generated_Source\PSoC5/Seat_ADC2.c **** * Note:
  10:Generated_Source\PSoC5/Seat_ADC2.c **** *
  11:Generated_Source\PSoC5/Seat_ADC2.c **** ********************************************************************************
  12:Generated_Source\PSoC5/Seat_ADC2.c **** * Copyright 2008-2015, Cypress Semiconductor Corporation.  All rights reserved.
  13:Generated_Source\PSoC5/Seat_ADC2.c **** * You may use this file only in accordance with the license, terms, conditions,
  14:Generated_Source\PSoC5/Seat_ADC2.c **** * disclaimers, and limitations in the end user license agreement accompanying
  15:Generated_Source\PSoC5/Seat_ADC2.c **** * the software package with which this file was provided.
  16:Generated_Source\PSoC5/Seat_ADC2.c **** *******************************************************************************/
  17:Generated_Source\PSoC5/Seat_ADC2.c **** 
  18:Generated_Source\PSoC5/Seat_ADC2.c **** #include "CyLib.h"
  19:Generated_Source\PSoC5/Seat_ADC2.c **** #include "Seat_ADC2.h"
  20:Generated_Source\PSoC5/Seat_ADC2.c **** 
  21:Generated_Source\PSoC5/Seat_ADC2.c **** #if(Seat_ADC2_DEFAULT_INTERNAL_CLK)
  22:Generated_Source\PSoC5/Seat_ADC2.c ****     #include "Seat_ADC2_theACLK.h"
  23:Generated_Source\PSoC5/Seat_ADC2.c **** #endif /* End Seat_ADC2_DEFAULT_INTERNAL_CLK */
  24:Generated_Source\PSoC5/Seat_ADC2.c **** 
  25:Generated_Source\PSoC5/Seat_ADC2.c **** 
  26:Generated_Source\PSoC5/Seat_ADC2.c **** /***************************************
  27:Generated_Source\PSoC5/Seat_ADC2.c **** * Forward function references
  28:Generated_Source\PSoC5/Seat_ADC2.c **** ***************************************/
  29:Generated_Source\PSoC5/Seat_ADC2.c **** static void Seat_ADC2_CalcGain(uint8 resolution);
  30:Generated_Source\PSoC5/Seat_ADC2.c **** 
ARM GAS  C:\Users\jebush2\AppData\Local\Temp\ccpvBk7b.s 			page 2


  31:Generated_Source\PSoC5/Seat_ADC2.c **** 
  32:Generated_Source\PSoC5/Seat_ADC2.c **** /***************************************
  33:Generated_Source\PSoC5/Seat_ADC2.c **** * Global data allocation
  34:Generated_Source\PSoC5/Seat_ADC2.c **** ***************************************/
  35:Generated_Source\PSoC5/Seat_ADC2.c **** uint8 Seat_ADC2_initVar = 0u;
  36:Generated_Source\PSoC5/Seat_ADC2.c **** volatile int16 Seat_ADC2_offset;
  37:Generated_Source\PSoC5/Seat_ADC2.c **** volatile int16 Seat_ADC2_countsPerVolt;     /* Obsolete Gain compensation */
  38:Generated_Source\PSoC5/Seat_ADC2.c **** volatile int32 Seat_ADC2_countsPer10Volt;   /* Gain compensation */
  39:Generated_Source\PSoC5/Seat_ADC2.c **** volatile int16 Seat_ADC2_shift;
  40:Generated_Source\PSoC5/Seat_ADC2.c **** 
  41:Generated_Source\PSoC5/Seat_ADC2.c **** 
  42:Generated_Source\PSoC5/Seat_ADC2.c **** /*******************************************************************************
  43:Generated_Source\PSoC5/Seat_ADC2.c **** * Function Name: Seat_ADC2_Start
  44:Generated_Source\PSoC5/Seat_ADC2.c **** ********************************************************************************
  45:Generated_Source\PSoC5/Seat_ADC2.c **** *
  46:Generated_Source\PSoC5/Seat_ADC2.c **** * Summary:
  47:Generated_Source\PSoC5/Seat_ADC2.c **** *  This is the preferred method to begin component operation.
  48:Generated_Source\PSoC5/Seat_ADC2.c **** *  Seat_ADC2_Start() sets the initVar variable, calls the
  49:Generated_Source\PSoC5/Seat_ADC2.c **** *  Seat_ADC2_Init() function, and then calls the
  50:Generated_Source\PSoC5/Seat_ADC2.c **** *  Seat_ADC2_Enable() function.
  51:Generated_Source\PSoC5/Seat_ADC2.c **** *
  52:Generated_Source\PSoC5/Seat_ADC2.c **** * Parameters:
  53:Generated_Source\PSoC5/Seat_ADC2.c **** *  None.
  54:Generated_Source\PSoC5/Seat_ADC2.c **** *
  55:Generated_Source\PSoC5/Seat_ADC2.c **** * Return:
  56:Generated_Source\PSoC5/Seat_ADC2.c **** *  None.
  57:Generated_Source\PSoC5/Seat_ADC2.c **** *
  58:Generated_Source\PSoC5/Seat_ADC2.c **** * Global variables:
  59:Generated_Source\PSoC5/Seat_ADC2.c **** *  The Seat_ADC2_initVar variable is used to indicate when/if initial
  60:Generated_Source\PSoC5/Seat_ADC2.c **** *  configuration of this component has happened. The variable is initialized to
  61:Generated_Source\PSoC5/Seat_ADC2.c **** *  zero and set to 1 the first time ADC_Start() is called. This allows for
  62:Generated_Source\PSoC5/Seat_ADC2.c **** *  component Re-Start without re-initialization in all subsequent calls to the
  63:Generated_Source\PSoC5/Seat_ADC2.c **** *  Seat_ADC2_Start() routine.
  64:Generated_Source\PSoC5/Seat_ADC2.c **** *  If re-initialization of the component is required the variable should be set
  65:Generated_Source\PSoC5/Seat_ADC2.c **** *  to zero before call of Seat_ADC2_Start() routine, or the user may call
  66:Generated_Source\PSoC5/Seat_ADC2.c **** *  Seat_ADC2_Init() and Seat_ADC2_Enable() as done in the
  67:Generated_Source\PSoC5/Seat_ADC2.c **** *  Seat_ADC2_Start() routine.
  68:Generated_Source\PSoC5/Seat_ADC2.c **** *
  69:Generated_Source\PSoC5/Seat_ADC2.c **** * Side Effect:
  70:Generated_Source\PSoC5/Seat_ADC2.c **** *  If the initVar variable is already set, this function only calls the
  71:Generated_Source\PSoC5/Seat_ADC2.c **** *  Seat_ADC2_Enable() function.
  72:Generated_Source\PSoC5/Seat_ADC2.c **** *
  73:Generated_Source\PSoC5/Seat_ADC2.c **** *******************************************************************************/
  74:Generated_Source\PSoC5/Seat_ADC2.c **** void Seat_ADC2_Start(void)
  75:Generated_Source\PSoC5/Seat_ADC2.c **** {
  76:Generated_Source\PSoC5/Seat_ADC2.c **** 
  77:Generated_Source\PSoC5/Seat_ADC2.c ****     /* If not Initialized then initialize all required hardware and software */
  78:Generated_Source\PSoC5/Seat_ADC2.c ****     if(Seat_ADC2_initVar == 0u)
  79:Generated_Source\PSoC5/Seat_ADC2.c ****     {
  80:Generated_Source\PSoC5/Seat_ADC2.c ****         Seat_ADC2_Init();
  81:Generated_Source\PSoC5/Seat_ADC2.c ****         Seat_ADC2_initVar = 1u;
  82:Generated_Source\PSoC5/Seat_ADC2.c ****     }
  83:Generated_Source\PSoC5/Seat_ADC2.c ****     Seat_ADC2_Enable();
  84:Generated_Source\PSoC5/Seat_ADC2.c **** }
  85:Generated_Source\PSoC5/Seat_ADC2.c **** 
  86:Generated_Source\PSoC5/Seat_ADC2.c **** 
  87:Generated_Source\PSoC5/Seat_ADC2.c **** /*******************************************************************************
ARM GAS  C:\Users\jebush2\AppData\Local\Temp\ccpvBk7b.s 			page 3


  88:Generated_Source\PSoC5/Seat_ADC2.c **** * Function Name: Seat_ADC2_Init
  89:Generated_Source\PSoC5/Seat_ADC2.c **** ********************************************************************************
  90:Generated_Source\PSoC5/Seat_ADC2.c **** *
  91:Generated_Source\PSoC5/Seat_ADC2.c **** * Summary:
  92:Generated_Source\PSoC5/Seat_ADC2.c **** *  Initialize component's parameters to the parameters set by user in the
  93:Generated_Source\PSoC5/Seat_ADC2.c **** *  customizer of the component placed onto schematic. Usually called in
  94:Generated_Source\PSoC5/Seat_ADC2.c **** *  Seat_ADC2_Start().
  95:Generated_Source\PSoC5/Seat_ADC2.c **** *
  96:Generated_Source\PSoC5/Seat_ADC2.c **** * Parameters:
  97:Generated_Source\PSoC5/Seat_ADC2.c **** *  None.
  98:Generated_Source\PSoC5/Seat_ADC2.c **** *
  99:Generated_Source\PSoC5/Seat_ADC2.c **** * Return:
 100:Generated_Source\PSoC5/Seat_ADC2.c **** *  None.
 101:Generated_Source\PSoC5/Seat_ADC2.c **** *
 102:Generated_Source\PSoC5/Seat_ADC2.c **** * Global variables:
 103:Generated_Source\PSoC5/Seat_ADC2.c **** *  The Seat_ADC2_offset variable is initialized to 0.
 104:Generated_Source\PSoC5/Seat_ADC2.c **** *
 105:Generated_Source\PSoC5/Seat_ADC2.c **** *******************************************************************************/
 106:Generated_Source\PSoC5/Seat_ADC2.c **** void Seat_ADC2_Init(void)
 107:Generated_Source\PSoC5/Seat_ADC2.c **** {
 108:Generated_Source\PSoC5/Seat_ADC2.c **** 
 109:Generated_Source\PSoC5/Seat_ADC2.c ****     /* This is only valid if there is an internal clock */
 110:Generated_Source\PSoC5/Seat_ADC2.c ****     #if(Seat_ADC2_DEFAULT_INTERNAL_CLK)
 111:Generated_Source\PSoC5/Seat_ADC2.c ****         Seat_ADC2_theACLK_SetMode(CYCLK_DUTY);
 112:Generated_Source\PSoC5/Seat_ADC2.c ****     #endif /* End Seat_ADC2_DEFAULT_INTERNAL_CLK */
 113:Generated_Source\PSoC5/Seat_ADC2.c **** 
 114:Generated_Source\PSoC5/Seat_ADC2.c ****     #if(Seat_ADC2_IRQ_REMOVE == 0u)
 115:Generated_Source\PSoC5/Seat_ADC2.c ****         /* Start and set interrupt vector */
 116:Generated_Source\PSoC5/Seat_ADC2.c ****         CyIntSetPriority(Seat_ADC2_INTC_NUMBER, Seat_ADC2_INTC_PRIOR_NUMBER);
 117:Generated_Source\PSoC5/Seat_ADC2.c ****         (void)CyIntSetVector(Seat_ADC2_INTC_NUMBER, &Seat_ADC2_ISR);
 118:Generated_Source\PSoC5/Seat_ADC2.c ****     #endif   /* End Seat_ADC2_IRQ_REMOVE */
 119:Generated_Source\PSoC5/Seat_ADC2.c **** 
 120:Generated_Source\PSoC5/Seat_ADC2.c ****     /* Enable IRQ mode*/
 121:Generated_Source\PSoC5/Seat_ADC2.c ****     Seat_ADC2_SAR_CSR1_REG |= Seat_ADC2_SAR_IRQ_MASK_EN | Seat_ADC2_SAR_IRQ_MODE_EDGE;
 122:Generated_Source\PSoC5/Seat_ADC2.c **** 
 123:Generated_Source\PSoC5/Seat_ADC2.c ****     /*Set SAR ADC resolution ADC */
 124:Generated_Source\PSoC5/Seat_ADC2.c ****     Seat_ADC2_SetResolution(Seat_ADC2_DEFAULT_RESOLUTION);
 125:Generated_Source\PSoC5/Seat_ADC2.c ****     Seat_ADC2_offset = 0;
 126:Generated_Source\PSoC5/Seat_ADC2.c **** }
 127:Generated_Source\PSoC5/Seat_ADC2.c **** 
 128:Generated_Source\PSoC5/Seat_ADC2.c **** 
 129:Generated_Source\PSoC5/Seat_ADC2.c **** /*******************************************************************************
 130:Generated_Source\PSoC5/Seat_ADC2.c **** * Function Name: Seat_ADC2_Enable
 131:Generated_Source\PSoC5/Seat_ADC2.c **** ********************************************************************************
 132:Generated_Source\PSoC5/Seat_ADC2.c **** *
 133:Generated_Source\PSoC5/Seat_ADC2.c **** * Summary:
 134:Generated_Source\PSoC5/Seat_ADC2.c **** *  Enables the reference, clock and power for SAR ADC.
 135:Generated_Source\PSoC5/Seat_ADC2.c **** *
 136:Generated_Source\PSoC5/Seat_ADC2.c **** * Parameters:
 137:Generated_Source\PSoC5/Seat_ADC2.c **** *  None.
 138:Generated_Source\PSoC5/Seat_ADC2.c **** *
 139:Generated_Source\PSoC5/Seat_ADC2.c **** * Return:
 140:Generated_Source\PSoC5/Seat_ADC2.c **** *  None.
 141:Generated_Source\PSoC5/Seat_ADC2.c **** *
 142:Generated_Source\PSoC5/Seat_ADC2.c **** *******************************************************************************/
 143:Generated_Source\PSoC5/Seat_ADC2.c **** void Seat_ADC2_Enable(void)
 144:Generated_Source\PSoC5/Seat_ADC2.c **** {
ARM GAS  C:\Users\jebush2\AppData\Local\Temp\ccpvBk7b.s 			page 4


  28              		.loc 1 144 0
  29              		.cfi_startproc
  30              		@ args = 0, pretend = 0, frame = 0
  31              		@ frame_needed = 0, uses_anonymous_args = 0
  32 0000 10B5     		push	{r4, lr}
  33              		.cfi_def_cfa_offset 8
  34              		.cfi_offset 4, -8
  35              		.cfi_offset 14, -4
 145:Generated_Source\PSoC5/Seat_ADC2.c ****     uint8 tmpReg;
 146:Generated_Source\PSoC5/Seat_ADC2.c ****     uint8 enableInterrupts;
 147:Generated_Source\PSoC5/Seat_ADC2.c ****     enableInterrupts = CyEnterCriticalSection();
  36              		.loc 1 147 0
  37 0002 FFF7FEFF 		bl	CyEnterCriticalSection
  38              	.LVL0:
 148:Generated_Source\PSoC5/Seat_ADC2.c **** 
 149:Generated_Source\PSoC5/Seat_ADC2.c ****     /* Enable the SAR ADC block in Active Power Mode */
 150:Generated_Source\PSoC5/Seat_ADC2.c ****     Seat_ADC2_PWRMGR_SAR_REG |= Seat_ADC2_ACT_PWR_SAR_EN;
  39              		.loc 1 150 0
  40 0006 214A     		ldr	r2, .L2
 147:Generated_Source\PSoC5/Seat_ADC2.c **** 
  41              		.loc 1 147 0
  42 0008 0446     		mov	r4, r0
  43              	.LVL1:
  44              		.loc 1 150 0
  45 000a 1378     		ldrb	r3, [r2]	@ zero_extendqisi2
 151:Generated_Source\PSoC5/Seat_ADC2.c **** 
 152:Generated_Source\PSoC5/Seat_ADC2.c ****      /* Enable the SAR ADC in Standby Power Mode*/
 153:Generated_Source\PSoC5/Seat_ADC2.c ****     Seat_ADC2_STBY_PWRMGR_SAR_REG |= Seat_ADC2_STBY_PWR_SAR_EN;
 154:Generated_Source\PSoC5/Seat_ADC2.c **** 
 155:Generated_Source\PSoC5/Seat_ADC2.c ****     /* This is only valid if there is an internal clock */
 156:Generated_Source\PSoC5/Seat_ADC2.c ****     #if(Seat_ADC2_DEFAULT_INTERNAL_CLK)
 157:Generated_Source\PSoC5/Seat_ADC2.c ****         Seat_ADC2_PWRMGR_CLK_REG |= Seat_ADC2_ACT_PWR_CLK_EN;
 158:Generated_Source\PSoC5/Seat_ADC2.c ****         Seat_ADC2_STBY_PWRMGR_CLK_REG |= Seat_ADC2_STBY_PWR_CLK_EN;
 159:Generated_Source\PSoC5/Seat_ADC2.c ****     #endif /* End Seat_ADC2_DEFAULT_INTERNAL_CLK */
 160:Generated_Source\PSoC5/Seat_ADC2.c **** 
 161:Generated_Source\PSoC5/Seat_ADC2.c ****     /* Enable VCM buffer and Enable Int Ref Amp */
 162:Generated_Source\PSoC5/Seat_ADC2.c ****     tmpReg = Seat_ADC2_SAR_CSR3_REG;
 163:Generated_Source\PSoC5/Seat_ADC2.c ****     tmpReg |= Seat_ADC2_SAR_EN_BUF_VCM_EN;
 164:Generated_Source\PSoC5/Seat_ADC2.c ****     /* PD_BUF_VREF is OFF in External reference or Vdda reference mode */
 165:Generated_Source\PSoC5/Seat_ADC2.c ****     #if((Seat_ADC2_DEFAULT_REFERENCE == Seat_ADC2__EXT_REF) || \
 166:Generated_Source\PSoC5/Seat_ADC2.c ****         (Seat_ADC2_DEFAULT_RANGE == Seat_ADC2__VNEG_VDDA_DIFF))
 167:Generated_Source\PSoC5/Seat_ADC2.c ****         tmpReg &= (uint8)~Seat_ADC2_SAR_EN_BUF_VREF_EN;
 168:Generated_Source\PSoC5/Seat_ADC2.c ****     #else /* In INTREF or INTREF Bypassed this buffer is ON */
 169:Generated_Source\PSoC5/Seat_ADC2.c ****         tmpReg |= Seat_ADC2_SAR_EN_BUF_VREF_EN;
 170:Generated_Source\PSoC5/Seat_ADC2.c ****     #endif /* Seat_ADC2_DEFAULT_REFERENCE == Seat_ADC2__EXT_REF */
 171:Generated_Source\PSoC5/Seat_ADC2.c ****     Seat_ADC2_SAR_CSR3_REG = tmpReg;
 172:Generated_Source\PSoC5/Seat_ADC2.c **** 
 173:Generated_Source\PSoC5/Seat_ADC2.c ****     /* Set reference for ADC */
 174:Generated_Source\PSoC5/Seat_ADC2.c ****     #if(Seat_ADC2_DEFAULT_RANGE == Seat_ADC2__VNEG_VDDA_DIFF)
 175:Generated_Source\PSoC5/Seat_ADC2.c ****         #if(Seat_ADC2_DEFAULT_REFERENCE == Seat_ADC2__EXT_REF)
 176:Generated_Source\PSoC5/Seat_ADC2.c ****             Seat_ADC2_SAR_CSR6_REG = Seat_ADC2_INT_BYPASS_EXT_VREF; /* S2 */
 177:Generated_Source\PSoC5/Seat_ADC2.c ****         #else /* Internal Vdda reference or obsolete bypass mode */
 178:Generated_Source\PSoC5/Seat_ADC2.c ****             Seat_ADC2_SAR_CSR6_REG = Seat_ADC2_VDDA_VREF;           /* S7 */
 179:Generated_Source\PSoC5/Seat_ADC2.c ****         #endif /* Seat_ADC2_DEFAULT_REFERENCE == Seat_ADC2__EXT_REF */
 180:Generated_Source\PSoC5/Seat_ADC2.c ****     #else  /* Reference goes through internal buffer */
 181:Generated_Source\PSoC5/Seat_ADC2.c ****         #if(Seat_ADC2_DEFAULT_REFERENCE == Seat_ADC2__INT_REF_NOT_BYPASSED)
 182:Generated_Source\PSoC5/Seat_ADC2.c ****             Seat_ADC2_SAR_CSR6_REG = Seat_ADC2_INT_VREF;            /* S3 + S4 */
ARM GAS  C:\Users\jebush2\AppData\Local\Temp\ccpvBk7b.s 			page 5


 183:Generated_Source\PSoC5/Seat_ADC2.c ****         #else /* INTREF Bypassed of External */
 184:Generated_Source\PSoC5/Seat_ADC2.c ****             Seat_ADC2_SAR_CSR6_REG = Seat_ADC2_INT_BYPASS_EXT_VREF; /* S2 */
 185:Generated_Source\PSoC5/Seat_ADC2.c ****         #endif /* Seat_ADC2_DEFAULT_REFERENCE == Seat_ADC2__INT_REF_NOT_BYPASSED */
 186:Generated_Source\PSoC5/Seat_ADC2.c ****     #endif /* VNEG_VDDA_DIFF */
 187:Generated_Source\PSoC5/Seat_ADC2.c **** 
 188:Generated_Source\PSoC5/Seat_ADC2.c ****     /* Low non-overlap delay for sampling clock signals (for 1MSPS) */
 189:Generated_Source\PSoC5/Seat_ADC2.c ****     #if(Seat_ADC2_HIGH_POWER_PULSE == 0u) /* MinPulseWidth <= 50 ns */
 190:Generated_Source\PSoC5/Seat_ADC2.c ****         Seat_ADC2_SAR_CSR5_REG &= (uint8)~Seat_ADC2_SAR_DLY_INC;
 191:Generated_Source\PSoC5/Seat_ADC2.c ****     #else /* Set High non-overlap delay for sampling clock signals (for <500KSPS)*/
 192:Generated_Source\PSoC5/Seat_ADC2.c ****         Seat_ADC2_SAR_CSR5_REG |= Seat_ADC2_SAR_DLY_INC;
 193:Generated_Source\PSoC5/Seat_ADC2.c ****     #endif /* Seat_ADC2_HIGH_POWER_PULSE == 0u */
 194:Generated_Source\PSoC5/Seat_ADC2.c **** 
 195:Generated_Source\PSoC5/Seat_ADC2.c ****     /* Increase comparator latch enable delay by 20%, 
 196:Generated_Source\PSoC5/Seat_ADC2.c ****     *  Increase comparator bias current by 30% without impacting delaysDelay 
 197:Generated_Source\PSoC5/Seat_ADC2.c ****     *  Default for 1MSPS) 
 198:Generated_Source\PSoC5/Seat_ADC2.c ****     */
 199:Generated_Source\PSoC5/Seat_ADC2.c ****     #if(Seat_ADC2_HIGH_POWER_PULSE == 0u)    /* MinPulseWidth <= 50 ns */
 200:Generated_Source\PSoC5/Seat_ADC2.c ****         Seat_ADC2_SAR_CSR5_REG |= Seat_ADC2_SAR_SEL_CSEL_DFT_CHAR;
 201:Generated_Source\PSoC5/Seat_ADC2.c ****     #else /* for <500ksps */
 202:Generated_Source\PSoC5/Seat_ADC2.c ****         Seat_ADC2_SAR_CSR5_REG &= (uint8)~Seat_ADC2_SAR_SEL_CSEL_DFT_CHAR;
 203:Generated_Source\PSoC5/Seat_ADC2.c ****     #endif /* Seat_ADC2_HIGH_POWER_PULSE == 0u */
 204:Generated_Source\PSoC5/Seat_ADC2.c **** 
 205:Generated_Source\PSoC5/Seat_ADC2.c ****     /* Set default power and other configurations for control register 0 in multiple lines */
 206:Generated_Source\PSoC5/Seat_ADC2.c ****     Seat_ADC2_SAR_CSR0_REG = (uint8)((uint8)Seat_ADC2_DEFAULT_POWER << Seat_ADC2_SAR_POWER_SHIFT)
 207:Generated_Source\PSoC5/Seat_ADC2.c ****     /* SAR_HIZ_CLEAR:   Should not be used for LP */
 208:Generated_Source\PSoC5/Seat_ADC2.c ****     #if ((CY_PSOC5LP) || (Seat_ADC2_DEFAULT_REFERENCE != Seat_ADC2__EXT_REF))
 209:Generated_Source\PSoC5/Seat_ADC2.c ****         | Seat_ADC2_SAR_HIZ_CLEAR
 210:Generated_Source\PSoC5/Seat_ADC2.c ****     #endif /* SAR_HIZ_CLEAR */
 211:Generated_Source\PSoC5/Seat_ADC2.c ****     /*Set Convertion mode */
 212:Generated_Source\PSoC5/Seat_ADC2.c ****     #if(Seat_ADC2_DEFAULT_CONV_MODE != Seat_ADC2__FREE_RUNNING)      /* If triggered mode */
 213:Generated_Source\PSoC5/Seat_ADC2.c ****         | Seat_ADC2_SAR_MX_SOF_UDB           /* source: UDB */
 214:Generated_Source\PSoC5/Seat_ADC2.c ****         | Seat_ADC2_SAR_SOF_MODE_EDGE        /* Set edge-sensitive sof source */
 215:Generated_Source\PSoC5/Seat_ADC2.c ****     #endif /* Seat_ADC2_DEFAULT_CONV_MODE */
 216:Generated_Source\PSoC5/Seat_ADC2.c ****     ; /* end of multiple line initialization */
 217:Generated_Source\PSoC5/Seat_ADC2.c **** 
 218:Generated_Source\PSoC5/Seat_ADC2.c ****     Seat_ADC2_SAR_TR0_REG = Seat_ADC2_SAR_CAP_TRIM_2;
 219:Generated_Source\PSoC5/Seat_ADC2.c **** 
 220:Generated_Source\PSoC5/Seat_ADC2.c ****     /* Enable clock for SAR ADC*/
 221:Generated_Source\PSoC5/Seat_ADC2.c ****     Seat_ADC2_SAR_CLK_REG |= Seat_ADC2_SAR_MX_CLK_EN;
 222:Generated_Source\PSoC5/Seat_ADC2.c **** 
 223:Generated_Source\PSoC5/Seat_ADC2.c ****     CyDelayUs(10u); /* The block is ready to use 10 us after the enable signal is set high. */
  46              		.loc 1 223 0
  47 000c 0A20     		movs	r0, #10
 150:Generated_Source\PSoC5/Seat_ADC2.c **** 
  48              		.loc 1 150 0
  49 000e 43F00103 		orr	r3, r3, #1
  50 0012 1370     		strb	r3, [r2]
 153:Generated_Source\PSoC5/Seat_ADC2.c **** 
  51              		.loc 1 153 0
  52 0014 137C     		ldrb	r3, [r2, #16]	@ zero_extendqisi2
  53 0016 43F00103 		orr	r3, r3, #1
  54 001a 1374     		strb	r3, [r2, #16]
 157:Generated_Source\PSoC5/Seat_ADC2.c ****         Seat_ADC2_STBY_PWRMGR_CLK_REG |= Seat_ADC2_STBY_PWR_CLK_EN;
  55              		.loc 1 157 0
  56 001c 12F80A3C 		ldrb	r3, [r2, #-10]	@ zero_extendqisi2
  57 0020 43F00103 		orr	r3, r3, #1
  58 0024 02F80A3C 		strb	r3, [r2, #-10]
ARM GAS  C:\Users\jebush2\AppData\Local\Temp\ccpvBk7b.s 			page 6


 158:Generated_Source\PSoC5/Seat_ADC2.c ****     #endif /* End Seat_ADC2_DEFAULT_INTERNAL_CLK */
  59              		.loc 1 158 0
  60 0028 9379     		ldrb	r3, [r2, #6]	@ zero_extendqisi2
  61 002a 43F00103 		orr	r3, r3, #1
  62 002e 9371     		strb	r3, [r2, #6]
 162:Generated_Source\PSoC5/Seat_ADC2.c ****     tmpReg |= Seat_ADC2_SAR_EN_BUF_VCM_EN;
  63              		.loc 1 162 0
  64 0030 02F5AA52 		add	r2, r2, #5440
  65 0034 1832     		adds	r2, r2, #24
  66 0036 1378     		ldrb	r3, [r2]	@ zero_extendqisi2
  67              	.LVL2:
 169:Generated_Source\PSoC5/Seat_ADC2.c ****     #endif /* Seat_ADC2_DEFAULT_REFERENCE == Seat_ADC2__EXT_REF */
  68              		.loc 1 169 0
  69 0038 43F00303 		orr	r3, r3, #3
  70              	.LVL3:
 171:Generated_Source\PSoC5/Seat_ADC2.c **** 
  71              		.loc 1 171 0
  72 003c 1370     		strb	r3, [r2]
 182:Generated_Source\PSoC5/Seat_ADC2.c ****         #else /* INTREF Bypassed of External */
  73              		.loc 1 182 0
  74 003e 144B     		ldr	r3, .L2+4
  75              	.LVL4:
  76 0040 1822     		movs	r2, #24
  77              	.LVL5:
  78 0042 1A70     		strb	r2, [r3]
  79              	.LVL6:
 192:Generated_Source\PSoC5/Seat_ADC2.c ****     #endif /* Seat_ADC2_HIGH_POWER_PULSE == 0u */
  80              		.loc 1 192 0
  81 0044 13F8012C 		ldrb	r2, [r3, #-1]	@ zero_extendqisi2
  82 0048 42F04002 		orr	r2, r2, #64
  83 004c 03F8012C 		strb	r2, [r3, #-1]
 202:Generated_Source\PSoC5/Seat_ADC2.c ****     #endif /* Seat_ADC2_HIGH_POWER_PULSE == 0u */
  84              		.loc 1 202 0
  85 0050 13F8012C 		ldrb	r2, [r3, #-1]	@ zero_extendqisi2
  86 0054 02F0FC02 		and	r2, r2, #252
  87 0058 03F8012C 		strb	r2, [r3, #-1]
 206:Generated_Source\PSoC5/Seat_ADC2.c ****     /* SAR_HIZ_CLEAR:   Should not be used for LP */
  88              		.loc 1 206 0
  89 005c CE22     		movs	r2, #206
  90 005e 03F8062C 		strb	r2, [r3, #-6]
 218:Generated_Source\PSoC5/Seat_ADC2.c **** 
  91              		.loc 1 218 0
  92 0062 A3F59753 		sub	r3, r3, #4832
  93 0066 0222     		movs	r2, #2
  94 0068 123B     		subs	r3, r3, #18
  95 006a 1A70     		strb	r2, [r3]
 221:Generated_Source\PSoC5/Seat_ADC2.c **** 
  96              		.loc 1 221 0
  97 006c 094A     		ldr	r2, .L2+8
  98 006e 1378     		ldrb	r3, [r2]	@ zero_extendqisi2
  99 0070 43F00803 		orr	r3, r3, #8
 100 0074 1370     		strb	r3, [r2]
 101              		.loc 1 223 0
 102 0076 FFF7FEFF 		bl	CyDelayUs
 103              	.LVL7:
 224:Generated_Source\PSoC5/Seat_ADC2.c **** 
 225:Generated_Source\PSoC5/Seat_ADC2.c ****     #if(Seat_ADC2_IRQ_REMOVE == 0u)
ARM GAS  C:\Users\jebush2\AppData\Local\Temp\ccpvBk7b.s 			page 7


 226:Generated_Source\PSoC5/Seat_ADC2.c ****         /* Clear a pending interrupt */
 227:Generated_Source\PSoC5/Seat_ADC2.c ****         CyIntClearPending(Seat_ADC2_INTC_NUMBER);
 104              		.loc 1 227 0
 105 007a 074B     		ldr	r3, .L2+12
 106 007c 0122     		movs	r2, #1
 228:Generated_Source\PSoC5/Seat_ADC2.c ****     #endif   /* End Seat_ADC2_IRQ_REMOVE */
 229:Generated_Source\PSoC5/Seat_ADC2.c **** 
 230:Generated_Source\PSoC5/Seat_ADC2.c ****     CyExitCriticalSection(enableInterrupts);
 107              		.loc 1 230 0
 108 007e 2046     		mov	r0, r4
 231:Generated_Source\PSoC5/Seat_ADC2.c **** }
 109              		.loc 1 231 0
 110 0080 BDE81040 		pop	{r4, lr}
 111              		.cfi_restore 14
 112              		.cfi_restore 4
 113              		.cfi_def_cfa_offset 0
 114              	.LVL8:
 227:Generated_Source\PSoC5/Seat_ADC2.c ****     #endif   /* End Seat_ADC2_IRQ_REMOVE */
 115              		.loc 1 227 0
 116 0084 1A60     		str	r2, [r3]
 230:Generated_Source\PSoC5/Seat_ADC2.c **** }
 117              		.loc 1 230 0
 118 0086 FFF7FEBF 		b	CyExitCriticalSection
 119              	.LVL9:
 120              	.L3:
 121 008a 00BF     		.align	2
 122              	.L2:
 123 008c AB430040 		.word	1073759147
 124 0090 06590040 		.word	1073764614
 125 0094 275B0040 		.word	1073765159
 126 0098 80E200E0 		.word	-536812928
 127              		.cfi_endproc
 128              	.LFE2:
 129              		.size	Seat_ADC2_Enable, .-Seat_ADC2_Enable
 130              		.section	.text.Seat_ADC2_Stop,"ax",%progbits
 131              		.align	1
 132              		.global	Seat_ADC2_Stop
 133              		.thumb
 134              		.thumb_func
 135              		.type	Seat_ADC2_Stop, %function
 136              	Seat_ADC2_Stop:
 137              	.LFB3:
 232:Generated_Source\PSoC5/Seat_ADC2.c **** 
 233:Generated_Source\PSoC5/Seat_ADC2.c **** 
 234:Generated_Source\PSoC5/Seat_ADC2.c **** /*******************************************************************************
 235:Generated_Source\PSoC5/Seat_ADC2.c **** * Function Name: Seat_ADC2_Stop
 236:Generated_Source\PSoC5/Seat_ADC2.c **** ********************************************************************************
 237:Generated_Source\PSoC5/Seat_ADC2.c **** *
 238:Generated_Source\PSoC5/Seat_ADC2.c **** * Summary:
 239:Generated_Source\PSoC5/Seat_ADC2.c **** *  Stops ADC conversions and puts the ADC into its lowest power mode.
 240:Generated_Source\PSoC5/Seat_ADC2.c **** *
 241:Generated_Source\PSoC5/Seat_ADC2.c **** * Parameters:
 242:Generated_Source\PSoC5/Seat_ADC2.c **** *  None.
 243:Generated_Source\PSoC5/Seat_ADC2.c **** *
 244:Generated_Source\PSoC5/Seat_ADC2.c **** * Return:
 245:Generated_Source\PSoC5/Seat_ADC2.c **** *  None.
 246:Generated_Source\PSoC5/Seat_ADC2.c **** *
ARM GAS  C:\Users\jebush2\AppData\Local\Temp\ccpvBk7b.s 			page 8


 247:Generated_Source\PSoC5/Seat_ADC2.c **** *******************************************************************************/
 248:Generated_Source\PSoC5/Seat_ADC2.c **** void Seat_ADC2_Stop(void)
 249:Generated_Source\PSoC5/Seat_ADC2.c **** {
 138              		.loc 1 249 0
 139              		.cfi_startproc
 140              		@ args = 0, pretend = 0, frame = 0
 141              		@ frame_needed = 0, uses_anonymous_args = 0
 142 0000 08B5     		push	{r3, lr}
 143              		.cfi_def_cfa_offset 8
 144              		.cfi_offset 3, -8
 145              		.cfi_offset 14, -4
 250:Generated_Source\PSoC5/Seat_ADC2.c ****     uint8 enableInterrupts;
 251:Generated_Source\PSoC5/Seat_ADC2.c ****     enableInterrupts = CyEnterCriticalSection();
 146              		.loc 1 251 0
 147 0002 FFF7FEFF 		bl	CyEnterCriticalSection
 148              	.LVL10:
 252:Generated_Source\PSoC5/Seat_ADC2.c **** 
 253:Generated_Source\PSoC5/Seat_ADC2.c ****     /* Stop all conversions */
 254:Generated_Source\PSoC5/Seat_ADC2.c ****     Seat_ADC2_SAR_CSR0_REG &= (uint8)~Seat_ADC2_SAR_SOF_START_CONV;
 149              		.loc 1 254 0
 150 0006 0F4A     		ldr	r2, .L5
 151 0008 1378     		ldrb	r3, [r2]	@ zero_extendqisi2
 152 000a 03F0FE03 		and	r3, r3, #254
 153 000e 1370     		strb	r3, [r2]
 255:Generated_Source\PSoC5/Seat_ADC2.c ****     /* Disable the SAR ADC block in Active Power Mode */
 256:Generated_Source\PSoC5/Seat_ADC2.c ****     Seat_ADC2_PWRMGR_SAR_REG &= (uint8)~Seat_ADC2_ACT_PWR_SAR_EN;
 154              		.loc 1 256 0
 155 0010 A2F5AA52 		sub	r2, r2, #5440
 156 0014 153A     		subs	r2, r2, #21
 157 0016 1378     		ldrb	r3, [r2]	@ zero_extendqisi2
 158 0018 03F0FE03 		and	r3, r3, #254
 159 001c 1370     		strb	r3, [r2]
 257:Generated_Source\PSoC5/Seat_ADC2.c ****     /* Disable the SAR ADC in Standby Power Mode */
 258:Generated_Source\PSoC5/Seat_ADC2.c ****     Seat_ADC2_STBY_PWRMGR_SAR_REG &= (uint8)~Seat_ADC2_STBY_PWR_SAR_EN;
 160              		.loc 1 258 0
 161 001e 137C     		ldrb	r3, [r2, #16]	@ zero_extendqisi2
 162 0020 03F0FE03 		and	r3, r3, #254
 163 0024 1374     		strb	r3, [r2, #16]
 259:Generated_Source\PSoC5/Seat_ADC2.c **** 
 260:Generated_Source\PSoC5/Seat_ADC2.c ****     /* This is only valid if there is an internal clock */
 261:Generated_Source\PSoC5/Seat_ADC2.c ****     #if(Seat_ADC2_DEFAULT_INTERNAL_CLK)
 262:Generated_Source\PSoC5/Seat_ADC2.c ****         Seat_ADC2_PWRMGR_CLK_REG &= (uint8)~Seat_ADC2_ACT_PWR_CLK_EN;
 164              		.loc 1 262 0
 165 0026 12F80A3C 		ldrb	r3, [r2, #-10]	@ zero_extendqisi2
 166 002a 03F0FE03 		and	r3, r3, #254
 167 002e 02F80A3C 		strb	r3, [r2, #-10]
 263:Generated_Source\PSoC5/Seat_ADC2.c ****         Seat_ADC2_STBY_PWRMGR_CLK_REG &= (uint8)~Seat_ADC2_STBY_PWR_CLK_EN;
 168              		.loc 1 263 0
 169 0032 9379     		ldrb	r3, [r2, #6]	@ zero_extendqisi2
 170 0034 03F0FE03 		and	r3, r3, #254
 171 0038 9371     		strb	r3, [r2, #6]
 264:Generated_Source\PSoC5/Seat_ADC2.c ****     #endif /* End Seat_ADC2_DEFAULT_INTERNAL_CLK */
 265:Generated_Source\PSoC5/Seat_ADC2.c **** 
 266:Generated_Source\PSoC5/Seat_ADC2.c ****     CyExitCriticalSection(enableInterrupts);
 267:Generated_Source\PSoC5/Seat_ADC2.c **** 
 268:Generated_Source\PSoC5/Seat_ADC2.c **** }
 172              		.loc 1 268 0
ARM GAS  C:\Users\jebush2\AppData\Local\Temp\ccpvBk7b.s 			page 9


 173 003a BDE80840 		pop	{r3, lr}
 174              		.cfi_restore 14
 175              		.cfi_restore 3
 176              		.cfi_def_cfa_offset 0
 266:Generated_Source\PSoC5/Seat_ADC2.c **** 
 177              		.loc 1 266 0
 178 003e FFF7FEBF 		b	CyExitCriticalSection
 179              	.LVL11:
 180              	.L6:
 181 0042 00BF     		.align	2
 182              	.L5:
 183 0044 00590040 		.word	1073764608
 184              		.cfi_endproc
 185              	.LFE3:
 186              		.size	Seat_ADC2_Stop, .-Seat_ADC2_Stop
 187              		.section	.text.Seat_ADC2_SetPower,"ax",%progbits
 188              		.align	1
 189              		.global	Seat_ADC2_SetPower
 190              		.thumb
 191              		.thumb_func
 192              		.type	Seat_ADC2_SetPower, %function
 193              	Seat_ADC2_SetPower:
 194              	.LFB4:
 269:Generated_Source\PSoC5/Seat_ADC2.c **** 
 270:Generated_Source\PSoC5/Seat_ADC2.c **** 
 271:Generated_Source\PSoC5/Seat_ADC2.c **** /*******************************************************************************
 272:Generated_Source\PSoC5/Seat_ADC2.c **** * Function Name: Seat_ADC2_SetPower
 273:Generated_Source\PSoC5/Seat_ADC2.c **** ********************************************************************************
 274:Generated_Source\PSoC5/Seat_ADC2.c **** *
 275:Generated_Source\PSoC5/Seat_ADC2.c **** * Summary:
 276:Generated_Source\PSoC5/Seat_ADC2.c **** *  Sets the operational power of the ADC. You should use the higher power
 277:Generated_Source\PSoC5/Seat_ADC2.c **** *  settings with faster clock speeds.
 278:Generated_Source\PSoC5/Seat_ADC2.c **** *
 279:Generated_Source\PSoC5/Seat_ADC2.c **** * Parameters:
 280:Generated_Source\PSoC5/Seat_ADC2.c **** *  power:  Power setting for ADC
 281:Generated_Source\PSoC5/Seat_ADC2.c **** *  0 ->    Normal
 282:Generated_Source\PSoC5/Seat_ADC2.c **** *  1 ->    Medium power
 283:Generated_Source\PSoC5/Seat_ADC2.c **** *  2 ->    1.25 power
 284:Generated_Source\PSoC5/Seat_ADC2.c **** *  3 ->    Minimum power.
 285:Generated_Source\PSoC5/Seat_ADC2.c **** *
 286:Generated_Source\PSoC5/Seat_ADC2.c **** * Return:
 287:Generated_Source\PSoC5/Seat_ADC2.c **** *  None.
 288:Generated_Source\PSoC5/Seat_ADC2.c **** *
 289:Generated_Source\PSoC5/Seat_ADC2.c **** *******************************************************************************/
 290:Generated_Source\PSoC5/Seat_ADC2.c **** void Seat_ADC2_SetPower(uint8 power)
 291:Generated_Source\PSoC5/Seat_ADC2.c **** {
 195              		.loc 1 291 0
 196              		.cfi_startproc
 197              		@ args = 0, pretend = 0, frame = 0
 198              		@ frame_needed = 0, uses_anonymous_args = 0
 199              		@ link register save eliminated.
 200              	.LVL12:
 292:Generated_Source\PSoC5/Seat_ADC2.c ****     uint8 tmpReg;
 293:Generated_Source\PSoC5/Seat_ADC2.c **** 
 294:Generated_Source\PSoC5/Seat_ADC2.c ****     /* mask off invalid power settings */
 295:Generated_Source\PSoC5/Seat_ADC2.c ****     power &= Seat_ADC2_SAR_API_POWER_MASK;
 296:Generated_Source\PSoC5/Seat_ADC2.c **** 
ARM GAS  C:\Users\jebush2\AppData\Local\Temp\ccpvBk7b.s 			page 10


 297:Generated_Source\PSoC5/Seat_ADC2.c ****     /* Set Power parameter  */
 298:Generated_Source\PSoC5/Seat_ADC2.c ****     tmpReg = Seat_ADC2_SAR_CSR0_REG & (uint8)~Seat_ADC2_SAR_POWER_MASK;
 201              		.loc 1 298 0
 202 0000 044A     		ldr	r2, .L8
 203 0002 1378     		ldrb	r3, [r2]	@ zero_extendqisi2
 204 0004 03F03F03 		and	r3, r3, #63
 205              	.LVL13:
 299:Generated_Source\PSoC5/Seat_ADC2.c ****     tmpReg |= (uint8)(power << Seat_ADC2_SAR_POWER_SHIFT);
 206              		.loc 1 299 0
 207 0008 43EA8010 		orr	r0, r3, r0, lsl #6
 208              	.LVL14:
 209 000c C0B2     		uxtb	r0, r0
 210              	.LVL15:
 300:Generated_Source\PSoC5/Seat_ADC2.c ****     Seat_ADC2_SAR_CSR0_REG = tmpReg;
 211              		.loc 1 300 0
 212 000e 1070     		strb	r0, [r2]
 213 0010 7047     		bx	lr
 214              	.L9:
 215 0012 00BF     		.align	2
 216              	.L8:
 217 0014 00590040 		.word	1073764608
 218              		.cfi_endproc
 219              	.LFE4:
 220              		.size	Seat_ADC2_SetPower, .-Seat_ADC2_SetPower
 221              		.section	.text.Seat_ADC2_SetResolution,"ax",%progbits
 222              		.align	1
 223              		.global	Seat_ADC2_SetResolution
 224              		.thumb
 225              		.thumb_func
 226              		.type	Seat_ADC2_SetResolution, %function
 227              	Seat_ADC2_SetResolution:
 228              	.LFB5:
 301:Generated_Source\PSoC5/Seat_ADC2.c **** }
 302:Generated_Source\PSoC5/Seat_ADC2.c **** 
 303:Generated_Source\PSoC5/Seat_ADC2.c **** 
 304:Generated_Source\PSoC5/Seat_ADC2.c **** /*******************************************************************************
 305:Generated_Source\PSoC5/Seat_ADC2.c **** * Function Name: Seat_ADC2_SetResolution
 306:Generated_Source\PSoC5/Seat_ADC2.c **** ********************************************************************************
 307:Generated_Source\PSoC5/Seat_ADC2.c **** *
 308:Generated_Source\PSoC5/Seat_ADC2.c **** * Summary:
 309:Generated_Source\PSoC5/Seat_ADC2.c **** *  Sets the Relution of the SAR.
 310:Generated_Source\PSoC5/Seat_ADC2.c **** *
 311:Generated_Source\PSoC5/Seat_ADC2.c **** * Parameters:
 312:Generated_Source\PSoC5/Seat_ADC2.c **** *  resolution:
 313:Generated_Source\PSoC5/Seat_ADC2.c **** *  12 ->    RES12
 314:Generated_Source\PSoC5/Seat_ADC2.c **** *  10 ->    RES10
 315:Generated_Source\PSoC5/Seat_ADC2.c **** *  8  ->    RES8
 316:Generated_Source\PSoC5/Seat_ADC2.c **** *
 317:Generated_Source\PSoC5/Seat_ADC2.c **** * Return:
 318:Generated_Source\PSoC5/Seat_ADC2.c **** *  None.
 319:Generated_Source\PSoC5/Seat_ADC2.c **** *
 320:Generated_Source\PSoC5/Seat_ADC2.c **** * Side Effects:
 321:Generated_Source\PSoC5/Seat_ADC2.c **** *  The ADC resolution cannot be changed during a conversion cycle. The
 322:Generated_Source\PSoC5/Seat_ADC2.c **** *  recommended best practice is to stop conversions with
 323:Generated_Source\PSoC5/Seat_ADC2.c **** *  ADC_StopConvert(), change the resolution, then restart the
 324:Generated_Source\PSoC5/Seat_ADC2.c **** *  conversions with ADC_StartConvert().
 325:Generated_Source\PSoC5/Seat_ADC2.c **** *  If you decide not to stop conversions before calling this API, you
ARM GAS  C:\Users\jebush2\AppData\Local\Temp\ccpvBk7b.s 			page 11


 326:Generated_Source\PSoC5/Seat_ADC2.c **** *  should use ADC_IsEndConversion() to wait until conversion is complete
 327:Generated_Source\PSoC5/Seat_ADC2.c **** *  before changing the resolution.
 328:Generated_Source\PSoC5/Seat_ADC2.c **** *  If you call ADC_SetResolution() during a conversion, the resolution will
 329:Generated_Source\PSoC5/Seat_ADC2.c **** *  not be changed until the current conversion is complete. Data will not be
 330:Generated_Source\PSoC5/Seat_ADC2.c **** *  available in the new resolution for another 6 + "New Resolution(in bits)"
 331:Generated_Source\PSoC5/Seat_ADC2.c **** *  clock cycles.
 332:Generated_Source\PSoC5/Seat_ADC2.c **** *  You may need add a delay of this number of clock cycles after
 333:Generated_Source\PSoC5/Seat_ADC2.c **** *  ADC_SetResolution() is called before data is valid again.
 334:Generated_Source\PSoC5/Seat_ADC2.c **** *  Affects ADC_CountsTo_Volts(), ADC_CountsTo_mVolts(), and
 335:Generated_Source\PSoC5/Seat_ADC2.c **** *  ADC_CountsTo_uVolts() by calculating the correct conversion between ADC
 336:Generated_Source\PSoC5/Seat_ADC2.c **** *  counts and the applied input voltage. Calculation depends on resolution,
 337:Generated_Source\PSoC5/Seat_ADC2.c **** *  input range, and voltage reference.
 338:Generated_Source\PSoC5/Seat_ADC2.c **** *
 339:Generated_Source\PSoC5/Seat_ADC2.c **** *******************************************************************************/
 340:Generated_Source\PSoC5/Seat_ADC2.c **** void Seat_ADC2_SetResolution(uint8 resolution)
 341:Generated_Source\PSoC5/Seat_ADC2.c **** {
 229              		.loc 1 341 0
 230              		.cfi_startproc
 231              		@ args = 0, pretend = 0, frame = 0
 232              		@ frame_needed = 0, uses_anonymous_args = 0
 233              		@ link register save eliminated.
 234              	.LVL16:
 342:Generated_Source\PSoC5/Seat_ADC2.c ****     uint8 tmpReg;
 343:Generated_Source\PSoC5/Seat_ADC2.c **** 
 344:Generated_Source\PSoC5/Seat_ADC2.c ****     /* Set SAR ADC resolution and sample width: 18 conversion cycles at 12bits + 1 gap */
 345:Generated_Source\PSoC5/Seat_ADC2.c ****     switch (resolution)
 235              		.loc 1 345 0
 236 0000 0828     		cmp	r0, #8
 237 0002 04D0     		beq	.L12
 346:Generated_Source\PSoC5/Seat_ADC2.c ****     {
 347:Generated_Source\PSoC5/Seat_ADC2.c ****         case (uint8)Seat_ADC2__BITS_12:
 348:Generated_Source\PSoC5/Seat_ADC2.c ****             tmpReg = Seat_ADC2_SAR_RESOLUTION_12BIT | Seat_ADC2_SAR_SAMPLE_WIDTH;
 238              		.loc 1 348 0
 239 0004 0A28     		cmp	r0, #10
 240 0006 0CBF     		ite	eq
 241 0008 8223     		moveq	r3, #130
 242 000a C223     		movne	r3, #194
 243 000c 00E0     		b	.L13
 244              	.L12:
 245              	.LVL17:
 349:Generated_Source\PSoC5/Seat_ADC2.c ****             break;
 350:Generated_Source\PSoC5/Seat_ADC2.c ****         case (uint8)Seat_ADC2__BITS_10:
 351:Generated_Source\PSoC5/Seat_ADC2.c ****             tmpReg = Seat_ADC2_SAR_RESOLUTION_10BIT | Seat_ADC2_SAR_SAMPLE_WIDTH;
 352:Generated_Source\PSoC5/Seat_ADC2.c ****             break;
 353:Generated_Source\PSoC5/Seat_ADC2.c ****         case (uint8)Seat_ADC2__BITS_8:
 354:Generated_Source\PSoC5/Seat_ADC2.c ****             tmpReg = Seat_ADC2_SAR_RESOLUTION_8BIT | Seat_ADC2_SAR_SAMPLE_WIDTH;
 246              		.loc 1 354 0
 247 000e 4223     		movs	r3, #66
 248              	.LVL18:
 249              	.L13:
 250 0010 0838     		subs	r0, r0, #8
 251              	.LVL19:
 355:Generated_Source\PSoC5/Seat_ADC2.c ****             break;
 356:Generated_Source\PSoC5/Seat_ADC2.c ****         default:
 357:Generated_Source\PSoC5/Seat_ADC2.c ****             tmpReg = Seat_ADC2_SAR_RESOLUTION_12BIT | Seat_ADC2_SAR_SAMPLE_WIDTH;
 358:Generated_Source\PSoC5/Seat_ADC2.c ****             /* Halt CPU in debug mode if resolution is out of valid range */
 359:Generated_Source\PSoC5/Seat_ADC2.c ****             CYASSERT(0u != 0u);
ARM GAS  C:\Users\jebush2\AppData\Local\Temp\ccpvBk7b.s 			page 12


 360:Generated_Source\PSoC5/Seat_ADC2.c ****             break;
 361:Generated_Source\PSoC5/Seat_ADC2.c ****     }
 362:Generated_Source\PSoC5/Seat_ADC2.c ****     Seat_ADC2_SAR_CSR2_REG = tmpReg;
 252              		.loc 1 362 0
 253 0012 114A     		ldr	r2, .L18
 254 0014 C0B2     		uxtb	r0, r0
 255 0016 0428     		cmp	r0, #4
 256 0018 1370     		strb	r3, [r2]
 257              	.LVL20:
 258 001a 98BF     		it	ls
 259 001c 0F4A     		ldrls	r2, .L18+4
 260              	.LBB4:
 261              	.LBB5:
 363:Generated_Source\PSoC5/Seat_ADC2.c **** 
 364:Generated_Source\PSoC5/Seat_ADC2.c ****      /* Calculate gain for convert counts to volts */
 365:Generated_Source\PSoC5/Seat_ADC2.c ****     Seat_ADC2_CalcGain(resolution);
 366:Generated_Source\PSoC5/Seat_ADC2.c **** }
 367:Generated_Source\PSoC5/Seat_ADC2.c **** 
 368:Generated_Source\PSoC5/Seat_ADC2.c **** 
 369:Generated_Source\PSoC5/Seat_ADC2.c **** #if(Seat_ADC2_DEFAULT_CONV_MODE != Seat_ADC2__HARDWARE_TRIGGER)
 370:Generated_Source\PSoC5/Seat_ADC2.c **** 
 371:Generated_Source\PSoC5/Seat_ADC2.c **** 
 372:Generated_Source\PSoC5/Seat_ADC2.c ****     /*******************************************************************************
 373:Generated_Source\PSoC5/Seat_ADC2.c ****     * Function Name: Seat_ADC2_StartConvert
 374:Generated_Source\PSoC5/Seat_ADC2.c ****     ********************************************************************************
 375:Generated_Source\PSoC5/Seat_ADC2.c ****     *
 376:Generated_Source\PSoC5/Seat_ADC2.c ****     * Summary:
 377:Generated_Source\PSoC5/Seat_ADC2.c ****     *  Forces the ADC to initiate a conversion. In free-running mode, the ADC runs
 378:Generated_Source\PSoC5/Seat_ADC2.c ****     *  continuously. In software trigger mode, the function also acts as a software
 379:Generated_Source\PSoC5/Seat_ADC2.c ****     *  version of the SOC and every conversion must be triggered by
 380:Generated_Source\PSoC5/Seat_ADC2.c ****     *  Seat_ADC2_StartConvert(). This function is not available when the
 381:Generated_Source\PSoC5/Seat_ADC2.c ****     *  Hardware Trigger sample mode is selected.
 382:Generated_Source\PSoC5/Seat_ADC2.c ****     *
 383:Generated_Source\PSoC5/Seat_ADC2.c ****     * Parameters:
 384:Generated_Source\PSoC5/Seat_ADC2.c ****     *  None.
 385:Generated_Source\PSoC5/Seat_ADC2.c ****     *
 386:Generated_Source\PSoC5/Seat_ADC2.c ****     * Return:
 387:Generated_Source\PSoC5/Seat_ADC2.c ****     *  None.
 388:Generated_Source\PSoC5/Seat_ADC2.c ****     *
 389:Generated_Source\PSoC5/Seat_ADC2.c ****     * Theory:
 390:Generated_Source\PSoC5/Seat_ADC2.c ****     *  Forces the ADC to initiate a conversion. In Free Running mode, the ADC will
 391:Generated_Source\PSoC5/Seat_ADC2.c ****     *  run continuously. In a software trigger mode the function also acts as a
 392:Generated_Source\PSoC5/Seat_ADC2.c ****     *  software version of the SOC. Here every conversion has to be triggered by
 393:Generated_Source\PSoC5/Seat_ADC2.c ****     *  the routine. This writes into the SOC bit in SAR_CTRL reg.
 394:Generated_Source\PSoC5/Seat_ADC2.c ****     *
 395:Generated_Source\PSoC5/Seat_ADC2.c ****     * Side Effects:
 396:Generated_Source\PSoC5/Seat_ADC2.c ****     *  In a software trigger mode the function switches source for SOF from the
 397:Generated_Source\PSoC5/Seat_ADC2.c ****     *  external pin to the internal SOF generation. Application should not call
 398:Generated_Source\PSoC5/Seat_ADC2.c ****     *  StartConvert if external source used for SOF.
 399:Generated_Source\PSoC5/Seat_ADC2.c ****     *
 400:Generated_Source\PSoC5/Seat_ADC2.c ****     *******************************************************************************/
 401:Generated_Source\PSoC5/Seat_ADC2.c ****     void Seat_ADC2_StartConvert(void)
 402:Generated_Source\PSoC5/Seat_ADC2.c ****     {
 403:Generated_Source\PSoC5/Seat_ADC2.c ****         #if(Seat_ADC2_DEFAULT_CONV_MODE != Seat_ADC2__FREE_RUNNING)  /* If software triggered mode 
 404:Generated_Source\PSoC5/Seat_ADC2.c ****             Seat_ADC2_SAR_CSR0_REG &= (uint8)~Seat_ADC2_SAR_MX_SOF_UDB;   /* source: SOF bit */
 405:Generated_Source\PSoC5/Seat_ADC2.c ****         #endif /* End Seat_ADC2_DEFAULT_CONV_MODE */
 406:Generated_Source\PSoC5/Seat_ADC2.c **** 
ARM GAS  C:\Users\jebush2\AppData\Local\Temp\ccpvBk7b.s 			page 13


 407:Generated_Source\PSoC5/Seat_ADC2.c ****         /* Start the conversion */
 408:Generated_Source\PSoC5/Seat_ADC2.c ****         Seat_ADC2_SAR_CSR0_REG |= Seat_ADC2_SAR_SOF_START_CONV;
 409:Generated_Source\PSoC5/Seat_ADC2.c ****     }
 410:Generated_Source\PSoC5/Seat_ADC2.c **** 
 411:Generated_Source\PSoC5/Seat_ADC2.c **** 
 412:Generated_Source\PSoC5/Seat_ADC2.c ****     /*******************************************************************************
 413:Generated_Source\PSoC5/Seat_ADC2.c ****     * Function Name: Seat_ADC2_StopConvert
 414:Generated_Source\PSoC5/Seat_ADC2.c ****     ********************************************************************************
 415:Generated_Source\PSoC5/Seat_ADC2.c ****     *
 416:Generated_Source\PSoC5/Seat_ADC2.c ****     * Summary:
 417:Generated_Source\PSoC5/Seat_ADC2.c ****     *  Forces the ADC to stop conversions. If a conversion is currently executing,
 418:Generated_Source\PSoC5/Seat_ADC2.c ****     *  that conversion will complete, but no further conversions will occur. This
 419:Generated_Source\PSoC5/Seat_ADC2.c ****     *  function is not available when the Hardware Trigger sample mode is selected.
 420:Generated_Source\PSoC5/Seat_ADC2.c ****     *
 421:Generated_Source\PSoC5/Seat_ADC2.c ****     * Parameters:
 422:Generated_Source\PSoC5/Seat_ADC2.c ****     *  None.
 423:Generated_Source\PSoC5/Seat_ADC2.c ****     *
 424:Generated_Source\PSoC5/Seat_ADC2.c ****     * Return:
 425:Generated_Source\PSoC5/Seat_ADC2.c ****     *  None.
 426:Generated_Source\PSoC5/Seat_ADC2.c ****     *
 427:Generated_Source\PSoC5/Seat_ADC2.c ****     * Theory:
 428:Generated_Source\PSoC5/Seat_ADC2.c ****     *  Stops ADC conversion in Free Running mode.
 429:Generated_Source\PSoC5/Seat_ADC2.c ****     *
 430:Generated_Source\PSoC5/Seat_ADC2.c ****     * Side Effects:
 431:Generated_Source\PSoC5/Seat_ADC2.c ****     *  In Software Trigger sample mode, this function sets a software version of the
 432:Generated_Source\PSoC5/Seat_ADC2.c ****     *  SOC to low level and switches the SOC source to hardware SOC input.
 433:Generated_Source\PSoC5/Seat_ADC2.c ****     *
 434:Generated_Source\PSoC5/Seat_ADC2.c ****     *******************************************************************************/
 435:Generated_Source\PSoC5/Seat_ADC2.c ****     void Seat_ADC2_StopConvert(void)
 436:Generated_Source\PSoC5/Seat_ADC2.c ****     {
 437:Generated_Source\PSoC5/Seat_ADC2.c ****         /* Stop all conversions */
 438:Generated_Source\PSoC5/Seat_ADC2.c ****         Seat_ADC2_SAR_CSR0_REG &= (uint8)~Seat_ADC2_SAR_SOF_START_CONV;
 439:Generated_Source\PSoC5/Seat_ADC2.c **** 
 440:Generated_Source\PSoC5/Seat_ADC2.c ****         #if(Seat_ADC2_DEFAULT_CONV_MODE != Seat_ADC2__FREE_RUNNING)  /* If software triggered mode 
 441:Generated_Source\PSoC5/Seat_ADC2.c ****             /* Return source to UDB for hardware SOF signal */
 442:Generated_Source\PSoC5/Seat_ADC2.c ****             Seat_ADC2_SAR_CSR0_REG |= Seat_ADC2_SAR_MX_SOF_UDB;    /* source: UDB */
 443:Generated_Source\PSoC5/Seat_ADC2.c ****         #endif /* End Seat_ADC2_DEFAULT_CONV_MODE */
 444:Generated_Source\PSoC5/Seat_ADC2.c **** 
 445:Generated_Source\PSoC5/Seat_ADC2.c ****     }
 446:Generated_Source\PSoC5/Seat_ADC2.c **** 
 447:Generated_Source\PSoC5/Seat_ADC2.c **** #endif /* End Seat_ADC2_DEFAULT_CONV_MODE != Seat_ADC2__HARDWARE_TRIGGER */
 448:Generated_Source\PSoC5/Seat_ADC2.c **** 
 449:Generated_Source\PSoC5/Seat_ADC2.c **** 
 450:Generated_Source\PSoC5/Seat_ADC2.c **** /*******************************************************************************
 451:Generated_Source\PSoC5/Seat_ADC2.c **** * Function Name: Seat_ADC2_IsEndConversion
 452:Generated_Source\PSoC5/Seat_ADC2.c **** ********************************************************************************
 453:Generated_Source\PSoC5/Seat_ADC2.c **** *
 454:Generated_Source\PSoC5/Seat_ADC2.c **** * Summary:
 455:Generated_Source\PSoC5/Seat_ADC2.c **** *  Immediately returns the status of the conversion or does not return
 456:Generated_Source\PSoC5/Seat_ADC2.c **** *  (blocking) until the conversion completes, depending on the retMode
 457:Generated_Source\PSoC5/Seat_ADC2.c **** *  parameter.
 458:Generated_Source\PSoC5/Seat_ADC2.c **** *
 459:Generated_Source\PSoC5/Seat_ADC2.c **** * Parameters:
 460:Generated_Source\PSoC5/Seat_ADC2.c **** *  retMode:  Check conversion return mode.
 461:Generated_Source\PSoC5/Seat_ADC2.c **** *   Seat_ADC2_RETURN_STATUS: Immediately returns the status. If the
 462:Generated_Source\PSoC5/Seat_ADC2.c **** *     value returned is zero, the conversion is not complete, and this function
 463:Generated_Source\PSoC5/Seat_ADC2.c **** *     should be retried until a nonzero result is returned.
ARM GAS  C:\Users\jebush2\AppData\Local\Temp\ccpvBk7b.s 			page 14


 464:Generated_Source\PSoC5/Seat_ADC2.c **** *   Seat_ADC2_WAIT_FOR_RESULT: Does not return a result until the ADC
 465:Generated_Source\PSoC5/Seat_ADC2.c **** *     conversion is complete.
 466:Generated_Source\PSoC5/Seat_ADC2.c **** *
 467:Generated_Source\PSoC5/Seat_ADC2.c **** * Return:
 468:Generated_Source\PSoC5/Seat_ADC2.c **** *  (uint8)  0 =>  The ADC is still calculating the last result.
 469:Generated_Source\PSoC5/Seat_ADC2.c **** *           1 =>  The last conversion is complete.
 470:Generated_Source\PSoC5/Seat_ADC2.c **** *
 471:Generated_Source\PSoC5/Seat_ADC2.c **** * Side Effects:
 472:Generated_Source\PSoC5/Seat_ADC2.c **** *  This function reads the end of conversion status, which is cleared on read.
 473:Generated_Source\PSoC5/Seat_ADC2.c **** *
 474:Generated_Source\PSoC5/Seat_ADC2.c **** *******************************************************************************/
 475:Generated_Source\PSoC5/Seat_ADC2.c **** uint8 Seat_ADC2_IsEndConversion(uint8 retMode)
 476:Generated_Source\PSoC5/Seat_ADC2.c **** {
 477:Generated_Source\PSoC5/Seat_ADC2.c ****     uint8 status;
 478:Generated_Source\PSoC5/Seat_ADC2.c **** 
 479:Generated_Source\PSoC5/Seat_ADC2.c ****     do
 480:Generated_Source\PSoC5/Seat_ADC2.c ****     {
 481:Generated_Source\PSoC5/Seat_ADC2.c ****         status = Seat_ADC2_SAR_CSR1_REG & Seat_ADC2_SAR_EOF_1;
 482:Generated_Source\PSoC5/Seat_ADC2.c ****     } while ((status != Seat_ADC2_SAR_EOF_1) && (retMode == Seat_ADC2_WAIT_FOR_RESULT));
 483:Generated_Source\PSoC5/Seat_ADC2.c ****     /* If convertion complete, wait until EOF bit released */
 484:Generated_Source\PSoC5/Seat_ADC2.c ****     if(status == Seat_ADC2_SAR_EOF_1)
 485:Generated_Source\PSoC5/Seat_ADC2.c ****     {
 486:Generated_Source\PSoC5/Seat_ADC2.c ****         /* wait one ADC clock to let the EOC status bit release */
 487:Generated_Source\PSoC5/Seat_ADC2.c ****         CyDelayUs(1u);
 488:Generated_Source\PSoC5/Seat_ADC2.c ****         /* Do the unconditional read operation of the CSR1 register to make sure the EOC bit has be
 489:Generated_Source\PSoC5/Seat_ADC2.c ****         CY_GET_REG8(Seat_ADC2_SAR_CSR1_PTR);
 490:Generated_Source\PSoC5/Seat_ADC2.c ****     }
 491:Generated_Source\PSoC5/Seat_ADC2.c **** 
 492:Generated_Source\PSoC5/Seat_ADC2.c ****     return(status);
 493:Generated_Source\PSoC5/Seat_ADC2.c **** }
 494:Generated_Source\PSoC5/Seat_ADC2.c **** 
 495:Generated_Source\PSoC5/Seat_ADC2.c **** 
 496:Generated_Source\PSoC5/Seat_ADC2.c **** /*******************************************************************************
 497:Generated_Source\PSoC5/Seat_ADC2.c **** * Function Name: Seat_ADC2_GetResult8
 498:Generated_Source\PSoC5/Seat_ADC2.c **** ********************************************************************************
 499:Generated_Source\PSoC5/Seat_ADC2.c **** *
 500:Generated_Source\PSoC5/Seat_ADC2.c **** * Summary:
 501:Generated_Source\PSoC5/Seat_ADC2.c **** *  Returns the result of an 8-bit conversion. If the resolution is set greater
 502:Generated_Source\PSoC5/Seat_ADC2.c **** *  than 8 bits, the function returns the LSB of the result.
 503:Generated_Source\PSoC5/Seat_ADC2.c **** *  Seat_ADC2_IsEndConversion() should be called to verify that the data
 504:Generated_Source\PSoC5/Seat_ADC2.c **** *   sample is ready.
 505:Generated_Source\PSoC5/Seat_ADC2.c **** *
 506:Generated_Source\PSoC5/Seat_ADC2.c **** * Parameters:
 507:Generated_Source\PSoC5/Seat_ADC2.c **** *  None.
 508:Generated_Source\PSoC5/Seat_ADC2.c **** *
 509:Generated_Source\PSoC5/Seat_ADC2.c **** * Return:
 510:Generated_Source\PSoC5/Seat_ADC2.c **** *  The LSB of the last ADC conversion.
 511:Generated_Source\PSoC5/Seat_ADC2.c **** *
 512:Generated_Source\PSoC5/Seat_ADC2.c **** * Global Variables:
 513:Generated_Source\PSoC5/Seat_ADC2.c **** *  Seat_ADC2_shift - used to convert the ADC counts to the 2s
 514:Generated_Source\PSoC5/Seat_ADC2.c **** *  compliment form.
 515:Generated_Source\PSoC5/Seat_ADC2.c **** *
 516:Generated_Source\PSoC5/Seat_ADC2.c **** * Side Effects:
 517:Generated_Source\PSoC5/Seat_ADC2.c **** *  Converts the ADC counts to the 2s complement form.
 518:Generated_Source\PSoC5/Seat_ADC2.c **** *
 519:Generated_Source\PSoC5/Seat_ADC2.c **** *******************************************************************************/
 520:Generated_Source\PSoC5/Seat_ADC2.c **** int8 Seat_ADC2_GetResult8( void )
ARM GAS  C:\Users\jebush2\AppData\Local\Temp\ccpvBk7b.s 			page 15


 521:Generated_Source\PSoC5/Seat_ADC2.c **** {
 522:Generated_Source\PSoC5/Seat_ADC2.c ****     return( (int8)Seat_ADC2_SAR_WRK0_REG - (int8)Seat_ADC2_shift);
 523:Generated_Source\PSoC5/Seat_ADC2.c **** }
 524:Generated_Source\PSoC5/Seat_ADC2.c **** 
 525:Generated_Source\PSoC5/Seat_ADC2.c **** 
 526:Generated_Source\PSoC5/Seat_ADC2.c **** /*******************************************************************************
 527:Generated_Source\PSoC5/Seat_ADC2.c **** * Function Name: Seat_ADC2_GetResult16
 528:Generated_Source\PSoC5/Seat_ADC2.c **** ********************************************************************************
 529:Generated_Source\PSoC5/Seat_ADC2.c **** *
 530:Generated_Source\PSoC5/Seat_ADC2.c **** * Summary:
 531:Generated_Source\PSoC5/Seat_ADC2.c **** *  Returns a 16-bit result for a conversion with a result that has a resolution
 532:Generated_Source\PSoC5/Seat_ADC2.c **** *  of 8 to 12 bits.
 533:Generated_Source\PSoC5/Seat_ADC2.c **** *  Seat_ADC2_IsEndConversion() should be called to verify that the data
 534:Generated_Source\PSoC5/Seat_ADC2.c **** *   sample is ready
 535:Generated_Source\PSoC5/Seat_ADC2.c **** *
 536:Generated_Source\PSoC5/Seat_ADC2.c **** * Parameters:
 537:Generated_Source\PSoC5/Seat_ADC2.c **** *  None.
 538:Generated_Source\PSoC5/Seat_ADC2.c **** *
 539:Generated_Source\PSoC5/Seat_ADC2.c **** * Return:
 540:Generated_Source\PSoC5/Seat_ADC2.c **** *  The 16-bit result of the last ADC conversion
 541:Generated_Source\PSoC5/Seat_ADC2.c **** *
 542:Generated_Source\PSoC5/Seat_ADC2.c **** * Global Variables:
 543:Generated_Source\PSoC5/Seat_ADC2.c **** *  Seat_ADC2_shift - used to convert the ADC counts to the 2s
 544:Generated_Source\PSoC5/Seat_ADC2.c **** *  compliment form.
 545:Generated_Source\PSoC5/Seat_ADC2.c **** *
 546:Generated_Source\PSoC5/Seat_ADC2.c **** * Side Effects:
 547:Generated_Source\PSoC5/Seat_ADC2.c **** *  Converts the ADC counts to the 2s complement form.
 548:Generated_Source\PSoC5/Seat_ADC2.c **** *
 549:Generated_Source\PSoC5/Seat_ADC2.c **** *******************************************************************************/
 550:Generated_Source\PSoC5/Seat_ADC2.c **** int16 Seat_ADC2_GetResult16( void )
 551:Generated_Source\PSoC5/Seat_ADC2.c **** {
 552:Generated_Source\PSoC5/Seat_ADC2.c ****     uint16 res;
 553:Generated_Source\PSoC5/Seat_ADC2.c **** 
 554:Generated_Source\PSoC5/Seat_ADC2.c ****     res = CY_GET_REG16(Seat_ADC2_SAR_WRK_PTR);
 555:Generated_Source\PSoC5/Seat_ADC2.c **** 
 556:Generated_Source\PSoC5/Seat_ADC2.c ****     return( (int16)res - Seat_ADC2_shift );
 557:Generated_Source\PSoC5/Seat_ADC2.c **** }
 558:Generated_Source\PSoC5/Seat_ADC2.c **** 
 559:Generated_Source\PSoC5/Seat_ADC2.c **** 
 560:Generated_Source\PSoC5/Seat_ADC2.c **** /*******************************************************************************
 561:Generated_Source\PSoC5/Seat_ADC2.c **** * Function Name: Seat_ADC2_SetOffset
 562:Generated_Source\PSoC5/Seat_ADC2.c **** ********************************************************************************
 563:Generated_Source\PSoC5/Seat_ADC2.c **** *
 564:Generated_Source\PSoC5/Seat_ADC2.c **** * Summary:
 565:Generated_Source\PSoC5/Seat_ADC2.c **** *  Sets the ADC offset, which is used by Seat_ADC2_CountsTo_Volts(),
 566:Generated_Source\PSoC5/Seat_ADC2.c **** *  Seat_ADC2_CountsTo_mVolts(), and Seat_ADC2_CountsTo_uVolts()
 567:Generated_Source\PSoC5/Seat_ADC2.c **** *  to subtract the offset from the given reading before calculating the voltage
 568:Generated_Source\PSoC5/Seat_ADC2.c **** *  conversion.
 569:Generated_Source\PSoC5/Seat_ADC2.c **** *
 570:Generated_Source\PSoC5/Seat_ADC2.c **** * Parameters:
 571:Generated_Source\PSoC5/Seat_ADC2.c **** *  int16: This value is measured when the inputs are shorted or connected to
 572:Generated_Source\PSoC5/Seat_ADC2.c ****    the same input voltage.
 573:Generated_Source\PSoC5/Seat_ADC2.c **** *
 574:Generated_Source\PSoC5/Seat_ADC2.c **** * Return:
 575:Generated_Source\PSoC5/Seat_ADC2.c **** *  None.
 576:Generated_Source\PSoC5/Seat_ADC2.c **** *
 577:Generated_Source\PSoC5/Seat_ADC2.c **** * Global Variables:
ARM GAS  C:\Users\jebush2\AppData\Local\Temp\ccpvBk7b.s 			page 16


 578:Generated_Source\PSoC5/Seat_ADC2.c **** *  The Seat_ADC2_offset variable modified. This variable is used for
 579:Generated_Source\PSoC5/Seat_ADC2.c **** *  offset calibration purpose.
 580:Generated_Source\PSoC5/Seat_ADC2.c **** *  Affects the Seat_ADC2_CountsTo_Volts,
 581:Generated_Source\PSoC5/Seat_ADC2.c **** *  Seat_ADC2_CountsTo_mVolts, Seat_ADC2_CountsTo_uVolts functions
 582:Generated_Source\PSoC5/Seat_ADC2.c **** *  by subtracting the given offset.
 583:Generated_Source\PSoC5/Seat_ADC2.c **** *
 584:Generated_Source\PSoC5/Seat_ADC2.c **** *******************************************************************************/
 585:Generated_Source\PSoC5/Seat_ADC2.c **** void Seat_ADC2_SetOffset(int16 offset)
 586:Generated_Source\PSoC5/Seat_ADC2.c **** {
 587:Generated_Source\PSoC5/Seat_ADC2.c ****     Seat_ADC2_offset = offset;
 588:Generated_Source\PSoC5/Seat_ADC2.c **** }
 589:Generated_Source\PSoC5/Seat_ADC2.c **** 
 590:Generated_Source\PSoC5/Seat_ADC2.c **** 
 591:Generated_Source\PSoC5/Seat_ADC2.c **** /*******************************************************************************
 592:Generated_Source\PSoC5/Seat_ADC2.c **** * Function Name: Seat_ADC2_CalcGain
 593:Generated_Source\PSoC5/Seat_ADC2.c **** ********************************************************************************
 594:Generated_Source\PSoC5/Seat_ADC2.c **** *
 595:Generated_Source\PSoC5/Seat_ADC2.c **** * Summary:
 596:Generated_Source\PSoC5/Seat_ADC2.c **** *  This function calculates the ADC gain in counts per 10 volt.
 597:Generated_Source\PSoC5/Seat_ADC2.c **** *
 598:Generated_Source\PSoC5/Seat_ADC2.c **** * Parameters:
 599:Generated_Source\PSoC5/Seat_ADC2.c **** *  uint8: resolution
 600:Generated_Source\PSoC5/Seat_ADC2.c **** *
 601:Generated_Source\PSoC5/Seat_ADC2.c **** * Return:
 602:Generated_Source\PSoC5/Seat_ADC2.c **** *  None.
 603:Generated_Source\PSoC5/Seat_ADC2.c **** *
 604:Generated_Source\PSoC5/Seat_ADC2.c **** * Global Variables:
 605:Generated_Source\PSoC5/Seat_ADC2.c **** *  Seat_ADC2_shift variable initialized. This variable is used to
 606:Generated_Source\PSoC5/Seat_ADC2.c **** *  convert the ADC counts to the 2s compliment form.
 607:Generated_Source\PSoC5/Seat_ADC2.c **** *  Seat_ADC2_countsPer10Volt variable initialized. This variable is used
 608:Generated_Source\PSoC5/Seat_ADC2.c **** *  for gain calibration purpose.
 609:Generated_Source\PSoC5/Seat_ADC2.c **** *
 610:Generated_Source\PSoC5/Seat_ADC2.c **** *******************************************************************************/
 611:Generated_Source\PSoC5/Seat_ADC2.c **** static void Seat_ADC2_CalcGain( uint8 resolution )
 612:Generated_Source\PSoC5/Seat_ADC2.c **** {
 613:Generated_Source\PSoC5/Seat_ADC2.c ****     int32 counts;
 614:Generated_Source\PSoC5/Seat_ADC2.c ****     #if(!((Seat_ADC2_DEFAULT_RANGE == Seat_ADC2__VSS_TO_VREF) || \
 615:Generated_Source\PSoC5/Seat_ADC2.c ****          (Seat_ADC2_DEFAULT_RANGE == Seat_ADC2__VSSA_TO_VDDA) || \
 616:Generated_Source\PSoC5/Seat_ADC2.c ****          (Seat_ADC2_DEFAULT_RANGE == Seat_ADC2__VSSA_TO_VDAC)) )
 617:Generated_Source\PSoC5/Seat_ADC2.c ****         uint16 diff_zero;
 618:Generated_Source\PSoC5/Seat_ADC2.c ****     #endif /* End Seat_ADC2_DEFAULT_RANGE */
 619:Generated_Source\PSoC5/Seat_ADC2.c **** 
 620:Generated_Source\PSoC5/Seat_ADC2.c ****     switch (resolution)
 621:Generated_Source\PSoC5/Seat_ADC2.c ****     {
 622:Generated_Source\PSoC5/Seat_ADC2.c ****         case (uint8)Seat_ADC2__BITS_12:
 623:Generated_Source\PSoC5/Seat_ADC2.c ****             counts = (int32)Seat_ADC2_SAR_WRK_MAX_12BIT;
 624:Generated_Source\PSoC5/Seat_ADC2.c ****             #if(!((Seat_ADC2_DEFAULT_RANGE == Seat_ADC2__VSS_TO_VREF) || \
 625:Generated_Source\PSoC5/Seat_ADC2.c ****                  (Seat_ADC2_DEFAULT_RANGE == Seat_ADC2__VSSA_TO_VDDA) || \
 626:Generated_Source\PSoC5/Seat_ADC2.c ****                  (Seat_ADC2_DEFAULT_RANGE == Seat_ADC2__VSSA_TO_VDAC)) )
 627:Generated_Source\PSoC5/Seat_ADC2.c ****                 diff_zero = Seat_ADC2_SAR_DIFF_SHIFT;
 628:Generated_Source\PSoC5/Seat_ADC2.c ****             #endif /* End Seat_ADC2_DEFAULT_RANGE */
 629:Generated_Source\PSoC5/Seat_ADC2.c ****             break;
 630:Generated_Source\PSoC5/Seat_ADC2.c ****         case (uint8)Seat_ADC2__BITS_10:
 631:Generated_Source\PSoC5/Seat_ADC2.c ****             counts = (int32)Seat_ADC2_SAR_WRK_MAX_10BIT;
 632:Generated_Source\PSoC5/Seat_ADC2.c ****             #if(!((Seat_ADC2_DEFAULT_RANGE == Seat_ADC2__VSS_TO_VREF) || \
 633:Generated_Source\PSoC5/Seat_ADC2.c ****                  (Seat_ADC2_DEFAULT_RANGE == Seat_ADC2__VSSA_TO_VDDA) || \
 634:Generated_Source\PSoC5/Seat_ADC2.c ****                  (Seat_ADC2_DEFAULT_RANGE == Seat_ADC2__VSSA_TO_VDAC)) )
ARM GAS  C:\Users\jebush2\AppData\Local\Temp\ccpvBk7b.s 			page 17


 635:Generated_Source\PSoC5/Seat_ADC2.c ****                 diff_zero = Seat_ADC2_SAR_DIFF_SHIFT >> 2u;
 636:Generated_Source\PSoC5/Seat_ADC2.c ****             #endif /* End Seat_ADC2_DEFAULT_RANGE */
 637:Generated_Source\PSoC5/Seat_ADC2.c ****             break;
 638:Generated_Source\PSoC5/Seat_ADC2.c ****         case (uint8)Seat_ADC2__BITS_8:
 639:Generated_Source\PSoC5/Seat_ADC2.c ****             counts = (int32)Seat_ADC2_SAR_WRK_MAX_8BIT;
 640:Generated_Source\PSoC5/Seat_ADC2.c ****             #if(!((Seat_ADC2_DEFAULT_RANGE == Seat_ADC2__VSS_TO_VREF) || \
 641:Generated_Source\PSoC5/Seat_ADC2.c ****                  (Seat_ADC2_DEFAULT_RANGE == Seat_ADC2__VSSA_TO_VDDA) || \
 642:Generated_Source\PSoC5/Seat_ADC2.c ****                  (Seat_ADC2_DEFAULT_RANGE == Seat_ADC2__VSSA_TO_VDAC)) )
 643:Generated_Source\PSoC5/Seat_ADC2.c ****                 diff_zero = Seat_ADC2_SAR_DIFF_SHIFT >> 4u;
 644:Generated_Source\PSoC5/Seat_ADC2.c ****             #endif /* End Seat_ADC2_DEFAULT_RANGE */
 645:Generated_Source\PSoC5/Seat_ADC2.c ****             break;
 646:Generated_Source\PSoC5/Seat_ADC2.c ****         default: /* Halt CPU in debug mode if resolution is out of valid range */
 647:Generated_Source\PSoC5/Seat_ADC2.c ****             counts = 0;
 648:Generated_Source\PSoC5/Seat_ADC2.c ****             #if(!((Seat_ADC2_DEFAULT_RANGE == Seat_ADC2__VSS_TO_VREF) || \
 649:Generated_Source\PSoC5/Seat_ADC2.c ****                  (Seat_ADC2_DEFAULT_RANGE == Seat_ADC2__VSSA_TO_VDDA) || \
 650:Generated_Source\PSoC5/Seat_ADC2.c ****                  (Seat_ADC2_DEFAULT_RANGE == Seat_ADC2__VSSA_TO_VDAC)) )
 651:Generated_Source\PSoC5/Seat_ADC2.c ****                 diff_zero = 0u;
 652:Generated_Source\PSoC5/Seat_ADC2.c ****             #endif /* End Seat_ADC2_DEFAULT_RANGE */
 653:Generated_Source\PSoC5/Seat_ADC2.c ****             CYASSERT(0u != 0u);
 654:Generated_Source\PSoC5/Seat_ADC2.c ****             break;
 655:Generated_Source\PSoC5/Seat_ADC2.c ****     }
 656:Generated_Source\PSoC5/Seat_ADC2.c ****     Seat_ADC2_countsPerVolt = 0; /* Clear obsolete variable */
 262              		.loc 1 656 0
 263 001e 104B     		ldr	r3, .L18+8
 264 0020 9DBF     		ittte	ls
 265 0022 32F91010 		ldrshls	r1, [r2, r0, lsl #1]
 266 0026 02EB4000 		addls	r0, r2, r0, lsl #1
 267 002a 4289     		ldrhls	r2, [r0, #10]
 268              	.LBE5:
 269              	.LBE4:
 362:Generated_Source\PSoC5/Seat_ADC2.c **** 
 270              		.loc 1 362 0
 271 002c 0022     		movhi	r2, #0
 272              	.LBB8:
 273              	.LBB6:
 274              		.loc 1 656 0
 275 002e 4FF00000 		mov	r0, #0
 276              	.LBE6:
 277              	.LBE8:
 362:Generated_Source\PSoC5/Seat_ADC2.c **** 
 278              		.loc 1 362 0
 279 0032 88BF     		it	hi
 280 0034 1146     		movhi	r1, r2
 281              	.LVL21:
 282              	.LBB9:
 283              	.LBB7:
 284              		.loc 1 656 0
 285 0036 1880     		strh	r0, [r3]	@ movhi
 657:Generated_Source\PSoC5/Seat_ADC2.c ****     /* Calculate gain in counts per 10 volts with rounding */
 658:Generated_Source\PSoC5/Seat_ADC2.c ****     Seat_ADC2_countsPer10Volt = (((counts * Seat_ADC2_10MV_COUNTS) +
 659:Generated_Source\PSoC5/Seat_ADC2.c ****                         Seat_ADC2_DEFAULT_REF_VOLTAGE_MV) / (Seat_ADC2_DEFAULT_REF_VOLTAGE_MV * 2))
 286              		.loc 1 659 0
 287 0038 42F21073 		movw	r3, #10000
 288 003c 4B43     		muls	r3, r1, r3
 289 003e 4FF40061 		mov	r1, #2048
 290              	.LVL22:
 291 0042 03F58063 		add	r3, r3, #1024
ARM GAS  C:\Users\jebush2\AppData\Local\Temp\ccpvBk7b.s 			page 18


 292 0046 93FBF1F3 		sdiv	r3, r3, r1
 658:Generated_Source\PSoC5/Seat_ADC2.c ****                         Seat_ADC2_DEFAULT_REF_VOLTAGE_MV) / (Seat_ADC2_DEFAULT_REF_VOLTAGE_MV * 2))
 293              		.loc 1 658 0
 294 004a 0649     		ldr	r1, .L18+12
 660:Generated_Source\PSoC5/Seat_ADC2.c **** 
 661:Generated_Source\PSoC5/Seat_ADC2.c ****     #if( (Seat_ADC2_DEFAULT_RANGE == Seat_ADC2__VSS_TO_VREF) || \
 662:Generated_Source\PSoC5/Seat_ADC2.c ****          (Seat_ADC2_DEFAULT_RANGE == Seat_ADC2__VSSA_TO_VDDA) || \
 663:Generated_Source\PSoC5/Seat_ADC2.c ****          (Seat_ADC2_DEFAULT_RANGE == Seat_ADC2__VSSA_TO_VDAC) )
 664:Generated_Source\PSoC5/Seat_ADC2.c ****         Seat_ADC2_shift = 0;
 665:Generated_Source\PSoC5/Seat_ADC2.c ****     #else
 666:Generated_Source\PSoC5/Seat_ADC2.c ****         Seat_ADC2_shift = diff_zero;
 295              		.loc 1 666 0
 296 004c 12B2     		sxth	r2, r2
 658:Generated_Source\PSoC5/Seat_ADC2.c ****                         Seat_ADC2_DEFAULT_REF_VOLTAGE_MV) / (Seat_ADC2_DEFAULT_REF_VOLTAGE_MV * 2))
 297              		.loc 1 658 0
 298 004e 0B60     		str	r3, [r1]
 299              		.loc 1 666 0
 300 0050 054B     		ldr	r3, .L18+16
 301 0052 1A80     		strh	r2, [r3]	@ movhi
 302              	.LVL23:
 303 0054 7047     		bx	lr
 304              	.L19:
 305 0056 00BF     		.align	2
 306              	.L18:
 307 0058 02590040 		.word	1073764610
 308 005c 00000000 		.word	.LANCHOR0
 309 0060 00000000 		.word	Seat_ADC2_countsPerVolt
 310 0064 00000000 		.word	Seat_ADC2_countsPer10Volt
 311 0068 00000000 		.word	Seat_ADC2_shift
 312              	.LBE7:
 313              	.LBE9:
 314              		.cfi_endproc
 315              	.LFE5:
 316              		.size	Seat_ADC2_SetResolution, .-Seat_ADC2_SetResolution
 317              		.section	.text.Seat_ADC2_Init,"ax",%progbits
 318              		.align	1
 319              		.global	Seat_ADC2_Init
 320              		.thumb
 321              		.thumb_func
 322              		.type	Seat_ADC2_Init, %function
 323              	Seat_ADC2_Init:
 324              	.LFB1:
 107:Generated_Source\PSoC5/Seat_ADC2.c **** 
 325              		.loc 1 107 0
 326              		.cfi_startproc
 327              		@ args = 0, pretend = 0, frame = 0
 328              		@ frame_needed = 0, uses_anonymous_args = 0
 329 0000 08B5     		push	{r3, lr}
 330              		.cfi_def_cfa_offset 8
 331              		.cfi_offset 3, -8
 332              		.cfi_offset 14, -4
 111:Generated_Source\PSoC5/Seat_ADC2.c ****     #endif /* End Seat_ADC2_DEFAULT_INTERNAL_CLK */
 333              		.loc 1 111 0
 334 0002 1020     		movs	r0, #16
 335 0004 FFF7FEFF 		bl	Seat_ADC2_theACLK_SetModeRegister
 336              	.LVL24:
 116:Generated_Source\PSoC5/Seat_ADC2.c ****         (void)CyIntSetVector(Seat_ADC2_INTC_NUMBER, &Seat_ADC2_ISR);
ARM GAS  C:\Users\jebush2\AppData\Local\Temp\ccpvBk7b.s 			page 19


 337              		.loc 1 116 0
 338 0008 0721     		movs	r1, #7
 339 000a 0020     		movs	r0, #0
 340 000c FFF7FEFF 		bl	CyIntSetPriority
 341              	.LVL25:
 117:Generated_Source\PSoC5/Seat_ADC2.c ****     #endif   /* End Seat_ADC2_IRQ_REMOVE */
 342              		.loc 1 117 0
 343 0010 0749     		ldr	r1, .L21
 344 0012 0020     		movs	r0, #0
 345 0014 FFF7FEFF 		bl	CyIntSetVector
 346              	.LVL26:
 121:Generated_Source\PSoC5/Seat_ADC2.c **** 
 347              		.loc 1 121 0
 348 0018 064A     		ldr	r2, .L21+4
 124:Generated_Source\PSoC5/Seat_ADC2.c ****     Seat_ADC2_offset = 0;
 349              		.loc 1 124 0
 350 001a 0C20     		movs	r0, #12
 121:Generated_Source\PSoC5/Seat_ADC2.c **** 
 351              		.loc 1 121 0
 352 001c 1378     		ldrb	r3, [r2]	@ zero_extendqisi2
 353 001e 43F00603 		orr	r3, r3, #6
 354 0022 1370     		strb	r3, [r2]
 124:Generated_Source\PSoC5/Seat_ADC2.c ****     Seat_ADC2_offset = 0;
 355              		.loc 1 124 0
 356 0024 FFF7FEFF 		bl	Seat_ADC2_SetResolution
 357              	.LVL27:
 125:Generated_Source\PSoC5/Seat_ADC2.c **** }
 358              		.loc 1 125 0
 359 0028 034B     		ldr	r3, .L21+8
 360 002a 0022     		movs	r2, #0
 361 002c 1A80     		strh	r2, [r3]	@ movhi
 362 002e 08BD     		pop	{r3, pc}
 363              	.L22:
 364              		.align	2
 365              	.L21:
 366 0030 00000000 		.word	Seat_ADC2_ISR
 367 0034 01590040 		.word	1073764609
 368 0038 00000000 		.word	Seat_ADC2_offset
 369              		.cfi_endproc
 370              	.LFE1:
 371              		.size	Seat_ADC2_Init, .-Seat_ADC2_Init
 372              		.section	.text.Seat_ADC2_Start,"ax",%progbits
 373              		.align	1
 374              		.global	Seat_ADC2_Start
 375              		.thumb
 376              		.thumb_func
 377              		.type	Seat_ADC2_Start, %function
 378              	Seat_ADC2_Start:
 379              	.LFB0:
  75:Generated_Source\PSoC5/Seat_ADC2.c **** 
 380              		.loc 1 75 0
 381              		.cfi_startproc
 382              		@ args = 0, pretend = 0, frame = 0
 383              		@ frame_needed = 0, uses_anonymous_args = 0
 384 0000 10B5     		push	{r4, lr}
 385              		.cfi_def_cfa_offset 8
 386              		.cfi_offset 4, -8
ARM GAS  C:\Users\jebush2\AppData\Local\Temp\ccpvBk7b.s 			page 20


 387              		.cfi_offset 14, -4
  78:Generated_Source\PSoC5/Seat_ADC2.c ****     {
 388              		.loc 1 78 0
 389 0002 054C     		ldr	r4, .L25
 390 0004 2378     		ldrb	r3, [r4]	@ zero_extendqisi2
 391 0006 1BB9     		cbnz	r3, .L24
  80:Generated_Source\PSoC5/Seat_ADC2.c ****         Seat_ADC2_initVar = 1u;
 392              		.loc 1 80 0
 393 0008 FFF7FEFF 		bl	Seat_ADC2_Init
 394              	.LVL28:
  81:Generated_Source\PSoC5/Seat_ADC2.c ****     }
 395              		.loc 1 81 0
 396 000c 0123     		movs	r3, #1
 397 000e 2370     		strb	r3, [r4]
 398              	.L24:
  84:Generated_Source\PSoC5/Seat_ADC2.c **** 
 399              		.loc 1 84 0
 400 0010 BDE81040 		pop	{r4, lr}
 401              		.cfi_restore 14
 402              		.cfi_restore 4
 403              		.cfi_def_cfa_offset 0
  83:Generated_Source\PSoC5/Seat_ADC2.c **** }
 404              		.loc 1 83 0
 405 0014 FFF7FEBF 		b	Seat_ADC2_Enable
 406              	.LVL29:
 407              	.L26:
 408              		.align	2
 409              	.L25:
 410 0018 00000000 		.word	.LANCHOR1
 411              		.cfi_endproc
 412              	.LFE0:
 413              		.size	Seat_ADC2_Start, .-Seat_ADC2_Start
 414              		.section	.text.Seat_ADC2_StartConvert,"ax",%progbits
 415              		.align	1
 416              		.global	Seat_ADC2_StartConvert
 417              		.thumb
 418              		.thumb_func
 419              		.type	Seat_ADC2_StartConvert, %function
 420              	Seat_ADC2_StartConvert:
 421              	.LFB6:
 402:Generated_Source\PSoC5/Seat_ADC2.c ****         #if(Seat_ADC2_DEFAULT_CONV_MODE != Seat_ADC2__FREE_RUNNING)  /* If software triggered mode 
 422              		.loc 1 402 0
 423              		.cfi_startproc
 424              		@ args = 0, pretend = 0, frame = 0
 425              		@ frame_needed = 0, uses_anonymous_args = 0
 426              		@ link register save eliminated.
 404:Generated_Source\PSoC5/Seat_ADC2.c ****         #endif /* End Seat_ADC2_DEFAULT_CONV_MODE */
 427              		.loc 1 404 0
 428 0000 044B     		ldr	r3, .L28
 429 0002 1A78     		ldrb	r2, [r3]	@ zero_extendqisi2
 430 0004 02F0FB02 		and	r2, r2, #251
 431 0008 1A70     		strb	r2, [r3]
 408:Generated_Source\PSoC5/Seat_ADC2.c ****     }
 432              		.loc 1 408 0
 433 000a 1A78     		ldrb	r2, [r3]	@ zero_extendqisi2
 434 000c 42F00102 		orr	r2, r2, #1
 435 0010 1A70     		strb	r2, [r3]
ARM GAS  C:\Users\jebush2\AppData\Local\Temp\ccpvBk7b.s 			page 21


 436 0012 7047     		bx	lr
 437              	.L29:
 438              		.align	2
 439              	.L28:
 440 0014 00590040 		.word	1073764608
 441              		.cfi_endproc
 442              	.LFE6:
 443              		.size	Seat_ADC2_StartConvert, .-Seat_ADC2_StartConvert
 444              		.section	.text.Seat_ADC2_StopConvert,"ax",%progbits
 445              		.align	1
 446              		.global	Seat_ADC2_StopConvert
 447              		.thumb
 448              		.thumb_func
 449              		.type	Seat_ADC2_StopConvert, %function
 450              	Seat_ADC2_StopConvert:
 451              	.LFB7:
 436:Generated_Source\PSoC5/Seat_ADC2.c ****         /* Stop all conversions */
 452              		.loc 1 436 0
 453              		.cfi_startproc
 454              		@ args = 0, pretend = 0, frame = 0
 455              		@ frame_needed = 0, uses_anonymous_args = 0
 456              		@ link register save eliminated.
 438:Generated_Source\PSoC5/Seat_ADC2.c **** 
 457              		.loc 1 438 0
 458 0000 044B     		ldr	r3, .L31
 459 0002 1A78     		ldrb	r2, [r3]	@ zero_extendqisi2
 460 0004 02F0FE02 		and	r2, r2, #254
 461 0008 1A70     		strb	r2, [r3]
 442:Generated_Source\PSoC5/Seat_ADC2.c ****         #endif /* End Seat_ADC2_DEFAULT_CONV_MODE */
 462              		.loc 1 442 0
 463 000a 1A78     		ldrb	r2, [r3]	@ zero_extendqisi2
 464 000c 42F00402 		orr	r2, r2, #4
 465 0010 1A70     		strb	r2, [r3]
 466 0012 7047     		bx	lr
 467              	.L32:
 468              		.align	2
 469              	.L31:
 470 0014 00590040 		.word	1073764608
 471              		.cfi_endproc
 472              	.LFE7:
 473              		.size	Seat_ADC2_StopConvert, .-Seat_ADC2_StopConvert
 474              		.section	.text.Seat_ADC2_IsEndConversion,"ax",%progbits
 475              		.align	1
 476              		.global	Seat_ADC2_IsEndConversion
 477              		.thumb
 478              		.thumb_func
 479              		.type	Seat_ADC2_IsEndConversion, %function
 480              	Seat_ADC2_IsEndConversion:
 481              	.LFB8:
 476:Generated_Source\PSoC5/Seat_ADC2.c ****     uint8 status;
 482              		.loc 1 476 0
 483              		.cfi_startproc
 484              		@ args = 0, pretend = 0, frame = 0
 485              		@ frame_needed = 0, uses_anonymous_args = 0
 486              	.LVL30:
 487 0000 10B5     		push	{r4, lr}
 488              		.cfi_def_cfa_offset 8
ARM GAS  C:\Users\jebush2\AppData\Local\Temp\ccpvBk7b.s 			page 22


 489              		.cfi_offset 4, -8
 490              		.cfi_offset 14, -4
 481:Generated_Source\PSoC5/Seat_ADC2.c ****     } while ((status != Seat_ADC2_SAR_EOF_1) && (retMode == Seat_ADC2_WAIT_FOR_RESULT));
 491              		.loc 1 481 0
 492 0002 084B     		ldr	r3, .L40
 493              	.L35:
 481:Generated_Source\PSoC5/Seat_ADC2.c ****     } while ((status != Seat_ADC2_SAR_EOF_1) && (retMode == Seat_ADC2_WAIT_FOR_RESULT));
 494              		.loc 1 481 0 is_stmt 0 discriminator 2
 495 0004 1C78     		ldrb	r4, [r3]	@ zero_extendqisi2
 496              	.LVL31:
 482:Generated_Source\PSoC5/Seat_ADC2.c ****     /* If convertion complete, wait until EOF bit released */
 497              		.loc 1 482 0 is_stmt 1 discriminator 2
 498 0006 14F00104 		ands	r4, r4, #1
 499              	.LVL32:
 500 000a 03D1     		bne	.L34
 482:Generated_Source\PSoC5/Seat_ADC2.c ****     /* If convertion complete, wait until EOF bit released */
 501              		.loc 1 482 0 is_stmt 0 discriminator 1
 502 000c 0028     		cmp	r0, #0
 503 000e F9D0     		beq	.L35
 504 0010 0024     		movs	r4, #0
 505 0012 04E0     		b	.L39
 506              	.L34:
 487:Generated_Source\PSoC5/Seat_ADC2.c ****         /* Do the unconditional read operation of the CSR1 register to make sure the EOC bit has be
 507              		.loc 1 487 0 is_stmt 1
 508 0014 2046     		mov	r0, r4
 509              	.LVL33:
 510 0016 FFF7FEFF 		bl	CyDelayUs
 511              	.LVL34:
 489:Generated_Source\PSoC5/Seat_ADC2.c ****     }
 512              		.loc 1 489 0
 513 001a 024B     		ldr	r3, .L40
 514 001c 1B78     		ldrb	r3, [r3]	@ zero_extendqisi2
 515              	.L39:
 493:Generated_Source\PSoC5/Seat_ADC2.c **** 
 516              		.loc 1 493 0
 517 001e 2046     		mov	r0, r4
 518 0020 10BD     		pop	{r4, pc}
 519              	.L41:
 520 0022 00BF     		.align	2
 521              	.L40:
 522 0024 01590040 		.word	1073764609
 523              		.cfi_endproc
 524              	.LFE8:
 525              		.size	Seat_ADC2_IsEndConversion, .-Seat_ADC2_IsEndConversion
 526              		.section	.text.Seat_ADC2_GetResult8,"ax",%progbits
 527              		.align	1
 528              		.global	Seat_ADC2_GetResult8
 529              		.thumb
 530              		.thumb_func
 531              		.type	Seat_ADC2_GetResult8, %function
 532              	Seat_ADC2_GetResult8:
 533              	.LFB9:
 521:Generated_Source\PSoC5/Seat_ADC2.c ****     return( (int8)Seat_ADC2_SAR_WRK0_REG - (int8)Seat_ADC2_shift);
 534              		.loc 1 521 0
 535              		.cfi_startproc
 536              		@ args = 0, pretend = 0, frame = 0
 537              		@ frame_needed = 0, uses_anonymous_args = 0
ARM GAS  C:\Users\jebush2\AppData\Local\Temp\ccpvBk7b.s 			page 23


 538              		@ link register save eliminated.
 522:Generated_Source\PSoC5/Seat_ADC2.c **** }
 539              		.loc 1 522 0
 540 0000 034A     		ldr	r2, .L43
 541 0002 044B     		ldr	r3, .L43+4
 542 0004 1B78     		ldrb	r3, [r3]	@ zero_extendqisi2
 543 0006 1088     		ldrh	r0, [r2]
 544 0008 181A     		subs	r0, r3, r0
 523:Generated_Source\PSoC5/Seat_ADC2.c **** 
 545              		.loc 1 523 0
 546 000a 40B2     		sxtb	r0, r0
 547 000c 7047     		bx	lr
 548              	.L44:
 549 000e 00BF     		.align	2
 550              	.L43:
 551 0010 00000000 		.word	Seat_ADC2_shift
 552 0014 A05B0040 		.word	1073765280
 553              		.cfi_endproc
 554              	.LFE9:
 555              		.size	Seat_ADC2_GetResult8, .-Seat_ADC2_GetResult8
 556              		.section	.text.Seat_ADC2_GetResult16,"ax",%progbits
 557              		.align	1
 558              		.global	Seat_ADC2_GetResult16
 559              		.thumb
 560              		.thumb_func
 561              		.type	Seat_ADC2_GetResult16, %function
 562              	Seat_ADC2_GetResult16:
 563              	.LFB10:
 551:Generated_Source\PSoC5/Seat_ADC2.c ****     uint16 res;
 564              		.loc 1 551 0
 565              		.cfi_startproc
 566              		@ args = 0, pretend = 0, frame = 0
 567              		@ frame_needed = 0, uses_anonymous_args = 0
 568              		@ link register save eliminated.
 556:Generated_Source\PSoC5/Seat_ADC2.c **** }
 569              		.loc 1 556 0
 570 0000 034A     		ldr	r2, .L46
 554:Generated_Source\PSoC5/Seat_ADC2.c **** 
 571              		.loc 1 554 0
 572 0002 044B     		ldr	r3, .L46+4
 573 0004 1B88     		ldrh	r3, [r3]
 574              	.LVL35:
 556:Generated_Source\PSoC5/Seat_ADC2.c **** }
 575              		.loc 1 556 0
 576 0006 1088     		ldrh	r0, [r2]
 577 0008 181A     		subs	r0, r3, r0
 557:Generated_Source\PSoC5/Seat_ADC2.c **** 
 578              		.loc 1 557 0
 579 000a 00B2     		sxth	r0, r0
 580 000c 7047     		bx	lr
 581              	.L47:
 582 000e 00BF     		.align	2
 583              	.L46:
 584 0010 00000000 		.word	Seat_ADC2_shift
 585 0014 A05B0040 		.word	1073765280
 586              		.cfi_endproc
 587              	.LFE10:
ARM GAS  C:\Users\jebush2\AppData\Local\Temp\ccpvBk7b.s 			page 24


 588              		.size	Seat_ADC2_GetResult16, .-Seat_ADC2_GetResult16
 589              		.section	.text.Seat_ADC2_SetOffset,"ax",%progbits
 590              		.align	1
 591              		.global	Seat_ADC2_SetOffset
 592              		.thumb
 593              		.thumb_func
 594              		.type	Seat_ADC2_SetOffset, %function
 595              	Seat_ADC2_SetOffset:
 596              	.LFB11:
 586:Generated_Source\PSoC5/Seat_ADC2.c ****     Seat_ADC2_offset = offset;
 597              		.loc 1 586 0
 598              		.cfi_startproc
 599              		@ args = 0, pretend = 0, frame = 0
 600              		@ frame_needed = 0, uses_anonymous_args = 0
 601              		@ link register save eliminated.
 602              	.LVL36:
 587:Generated_Source\PSoC5/Seat_ADC2.c **** }
 603              		.loc 1 587 0
 604 0000 014B     		ldr	r3, .L49
 605 0002 1880     		strh	r0, [r3]	@ movhi
 606 0004 7047     		bx	lr
 607              	.L50:
 608 0006 00BF     		.align	2
 609              	.L49:
 610 0008 00000000 		.word	Seat_ADC2_offset
 611              		.cfi_endproc
 612              	.LFE11:
 613              		.size	Seat_ADC2_SetOffset, .-Seat_ADC2_SetOffset
 614              		.section	.text.Seat_ADC2_SetGain,"ax",%progbits
 615              		.align	1
 616              		.global	Seat_ADC2_SetGain
 617              		.thumb
 618              		.thumb_func
 619              		.type	Seat_ADC2_SetGain, %function
 620              	Seat_ADC2_SetGain:
 621              	.LFB13:
 667:Generated_Source\PSoC5/Seat_ADC2.c ****     #endif /* End Seat_ADC2_DEFAULT_RANGE */
 668:Generated_Source\PSoC5/Seat_ADC2.c **** }
 669:Generated_Source\PSoC5/Seat_ADC2.c **** 
 670:Generated_Source\PSoC5/Seat_ADC2.c **** 
 671:Generated_Source\PSoC5/Seat_ADC2.c **** /*******************************************************************************
 672:Generated_Source\PSoC5/Seat_ADC2.c **** * Function Name: Seat_ADC2_SetGain
 673:Generated_Source\PSoC5/Seat_ADC2.c **** ********************************************************************************
 674:Generated_Source\PSoC5/Seat_ADC2.c **** *
 675:Generated_Source\PSoC5/Seat_ADC2.c **** * Summary:
 676:Generated_Source\PSoC5/Seat_ADC2.c **** *  Sets the ADC gain in counts per volt for the voltage conversion functions
 677:Generated_Source\PSoC5/Seat_ADC2.c **** *  that follow. This value is set by default by the reference and input range
 678:Generated_Source\PSoC5/Seat_ADC2.c **** *  settings. It should only be used to further calibrate the ADC with a known
 679:Generated_Source\PSoC5/Seat_ADC2.c **** *  input or if the ADC is using an external reference.
 680:Generated_Source\PSoC5/Seat_ADC2.c **** *
 681:Generated_Source\PSoC5/Seat_ADC2.c **** * Parameters:
 682:Generated_Source\PSoC5/Seat_ADC2.c **** *  int16 adcGain counts per volt
 683:Generated_Source\PSoC5/Seat_ADC2.c **** *
 684:Generated_Source\PSoC5/Seat_ADC2.c **** * Return:
 685:Generated_Source\PSoC5/Seat_ADC2.c **** *  None.
 686:Generated_Source\PSoC5/Seat_ADC2.c **** *
 687:Generated_Source\PSoC5/Seat_ADC2.c **** * Global Variables:
ARM GAS  C:\Users\jebush2\AppData\Local\Temp\ccpvBk7b.s 			page 25


 688:Generated_Source\PSoC5/Seat_ADC2.c **** *  Seat_ADC2_countsPer10Volt variable modified. This variable is used
 689:Generated_Source\PSoC5/Seat_ADC2.c **** *  for gain calibration purpose.
 690:Generated_Source\PSoC5/Seat_ADC2.c **** *
 691:Generated_Source\PSoC5/Seat_ADC2.c **** *******************************************************************************/
 692:Generated_Source\PSoC5/Seat_ADC2.c **** void Seat_ADC2_SetGain(int16 adcGain)
 693:Generated_Source\PSoC5/Seat_ADC2.c **** {
 622              		.loc 1 693 0
 623              		.cfi_startproc
 624              		@ args = 0, pretend = 0, frame = 0
 625              		@ frame_needed = 0, uses_anonymous_args = 0
 626              		@ link register save eliminated.
 627              	.LVL37:
 694:Generated_Source\PSoC5/Seat_ADC2.c ****     Seat_ADC2_countsPer10Volt = (int32)adcGain * 10;
 628              		.loc 1 694 0
 629 0000 0A23     		movs	r3, #10
 630 0002 5843     		muls	r0, r3, r0
 631              	.LVL38:
 632 0004 014B     		ldr	r3, .L52
 633 0006 1860     		str	r0, [r3]
 634 0008 7047     		bx	lr
 635              	.L53:
 636 000a 00BF     		.align	2
 637              	.L52:
 638 000c 00000000 		.word	Seat_ADC2_countsPer10Volt
 639              		.cfi_endproc
 640              	.LFE13:
 641              		.size	Seat_ADC2_SetGain, .-Seat_ADC2_SetGain
 642              		.section	.text.Seat_ADC2_SetScaledGain,"ax",%progbits
 643              		.align	1
 644              		.global	Seat_ADC2_SetScaledGain
 645              		.thumb
 646              		.thumb_func
 647              		.type	Seat_ADC2_SetScaledGain, %function
 648              	Seat_ADC2_SetScaledGain:
 649              	.LFB14:
 695:Generated_Source\PSoC5/Seat_ADC2.c **** }
 696:Generated_Source\PSoC5/Seat_ADC2.c **** 
 697:Generated_Source\PSoC5/Seat_ADC2.c **** 
 698:Generated_Source\PSoC5/Seat_ADC2.c **** /*******************************************************************************
 699:Generated_Source\PSoC5/Seat_ADC2.c **** * Function Name: Seat_ADC2_SetScaledGain
 700:Generated_Source\PSoC5/Seat_ADC2.c **** ********************************************************************************
 701:Generated_Source\PSoC5/Seat_ADC2.c **** *
 702:Generated_Source\PSoC5/Seat_ADC2.c **** * Summary:
 703:Generated_Source\PSoC5/Seat_ADC2.c **** *  Sets the ADC gain in counts per 10 volt for the voltage conversion functions
 704:Generated_Source\PSoC5/Seat_ADC2.c **** *  that follow. This value is set by default by the reference and input range
 705:Generated_Source\PSoC5/Seat_ADC2.c **** *  settings. It should only be used to further calibrate the ADC with a known
 706:Generated_Source\PSoC5/Seat_ADC2.c **** *  input or if the ADC is using an external reference.
 707:Generated_Source\PSoC5/Seat_ADC2.c **** *
 708:Generated_Source\PSoC5/Seat_ADC2.c **** * Parameters:
 709:Generated_Source\PSoC5/Seat_ADC2.c **** *  int32 adcGain  counts per 10 volt
 710:Generated_Source\PSoC5/Seat_ADC2.c **** *
 711:Generated_Source\PSoC5/Seat_ADC2.c **** * Return:
 712:Generated_Source\PSoC5/Seat_ADC2.c **** *  None.
 713:Generated_Source\PSoC5/Seat_ADC2.c **** *
 714:Generated_Source\PSoC5/Seat_ADC2.c **** * Global Variables:
 715:Generated_Source\PSoC5/Seat_ADC2.c **** *  Seat_ADC2_countsPer10Volt variable modified. This variable is used
 716:Generated_Source\PSoC5/Seat_ADC2.c **** *  for gain calibration purpose.
ARM GAS  C:\Users\jebush2\AppData\Local\Temp\ccpvBk7b.s 			page 26


 717:Generated_Source\PSoC5/Seat_ADC2.c **** *
 718:Generated_Source\PSoC5/Seat_ADC2.c **** *******************************************************************************/
 719:Generated_Source\PSoC5/Seat_ADC2.c **** void Seat_ADC2_SetScaledGain(int32 adcGain)
 720:Generated_Source\PSoC5/Seat_ADC2.c **** {
 650              		.loc 1 720 0
 651              		.cfi_startproc
 652              		@ args = 0, pretend = 0, frame = 0
 653              		@ frame_needed = 0, uses_anonymous_args = 0
 654              		@ link register save eliminated.
 655              	.LVL39:
 721:Generated_Source\PSoC5/Seat_ADC2.c ****     Seat_ADC2_countsPer10Volt = adcGain;
 656              		.loc 1 721 0
 657 0000 014B     		ldr	r3, .L55
 658 0002 1860     		str	r0, [r3]
 659 0004 7047     		bx	lr
 660              	.L56:
 661 0006 00BF     		.align	2
 662              	.L55:
 663 0008 00000000 		.word	Seat_ADC2_countsPer10Volt
 664              		.cfi_endproc
 665              	.LFE14:
 666              		.size	Seat_ADC2_SetScaledGain, .-Seat_ADC2_SetScaledGain
 667              		.section	.text.Seat_ADC2_CountsTo_mVolts,"ax",%progbits
 668              		.align	1
 669              		.global	Seat_ADC2_CountsTo_mVolts
 670              		.thumb
 671              		.thumb_func
 672              		.type	Seat_ADC2_CountsTo_mVolts, %function
 673              	Seat_ADC2_CountsTo_mVolts:
 674              	.LFB15:
 722:Generated_Source\PSoC5/Seat_ADC2.c **** }
 723:Generated_Source\PSoC5/Seat_ADC2.c **** 
 724:Generated_Source\PSoC5/Seat_ADC2.c **** 
 725:Generated_Source\PSoC5/Seat_ADC2.c **** /*******************************************************************************
 726:Generated_Source\PSoC5/Seat_ADC2.c **** * Function Name: Seat_ADC2_CountsTo_mVolts
 727:Generated_Source\PSoC5/Seat_ADC2.c **** ********************************************************************************
 728:Generated_Source\PSoC5/Seat_ADC2.c **** *
 729:Generated_Source\PSoC5/Seat_ADC2.c **** * Summary:
 730:Generated_Source\PSoC5/Seat_ADC2.c **** *  Converts the ADC output to millivolts as a 16-bit integer.
 731:Generated_Source\PSoC5/Seat_ADC2.c **** *
 732:Generated_Source\PSoC5/Seat_ADC2.c **** * Parameters:
 733:Generated_Source\PSoC5/Seat_ADC2.c **** *  int16 adcCounts:  Result from the ADC conversion
 734:Generated_Source\PSoC5/Seat_ADC2.c **** *
 735:Generated_Source\PSoC5/Seat_ADC2.c **** * Return:
 736:Generated_Source\PSoC5/Seat_ADC2.c **** *  int16 Result in mVolts
 737:Generated_Source\PSoC5/Seat_ADC2.c **** *
 738:Generated_Source\PSoC5/Seat_ADC2.c **** * Global Variables:
 739:Generated_Source\PSoC5/Seat_ADC2.c **** *  Seat_ADC2_offset variable used.
 740:Generated_Source\PSoC5/Seat_ADC2.c **** *  Seat_ADC2_countsPer10Volt variable used.
 741:Generated_Source\PSoC5/Seat_ADC2.c **** *
 742:Generated_Source\PSoC5/Seat_ADC2.c **** *******************************************************************************/
 743:Generated_Source\PSoC5/Seat_ADC2.c **** int16 Seat_ADC2_CountsTo_mVolts(int16 adcCounts)
 744:Generated_Source\PSoC5/Seat_ADC2.c **** {
 675              		.loc 1 744 0
 676              		.cfi_startproc
 677              		@ args = 0, pretend = 0, frame = 0
 678              		@ frame_needed = 0, uses_anonymous_args = 0
ARM GAS  C:\Users\jebush2\AppData\Local\Temp\ccpvBk7b.s 			page 27


 679              		@ link register save eliminated.
 680              	.LVL40:
 745:Generated_Source\PSoC5/Seat_ADC2.c ****     int16 mVolts;
 746:Generated_Source\PSoC5/Seat_ADC2.c ****     int32 countsPer10Volt;
 747:Generated_Source\PSoC5/Seat_ADC2.c **** 
 748:Generated_Source\PSoC5/Seat_ADC2.c ****     if(Seat_ADC2_countsPerVolt != 0)
 681              		.loc 1 748 0
 682 0000 0E4A     		ldr	r2, .L62
 683 0002 1388     		ldrh	r3, [r2]
 684 0004 1BB2     		sxth	r3, r3
 685 0006 23B1     		cbz	r3, .L58
 749:Generated_Source\PSoC5/Seat_ADC2.c ****     {   /* Support obsolete method */
 750:Generated_Source\PSoC5/Seat_ADC2.c ****         countsPer10Volt = (int32)Seat_ADC2_countsPerVolt * 10;
 686              		.loc 1 750 0
 687 0008 1188     		ldrh	r1, [r2]
 688 000a 0A23     		movs	r3, #10
 689 000c 09B2     		sxth	r1, r1
 690 000e 5943     		muls	r1, r3, r1
 691              	.LVL41:
 692 0010 01E0     		b	.L59
 693              	.LVL42:
 694              	.L58:
 751:Generated_Source\PSoC5/Seat_ADC2.c ****     }
 752:Generated_Source\PSoC5/Seat_ADC2.c ****     else
 753:Generated_Source\PSoC5/Seat_ADC2.c ****     {
 754:Generated_Source\PSoC5/Seat_ADC2.c ****         countsPer10Volt = Seat_ADC2_countsPer10Volt;
 695              		.loc 1 754 0
 696 0012 0B4B     		ldr	r3, .L62+4
 697 0014 1968     		ldr	r1, [r3]
 698              	.LVL43:
 699              	.L59:
 755:Generated_Source\PSoC5/Seat_ADC2.c ****     }
 756:Generated_Source\PSoC5/Seat_ADC2.c **** 
 757:Generated_Source\PSoC5/Seat_ADC2.c ****     /* Subtract ADC offset */
 758:Generated_Source\PSoC5/Seat_ADC2.c ****     adcCounts -= Seat_ADC2_offset;
 700              		.loc 1 758 0
 701 0016 0B4B     		ldr	r3, .L62+8
 702 0018 1B88     		ldrh	r3, [r3]
 703 001a C01A     		subs	r0, r0, r3
 704              	.LVL44:
 759:Generated_Source\PSoC5/Seat_ADC2.c ****     /* Convert to millivolts with rounding */
 760:Generated_Source\PSoC5/Seat_ADC2.c ****     mVolts = (int16)( (( (int32)adcCounts * Seat_ADC2_10MV_COUNTS ) + ( (adcCounts > 0) ?
 705              		.loc 1 760 0
 706 001c 42F21073 		movw	r3, #10000
 758:Generated_Source\PSoC5/Seat_ADC2.c ****     /* Convert to millivolts with rounding */
 707              		.loc 1 758 0
 708 0020 00B2     		sxth	r0, r0
 709              	.LVL45:
 710              		.loc 1 760 0
 711 0022 03FB00F2 		mul	r2, r3, r0
 712 0026 0223     		movs	r3, #2
 761:Generated_Source\PSoC5/Seat_ADC2.c ****                        (countsPer10Volt / 2) : (-(countsPer10Volt / 2)) )) / countsPer10Volt);
 713              		.loc 1 761 0
 714 0028 91FBF3F3 		sdiv	r3, r1, r3
 715 002c 0028     		cmp	r0, #0
 716 002e D8BF     		it	le
 717 0030 5B42     		rsble	r3, r3, #0
ARM GAS  C:\Users\jebush2\AppData\Local\Temp\ccpvBk7b.s 			page 28


 718              	.LVL46:
 762:Generated_Source\PSoC5/Seat_ADC2.c **** 
 763:Generated_Source\PSoC5/Seat_ADC2.c ****     return( mVolts );
 719              		.loc 1 763 0
 720 0032 1344     		add	r3, r3, r2
 721              	.LVL47:
 722 0034 93FBF1F0 		sdiv	r0, r3, r1
 723              	.LVL48:
 764:Generated_Source\PSoC5/Seat_ADC2.c **** }
 724              		.loc 1 764 0
 725 0038 00B2     		sxth	r0, r0
 726 003a 7047     		bx	lr
 727              	.L63:
 728              		.align	2
 729              	.L62:
 730 003c 00000000 		.word	Seat_ADC2_countsPerVolt
 731 0040 00000000 		.word	Seat_ADC2_countsPer10Volt
 732 0044 00000000 		.word	Seat_ADC2_offset
 733              		.cfi_endproc
 734              	.LFE15:
 735              		.size	Seat_ADC2_CountsTo_mVolts, .-Seat_ADC2_CountsTo_mVolts
 736              		.global	__aeabi_ldivmod
 737              		.section	.text.Seat_ADC2_CountsTo_uVolts,"ax",%progbits
 738              		.align	1
 739              		.global	Seat_ADC2_CountsTo_uVolts
 740              		.thumb
 741              		.thumb_func
 742              		.type	Seat_ADC2_CountsTo_uVolts, %function
 743              	Seat_ADC2_CountsTo_uVolts:
 744              	.LFB16:
 765:Generated_Source\PSoC5/Seat_ADC2.c **** 
 766:Generated_Source\PSoC5/Seat_ADC2.c **** 
 767:Generated_Source\PSoC5/Seat_ADC2.c **** /*******************************************************************************
 768:Generated_Source\PSoC5/Seat_ADC2.c **** * Function Name: Seat_ADC2_CountsTo_uVolts
 769:Generated_Source\PSoC5/Seat_ADC2.c **** ********************************************************************************
 770:Generated_Source\PSoC5/Seat_ADC2.c **** *
 771:Generated_Source\PSoC5/Seat_ADC2.c **** * Summary:
 772:Generated_Source\PSoC5/Seat_ADC2.c **** *  Converts the ADC output to microvolts as a 32-bit integer.
 773:Generated_Source\PSoC5/Seat_ADC2.c **** *
 774:Generated_Source\PSoC5/Seat_ADC2.c **** * Parameters:
 775:Generated_Source\PSoC5/Seat_ADC2.c **** *  int16 adcCounts: Result from the ADC conversion
 776:Generated_Source\PSoC5/Seat_ADC2.c **** *
 777:Generated_Source\PSoC5/Seat_ADC2.c **** * Return:
 778:Generated_Source\PSoC5/Seat_ADC2.c **** *  int32 Result in micro Volts
 779:Generated_Source\PSoC5/Seat_ADC2.c **** *
 780:Generated_Source\PSoC5/Seat_ADC2.c **** * Global Variables:
 781:Generated_Source\PSoC5/Seat_ADC2.c **** *  Seat_ADC2_offset variable used.
 782:Generated_Source\PSoC5/Seat_ADC2.c **** *  Seat_ADC2_countsPer10Volt used to convert ADC counts to uVolts.
 783:Generated_Source\PSoC5/Seat_ADC2.c **** *
 784:Generated_Source\PSoC5/Seat_ADC2.c **** *******************************************************************************/
 785:Generated_Source\PSoC5/Seat_ADC2.c **** int32 Seat_ADC2_CountsTo_uVolts(int16 adcCounts)
 786:Generated_Source\PSoC5/Seat_ADC2.c **** {
 745              		.loc 1 786 0
 746              		.cfi_startproc
 747              		@ args = 0, pretend = 0, frame = 0
 748              		@ frame_needed = 0, uses_anonymous_args = 0
 749              	.LVL49:
ARM GAS  C:\Users\jebush2\AppData\Local\Temp\ccpvBk7b.s 			page 29


 787:Generated_Source\PSoC5/Seat_ADC2.c **** 
 788:Generated_Source\PSoC5/Seat_ADC2.c ****     int64 uVolts;
 789:Generated_Source\PSoC5/Seat_ADC2.c ****     int32 countsPer10Volt;
 790:Generated_Source\PSoC5/Seat_ADC2.c **** 
 791:Generated_Source\PSoC5/Seat_ADC2.c ****     if(Seat_ADC2_countsPerVolt != 0)
 750              		.loc 1 791 0
 751 0000 0C4A     		ldr	r2, .L67
 786:Generated_Source\PSoC5/Seat_ADC2.c **** 
 752              		.loc 1 786 0
 753 0002 38B5     		push	{r3, r4, r5, lr}
 754              		.cfi_def_cfa_offset 16
 755              		.cfi_offset 3, -16
 756              		.cfi_offset 4, -12
 757              		.cfi_offset 5, -8
 758              		.cfi_offset 14, -4
 759              		.loc 1 791 0
 760 0004 1388     		ldrh	r3, [r2]
 761 0006 1BB2     		sxth	r3, r3
 762 0008 23B1     		cbz	r3, .L65
 792:Generated_Source\PSoC5/Seat_ADC2.c ****     {   /* Support obsolete method */
 793:Generated_Source\PSoC5/Seat_ADC2.c ****         countsPer10Volt = (int32)Seat_ADC2_countsPerVolt * 10;
 763              		.loc 1 793 0
 764 000a 1288     		ldrh	r2, [r2]
 765 000c 0A23     		movs	r3, #10
 766 000e 12B2     		sxth	r2, r2
 767 0010 5A43     		muls	r2, r3, r2
 768              	.LVL50:
 769 0012 01E0     		b	.L66
 770              	.LVL51:
 771              	.L65:
 794:Generated_Source\PSoC5/Seat_ADC2.c ****     }
 795:Generated_Source\PSoC5/Seat_ADC2.c ****     else
 796:Generated_Source\PSoC5/Seat_ADC2.c ****     {
 797:Generated_Source\PSoC5/Seat_ADC2.c ****         countsPer10Volt = Seat_ADC2_countsPer10Volt;
 772              		.loc 1 797 0
 773 0014 084B     		ldr	r3, .L67+4
 774 0016 1A68     		ldr	r2, [r3]
 775              	.LVL52:
 776              	.L66:
 798:Generated_Source\PSoC5/Seat_ADC2.c ****     }
 799:Generated_Source\PSoC5/Seat_ADC2.c **** 
 800:Generated_Source\PSoC5/Seat_ADC2.c ****     /* Subtract ADC offset */
 801:Generated_Source\PSoC5/Seat_ADC2.c ****     adcCounts -= Seat_ADC2_offset;
 777              		.loc 1 801 0
 778 0018 084B     		ldr	r3, .L67+8
 779 001a 1C88     		ldrh	r4, [r3]
 802:Generated_Source\PSoC5/Seat_ADC2.c ****     /* To convert adcCounts to microVolts it is required to be multiplied
 803:Generated_Source\PSoC5/Seat_ADC2.c ****     *  on 10 million and later divide on gain in counts per 10V.
 804:Generated_Source\PSoC5/Seat_ADC2.c ****     */
 805:Generated_Source\PSoC5/Seat_ADC2.c ****     uVolts = (( (int64)adcCounts * Seat_ADC2_10UV_COUNTS ) / countsPer10Volt);
 806:Generated_Source\PSoC5/Seat_ADC2.c **** 
 807:Generated_Source\PSoC5/Seat_ADC2.c ****     return((int32) uVolts );
 780              		.loc 1 807 0
 781 001c 084B     		ldr	r3, .L67+12
 801:Generated_Source\PSoC5/Seat_ADC2.c ****     /* To convert adcCounts to microVolts it is required to be multiplied
 782              		.loc 1 801 0
 783 001e 041B     		subs	r4, r0, r4
ARM GAS  C:\Users\jebush2\AppData\Local\Temp\ccpvBk7b.s 			page 30


 784              	.LVL53:
 785              		.loc 1 807 0
 786 0020 24B2     		sxth	r4, r4
 787 0022 A4FB0301 		umull	r0, r1, r4, r3
 788 0026 E517     		asrs	r5, r4, #31
 789 0028 03FB0511 		mla	r1, r3, r5, r1
 790 002c D317     		asrs	r3, r2, #31
 791 002e FFF7FEFF 		bl	__aeabi_ldivmod
 792              	.LVL54:
 808:Generated_Source\PSoC5/Seat_ADC2.c **** }
 793              		.loc 1 808 0
 794 0032 38BD     		pop	{r3, r4, r5, pc}
 795              	.LVL55:
 796              	.L68:
 797              		.align	2
 798              	.L67:
 799 0034 00000000 		.word	Seat_ADC2_countsPerVolt
 800 0038 00000000 		.word	Seat_ADC2_countsPer10Volt
 801 003c 00000000 		.word	Seat_ADC2_offset
 802 0040 80969800 		.word	10000000
 803              		.cfi_endproc
 804              	.LFE16:
 805              		.size	Seat_ADC2_CountsTo_uVolts, .-Seat_ADC2_CountsTo_uVolts
 806              		.global	__aeabi_i2f
 807              		.global	__aeabi_fmul
 808              		.global	__aeabi_fdiv
 809              		.section	.text.Seat_ADC2_CountsTo_Volts,"ax",%progbits
 810              		.align	1
 811              		.global	Seat_ADC2_CountsTo_Volts
 812              		.thumb
 813              		.thumb_func
 814              		.type	Seat_ADC2_CountsTo_Volts, %function
 815              	Seat_ADC2_CountsTo_Volts:
 816              	.LFB17:
 809:Generated_Source\PSoC5/Seat_ADC2.c **** 
 810:Generated_Source\PSoC5/Seat_ADC2.c **** 
 811:Generated_Source\PSoC5/Seat_ADC2.c **** /*******************************************************************************
 812:Generated_Source\PSoC5/Seat_ADC2.c **** * Function Name: Seat_ADC2_CountsTo_Volts
 813:Generated_Source\PSoC5/Seat_ADC2.c **** ********************************************************************************
 814:Generated_Source\PSoC5/Seat_ADC2.c **** *
 815:Generated_Source\PSoC5/Seat_ADC2.c **** * Summary:
 816:Generated_Source\PSoC5/Seat_ADC2.c **** *  Converts the ADC output to volts as a floating-point number.
 817:Generated_Source\PSoC5/Seat_ADC2.c **** *
 818:Generated_Source\PSoC5/Seat_ADC2.c **** * Parameters:
 819:Generated_Source\PSoC5/Seat_ADC2.c **** *  int16 adcCounts: Result from the ADC conversion
 820:Generated_Source\PSoC5/Seat_ADC2.c **** *
 821:Generated_Source\PSoC5/Seat_ADC2.c **** * Return:
 822:Generated_Source\PSoC5/Seat_ADC2.c **** *  float Result in Volts
 823:Generated_Source\PSoC5/Seat_ADC2.c **** *
 824:Generated_Source\PSoC5/Seat_ADC2.c **** * Global Variables:
 825:Generated_Source\PSoC5/Seat_ADC2.c **** *  Seat_ADC2_offset variable used.
 826:Generated_Source\PSoC5/Seat_ADC2.c **** *  Seat_ADC2_countsPer10Volt used to convert ADC counts to Volts.
 827:Generated_Source\PSoC5/Seat_ADC2.c **** *
 828:Generated_Source\PSoC5/Seat_ADC2.c **** *******************************************************************************/
 829:Generated_Source\PSoC5/Seat_ADC2.c **** float32 Seat_ADC2_CountsTo_Volts(int16 adcCounts)
 830:Generated_Source\PSoC5/Seat_ADC2.c **** {
 817              		.loc 1 830 0
ARM GAS  C:\Users\jebush2\AppData\Local\Temp\ccpvBk7b.s 			page 31


 818              		.cfi_startproc
 819              		@ args = 0, pretend = 0, frame = 0
 820              		@ frame_needed = 0, uses_anonymous_args = 0
 821              	.LVL56:
 831:Generated_Source\PSoC5/Seat_ADC2.c ****     float32 volts;
 832:Generated_Source\PSoC5/Seat_ADC2.c ****     int32 countsPer10Volt;
 833:Generated_Source\PSoC5/Seat_ADC2.c **** 
 834:Generated_Source\PSoC5/Seat_ADC2.c ****     if(Seat_ADC2_countsPerVolt != 0)
 822              		.loc 1 834 0
 823 0000 0E4A     		ldr	r2, .L72
 830:Generated_Source\PSoC5/Seat_ADC2.c ****     float32 volts;
 824              		.loc 1 830 0
 825 0002 38B5     		push	{r3, r4, r5, lr}
 826              		.cfi_def_cfa_offset 16
 827              		.cfi_offset 3, -16
 828              		.cfi_offset 4, -12
 829              		.cfi_offset 5, -8
 830              		.cfi_offset 14, -4
 831              		.loc 1 834 0
 832 0004 1388     		ldrh	r3, [r2]
 833 0006 1BB2     		sxth	r3, r3
 834 0008 23B1     		cbz	r3, .L70
 835:Generated_Source\PSoC5/Seat_ADC2.c ****     {   /* Support obsolete method */
 836:Generated_Source\PSoC5/Seat_ADC2.c ****         countsPer10Volt = (int32)Seat_ADC2_countsPerVolt * 10;
 835              		.loc 1 836 0
 836 000a 1488     		ldrh	r4, [r2]
 837 000c 0A23     		movs	r3, #10
 838 000e 24B2     		sxth	r4, r4
 839 0010 5C43     		muls	r4, r3, r4
 840              	.LVL57:
 841 0012 01E0     		b	.L71
 842              	.LVL58:
 843              	.L70:
 837:Generated_Source\PSoC5/Seat_ADC2.c ****     }
 838:Generated_Source\PSoC5/Seat_ADC2.c ****     else
 839:Generated_Source\PSoC5/Seat_ADC2.c ****     {
 840:Generated_Source\PSoC5/Seat_ADC2.c ****         countsPer10Volt = Seat_ADC2_countsPer10Volt;
 844              		.loc 1 840 0
 845 0014 0A4B     		ldr	r3, .L72+4
 846 0016 1C68     		ldr	r4, [r3]
 847              	.LVL59:
 848              	.L71:
 841:Generated_Source\PSoC5/Seat_ADC2.c ****     }
 842:Generated_Source\PSoC5/Seat_ADC2.c **** 
 843:Generated_Source\PSoC5/Seat_ADC2.c ****     /* Subtract ADC offset */
 844:Generated_Source\PSoC5/Seat_ADC2.c ****     adcCounts -= Seat_ADC2_offset;
 849              		.loc 1 844 0
 850 0018 0A4B     		ldr	r3, .L72+8
 851 001a 1B88     		ldrh	r3, [r3]
 852 001c C01A     		subs	r0, r0, r3
 853              	.LVL60:
 845:Generated_Source\PSoC5/Seat_ADC2.c **** 
 846:Generated_Source\PSoC5/Seat_ADC2.c ****     volts = ((float32)adcCounts * Seat_ADC2_10V_COUNTS) / (float32)countsPer10Volt;
 847:Generated_Source\PSoC5/Seat_ADC2.c **** 
 848:Generated_Source\PSoC5/Seat_ADC2.c ****     return( volts );
 854              		.loc 1 848 0
 855 001e 00B2     		sxth	r0, r0
ARM GAS  C:\Users\jebush2\AppData\Local\Temp\ccpvBk7b.s 			page 32


 856 0020 FFF7FEFF 		bl	__aeabi_i2f
 857              	.LVL61:
 858 0024 0849     		ldr	r1, .L72+12
 859 0026 FFF7FEFF 		bl	__aeabi_fmul
 860              	.LVL62:
 861 002a 0546     		mov	r5, r0
 862 002c 2046     		mov	r0, r4
 863 002e FFF7FEFF 		bl	__aeabi_i2f
 864              	.LVL63:
 865 0032 0146     		mov	r1, r0
 866 0034 2846     		mov	r0, r5
 867 0036 FFF7FEFF 		bl	__aeabi_fdiv
 868              	.LVL64:
 849:Generated_Source\PSoC5/Seat_ADC2.c **** }
 869              		.loc 1 849 0
 870 003a 38BD     		pop	{r3, r4, r5, pc}
 871              	.LVL65:
 872              	.L73:
 873              		.align	2
 874              	.L72:
 875 003c 00000000 		.word	Seat_ADC2_countsPerVolt
 876 0040 00000000 		.word	Seat_ADC2_countsPer10Volt
 877 0044 00000000 		.word	Seat_ADC2_offset
 878 0048 00002041 		.word	1092616192
 879              		.cfi_endproc
 880              	.LFE17:
 881              		.size	Seat_ADC2_CountsTo_Volts, .-Seat_ADC2_CountsTo_Volts
 882              		.comm	Seat_ADC2_shift,2,2
 883              		.comm	Seat_ADC2_countsPer10Volt,4,4
 884              		.comm	Seat_ADC2_countsPerVolt,2,2
 885              		.comm	Seat_ADC2_offset,2,2
 886              		.global	Seat_ADC2_initVar
 887              		.section	.rodata
 888              		.align	1
 889              		.set	.LANCHOR0,. + 0
 890              		.type	CSWTCH.25, %object
 891              		.size	CSWTCH.25, 10
 892              	CSWTCH.25:
 893 0000 0001     		.short	256
 894 0002 0000     		.short	0
 895 0004 0004     		.short	1024
 896 0006 0000     		.short	0
 897 0008 0010     		.short	4096
 898              		.type	CSWTCH.26, %object
 899              		.size	CSWTCH.26, 10
 900              	CSWTCH.26:
 901 000a 8000     		.short	128
 902 000c 0000     		.short	0
 903 000e 0002     		.short	512
 904 0010 0000     		.short	0
 905 0012 0008     		.short	2048
 906              		.bss
 907              		.set	.LANCHOR1,. + 0
 908              		.type	Seat_ADC2_initVar, %object
 909              		.size	Seat_ADC2_initVar, 1
 910              	Seat_ADC2_initVar:
 911 0000 00       		.space	1
ARM GAS  C:\Users\jebush2\AppData\Local\Temp\ccpvBk7b.s 			page 33


 912              		.text
 913              	.Letext0:
 914              		.file 2 "Generated_Source\\PSoC5\\cytypes.h"
 915              		.file 3 "Generated_Source\\PSoC5\\CyLib.h"
 916              		.file 4 "Generated_Source\\PSoC5\\Seat_ADC2_theACLK.h"