ARM GAS  C:\Users\jebush2\AppData\Local\Temp\cc1oDB5a.s 			page 1


   1              		.syntax unified
   2              		.cpu cortex-m3
   3              		.fpu softvfp
   4              		.eabi_attribute 20, 1
   5              		.eabi_attribute 21, 1
   6              		.eabi_attribute 23, 3
   7              		.eabi_attribute 24, 1
   8              		.eabi_attribute 25, 1
   9              		.eabi_attribute 26, 1
  10              		.eabi_attribute 30, 4
  11              		.eabi_attribute 34, 1
  12              		.eabi_attribute 18, 4
  13              		.thumb
  14              		.syntax unified
  15              		.file	"Seat_ADC_SAR.c"
  16              		.text
  17              	.Ltext0:
  18              		.cfi_sections	.debug_frame
  19              		.section	.text.Seat_ADC_SAR_Enable,"ax",%progbits
  20              		.align	1
  21              		.global	Seat_ADC_SAR_Enable
  22              		.thumb
  23              		.thumb_func
  24              		.type	Seat_ADC_SAR_Enable, %function
  25              	Seat_ADC_SAR_Enable:
  26              	.LFB2:
  27              		.file 1 "Generated_Source\\PSoC5\\Seat_ADC_SAR.c"
   1:Generated_Source\PSoC5/Seat_ADC_SAR.c **** /*******************************************************************************
   2:Generated_Source\PSoC5/Seat_ADC_SAR.c **** * File Name: Seat_ADC_SAR.c
   3:Generated_Source\PSoC5/Seat_ADC_SAR.c **** * Version 3.10
   4:Generated_Source\PSoC5/Seat_ADC_SAR.c **** *
   5:Generated_Source\PSoC5/Seat_ADC_SAR.c **** * Description:
   6:Generated_Source\PSoC5/Seat_ADC_SAR.c **** *  This file provides the source code to the API for the Successive
   7:Generated_Source\PSoC5/Seat_ADC_SAR.c **** *  approximation ADC Component.
   8:Generated_Source\PSoC5/Seat_ADC_SAR.c **** *
   9:Generated_Source\PSoC5/Seat_ADC_SAR.c **** * Note:
  10:Generated_Source\PSoC5/Seat_ADC_SAR.c **** *
  11:Generated_Source\PSoC5/Seat_ADC_SAR.c **** ********************************************************************************
  12:Generated_Source\PSoC5/Seat_ADC_SAR.c **** * Copyright 2008-2015, Cypress Semiconductor Corporation.  All rights reserved.
  13:Generated_Source\PSoC5/Seat_ADC_SAR.c **** * You may use this file only in accordance with the license, terms, conditions,
  14:Generated_Source\PSoC5/Seat_ADC_SAR.c **** * disclaimers, and limitations in the end user license agreement accompanying
  15:Generated_Source\PSoC5/Seat_ADC_SAR.c **** * the software package with which this file was provided.
  16:Generated_Source\PSoC5/Seat_ADC_SAR.c **** *******************************************************************************/
  17:Generated_Source\PSoC5/Seat_ADC_SAR.c **** 
  18:Generated_Source\PSoC5/Seat_ADC_SAR.c **** #include "CyLib.h"
  19:Generated_Source\PSoC5/Seat_ADC_SAR.c **** #include "Seat_ADC_SAR.h"
  20:Generated_Source\PSoC5/Seat_ADC_SAR.c **** 
  21:Generated_Source\PSoC5/Seat_ADC_SAR.c **** #if(Seat_ADC_SAR_DEFAULT_INTERNAL_CLK)
  22:Generated_Source\PSoC5/Seat_ADC_SAR.c ****     #include "Seat_ADC_SAR_theACLK.h"
  23:Generated_Source\PSoC5/Seat_ADC_SAR.c **** #endif /* End Seat_ADC_SAR_DEFAULT_INTERNAL_CLK */
  24:Generated_Source\PSoC5/Seat_ADC_SAR.c **** 
  25:Generated_Source\PSoC5/Seat_ADC_SAR.c **** 
  26:Generated_Source\PSoC5/Seat_ADC_SAR.c **** /***************************************
  27:Generated_Source\PSoC5/Seat_ADC_SAR.c **** * Forward function references
  28:Generated_Source\PSoC5/Seat_ADC_SAR.c **** ***************************************/
  29:Generated_Source\PSoC5/Seat_ADC_SAR.c **** static void Seat_ADC_SAR_CalcGain(uint8 resolution);
  30:Generated_Source\PSoC5/Seat_ADC_SAR.c **** 
ARM GAS  C:\Users\jebush2\AppData\Local\Temp\cc1oDB5a.s 			page 2


  31:Generated_Source\PSoC5/Seat_ADC_SAR.c **** 
  32:Generated_Source\PSoC5/Seat_ADC_SAR.c **** /***************************************
  33:Generated_Source\PSoC5/Seat_ADC_SAR.c **** * Global data allocation
  34:Generated_Source\PSoC5/Seat_ADC_SAR.c **** ***************************************/
  35:Generated_Source\PSoC5/Seat_ADC_SAR.c **** uint8 Seat_ADC_SAR_initVar = 0u;
  36:Generated_Source\PSoC5/Seat_ADC_SAR.c **** volatile int16 Seat_ADC_SAR_offset;
  37:Generated_Source\PSoC5/Seat_ADC_SAR.c **** volatile int16 Seat_ADC_SAR_countsPerVolt;     /* Obsolete Gain compensation */
  38:Generated_Source\PSoC5/Seat_ADC_SAR.c **** volatile int32 Seat_ADC_SAR_countsPer10Volt;   /* Gain compensation */
  39:Generated_Source\PSoC5/Seat_ADC_SAR.c **** volatile int16 Seat_ADC_SAR_shift;
  40:Generated_Source\PSoC5/Seat_ADC_SAR.c **** 
  41:Generated_Source\PSoC5/Seat_ADC_SAR.c **** 
  42:Generated_Source\PSoC5/Seat_ADC_SAR.c **** /*******************************************************************************
  43:Generated_Source\PSoC5/Seat_ADC_SAR.c **** * Function Name: Seat_ADC_SAR_Start
  44:Generated_Source\PSoC5/Seat_ADC_SAR.c **** ********************************************************************************
  45:Generated_Source\PSoC5/Seat_ADC_SAR.c **** *
  46:Generated_Source\PSoC5/Seat_ADC_SAR.c **** * Summary:
  47:Generated_Source\PSoC5/Seat_ADC_SAR.c **** *  This is the preferred method to begin component operation.
  48:Generated_Source\PSoC5/Seat_ADC_SAR.c **** *  Seat_ADC_SAR_Start() sets the initVar variable, calls the
  49:Generated_Source\PSoC5/Seat_ADC_SAR.c **** *  Seat_ADC_SAR_Init() function, and then calls the
  50:Generated_Source\PSoC5/Seat_ADC_SAR.c **** *  Seat_ADC_SAR_Enable() function.
  51:Generated_Source\PSoC5/Seat_ADC_SAR.c **** *
  52:Generated_Source\PSoC5/Seat_ADC_SAR.c **** * Parameters:
  53:Generated_Source\PSoC5/Seat_ADC_SAR.c **** *  None.
  54:Generated_Source\PSoC5/Seat_ADC_SAR.c **** *
  55:Generated_Source\PSoC5/Seat_ADC_SAR.c **** * Return:
  56:Generated_Source\PSoC5/Seat_ADC_SAR.c **** *  None.
  57:Generated_Source\PSoC5/Seat_ADC_SAR.c **** *
  58:Generated_Source\PSoC5/Seat_ADC_SAR.c **** * Global variables:
  59:Generated_Source\PSoC5/Seat_ADC_SAR.c **** *  The Seat_ADC_SAR_initVar variable is used to indicate when/if initial
  60:Generated_Source\PSoC5/Seat_ADC_SAR.c **** *  configuration of this component has happened. The variable is initialized to
  61:Generated_Source\PSoC5/Seat_ADC_SAR.c **** *  zero and set to 1 the first time ADC_Start() is called. This allows for
  62:Generated_Source\PSoC5/Seat_ADC_SAR.c **** *  component Re-Start without re-initialization in all subsequent calls to the
  63:Generated_Source\PSoC5/Seat_ADC_SAR.c **** *  Seat_ADC_SAR_Start() routine.
  64:Generated_Source\PSoC5/Seat_ADC_SAR.c **** *  If re-initialization of the component is required the variable should be set
  65:Generated_Source\PSoC5/Seat_ADC_SAR.c **** *  to zero before call of Seat_ADC_SAR_Start() routine, or the user may call
  66:Generated_Source\PSoC5/Seat_ADC_SAR.c **** *  Seat_ADC_SAR_Init() and Seat_ADC_SAR_Enable() as done in the
  67:Generated_Source\PSoC5/Seat_ADC_SAR.c **** *  Seat_ADC_SAR_Start() routine.
  68:Generated_Source\PSoC5/Seat_ADC_SAR.c **** *
  69:Generated_Source\PSoC5/Seat_ADC_SAR.c **** * Side Effect:
  70:Generated_Source\PSoC5/Seat_ADC_SAR.c **** *  If the initVar variable is already set, this function only calls the
  71:Generated_Source\PSoC5/Seat_ADC_SAR.c **** *  Seat_ADC_SAR_Enable() function.
  72:Generated_Source\PSoC5/Seat_ADC_SAR.c **** *
  73:Generated_Source\PSoC5/Seat_ADC_SAR.c **** *******************************************************************************/
  74:Generated_Source\PSoC5/Seat_ADC_SAR.c **** void Seat_ADC_SAR_Start(void)
  75:Generated_Source\PSoC5/Seat_ADC_SAR.c **** {
  76:Generated_Source\PSoC5/Seat_ADC_SAR.c **** 
  77:Generated_Source\PSoC5/Seat_ADC_SAR.c ****     /* If not Initialized then initialize all required hardware and software */
  78:Generated_Source\PSoC5/Seat_ADC_SAR.c ****     if(Seat_ADC_SAR_initVar == 0u)
  79:Generated_Source\PSoC5/Seat_ADC_SAR.c ****     {
  80:Generated_Source\PSoC5/Seat_ADC_SAR.c ****         Seat_ADC_SAR_Init();
  81:Generated_Source\PSoC5/Seat_ADC_SAR.c ****         Seat_ADC_SAR_initVar = 1u;
  82:Generated_Source\PSoC5/Seat_ADC_SAR.c ****     }
  83:Generated_Source\PSoC5/Seat_ADC_SAR.c ****     Seat_ADC_SAR_Enable();
  84:Generated_Source\PSoC5/Seat_ADC_SAR.c **** }
  85:Generated_Source\PSoC5/Seat_ADC_SAR.c **** 
  86:Generated_Source\PSoC5/Seat_ADC_SAR.c **** 
  87:Generated_Source\PSoC5/Seat_ADC_SAR.c **** /*******************************************************************************
ARM GAS  C:\Users\jebush2\AppData\Local\Temp\cc1oDB5a.s 			page 3


  88:Generated_Source\PSoC5/Seat_ADC_SAR.c **** * Function Name: Seat_ADC_SAR_Init
  89:Generated_Source\PSoC5/Seat_ADC_SAR.c **** ********************************************************************************
  90:Generated_Source\PSoC5/Seat_ADC_SAR.c **** *
  91:Generated_Source\PSoC5/Seat_ADC_SAR.c **** * Summary:
  92:Generated_Source\PSoC5/Seat_ADC_SAR.c **** *  Initialize component's parameters to the parameters set by user in the
  93:Generated_Source\PSoC5/Seat_ADC_SAR.c **** *  customizer of the component placed onto schematic. Usually called in
  94:Generated_Source\PSoC5/Seat_ADC_SAR.c **** *  Seat_ADC_SAR_Start().
  95:Generated_Source\PSoC5/Seat_ADC_SAR.c **** *
  96:Generated_Source\PSoC5/Seat_ADC_SAR.c **** * Parameters:
  97:Generated_Source\PSoC5/Seat_ADC_SAR.c **** *  None.
  98:Generated_Source\PSoC5/Seat_ADC_SAR.c **** *
  99:Generated_Source\PSoC5/Seat_ADC_SAR.c **** * Return:
 100:Generated_Source\PSoC5/Seat_ADC_SAR.c **** *  None.
 101:Generated_Source\PSoC5/Seat_ADC_SAR.c **** *
 102:Generated_Source\PSoC5/Seat_ADC_SAR.c **** * Global variables:
 103:Generated_Source\PSoC5/Seat_ADC_SAR.c **** *  The Seat_ADC_SAR_offset variable is initialized to 0.
 104:Generated_Source\PSoC5/Seat_ADC_SAR.c **** *
 105:Generated_Source\PSoC5/Seat_ADC_SAR.c **** *******************************************************************************/
 106:Generated_Source\PSoC5/Seat_ADC_SAR.c **** void Seat_ADC_SAR_Init(void)
 107:Generated_Source\PSoC5/Seat_ADC_SAR.c **** {
 108:Generated_Source\PSoC5/Seat_ADC_SAR.c **** 
 109:Generated_Source\PSoC5/Seat_ADC_SAR.c ****     /* This is only valid if there is an internal clock */
 110:Generated_Source\PSoC5/Seat_ADC_SAR.c ****     #if(Seat_ADC_SAR_DEFAULT_INTERNAL_CLK)
 111:Generated_Source\PSoC5/Seat_ADC_SAR.c ****         Seat_ADC_SAR_theACLK_SetMode(CYCLK_DUTY);
 112:Generated_Source\PSoC5/Seat_ADC_SAR.c ****     #endif /* End Seat_ADC_SAR_DEFAULT_INTERNAL_CLK */
 113:Generated_Source\PSoC5/Seat_ADC_SAR.c **** 
 114:Generated_Source\PSoC5/Seat_ADC_SAR.c ****     #if(Seat_ADC_SAR_IRQ_REMOVE == 0u)
 115:Generated_Source\PSoC5/Seat_ADC_SAR.c ****         /* Start and set interrupt vector */
 116:Generated_Source\PSoC5/Seat_ADC_SAR.c ****         CyIntSetPriority(Seat_ADC_SAR_INTC_NUMBER, Seat_ADC_SAR_INTC_PRIOR_NUMBER);
 117:Generated_Source\PSoC5/Seat_ADC_SAR.c ****         (void)CyIntSetVector(Seat_ADC_SAR_INTC_NUMBER, &Seat_ADC_SAR_ISR);
 118:Generated_Source\PSoC5/Seat_ADC_SAR.c ****     #endif   /* End Seat_ADC_SAR_IRQ_REMOVE */
 119:Generated_Source\PSoC5/Seat_ADC_SAR.c **** 
 120:Generated_Source\PSoC5/Seat_ADC_SAR.c ****     /* Enable IRQ mode*/
 121:Generated_Source\PSoC5/Seat_ADC_SAR.c ****     Seat_ADC_SAR_SAR_CSR1_REG |= Seat_ADC_SAR_SAR_IRQ_MASK_EN | Seat_ADC_SAR_SAR_IRQ_MODE_EDGE;
 122:Generated_Source\PSoC5/Seat_ADC_SAR.c **** 
 123:Generated_Source\PSoC5/Seat_ADC_SAR.c ****     /*Set SAR ADC resolution ADC */
 124:Generated_Source\PSoC5/Seat_ADC_SAR.c ****     Seat_ADC_SAR_SetResolution(Seat_ADC_SAR_DEFAULT_RESOLUTION);
 125:Generated_Source\PSoC5/Seat_ADC_SAR.c ****     Seat_ADC_SAR_offset = 0;
 126:Generated_Source\PSoC5/Seat_ADC_SAR.c **** }
 127:Generated_Source\PSoC5/Seat_ADC_SAR.c **** 
 128:Generated_Source\PSoC5/Seat_ADC_SAR.c **** 
 129:Generated_Source\PSoC5/Seat_ADC_SAR.c **** /*******************************************************************************
 130:Generated_Source\PSoC5/Seat_ADC_SAR.c **** * Function Name: Seat_ADC_SAR_Enable
 131:Generated_Source\PSoC5/Seat_ADC_SAR.c **** ********************************************************************************
 132:Generated_Source\PSoC5/Seat_ADC_SAR.c **** *
 133:Generated_Source\PSoC5/Seat_ADC_SAR.c **** * Summary:
 134:Generated_Source\PSoC5/Seat_ADC_SAR.c **** *  Enables the reference, clock and power for SAR ADC.
 135:Generated_Source\PSoC5/Seat_ADC_SAR.c **** *
 136:Generated_Source\PSoC5/Seat_ADC_SAR.c **** * Parameters:
 137:Generated_Source\PSoC5/Seat_ADC_SAR.c **** *  None.
 138:Generated_Source\PSoC5/Seat_ADC_SAR.c **** *
 139:Generated_Source\PSoC5/Seat_ADC_SAR.c **** * Return:
 140:Generated_Source\PSoC5/Seat_ADC_SAR.c **** *  None.
 141:Generated_Source\PSoC5/Seat_ADC_SAR.c **** *
 142:Generated_Source\PSoC5/Seat_ADC_SAR.c **** *******************************************************************************/
 143:Generated_Source\PSoC5/Seat_ADC_SAR.c **** void Seat_ADC_SAR_Enable(void)
 144:Generated_Source\PSoC5/Seat_ADC_SAR.c **** {
ARM GAS  C:\Users\jebush2\AppData\Local\Temp\cc1oDB5a.s 			page 4


  28              		.loc 1 144 0
  29              		.cfi_startproc
  30              		@ args = 0, pretend = 0, frame = 0
  31              		@ frame_needed = 0, uses_anonymous_args = 0
  32 0000 10B5     		push	{r4, lr}
  33              		.cfi_def_cfa_offset 8
  34              		.cfi_offset 4, -8
  35              		.cfi_offset 14, -4
 145:Generated_Source\PSoC5/Seat_ADC_SAR.c ****     uint8 tmpReg;
 146:Generated_Source\PSoC5/Seat_ADC_SAR.c ****     uint8 enableInterrupts;
 147:Generated_Source\PSoC5/Seat_ADC_SAR.c ****     enableInterrupts = CyEnterCriticalSection();
  36              		.loc 1 147 0
  37 0002 FFF7FEFF 		bl	CyEnterCriticalSection
  38              	.LVL0:
 148:Generated_Source\PSoC5/Seat_ADC_SAR.c **** 
 149:Generated_Source\PSoC5/Seat_ADC_SAR.c ****     /* Enable the SAR ADC block in Active Power Mode */
 150:Generated_Source\PSoC5/Seat_ADC_SAR.c ****     Seat_ADC_SAR_PWRMGR_SAR_REG |= Seat_ADC_SAR_ACT_PWR_SAR_EN;
  39              		.loc 1 150 0
  40 0006 1A4A     		ldr	r2, .L2
 147:Generated_Source\PSoC5/Seat_ADC_SAR.c **** 
  41              		.loc 1 147 0
  42 0008 0446     		mov	r4, r0
  43              	.LVL1:
  44              		.loc 1 150 0
  45 000a 1378     		ldrb	r3, [r2]	@ zero_extendqisi2
 151:Generated_Source\PSoC5/Seat_ADC_SAR.c **** 
 152:Generated_Source\PSoC5/Seat_ADC_SAR.c ****      /* Enable the SAR ADC in Standby Power Mode*/
 153:Generated_Source\PSoC5/Seat_ADC_SAR.c ****     Seat_ADC_SAR_STBY_PWRMGR_SAR_REG |= Seat_ADC_SAR_STBY_PWR_SAR_EN;
 154:Generated_Source\PSoC5/Seat_ADC_SAR.c **** 
 155:Generated_Source\PSoC5/Seat_ADC_SAR.c ****     /* This is only valid if there is an internal clock */
 156:Generated_Source\PSoC5/Seat_ADC_SAR.c ****     #if(Seat_ADC_SAR_DEFAULT_INTERNAL_CLK)
 157:Generated_Source\PSoC5/Seat_ADC_SAR.c ****         Seat_ADC_SAR_PWRMGR_CLK_REG |= Seat_ADC_SAR_ACT_PWR_CLK_EN;
 158:Generated_Source\PSoC5/Seat_ADC_SAR.c ****         Seat_ADC_SAR_STBY_PWRMGR_CLK_REG |= Seat_ADC_SAR_STBY_PWR_CLK_EN;
 159:Generated_Source\PSoC5/Seat_ADC_SAR.c ****     #endif /* End Seat_ADC_SAR_DEFAULT_INTERNAL_CLK */
 160:Generated_Source\PSoC5/Seat_ADC_SAR.c **** 
 161:Generated_Source\PSoC5/Seat_ADC_SAR.c ****     /* Enable VCM buffer and Enable Int Ref Amp */
 162:Generated_Source\PSoC5/Seat_ADC_SAR.c ****     tmpReg = Seat_ADC_SAR_SAR_CSR3_REG;
 163:Generated_Source\PSoC5/Seat_ADC_SAR.c ****     tmpReg |= Seat_ADC_SAR_SAR_EN_BUF_VCM_EN;
 164:Generated_Source\PSoC5/Seat_ADC_SAR.c ****     /* PD_BUF_VREF is OFF in External reference or Vdda reference mode */
 165:Generated_Source\PSoC5/Seat_ADC_SAR.c ****     #if((Seat_ADC_SAR_DEFAULT_REFERENCE == Seat_ADC_SAR__EXT_REF) || \
 166:Generated_Source\PSoC5/Seat_ADC_SAR.c ****         (Seat_ADC_SAR_DEFAULT_RANGE == Seat_ADC_SAR__VNEG_VDDA_DIFF))
 167:Generated_Source\PSoC5/Seat_ADC_SAR.c ****         tmpReg &= (uint8)~Seat_ADC_SAR_SAR_EN_BUF_VREF_EN;
 168:Generated_Source\PSoC5/Seat_ADC_SAR.c ****     #else /* In INTREF or INTREF Bypassed this buffer is ON */
 169:Generated_Source\PSoC5/Seat_ADC_SAR.c ****         tmpReg |= Seat_ADC_SAR_SAR_EN_BUF_VREF_EN;
 170:Generated_Source\PSoC5/Seat_ADC_SAR.c ****     #endif /* Seat_ADC_SAR_DEFAULT_REFERENCE == Seat_ADC_SAR__EXT_REF */
 171:Generated_Source\PSoC5/Seat_ADC_SAR.c ****     Seat_ADC_SAR_SAR_CSR3_REG = tmpReg;
 172:Generated_Source\PSoC5/Seat_ADC_SAR.c **** 
 173:Generated_Source\PSoC5/Seat_ADC_SAR.c ****     /* Set reference for ADC */
 174:Generated_Source\PSoC5/Seat_ADC_SAR.c ****     #if(Seat_ADC_SAR_DEFAULT_RANGE == Seat_ADC_SAR__VNEG_VDDA_DIFF)
 175:Generated_Source\PSoC5/Seat_ADC_SAR.c ****         #if(Seat_ADC_SAR_DEFAULT_REFERENCE == Seat_ADC_SAR__EXT_REF)
 176:Generated_Source\PSoC5/Seat_ADC_SAR.c ****             Seat_ADC_SAR_SAR_CSR6_REG = Seat_ADC_SAR_INT_BYPASS_EXT_VREF; /* S2 */
 177:Generated_Source\PSoC5/Seat_ADC_SAR.c ****         #else /* Internal Vdda reference or obsolete bypass mode */
 178:Generated_Source\PSoC5/Seat_ADC_SAR.c ****             Seat_ADC_SAR_SAR_CSR6_REG = Seat_ADC_SAR_VDDA_VREF;           /* S7 */
 179:Generated_Source\PSoC5/Seat_ADC_SAR.c ****         #endif /* Seat_ADC_SAR_DEFAULT_REFERENCE == Seat_ADC_SAR__EXT_REF */
 180:Generated_Source\PSoC5/Seat_ADC_SAR.c ****     #else  /* Reference goes through internal buffer */
 181:Generated_Source\PSoC5/Seat_ADC_SAR.c ****         #if(Seat_ADC_SAR_DEFAULT_REFERENCE == Seat_ADC_SAR__INT_REF_NOT_BYPASSED)
 182:Generated_Source\PSoC5/Seat_ADC_SAR.c ****             Seat_ADC_SAR_SAR_CSR6_REG = Seat_ADC_SAR_INT_VREF;            /* S3 + S4 */
ARM GAS  C:\Users\jebush2\AppData\Local\Temp\cc1oDB5a.s 			page 5


 183:Generated_Source\PSoC5/Seat_ADC_SAR.c ****         #else /* INTREF Bypassed of External */
 184:Generated_Source\PSoC5/Seat_ADC_SAR.c ****             Seat_ADC_SAR_SAR_CSR6_REG = Seat_ADC_SAR_INT_BYPASS_EXT_VREF; /* S2 */
 185:Generated_Source\PSoC5/Seat_ADC_SAR.c ****         #endif /* Seat_ADC_SAR_DEFAULT_REFERENCE == Seat_ADC_SAR__INT_REF_NOT_BYPASSED */
 186:Generated_Source\PSoC5/Seat_ADC_SAR.c ****     #endif /* VNEG_VDDA_DIFF */
 187:Generated_Source\PSoC5/Seat_ADC_SAR.c **** 
 188:Generated_Source\PSoC5/Seat_ADC_SAR.c ****     /* Low non-overlap delay for sampling clock signals (for 1MSPS) */
 189:Generated_Source\PSoC5/Seat_ADC_SAR.c ****     #if(Seat_ADC_SAR_HIGH_POWER_PULSE == 0u) /* MinPulseWidth <= 50 ns */
 190:Generated_Source\PSoC5/Seat_ADC_SAR.c ****         Seat_ADC_SAR_SAR_CSR5_REG &= (uint8)~Seat_ADC_SAR_SAR_DLY_INC;
 191:Generated_Source\PSoC5/Seat_ADC_SAR.c ****     #else /* Set High non-overlap delay for sampling clock signals (for <500KSPS)*/
 192:Generated_Source\PSoC5/Seat_ADC_SAR.c ****         Seat_ADC_SAR_SAR_CSR5_REG |= Seat_ADC_SAR_SAR_DLY_INC;
 193:Generated_Source\PSoC5/Seat_ADC_SAR.c ****     #endif /* Seat_ADC_SAR_HIGH_POWER_PULSE == 0u */
 194:Generated_Source\PSoC5/Seat_ADC_SAR.c **** 
 195:Generated_Source\PSoC5/Seat_ADC_SAR.c ****     /* Increase comparator latch enable delay by 20%, 
 196:Generated_Source\PSoC5/Seat_ADC_SAR.c ****     *  Increase comparator bias current by 30% without impacting delaysDelay 
 197:Generated_Source\PSoC5/Seat_ADC_SAR.c ****     *  Default for 1MSPS) 
 198:Generated_Source\PSoC5/Seat_ADC_SAR.c ****     */
 199:Generated_Source\PSoC5/Seat_ADC_SAR.c ****     #if(Seat_ADC_SAR_HIGH_POWER_PULSE == 0u)    /* MinPulseWidth <= 50 ns */
 200:Generated_Source\PSoC5/Seat_ADC_SAR.c ****         Seat_ADC_SAR_SAR_CSR5_REG |= Seat_ADC_SAR_SAR_SEL_CSEL_DFT_CHAR;
 201:Generated_Source\PSoC5/Seat_ADC_SAR.c ****     #else /* for <500ksps */
 202:Generated_Source\PSoC5/Seat_ADC_SAR.c ****         Seat_ADC_SAR_SAR_CSR5_REG &= (uint8)~Seat_ADC_SAR_SAR_SEL_CSEL_DFT_CHAR;
 203:Generated_Source\PSoC5/Seat_ADC_SAR.c ****     #endif /* Seat_ADC_SAR_HIGH_POWER_PULSE == 0u */
 204:Generated_Source\PSoC5/Seat_ADC_SAR.c **** 
 205:Generated_Source\PSoC5/Seat_ADC_SAR.c ****     /* Set default power and other configurations for control register 0 in multiple lines */
 206:Generated_Source\PSoC5/Seat_ADC_SAR.c ****     Seat_ADC_SAR_SAR_CSR0_REG = (uint8)((uint8)Seat_ADC_SAR_DEFAULT_POWER << Seat_ADC_SAR_SAR_POWER
 207:Generated_Source\PSoC5/Seat_ADC_SAR.c ****     /* SAR_HIZ_CLEAR:   Should not be used for LP */
 208:Generated_Source\PSoC5/Seat_ADC_SAR.c ****     #if ((CY_PSOC5LP) || (Seat_ADC_SAR_DEFAULT_REFERENCE != Seat_ADC_SAR__EXT_REF))
 209:Generated_Source\PSoC5/Seat_ADC_SAR.c ****         | Seat_ADC_SAR_SAR_HIZ_CLEAR
 210:Generated_Source\PSoC5/Seat_ADC_SAR.c ****     #endif /* SAR_HIZ_CLEAR */
 211:Generated_Source\PSoC5/Seat_ADC_SAR.c ****     /*Set Convertion mode */
 212:Generated_Source\PSoC5/Seat_ADC_SAR.c ****     #if(Seat_ADC_SAR_DEFAULT_CONV_MODE != Seat_ADC_SAR__FREE_RUNNING)      /* If triggered mode */
 213:Generated_Source\PSoC5/Seat_ADC_SAR.c ****         | Seat_ADC_SAR_SAR_MX_SOF_UDB           /* source: UDB */
 214:Generated_Source\PSoC5/Seat_ADC_SAR.c ****         | Seat_ADC_SAR_SAR_SOF_MODE_EDGE        /* Set edge-sensitive sof source */
 215:Generated_Source\PSoC5/Seat_ADC_SAR.c ****     #endif /* Seat_ADC_SAR_DEFAULT_CONV_MODE */
 216:Generated_Source\PSoC5/Seat_ADC_SAR.c ****     ; /* end of multiple line initialization */
 217:Generated_Source\PSoC5/Seat_ADC_SAR.c **** 
 218:Generated_Source\PSoC5/Seat_ADC_SAR.c ****     Seat_ADC_SAR_SAR_TR0_REG = Seat_ADC_SAR_SAR_CAP_TRIM_2;
 219:Generated_Source\PSoC5/Seat_ADC_SAR.c **** 
 220:Generated_Source\PSoC5/Seat_ADC_SAR.c ****     /* Enable clock for SAR ADC*/
 221:Generated_Source\PSoC5/Seat_ADC_SAR.c ****     Seat_ADC_SAR_SAR_CLK_REG |= Seat_ADC_SAR_SAR_MX_CLK_EN;
 222:Generated_Source\PSoC5/Seat_ADC_SAR.c **** 
 223:Generated_Source\PSoC5/Seat_ADC_SAR.c ****     CyDelayUs(10u); /* The block is ready to use 10 us after the enable signal is set high. */
  46              		.loc 1 223 0
  47 000c 0A20     		movs	r0, #10
 150:Generated_Source\PSoC5/Seat_ADC_SAR.c **** 
  48              		.loc 1 150 0
  49 000e 43F00103 		orr	r3, r3, #1
  50 0012 1370     		strb	r3, [r2]
 153:Generated_Source\PSoC5/Seat_ADC_SAR.c **** 
  51              		.loc 1 153 0
  52 0014 137C     		ldrb	r3, [r2, #16]	@ zero_extendqisi2
  53 0016 43F00103 		orr	r3, r3, #1
  54 001a 1374     		strb	r3, [r2, #16]
 162:Generated_Source\PSoC5/Seat_ADC_SAR.c ****     tmpReg |= Seat_ADC_SAR_SAR_EN_BUF_VCM_EN;
  55              		.loc 1 162 0
  56 001c 02F5AA52 		add	r2, r2, #5440
  57 0020 1832     		adds	r2, r2, #24
  58 0022 1378     		ldrb	r3, [r2]	@ zero_extendqisi2
ARM GAS  C:\Users\jebush2\AppData\Local\Temp\cc1oDB5a.s 			page 6


  59              	.LVL2:
 169:Generated_Source\PSoC5/Seat_ADC_SAR.c ****     #endif /* Seat_ADC_SAR_DEFAULT_REFERENCE == Seat_ADC_SAR__EXT_REF */
  60              		.loc 1 169 0
  61 0024 43F00303 		orr	r3, r3, #3
  62              	.LVL3:
 171:Generated_Source\PSoC5/Seat_ADC_SAR.c **** 
  63              		.loc 1 171 0
  64 0028 1370     		strb	r3, [r2]
 182:Generated_Source\PSoC5/Seat_ADC_SAR.c ****         #else /* INTREF Bypassed of External */
  65              		.loc 1 182 0
  66 002a 124B     		ldr	r3, .L2+4
  67              	.LVL4:
  68 002c 1822     		movs	r2, #24
  69              	.LVL5:
  70 002e 1A70     		strb	r2, [r3]
  71              	.LVL6:
 192:Generated_Source\PSoC5/Seat_ADC_SAR.c ****     #endif /* Seat_ADC_SAR_HIGH_POWER_PULSE == 0u */
  72              		.loc 1 192 0
  73 0030 13F8012C 		ldrb	r2, [r3, #-1]	@ zero_extendqisi2
  74 0034 42F04002 		orr	r2, r2, #64
  75 0038 03F8012C 		strb	r2, [r3, #-1]
 202:Generated_Source\PSoC5/Seat_ADC_SAR.c ****     #endif /* Seat_ADC_SAR_HIGH_POWER_PULSE == 0u */
  76              		.loc 1 202 0
  77 003c 13F8012C 		ldrb	r2, [r3, #-1]	@ zero_extendqisi2
  78 0040 02F0FC02 		and	r2, r2, #252
  79 0044 03F8012C 		strb	r2, [r3, #-1]
 206:Generated_Source\PSoC5/Seat_ADC_SAR.c ****     /* SAR_HIZ_CLEAR:   Should not be used for LP */
  80              		.loc 1 206 0
  81 0048 CE22     		movs	r2, #206
  82 004a 03F8062C 		strb	r2, [r3, #-6]
 218:Generated_Source\PSoC5/Seat_ADC_SAR.c **** 
  83              		.loc 1 218 0
  84 004e A3F59753 		sub	r3, r3, #4832
  85 0052 0222     		movs	r2, #2
  86 0054 123B     		subs	r3, r3, #18
  87 0056 1A70     		strb	r2, [r3]
 221:Generated_Source\PSoC5/Seat_ADC_SAR.c **** 
  88              		.loc 1 221 0
  89 0058 074A     		ldr	r2, .L2+8
  90 005a 1378     		ldrb	r3, [r2]	@ zero_extendqisi2
  91 005c 43F00803 		orr	r3, r3, #8
  92 0060 1370     		strb	r3, [r2]
  93              		.loc 1 223 0
  94 0062 FFF7FEFF 		bl	CyDelayUs
  95              	.LVL7:
 224:Generated_Source\PSoC5/Seat_ADC_SAR.c **** 
 225:Generated_Source\PSoC5/Seat_ADC_SAR.c ****     #if(Seat_ADC_SAR_IRQ_REMOVE == 0u)
 226:Generated_Source\PSoC5/Seat_ADC_SAR.c ****         /* Clear a pending interrupt */
 227:Generated_Source\PSoC5/Seat_ADC_SAR.c ****         CyIntClearPending(Seat_ADC_SAR_INTC_NUMBER);
 228:Generated_Source\PSoC5/Seat_ADC_SAR.c ****     #endif   /* End Seat_ADC_SAR_IRQ_REMOVE */
 229:Generated_Source\PSoC5/Seat_ADC_SAR.c **** 
 230:Generated_Source\PSoC5/Seat_ADC_SAR.c ****     CyExitCriticalSection(enableInterrupts);
  96              		.loc 1 230 0
  97 0066 2046     		mov	r0, r4
 231:Generated_Source\PSoC5/Seat_ADC_SAR.c **** }
  98              		.loc 1 231 0
  99 0068 BDE81040 		pop	{r4, lr}
ARM GAS  C:\Users\jebush2\AppData\Local\Temp\cc1oDB5a.s 			page 7


 100              		.cfi_restore 14
 101              		.cfi_restore 4
 102              		.cfi_def_cfa_offset 0
 103              	.LVL8:
 230:Generated_Source\PSoC5/Seat_ADC_SAR.c **** }
 104              		.loc 1 230 0
 105 006c FFF7FEBF 		b	CyExitCriticalSection
 106              	.LVL9:
 107              	.L3:
 108              		.align	2
 109              	.L2:
 110 0070 AB430040 		.word	1073759147
 111 0074 06590040 		.word	1073764614
 112 0078 275B0040 		.word	1073765159
 113              		.cfi_endproc
 114              	.LFE2:
 115              		.size	Seat_ADC_SAR_Enable, .-Seat_ADC_SAR_Enable
 116              		.section	.text.Seat_ADC_SAR_Stop,"ax",%progbits
 117              		.align	1
 118              		.global	Seat_ADC_SAR_Stop
 119              		.thumb
 120              		.thumb_func
 121              		.type	Seat_ADC_SAR_Stop, %function
 122              	Seat_ADC_SAR_Stop:
 123              	.LFB3:
 232:Generated_Source\PSoC5/Seat_ADC_SAR.c **** 
 233:Generated_Source\PSoC5/Seat_ADC_SAR.c **** 
 234:Generated_Source\PSoC5/Seat_ADC_SAR.c **** /*******************************************************************************
 235:Generated_Source\PSoC5/Seat_ADC_SAR.c **** * Function Name: Seat_ADC_SAR_Stop
 236:Generated_Source\PSoC5/Seat_ADC_SAR.c **** ********************************************************************************
 237:Generated_Source\PSoC5/Seat_ADC_SAR.c **** *
 238:Generated_Source\PSoC5/Seat_ADC_SAR.c **** * Summary:
 239:Generated_Source\PSoC5/Seat_ADC_SAR.c **** *  Stops ADC conversions and puts the ADC into its lowest power mode.
 240:Generated_Source\PSoC5/Seat_ADC_SAR.c **** *
 241:Generated_Source\PSoC5/Seat_ADC_SAR.c **** * Parameters:
 242:Generated_Source\PSoC5/Seat_ADC_SAR.c **** *  None.
 243:Generated_Source\PSoC5/Seat_ADC_SAR.c **** *
 244:Generated_Source\PSoC5/Seat_ADC_SAR.c **** * Return:
 245:Generated_Source\PSoC5/Seat_ADC_SAR.c **** *  None.
 246:Generated_Source\PSoC5/Seat_ADC_SAR.c **** *
 247:Generated_Source\PSoC5/Seat_ADC_SAR.c **** *******************************************************************************/
 248:Generated_Source\PSoC5/Seat_ADC_SAR.c **** void Seat_ADC_SAR_Stop(void)
 249:Generated_Source\PSoC5/Seat_ADC_SAR.c **** {
 124              		.loc 1 249 0
 125              		.cfi_startproc
 126              		@ args = 0, pretend = 0, frame = 0
 127              		@ frame_needed = 0, uses_anonymous_args = 0
 128 0000 08B5     		push	{r3, lr}
 129              		.cfi_def_cfa_offset 8
 130              		.cfi_offset 3, -8
 131              		.cfi_offset 14, -4
 250:Generated_Source\PSoC5/Seat_ADC_SAR.c ****     uint8 enableInterrupts;
 251:Generated_Source\PSoC5/Seat_ADC_SAR.c ****     enableInterrupts = CyEnterCriticalSection();
 132              		.loc 1 251 0
 133 0002 FFF7FEFF 		bl	CyEnterCriticalSection
 134              	.LVL10:
 252:Generated_Source\PSoC5/Seat_ADC_SAR.c **** 
ARM GAS  C:\Users\jebush2\AppData\Local\Temp\cc1oDB5a.s 			page 8


 253:Generated_Source\PSoC5/Seat_ADC_SAR.c ****     /* Stop all conversions */
 254:Generated_Source\PSoC5/Seat_ADC_SAR.c ****     Seat_ADC_SAR_SAR_CSR0_REG &= (uint8)~Seat_ADC_SAR_SAR_SOF_START_CONV;
 135              		.loc 1 254 0
 136 0006 0A4A     		ldr	r2, .L5
 137 0008 1378     		ldrb	r3, [r2]	@ zero_extendqisi2
 138 000a 03F0FE03 		and	r3, r3, #254
 139 000e 1370     		strb	r3, [r2]
 255:Generated_Source\PSoC5/Seat_ADC_SAR.c ****     /* Disable the SAR ADC block in Active Power Mode */
 256:Generated_Source\PSoC5/Seat_ADC_SAR.c ****     Seat_ADC_SAR_PWRMGR_SAR_REG &= (uint8)~Seat_ADC_SAR_ACT_PWR_SAR_EN;
 140              		.loc 1 256 0
 141 0010 A2F5AA52 		sub	r2, r2, #5440
 142 0014 153A     		subs	r2, r2, #21
 143 0016 1378     		ldrb	r3, [r2]	@ zero_extendqisi2
 144 0018 03F0FE03 		and	r3, r3, #254
 145 001c 1370     		strb	r3, [r2]
 257:Generated_Source\PSoC5/Seat_ADC_SAR.c ****     /* Disable the SAR ADC in Standby Power Mode */
 258:Generated_Source\PSoC5/Seat_ADC_SAR.c ****     Seat_ADC_SAR_STBY_PWRMGR_SAR_REG &= (uint8)~Seat_ADC_SAR_STBY_PWR_SAR_EN;
 146              		.loc 1 258 0
 147 001e 137C     		ldrb	r3, [r2, #16]	@ zero_extendqisi2
 148 0020 03F0FE03 		and	r3, r3, #254
 149 0024 1374     		strb	r3, [r2, #16]
 259:Generated_Source\PSoC5/Seat_ADC_SAR.c **** 
 260:Generated_Source\PSoC5/Seat_ADC_SAR.c ****     /* This is only valid if there is an internal clock */
 261:Generated_Source\PSoC5/Seat_ADC_SAR.c ****     #if(Seat_ADC_SAR_DEFAULT_INTERNAL_CLK)
 262:Generated_Source\PSoC5/Seat_ADC_SAR.c ****         Seat_ADC_SAR_PWRMGR_CLK_REG &= (uint8)~Seat_ADC_SAR_ACT_PWR_CLK_EN;
 263:Generated_Source\PSoC5/Seat_ADC_SAR.c ****         Seat_ADC_SAR_STBY_PWRMGR_CLK_REG &= (uint8)~Seat_ADC_SAR_STBY_PWR_CLK_EN;
 264:Generated_Source\PSoC5/Seat_ADC_SAR.c ****     #endif /* End Seat_ADC_SAR_DEFAULT_INTERNAL_CLK */
 265:Generated_Source\PSoC5/Seat_ADC_SAR.c **** 
 266:Generated_Source\PSoC5/Seat_ADC_SAR.c ****     CyExitCriticalSection(enableInterrupts);
 267:Generated_Source\PSoC5/Seat_ADC_SAR.c **** 
 268:Generated_Source\PSoC5/Seat_ADC_SAR.c **** }
 150              		.loc 1 268 0
 151 0026 BDE80840 		pop	{r3, lr}
 152              		.cfi_restore 14
 153              		.cfi_restore 3
 154              		.cfi_def_cfa_offset 0
 266:Generated_Source\PSoC5/Seat_ADC_SAR.c **** 
 155              		.loc 1 266 0
 156 002a FFF7FEBF 		b	CyExitCriticalSection
 157              	.LVL11:
 158              	.L6:
 159 002e 00BF     		.align	2
 160              	.L5:
 161 0030 00590040 		.word	1073764608
 162              		.cfi_endproc
 163              	.LFE3:
 164              		.size	Seat_ADC_SAR_Stop, .-Seat_ADC_SAR_Stop
 165              		.section	.text.Seat_ADC_SAR_SetPower,"ax",%progbits
 166              		.align	1
 167              		.global	Seat_ADC_SAR_SetPower
 168              		.thumb
 169              		.thumb_func
 170              		.type	Seat_ADC_SAR_SetPower, %function
 171              	Seat_ADC_SAR_SetPower:
 172              	.LFB4:
 269:Generated_Source\PSoC5/Seat_ADC_SAR.c **** 
 270:Generated_Source\PSoC5/Seat_ADC_SAR.c **** 
ARM GAS  C:\Users\jebush2\AppData\Local\Temp\cc1oDB5a.s 			page 9


 271:Generated_Source\PSoC5/Seat_ADC_SAR.c **** /*******************************************************************************
 272:Generated_Source\PSoC5/Seat_ADC_SAR.c **** * Function Name: Seat_ADC_SAR_SetPower
 273:Generated_Source\PSoC5/Seat_ADC_SAR.c **** ********************************************************************************
 274:Generated_Source\PSoC5/Seat_ADC_SAR.c **** *
 275:Generated_Source\PSoC5/Seat_ADC_SAR.c **** * Summary:
 276:Generated_Source\PSoC5/Seat_ADC_SAR.c **** *  Sets the operational power of the ADC. You should use the higher power
 277:Generated_Source\PSoC5/Seat_ADC_SAR.c **** *  settings with faster clock speeds.
 278:Generated_Source\PSoC5/Seat_ADC_SAR.c **** *
 279:Generated_Source\PSoC5/Seat_ADC_SAR.c **** * Parameters:
 280:Generated_Source\PSoC5/Seat_ADC_SAR.c **** *  power:  Power setting for ADC
 281:Generated_Source\PSoC5/Seat_ADC_SAR.c **** *  0 ->    Normal
 282:Generated_Source\PSoC5/Seat_ADC_SAR.c **** *  1 ->    Medium power
 283:Generated_Source\PSoC5/Seat_ADC_SAR.c **** *  2 ->    1.25 power
 284:Generated_Source\PSoC5/Seat_ADC_SAR.c **** *  3 ->    Minimum power.
 285:Generated_Source\PSoC5/Seat_ADC_SAR.c **** *
 286:Generated_Source\PSoC5/Seat_ADC_SAR.c **** * Return:
 287:Generated_Source\PSoC5/Seat_ADC_SAR.c **** *  None.
 288:Generated_Source\PSoC5/Seat_ADC_SAR.c **** *
 289:Generated_Source\PSoC5/Seat_ADC_SAR.c **** *******************************************************************************/
 290:Generated_Source\PSoC5/Seat_ADC_SAR.c **** void Seat_ADC_SAR_SetPower(uint8 power)
 291:Generated_Source\PSoC5/Seat_ADC_SAR.c **** {
 173              		.loc 1 291 0
 174              		.cfi_startproc
 175              		@ args = 0, pretend = 0, frame = 0
 176              		@ frame_needed = 0, uses_anonymous_args = 0
 177              		@ link register save eliminated.
 178              	.LVL12:
 292:Generated_Source\PSoC5/Seat_ADC_SAR.c ****     uint8 tmpReg;
 293:Generated_Source\PSoC5/Seat_ADC_SAR.c **** 
 294:Generated_Source\PSoC5/Seat_ADC_SAR.c ****     /* mask off invalid power settings */
 295:Generated_Source\PSoC5/Seat_ADC_SAR.c ****     power &= Seat_ADC_SAR_SAR_API_POWER_MASK;
 296:Generated_Source\PSoC5/Seat_ADC_SAR.c **** 
 297:Generated_Source\PSoC5/Seat_ADC_SAR.c ****     /* Set Power parameter  */
 298:Generated_Source\PSoC5/Seat_ADC_SAR.c ****     tmpReg = Seat_ADC_SAR_SAR_CSR0_REG & (uint8)~Seat_ADC_SAR_SAR_POWER_MASK;
 179              		.loc 1 298 0
 180 0000 044A     		ldr	r2, .L8
 181 0002 1378     		ldrb	r3, [r2]	@ zero_extendqisi2
 182 0004 03F03F03 		and	r3, r3, #63
 183              	.LVL13:
 299:Generated_Source\PSoC5/Seat_ADC_SAR.c ****     tmpReg |= (uint8)(power << Seat_ADC_SAR_SAR_POWER_SHIFT);
 184              		.loc 1 299 0
 185 0008 43EA8010 		orr	r0, r3, r0, lsl #6
 186              	.LVL14:
 187 000c C0B2     		uxtb	r0, r0
 188              	.LVL15:
 300:Generated_Source\PSoC5/Seat_ADC_SAR.c ****     Seat_ADC_SAR_SAR_CSR0_REG = tmpReg;
 189              		.loc 1 300 0
 190 000e 1070     		strb	r0, [r2]
 191 0010 7047     		bx	lr
 192              	.L9:
 193 0012 00BF     		.align	2
 194              	.L8:
 195 0014 00590040 		.word	1073764608
 196              		.cfi_endproc
 197              	.LFE4:
 198              		.size	Seat_ADC_SAR_SetPower, .-Seat_ADC_SAR_SetPower
 199              		.section	.text.Seat_ADC_SAR_SetResolution,"ax",%progbits
ARM GAS  C:\Users\jebush2\AppData\Local\Temp\cc1oDB5a.s 			page 10


 200              		.align	1
 201              		.global	Seat_ADC_SAR_SetResolution
 202              		.thumb
 203              		.thumb_func
 204              		.type	Seat_ADC_SAR_SetResolution, %function
 205              	Seat_ADC_SAR_SetResolution:
 206              	.LFB5:
 301:Generated_Source\PSoC5/Seat_ADC_SAR.c **** }
 302:Generated_Source\PSoC5/Seat_ADC_SAR.c **** 
 303:Generated_Source\PSoC5/Seat_ADC_SAR.c **** 
 304:Generated_Source\PSoC5/Seat_ADC_SAR.c **** /*******************************************************************************
 305:Generated_Source\PSoC5/Seat_ADC_SAR.c **** * Function Name: Seat_ADC_SAR_SetResolution
 306:Generated_Source\PSoC5/Seat_ADC_SAR.c **** ********************************************************************************
 307:Generated_Source\PSoC5/Seat_ADC_SAR.c **** *
 308:Generated_Source\PSoC5/Seat_ADC_SAR.c **** * Summary:
 309:Generated_Source\PSoC5/Seat_ADC_SAR.c **** *  Sets the Relution of the SAR.
 310:Generated_Source\PSoC5/Seat_ADC_SAR.c **** *
 311:Generated_Source\PSoC5/Seat_ADC_SAR.c **** * Parameters:
 312:Generated_Source\PSoC5/Seat_ADC_SAR.c **** *  resolution:
 313:Generated_Source\PSoC5/Seat_ADC_SAR.c **** *  12 ->    RES12
 314:Generated_Source\PSoC5/Seat_ADC_SAR.c **** *  10 ->    RES10
 315:Generated_Source\PSoC5/Seat_ADC_SAR.c **** *  8  ->    RES8
 316:Generated_Source\PSoC5/Seat_ADC_SAR.c **** *
 317:Generated_Source\PSoC5/Seat_ADC_SAR.c **** * Return:
 318:Generated_Source\PSoC5/Seat_ADC_SAR.c **** *  None.
 319:Generated_Source\PSoC5/Seat_ADC_SAR.c **** *
 320:Generated_Source\PSoC5/Seat_ADC_SAR.c **** * Side Effects:
 321:Generated_Source\PSoC5/Seat_ADC_SAR.c **** *  The ADC resolution cannot be changed during a conversion cycle. The
 322:Generated_Source\PSoC5/Seat_ADC_SAR.c **** *  recommended best practice is to stop conversions with
 323:Generated_Source\PSoC5/Seat_ADC_SAR.c **** *  ADC_StopConvert(), change the resolution, then restart the
 324:Generated_Source\PSoC5/Seat_ADC_SAR.c **** *  conversions with ADC_StartConvert().
 325:Generated_Source\PSoC5/Seat_ADC_SAR.c **** *  If you decide not to stop conversions before calling this API, you
 326:Generated_Source\PSoC5/Seat_ADC_SAR.c **** *  should use ADC_IsEndConversion() to wait until conversion is complete
 327:Generated_Source\PSoC5/Seat_ADC_SAR.c **** *  before changing the resolution.
 328:Generated_Source\PSoC5/Seat_ADC_SAR.c **** *  If you call ADC_SetResolution() during a conversion, the resolution will
 329:Generated_Source\PSoC5/Seat_ADC_SAR.c **** *  not be changed until the current conversion is complete. Data will not be
 330:Generated_Source\PSoC5/Seat_ADC_SAR.c **** *  available in the new resolution for another 6 + "New Resolution(in bits)"
 331:Generated_Source\PSoC5/Seat_ADC_SAR.c **** *  clock cycles.
 332:Generated_Source\PSoC5/Seat_ADC_SAR.c **** *  You may need add a delay of this number of clock cycles after
 333:Generated_Source\PSoC5/Seat_ADC_SAR.c **** *  ADC_SetResolution() is called before data is valid again.
 334:Generated_Source\PSoC5/Seat_ADC_SAR.c **** *  Affects ADC_CountsTo_Volts(), ADC_CountsTo_mVolts(), and
 335:Generated_Source\PSoC5/Seat_ADC_SAR.c **** *  ADC_CountsTo_uVolts() by calculating the correct conversion between ADC
 336:Generated_Source\PSoC5/Seat_ADC_SAR.c **** *  counts and the applied input voltage. Calculation depends on resolution,
 337:Generated_Source\PSoC5/Seat_ADC_SAR.c **** *  input range, and voltage reference.
 338:Generated_Source\PSoC5/Seat_ADC_SAR.c **** *
 339:Generated_Source\PSoC5/Seat_ADC_SAR.c **** *******************************************************************************/
 340:Generated_Source\PSoC5/Seat_ADC_SAR.c **** void Seat_ADC_SAR_SetResolution(uint8 resolution)
 341:Generated_Source\PSoC5/Seat_ADC_SAR.c **** {
 207              		.loc 1 341 0
 208              		.cfi_startproc
 209              		@ args = 0, pretend = 0, frame = 0
 210              		@ frame_needed = 0, uses_anonymous_args = 0
 211              		@ link register save eliminated.
 212              	.LVL16:
 342:Generated_Source\PSoC5/Seat_ADC_SAR.c ****     uint8 tmpReg;
 343:Generated_Source\PSoC5/Seat_ADC_SAR.c **** 
 344:Generated_Source\PSoC5/Seat_ADC_SAR.c ****     /* Set SAR ADC resolution and sample width: 18 conversion cycles at 12bits + 1 gap */
ARM GAS  C:\Users\jebush2\AppData\Local\Temp\cc1oDB5a.s 			page 11


 345:Generated_Source\PSoC5/Seat_ADC_SAR.c ****     switch (resolution)
 213              		.loc 1 345 0
 214 0000 0828     		cmp	r0, #8
 215 0002 04D0     		beq	.L12
 346:Generated_Source\PSoC5/Seat_ADC_SAR.c ****     {
 347:Generated_Source\PSoC5/Seat_ADC_SAR.c ****         case (uint8)Seat_ADC_SAR__BITS_12:
 348:Generated_Source\PSoC5/Seat_ADC_SAR.c ****             tmpReg = Seat_ADC_SAR_SAR_RESOLUTION_12BIT | Seat_ADC_SAR_SAR_SAMPLE_WIDTH;
 216              		.loc 1 348 0
 217 0004 0A28     		cmp	r0, #10
 218 0006 0CBF     		ite	eq
 219 0008 8223     		moveq	r3, #130
 220 000a C223     		movne	r3, #194
 221 000c 00E0     		b	.L13
 222              	.L12:
 223              	.LVL17:
 349:Generated_Source\PSoC5/Seat_ADC_SAR.c ****             break;
 350:Generated_Source\PSoC5/Seat_ADC_SAR.c ****         case (uint8)Seat_ADC_SAR__BITS_10:
 351:Generated_Source\PSoC5/Seat_ADC_SAR.c ****             tmpReg = Seat_ADC_SAR_SAR_RESOLUTION_10BIT | Seat_ADC_SAR_SAR_SAMPLE_WIDTH;
 352:Generated_Source\PSoC5/Seat_ADC_SAR.c ****             break;
 353:Generated_Source\PSoC5/Seat_ADC_SAR.c ****         case (uint8)Seat_ADC_SAR__BITS_8:
 354:Generated_Source\PSoC5/Seat_ADC_SAR.c ****             tmpReg = Seat_ADC_SAR_SAR_RESOLUTION_8BIT | Seat_ADC_SAR_SAR_SAMPLE_WIDTH;
 224              		.loc 1 354 0
 225 000e 4223     		movs	r3, #66
 226              	.LVL18:
 227              	.L13:
 228 0010 0838     		subs	r0, r0, #8
 229              	.LVL19:
 355:Generated_Source\PSoC5/Seat_ADC_SAR.c ****             break;
 356:Generated_Source\PSoC5/Seat_ADC_SAR.c ****         default:
 357:Generated_Source\PSoC5/Seat_ADC_SAR.c ****             tmpReg = Seat_ADC_SAR_SAR_RESOLUTION_12BIT | Seat_ADC_SAR_SAR_SAMPLE_WIDTH;
 358:Generated_Source\PSoC5/Seat_ADC_SAR.c ****             /* Halt CPU in debug mode if resolution is out of valid range */
 359:Generated_Source\PSoC5/Seat_ADC_SAR.c ****             CYASSERT(0u != 0u);
 360:Generated_Source\PSoC5/Seat_ADC_SAR.c ****             break;
 361:Generated_Source\PSoC5/Seat_ADC_SAR.c ****     }
 362:Generated_Source\PSoC5/Seat_ADC_SAR.c ****     Seat_ADC_SAR_SAR_CSR2_REG = tmpReg;
 230              		.loc 1 362 0
 231 0012 114A     		ldr	r2, .L18
 232 0014 C0B2     		uxtb	r0, r0
 233 0016 0428     		cmp	r0, #4
 234 0018 1370     		strb	r3, [r2]
 235              	.LVL20:
 236 001a 98BF     		it	ls
 237 001c 0F4A     		ldrls	r2, .L18+4
 238              	.LBB4:
 239              	.LBB5:
 363:Generated_Source\PSoC5/Seat_ADC_SAR.c **** 
 364:Generated_Source\PSoC5/Seat_ADC_SAR.c ****      /* Calculate gain for convert counts to volts */
 365:Generated_Source\PSoC5/Seat_ADC_SAR.c ****     Seat_ADC_SAR_CalcGain(resolution);
 366:Generated_Source\PSoC5/Seat_ADC_SAR.c **** }
 367:Generated_Source\PSoC5/Seat_ADC_SAR.c **** 
 368:Generated_Source\PSoC5/Seat_ADC_SAR.c **** 
 369:Generated_Source\PSoC5/Seat_ADC_SAR.c **** #if(Seat_ADC_SAR_DEFAULT_CONV_MODE != Seat_ADC_SAR__HARDWARE_TRIGGER)
 370:Generated_Source\PSoC5/Seat_ADC_SAR.c **** 
 371:Generated_Source\PSoC5/Seat_ADC_SAR.c **** 
 372:Generated_Source\PSoC5/Seat_ADC_SAR.c ****     /*******************************************************************************
 373:Generated_Source\PSoC5/Seat_ADC_SAR.c ****     * Function Name: Seat_ADC_SAR_StartConvert
 374:Generated_Source\PSoC5/Seat_ADC_SAR.c ****     ********************************************************************************
ARM GAS  C:\Users\jebush2\AppData\Local\Temp\cc1oDB5a.s 			page 12


 375:Generated_Source\PSoC5/Seat_ADC_SAR.c ****     *
 376:Generated_Source\PSoC5/Seat_ADC_SAR.c ****     * Summary:
 377:Generated_Source\PSoC5/Seat_ADC_SAR.c ****     *  Forces the ADC to initiate a conversion. In free-running mode, the ADC runs
 378:Generated_Source\PSoC5/Seat_ADC_SAR.c ****     *  continuously. In software trigger mode, the function also acts as a software
 379:Generated_Source\PSoC5/Seat_ADC_SAR.c ****     *  version of the SOC and every conversion must be triggered by
 380:Generated_Source\PSoC5/Seat_ADC_SAR.c ****     *  Seat_ADC_SAR_StartConvert(). This function is not available when the
 381:Generated_Source\PSoC5/Seat_ADC_SAR.c ****     *  Hardware Trigger sample mode is selected.
 382:Generated_Source\PSoC5/Seat_ADC_SAR.c ****     *
 383:Generated_Source\PSoC5/Seat_ADC_SAR.c ****     * Parameters:
 384:Generated_Source\PSoC5/Seat_ADC_SAR.c ****     *  None.
 385:Generated_Source\PSoC5/Seat_ADC_SAR.c ****     *
 386:Generated_Source\PSoC5/Seat_ADC_SAR.c ****     * Return:
 387:Generated_Source\PSoC5/Seat_ADC_SAR.c ****     *  None.
 388:Generated_Source\PSoC5/Seat_ADC_SAR.c ****     *
 389:Generated_Source\PSoC5/Seat_ADC_SAR.c ****     * Theory:
 390:Generated_Source\PSoC5/Seat_ADC_SAR.c ****     *  Forces the ADC to initiate a conversion. In Free Running mode, the ADC will
 391:Generated_Source\PSoC5/Seat_ADC_SAR.c ****     *  run continuously. In a software trigger mode the function also acts as a
 392:Generated_Source\PSoC5/Seat_ADC_SAR.c ****     *  software version of the SOC. Here every conversion has to be triggered by
 393:Generated_Source\PSoC5/Seat_ADC_SAR.c ****     *  the routine. This writes into the SOC bit in SAR_CTRL reg.
 394:Generated_Source\PSoC5/Seat_ADC_SAR.c ****     *
 395:Generated_Source\PSoC5/Seat_ADC_SAR.c ****     * Side Effects:
 396:Generated_Source\PSoC5/Seat_ADC_SAR.c ****     *  In a software trigger mode the function switches source for SOF from the
 397:Generated_Source\PSoC5/Seat_ADC_SAR.c ****     *  external pin to the internal SOF generation. Application should not call
 398:Generated_Source\PSoC5/Seat_ADC_SAR.c ****     *  StartConvert if external source used for SOF.
 399:Generated_Source\PSoC5/Seat_ADC_SAR.c ****     *
 400:Generated_Source\PSoC5/Seat_ADC_SAR.c ****     *******************************************************************************/
 401:Generated_Source\PSoC5/Seat_ADC_SAR.c ****     void Seat_ADC_SAR_StartConvert(void)
 402:Generated_Source\PSoC5/Seat_ADC_SAR.c ****     {
 403:Generated_Source\PSoC5/Seat_ADC_SAR.c ****         #if(Seat_ADC_SAR_DEFAULT_CONV_MODE != Seat_ADC_SAR__FREE_RUNNING)  /* If software triggered
 404:Generated_Source\PSoC5/Seat_ADC_SAR.c ****             Seat_ADC_SAR_SAR_CSR0_REG &= (uint8)~Seat_ADC_SAR_SAR_MX_SOF_UDB;   /* source: SOF bit 
 405:Generated_Source\PSoC5/Seat_ADC_SAR.c ****         #endif /* End Seat_ADC_SAR_DEFAULT_CONV_MODE */
 406:Generated_Source\PSoC5/Seat_ADC_SAR.c **** 
 407:Generated_Source\PSoC5/Seat_ADC_SAR.c ****         /* Start the conversion */
 408:Generated_Source\PSoC5/Seat_ADC_SAR.c ****         Seat_ADC_SAR_SAR_CSR0_REG |= Seat_ADC_SAR_SAR_SOF_START_CONV;
 409:Generated_Source\PSoC5/Seat_ADC_SAR.c ****     }
 410:Generated_Source\PSoC5/Seat_ADC_SAR.c **** 
 411:Generated_Source\PSoC5/Seat_ADC_SAR.c **** 
 412:Generated_Source\PSoC5/Seat_ADC_SAR.c ****     /*******************************************************************************
 413:Generated_Source\PSoC5/Seat_ADC_SAR.c ****     * Function Name: Seat_ADC_SAR_StopConvert
 414:Generated_Source\PSoC5/Seat_ADC_SAR.c ****     ********************************************************************************
 415:Generated_Source\PSoC5/Seat_ADC_SAR.c ****     *
 416:Generated_Source\PSoC5/Seat_ADC_SAR.c ****     * Summary:
 417:Generated_Source\PSoC5/Seat_ADC_SAR.c ****     *  Forces the ADC to stop conversions. If a conversion is currently executing,
 418:Generated_Source\PSoC5/Seat_ADC_SAR.c ****     *  that conversion will complete, but no further conversions will occur. This
 419:Generated_Source\PSoC5/Seat_ADC_SAR.c ****     *  function is not available when the Hardware Trigger sample mode is selected.
 420:Generated_Source\PSoC5/Seat_ADC_SAR.c ****     *
 421:Generated_Source\PSoC5/Seat_ADC_SAR.c ****     * Parameters:
 422:Generated_Source\PSoC5/Seat_ADC_SAR.c ****     *  None.
 423:Generated_Source\PSoC5/Seat_ADC_SAR.c ****     *
 424:Generated_Source\PSoC5/Seat_ADC_SAR.c ****     * Return:
 425:Generated_Source\PSoC5/Seat_ADC_SAR.c ****     *  None.
 426:Generated_Source\PSoC5/Seat_ADC_SAR.c ****     *
 427:Generated_Source\PSoC5/Seat_ADC_SAR.c ****     * Theory:
 428:Generated_Source\PSoC5/Seat_ADC_SAR.c ****     *  Stops ADC conversion in Free Running mode.
 429:Generated_Source\PSoC5/Seat_ADC_SAR.c ****     *
 430:Generated_Source\PSoC5/Seat_ADC_SAR.c ****     * Side Effects:
 431:Generated_Source\PSoC5/Seat_ADC_SAR.c ****     *  In Software Trigger sample mode, this function sets a software version of the
ARM GAS  C:\Users\jebush2\AppData\Local\Temp\cc1oDB5a.s 			page 13


 432:Generated_Source\PSoC5/Seat_ADC_SAR.c ****     *  SOC to low level and switches the SOC source to hardware SOC input.
 433:Generated_Source\PSoC5/Seat_ADC_SAR.c ****     *
 434:Generated_Source\PSoC5/Seat_ADC_SAR.c ****     *******************************************************************************/
 435:Generated_Source\PSoC5/Seat_ADC_SAR.c ****     void Seat_ADC_SAR_StopConvert(void)
 436:Generated_Source\PSoC5/Seat_ADC_SAR.c ****     {
 437:Generated_Source\PSoC5/Seat_ADC_SAR.c ****         /* Stop all conversions */
 438:Generated_Source\PSoC5/Seat_ADC_SAR.c ****         Seat_ADC_SAR_SAR_CSR0_REG &= (uint8)~Seat_ADC_SAR_SAR_SOF_START_CONV;
 439:Generated_Source\PSoC5/Seat_ADC_SAR.c **** 
 440:Generated_Source\PSoC5/Seat_ADC_SAR.c ****         #if(Seat_ADC_SAR_DEFAULT_CONV_MODE != Seat_ADC_SAR__FREE_RUNNING)  /* If software triggered
 441:Generated_Source\PSoC5/Seat_ADC_SAR.c ****             /* Return source to UDB for hardware SOF signal */
 442:Generated_Source\PSoC5/Seat_ADC_SAR.c ****             Seat_ADC_SAR_SAR_CSR0_REG |= Seat_ADC_SAR_SAR_MX_SOF_UDB;    /* source: UDB */
 443:Generated_Source\PSoC5/Seat_ADC_SAR.c ****         #endif /* End Seat_ADC_SAR_DEFAULT_CONV_MODE */
 444:Generated_Source\PSoC5/Seat_ADC_SAR.c **** 
 445:Generated_Source\PSoC5/Seat_ADC_SAR.c ****     }
 446:Generated_Source\PSoC5/Seat_ADC_SAR.c **** 
 447:Generated_Source\PSoC5/Seat_ADC_SAR.c **** #endif /* End Seat_ADC_SAR_DEFAULT_CONV_MODE != Seat_ADC_SAR__HARDWARE_TRIGGER */
 448:Generated_Source\PSoC5/Seat_ADC_SAR.c **** 
 449:Generated_Source\PSoC5/Seat_ADC_SAR.c **** 
 450:Generated_Source\PSoC5/Seat_ADC_SAR.c **** /*******************************************************************************
 451:Generated_Source\PSoC5/Seat_ADC_SAR.c **** * Function Name: Seat_ADC_SAR_IsEndConversion
 452:Generated_Source\PSoC5/Seat_ADC_SAR.c **** ********************************************************************************
 453:Generated_Source\PSoC5/Seat_ADC_SAR.c **** *
 454:Generated_Source\PSoC5/Seat_ADC_SAR.c **** * Summary:
 455:Generated_Source\PSoC5/Seat_ADC_SAR.c **** *  Immediately returns the status of the conversion or does not return
 456:Generated_Source\PSoC5/Seat_ADC_SAR.c **** *  (blocking) until the conversion completes, depending on the retMode
 457:Generated_Source\PSoC5/Seat_ADC_SAR.c **** *  parameter.
 458:Generated_Source\PSoC5/Seat_ADC_SAR.c **** *
 459:Generated_Source\PSoC5/Seat_ADC_SAR.c **** * Parameters:
 460:Generated_Source\PSoC5/Seat_ADC_SAR.c **** *  retMode:  Check conversion return mode.
 461:Generated_Source\PSoC5/Seat_ADC_SAR.c **** *   Seat_ADC_SAR_RETURN_STATUS: Immediately returns the status. If the
 462:Generated_Source\PSoC5/Seat_ADC_SAR.c **** *     value returned is zero, the conversion is not complete, and this function
 463:Generated_Source\PSoC5/Seat_ADC_SAR.c **** *     should be retried until a nonzero result is returned.
 464:Generated_Source\PSoC5/Seat_ADC_SAR.c **** *   Seat_ADC_SAR_WAIT_FOR_RESULT: Does not return a result until the ADC
 465:Generated_Source\PSoC5/Seat_ADC_SAR.c **** *     conversion is complete.
 466:Generated_Source\PSoC5/Seat_ADC_SAR.c **** *
 467:Generated_Source\PSoC5/Seat_ADC_SAR.c **** * Return:
 468:Generated_Source\PSoC5/Seat_ADC_SAR.c **** *  (uint8)  0 =>  The ADC is still calculating the last result.
 469:Generated_Source\PSoC5/Seat_ADC_SAR.c **** *           1 =>  The last conversion is complete.
 470:Generated_Source\PSoC5/Seat_ADC_SAR.c **** *
 471:Generated_Source\PSoC5/Seat_ADC_SAR.c **** * Side Effects:
 472:Generated_Source\PSoC5/Seat_ADC_SAR.c **** *  This function reads the end of conversion status, which is cleared on read.
 473:Generated_Source\PSoC5/Seat_ADC_SAR.c **** *
 474:Generated_Source\PSoC5/Seat_ADC_SAR.c **** *******************************************************************************/
 475:Generated_Source\PSoC5/Seat_ADC_SAR.c **** uint8 Seat_ADC_SAR_IsEndConversion(uint8 retMode)
 476:Generated_Source\PSoC5/Seat_ADC_SAR.c **** {
 477:Generated_Source\PSoC5/Seat_ADC_SAR.c ****     uint8 status;
 478:Generated_Source\PSoC5/Seat_ADC_SAR.c **** 
 479:Generated_Source\PSoC5/Seat_ADC_SAR.c ****     do
 480:Generated_Source\PSoC5/Seat_ADC_SAR.c ****     {
 481:Generated_Source\PSoC5/Seat_ADC_SAR.c ****         status = Seat_ADC_SAR_SAR_CSR1_REG & Seat_ADC_SAR_SAR_EOF_1;
 482:Generated_Source\PSoC5/Seat_ADC_SAR.c ****     } while ((status != Seat_ADC_SAR_SAR_EOF_1) && (retMode == Seat_ADC_SAR_WAIT_FOR_RESULT));
 483:Generated_Source\PSoC5/Seat_ADC_SAR.c ****     /* If convertion complete, wait until EOF bit released */
 484:Generated_Source\PSoC5/Seat_ADC_SAR.c ****     if(status == Seat_ADC_SAR_SAR_EOF_1)
 485:Generated_Source\PSoC5/Seat_ADC_SAR.c ****     {
 486:Generated_Source\PSoC5/Seat_ADC_SAR.c ****         /* wait one ADC clock to let the EOC status bit release */
 487:Generated_Source\PSoC5/Seat_ADC_SAR.c ****         CyDelayUs(1u);
 488:Generated_Source\PSoC5/Seat_ADC_SAR.c ****         /* Do the unconditional read operation of the CSR1 register to make sure the EOC bit has be
ARM GAS  C:\Users\jebush2\AppData\Local\Temp\cc1oDB5a.s 			page 14


 489:Generated_Source\PSoC5/Seat_ADC_SAR.c ****         CY_GET_REG8(Seat_ADC_SAR_SAR_CSR1_PTR);
 490:Generated_Source\PSoC5/Seat_ADC_SAR.c ****     }
 491:Generated_Source\PSoC5/Seat_ADC_SAR.c **** 
 492:Generated_Source\PSoC5/Seat_ADC_SAR.c ****     return(status);
 493:Generated_Source\PSoC5/Seat_ADC_SAR.c **** }
 494:Generated_Source\PSoC5/Seat_ADC_SAR.c **** 
 495:Generated_Source\PSoC5/Seat_ADC_SAR.c **** 
 496:Generated_Source\PSoC5/Seat_ADC_SAR.c **** /*******************************************************************************
 497:Generated_Source\PSoC5/Seat_ADC_SAR.c **** * Function Name: Seat_ADC_SAR_GetResult8
 498:Generated_Source\PSoC5/Seat_ADC_SAR.c **** ********************************************************************************
 499:Generated_Source\PSoC5/Seat_ADC_SAR.c **** *
 500:Generated_Source\PSoC5/Seat_ADC_SAR.c **** * Summary:
 501:Generated_Source\PSoC5/Seat_ADC_SAR.c **** *  Returns the result of an 8-bit conversion. If the resolution is set greater
 502:Generated_Source\PSoC5/Seat_ADC_SAR.c **** *  than 8 bits, the function returns the LSB of the result.
 503:Generated_Source\PSoC5/Seat_ADC_SAR.c **** *  Seat_ADC_SAR_IsEndConversion() should be called to verify that the data
 504:Generated_Source\PSoC5/Seat_ADC_SAR.c **** *   sample is ready.
 505:Generated_Source\PSoC5/Seat_ADC_SAR.c **** *
 506:Generated_Source\PSoC5/Seat_ADC_SAR.c **** * Parameters:
 507:Generated_Source\PSoC5/Seat_ADC_SAR.c **** *  None.
 508:Generated_Source\PSoC5/Seat_ADC_SAR.c **** *
 509:Generated_Source\PSoC5/Seat_ADC_SAR.c **** * Return:
 510:Generated_Source\PSoC5/Seat_ADC_SAR.c **** *  The LSB of the last ADC conversion.
 511:Generated_Source\PSoC5/Seat_ADC_SAR.c **** *
 512:Generated_Source\PSoC5/Seat_ADC_SAR.c **** * Global Variables:
 513:Generated_Source\PSoC5/Seat_ADC_SAR.c **** *  Seat_ADC_SAR_shift - used to convert the ADC counts to the 2s
 514:Generated_Source\PSoC5/Seat_ADC_SAR.c **** *  compliment form.
 515:Generated_Source\PSoC5/Seat_ADC_SAR.c **** *
 516:Generated_Source\PSoC5/Seat_ADC_SAR.c **** * Side Effects:
 517:Generated_Source\PSoC5/Seat_ADC_SAR.c **** *  Converts the ADC counts to the 2s complement form.
 518:Generated_Source\PSoC5/Seat_ADC_SAR.c **** *
 519:Generated_Source\PSoC5/Seat_ADC_SAR.c **** *******************************************************************************/
 520:Generated_Source\PSoC5/Seat_ADC_SAR.c **** int8 Seat_ADC_SAR_GetResult8( void )
 521:Generated_Source\PSoC5/Seat_ADC_SAR.c **** {
 522:Generated_Source\PSoC5/Seat_ADC_SAR.c ****     return( (int8)Seat_ADC_SAR_SAR_WRK0_REG - (int8)Seat_ADC_SAR_shift);
 523:Generated_Source\PSoC5/Seat_ADC_SAR.c **** }
 524:Generated_Source\PSoC5/Seat_ADC_SAR.c **** 
 525:Generated_Source\PSoC5/Seat_ADC_SAR.c **** 
 526:Generated_Source\PSoC5/Seat_ADC_SAR.c **** /*******************************************************************************
 527:Generated_Source\PSoC5/Seat_ADC_SAR.c **** * Function Name: Seat_ADC_SAR_GetResult16
 528:Generated_Source\PSoC5/Seat_ADC_SAR.c **** ********************************************************************************
 529:Generated_Source\PSoC5/Seat_ADC_SAR.c **** *
 530:Generated_Source\PSoC5/Seat_ADC_SAR.c **** * Summary:
 531:Generated_Source\PSoC5/Seat_ADC_SAR.c **** *  Returns a 16-bit result for a conversion with a result that has a resolution
 532:Generated_Source\PSoC5/Seat_ADC_SAR.c **** *  of 8 to 12 bits.
 533:Generated_Source\PSoC5/Seat_ADC_SAR.c **** *  Seat_ADC_SAR_IsEndConversion() should be called to verify that the data
 534:Generated_Source\PSoC5/Seat_ADC_SAR.c **** *   sample is ready
 535:Generated_Source\PSoC5/Seat_ADC_SAR.c **** *
 536:Generated_Source\PSoC5/Seat_ADC_SAR.c **** * Parameters:
 537:Generated_Source\PSoC5/Seat_ADC_SAR.c **** *  None.
 538:Generated_Source\PSoC5/Seat_ADC_SAR.c **** *
 539:Generated_Source\PSoC5/Seat_ADC_SAR.c **** * Return:
 540:Generated_Source\PSoC5/Seat_ADC_SAR.c **** *  The 16-bit result of the last ADC conversion
 541:Generated_Source\PSoC5/Seat_ADC_SAR.c **** *
 542:Generated_Source\PSoC5/Seat_ADC_SAR.c **** * Global Variables:
 543:Generated_Source\PSoC5/Seat_ADC_SAR.c **** *  Seat_ADC_SAR_shift - used to convert the ADC counts to the 2s
 544:Generated_Source\PSoC5/Seat_ADC_SAR.c **** *  compliment form.
 545:Generated_Source\PSoC5/Seat_ADC_SAR.c **** *
ARM GAS  C:\Users\jebush2\AppData\Local\Temp\cc1oDB5a.s 			page 15


 546:Generated_Source\PSoC5/Seat_ADC_SAR.c **** * Side Effects:
 547:Generated_Source\PSoC5/Seat_ADC_SAR.c **** *  Converts the ADC counts to the 2s complement form.
 548:Generated_Source\PSoC5/Seat_ADC_SAR.c **** *
 549:Generated_Source\PSoC5/Seat_ADC_SAR.c **** *******************************************************************************/
 550:Generated_Source\PSoC5/Seat_ADC_SAR.c **** int16 Seat_ADC_SAR_GetResult16( void )
 551:Generated_Source\PSoC5/Seat_ADC_SAR.c **** {
 552:Generated_Source\PSoC5/Seat_ADC_SAR.c ****     uint16 res;
 553:Generated_Source\PSoC5/Seat_ADC_SAR.c **** 
 554:Generated_Source\PSoC5/Seat_ADC_SAR.c ****     res = CY_GET_REG16(Seat_ADC_SAR_SAR_WRK_PTR);
 555:Generated_Source\PSoC5/Seat_ADC_SAR.c **** 
 556:Generated_Source\PSoC5/Seat_ADC_SAR.c ****     return( (int16)res - Seat_ADC_SAR_shift );
 557:Generated_Source\PSoC5/Seat_ADC_SAR.c **** }
 558:Generated_Source\PSoC5/Seat_ADC_SAR.c **** 
 559:Generated_Source\PSoC5/Seat_ADC_SAR.c **** 
 560:Generated_Source\PSoC5/Seat_ADC_SAR.c **** /*******************************************************************************
 561:Generated_Source\PSoC5/Seat_ADC_SAR.c **** * Function Name: Seat_ADC_SAR_SetOffset
 562:Generated_Source\PSoC5/Seat_ADC_SAR.c **** ********************************************************************************
 563:Generated_Source\PSoC5/Seat_ADC_SAR.c **** *
 564:Generated_Source\PSoC5/Seat_ADC_SAR.c **** * Summary:
 565:Generated_Source\PSoC5/Seat_ADC_SAR.c **** *  Sets the ADC offset, which is used by Seat_ADC_SAR_CountsTo_Volts(),
 566:Generated_Source\PSoC5/Seat_ADC_SAR.c **** *  Seat_ADC_SAR_CountsTo_mVolts(), and Seat_ADC_SAR_CountsTo_uVolts()
 567:Generated_Source\PSoC5/Seat_ADC_SAR.c **** *  to subtract the offset from the given reading before calculating the voltage
 568:Generated_Source\PSoC5/Seat_ADC_SAR.c **** *  conversion.
 569:Generated_Source\PSoC5/Seat_ADC_SAR.c **** *
 570:Generated_Source\PSoC5/Seat_ADC_SAR.c **** * Parameters:
 571:Generated_Source\PSoC5/Seat_ADC_SAR.c **** *  int16: This value is measured when the inputs are shorted or connected to
 572:Generated_Source\PSoC5/Seat_ADC_SAR.c ****    the same input voltage.
 573:Generated_Source\PSoC5/Seat_ADC_SAR.c **** *
 574:Generated_Source\PSoC5/Seat_ADC_SAR.c **** * Return:
 575:Generated_Source\PSoC5/Seat_ADC_SAR.c **** *  None.
 576:Generated_Source\PSoC5/Seat_ADC_SAR.c **** *
 577:Generated_Source\PSoC5/Seat_ADC_SAR.c **** * Global Variables:
 578:Generated_Source\PSoC5/Seat_ADC_SAR.c **** *  The Seat_ADC_SAR_offset variable modified. This variable is used for
 579:Generated_Source\PSoC5/Seat_ADC_SAR.c **** *  offset calibration purpose.
 580:Generated_Source\PSoC5/Seat_ADC_SAR.c **** *  Affects the Seat_ADC_SAR_CountsTo_Volts,
 581:Generated_Source\PSoC5/Seat_ADC_SAR.c **** *  Seat_ADC_SAR_CountsTo_mVolts, Seat_ADC_SAR_CountsTo_uVolts functions
 582:Generated_Source\PSoC5/Seat_ADC_SAR.c **** *  by subtracting the given offset.
 583:Generated_Source\PSoC5/Seat_ADC_SAR.c **** *
 584:Generated_Source\PSoC5/Seat_ADC_SAR.c **** *******************************************************************************/
 585:Generated_Source\PSoC5/Seat_ADC_SAR.c **** void Seat_ADC_SAR_SetOffset(int16 offset)
 586:Generated_Source\PSoC5/Seat_ADC_SAR.c **** {
 587:Generated_Source\PSoC5/Seat_ADC_SAR.c ****     Seat_ADC_SAR_offset = offset;
 588:Generated_Source\PSoC5/Seat_ADC_SAR.c **** }
 589:Generated_Source\PSoC5/Seat_ADC_SAR.c **** 
 590:Generated_Source\PSoC5/Seat_ADC_SAR.c **** 
 591:Generated_Source\PSoC5/Seat_ADC_SAR.c **** /*******************************************************************************
 592:Generated_Source\PSoC5/Seat_ADC_SAR.c **** * Function Name: Seat_ADC_SAR_CalcGain
 593:Generated_Source\PSoC5/Seat_ADC_SAR.c **** ********************************************************************************
 594:Generated_Source\PSoC5/Seat_ADC_SAR.c **** *
 595:Generated_Source\PSoC5/Seat_ADC_SAR.c **** * Summary:
 596:Generated_Source\PSoC5/Seat_ADC_SAR.c **** *  This function calculates the ADC gain in counts per 10 volt.
 597:Generated_Source\PSoC5/Seat_ADC_SAR.c **** *
 598:Generated_Source\PSoC5/Seat_ADC_SAR.c **** * Parameters:
 599:Generated_Source\PSoC5/Seat_ADC_SAR.c **** *  uint8: resolution
 600:Generated_Source\PSoC5/Seat_ADC_SAR.c **** *
 601:Generated_Source\PSoC5/Seat_ADC_SAR.c **** * Return:
 602:Generated_Source\PSoC5/Seat_ADC_SAR.c **** *  None.
ARM GAS  C:\Users\jebush2\AppData\Local\Temp\cc1oDB5a.s 			page 16


 603:Generated_Source\PSoC5/Seat_ADC_SAR.c **** *
 604:Generated_Source\PSoC5/Seat_ADC_SAR.c **** * Global Variables:
 605:Generated_Source\PSoC5/Seat_ADC_SAR.c **** *  Seat_ADC_SAR_shift variable initialized. This variable is used to
 606:Generated_Source\PSoC5/Seat_ADC_SAR.c **** *  convert the ADC counts to the 2s compliment form.
 607:Generated_Source\PSoC5/Seat_ADC_SAR.c **** *  Seat_ADC_SAR_countsPer10Volt variable initialized. This variable is used
 608:Generated_Source\PSoC5/Seat_ADC_SAR.c **** *  for gain calibration purpose.
 609:Generated_Source\PSoC5/Seat_ADC_SAR.c **** *
 610:Generated_Source\PSoC5/Seat_ADC_SAR.c **** *******************************************************************************/
 611:Generated_Source\PSoC5/Seat_ADC_SAR.c **** static void Seat_ADC_SAR_CalcGain( uint8 resolution )
 612:Generated_Source\PSoC5/Seat_ADC_SAR.c **** {
 613:Generated_Source\PSoC5/Seat_ADC_SAR.c ****     int32 counts;
 614:Generated_Source\PSoC5/Seat_ADC_SAR.c ****     #if(!((Seat_ADC_SAR_DEFAULT_RANGE == Seat_ADC_SAR__VSS_TO_VREF) || \
 615:Generated_Source\PSoC5/Seat_ADC_SAR.c ****          (Seat_ADC_SAR_DEFAULT_RANGE == Seat_ADC_SAR__VSSA_TO_VDDA) || \
 616:Generated_Source\PSoC5/Seat_ADC_SAR.c ****          (Seat_ADC_SAR_DEFAULT_RANGE == Seat_ADC_SAR__VSSA_TO_VDAC)) )
 617:Generated_Source\PSoC5/Seat_ADC_SAR.c ****         uint16 diff_zero;
 618:Generated_Source\PSoC5/Seat_ADC_SAR.c ****     #endif /* End Seat_ADC_SAR_DEFAULT_RANGE */
 619:Generated_Source\PSoC5/Seat_ADC_SAR.c **** 
 620:Generated_Source\PSoC5/Seat_ADC_SAR.c ****     switch (resolution)
 621:Generated_Source\PSoC5/Seat_ADC_SAR.c ****     {
 622:Generated_Source\PSoC5/Seat_ADC_SAR.c ****         case (uint8)Seat_ADC_SAR__BITS_12:
 623:Generated_Source\PSoC5/Seat_ADC_SAR.c ****             counts = (int32)Seat_ADC_SAR_SAR_WRK_MAX_12BIT;
 624:Generated_Source\PSoC5/Seat_ADC_SAR.c ****             #if(!((Seat_ADC_SAR_DEFAULT_RANGE == Seat_ADC_SAR__VSS_TO_VREF) || \
 625:Generated_Source\PSoC5/Seat_ADC_SAR.c ****                  (Seat_ADC_SAR_DEFAULT_RANGE == Seat_ADC_SAR__VSSA_TO_VDDA) || \
 626:Generated_Source\PSoC5/Seat_ADC_SAR.c ****                  (Seat_ADC_SAR_DEFAULT_RANGE == Seat_ADC_SAR__VSSA_TO_VDAC)) )
 627:Generated_Source\PSoC5/Seat_ADC_SAR.c ****                 diff_zero = Seat_ADC_SAR_SAR_DIFF_SHIFT;
 628:Generated_Source\PSoC5/Seat_ADC_SAR.c ****             #endif /* End Seat_ADC_SAR_DEFAULT_RANGE */
 629:Generated_Source\PSoC5/Seat_ADC_SAR.c ****             break;
 630:Generated_Source\PSoC5/Seat_ADC_SAR.c ****         case (uint8)Seat_ADC_SAR__BITS_10:
 631:Generated_Source\PSoC5/Seat_ADC_SAR.c ****             counts = (int32)Seat_ADC_SAR_SAR_WRK_MAX_10BIT;
 632:Generated_Source\PSoC5/Seat_ADC_SAR.c ****             #if(!((Seat_ADC_SAR_DEFAULT_RANGE == Seat_ADC_SAR__VSS_TO_VREF) || \
 633:Generated_Source\PSoC5/Seat_ADC_SAR.c ****                  (Seat_ADC_SAR_DEFAULT_RANGE == Seat_ADC_SAR__VSSA_TO_VDDA) || \
 634:Generated_Source\PSoC5/Seat_ADC_SAR.c ****                  (Seat_ADC_SAR_DEFAULT_RANGE == Seat_ADC_SAR__VSSA_TO_VDAC)) )
 635:Generated_Source\PSoC5/Seat_ADC_SAR.c ****                 diff_zero = Seat_ADC_SAR_SAR_DIFF_SHIFT >> 2u;
 636:Generated_Source\PSoC5/Seat_ADC_SAR.c ****             #endif /* End Seat_ADC_SAR_DEFAULT_RANGE */
 637:Generated_Source\PSoC5/Seat_ADC_SAR.c ****             break;
 638:Generated_Source\PSoC5/Seat_ADC_SAR.c ****         case (uint8)Seat_ADC_SAR__BITS_8:
 639:Generated_Source\PSoC5/Seat_ADC_SAR.c ****             counts = (int32)Seat_ADC_SAR_SAR_WRK_MAX_8BIT;
 640:Generated_Source\PSoC5/Seat_ADC_SAR.c ****             #if(!((Seat_ADC_SAR_DEFAULT_RANGE == Seat_ADC_SAR__VSS_TO_VREF) || \
 641:Generated_Source\PSoC5/Seat_ADC_SAR.c ****                  (Seat_ADC_SAR_DEFAULT_RANGE == Seat_ADC_SAR__VSSA_TO_VDDA) || \
 642:Generated_Source\PSoC5/Seat_ADC_SAR.c ****                  (Seat_ADC_SAR_DEFAULT_RANGE == Seat_ADC_SAR__VSSA_TO_VDAC)) )
 643:Generated_Source\PSoC5/Seat_ADC_SAR.c ****                 diff_zero = Seat_ADC_SAR_SAR_DIFF_SHIFT >> 4u;
 644:Generated_Source\PSoC5/Seat_ADC_SAR.c ****             #endif /* End Seat_ADC_SAR_DEFAULT_RANGE */
 645:Generated_Source\PSoC5/Seat_ADC_SAR.c ****             break;
 646:Generated_Source\PSoC5/Seat_ADC_SAR.c ****         default: /* Halt CPU in debug mode if resolution is out of valid range */
 647:Generated_Source\PSoC5/Seat_ADC_SAR.c ****             counts = 0;
 648:Generated_Source\PSoC5/Seat_ADC_SAR.c ****             #if(!((Seat_ADC_SAR_DEFAULT_RANGE == Seat_ADC_SAR__VSS_TO_VREF) || \
 649:Generated_Source\PSoC5/Seat_ADC_SAR.c ****                  (Seat_ADC_SAR_DEFAULT_RANGE == Seat_ADC_SAR__VSSA_TO_VDDA) || \
 650:Generated_Source\PSoC5/Seat_ADC_SAR.c ****                  (Seat_ADC_SAR_DEFAULT_RANGE == Seat_ADC_SAR__VSSA_TO_VDAC)) )
 651:Generated_Source\PSoC5/Seat_ADC_SAR.c ****                 diff_zero = 0u;
 652:Generated_Source\PSoC5/Seat_ADC_SAR.c ****             #endif /* End Seat_ADC_SAR_DEFAULT_RANGE */
 653:Generated_Source\PSoC5/Seat_ADC_SAR.c ****             CYASSERT(0u != 0u);
 654:Generated_Source\PSoC5/Seat_ADC_SAR.c ****             break;
 655:Generated_Source\PSoC5/Seat_ADC_SAR.c ****     }
 656:Generated_Source\PSoC5/Seat_ADC_SAR.c ****     Seat_ADC_SAR_countsPerVolt = 0; /* Clear obsolete variable */
 240              		.loc 1 656 0
 241 001e 104B     		ldr	r3, .L18+8
 242 0020 9DBF     		ittte	ls
ARM GAS  C:\Users\jebush2\AppData\Local\Temp\cc1oDB5a.s 			page 17


 243 0022 32F91010 		ldrshls	r1, [r2, r0, lsl #1]
 244 0026 02EB4000 		addls	r0, r2, r0, lsl #1
 245 002a 4289     		ldrhls	r2, [r0, #10]
 246              	.LBE5:
 247              	.LBE4:
 362:Generated_Source\PSoC5/Seat_ADC_SAR.c **** 
 248              		.loc 1 362 0
 249 002c 0022     		movhi	r2, #0
 250              	.LBB8:
 251              	.LBB6:
 252              		.loc 1 656 0
 253 002e 4FF00000 		mov	r0, #0
 254              	.LBE6:
 255              	.LBE8:
 362:Generated_Source\PSoC5/Seat_ADC_SAR.c **** 
 256              		.loc 1 362 0
 257 0032 88BF     		it	hi
 258 0034 1146     		movhi	r1, r2
 259              	.LVL21:
 260              	.LBB9:
 261              	.LBB7:
 262              		.loc 1 656 0
 263 0036 1880     		strh	r0, [r3]	@ movhi
 657:Generated_Source\PSoC5/Seat_ADC_SAR.c ****     /* Calculate gain in counts per 10 volts with rounding */
 658:Generated_Source\PSoC5/Seat_ADC_SAR.c ****     Seat_ADC_SAR_countsPer10Volt = (((counts * Seat_ADC_SAR_10MV_COUNTS) +
 659:Generated_Source\PSoC5/Seat_ADC_SAR.c ****                         Seat_ADC_SAR_DEFAULT_REF_VOLTAGE_MV) / (Seat_ADC_SAR_DEFAULT_REF_VOLTAGE_MV
 264              		.loc 1 659 0
 265 0038 42F21073 		movw	r3, #10000
 266 003c 4B43     		muls	r3, r1, r3
 267 003e 4FF40061 		mov	r1, #2048
 268              	.LVL22:
 269 0042 03F58063 		add	r3, r3, #1024
 270 0046 93FBF1F3 		sdiv	r3, r3, r1
 658:Generated_Source\PSoC5/Seat_ADC_SAR.c ****                         Seat_ADC_SAR_DEFAULT_REF_VOLTAGE_MV) / (Seat_ADC_SAR_DEFAULT_REF_VOLTAGE_MV
 271              		.loc 1 658 0
 272 004a 0649     		ldr	r1, .L18+12
 660:Generated_Source\PSoC5/Seat_ADC_SAR.c **** 
 661:Generated_Source\PSoC5/Seat_ADC_SAR.c ****     #if( (Seat_ADC_SAR_DEFAULT_RANGE == Seat_ADC_SAR__VSS_TO_VREF) || \
 662:Generated_Source\PSoC5/Seat_ADC_SAR.c ****          (Seat_ADC_SAR_DEFAULT_RANGE == Seat_ADC_SAR__VSSA_TO_VDDA) || \
 663:Generated_Source\PSoC5/Seat_ADC_SAR.c ****          (Seat_ADC_SAR_DEFAULT_RANGE == Seat_ADC_SAR__VSSA_TO_VDAC) )
 664:Generated_Source\PSoC5/Seat_ADC_SAR.c ****         Seat_ADC_SAR_shift = 0;
 665:Generated_Source\PSoC5/Seat_ADC_SAR.c ****     #else
 666:Generated_Source\PSoC5/Seat_ADC_SAR.c ****         Seat_ADC_SAR_shift = diff_zero;
 273              		.loc 1 666 0
 274 004c 12B2     		sxth	r2, r2
 658:Generated_Source\PSoC5/Seat_ADC_SAR.c ****                         Seat_ADC_SAR_DEFAULT_REF_VOLTAGE_MV) / (Seat_ADC_SAR_DEFAULT_REF_VOLTAGE_MV
 275              		.loc 1 658 0
 276 004e 0B60     		str	r3, [r1]
 277              		.loc 1 666 0
 278 0050 054B     		ldr	r3, .L18+16
 279 0052 1A80     		strh	r2, [r3]	@ movhi
 280              	.LVL23:
 281 0054 7047     		bx	lr
 282              	.L19:
 283 0056 00BF     		.align	2
 284              	.L18:
 285 0058 02590040 		.word	1073764610
ARM GAS  C:\Users\jebush2\AppData\Local\Temp\cc1oDB5a.s 			page 18


 286 005c 00000000 		.word	.LANCHOR0
 287 0060 00000000 		.word	Seat_ADC_SAR_countsPerVolt
 288 0064 00000000 		.word	Seat_ADC_SAR_countsPer10Volt
 289 0068 00000000 		.word	Seat_ADC_SAR_shift
 290              	.LBE7:
 291              	.LBE9:
 292              		.cfi_endproc
 293              	.LFE5:
 294              		.size	Seat_ADC_SAR_SetResolution, .-Seat_ADC_SAR_SetResolution
 295              		.section	.text.Seat_ADC_SAR_Init,"ax",%progbits
 296              		.align	1
 297              		.global	Seat_ADC_SAR_Init
 298              		.thumb
 299              		.thumb_func
 300              		.type	Seat_ADC_SAR_Init, %function
 301              	Seat_ADC_SAR_Init:
 302              	.LFB1:
 107:Generated_Source\PSoC5/Seat_ADC_SAR.c **** 
 303              		.loc 1 107 0
 304              		.cfi_startproc
 305              		@ args = 0, pretend = 0, frame = 0
 306              		@ frame_needed = 0, uses_anonymous_args = 0
 307 0000 08B5     		push	{r3, lr}
 308              		.cfi_def_cfa_offset 8
 309              		.cfi_offset 3, -8
 310              		.cfi_offset 14, -4
 121:Generated_Source\PSoC5/Seat_ADC_SAR.c **** 
 311              		.loc 1 121 0
 312 0002 064A     		ldr	r2, .L21
 124:Generated_Source\PSoC5/Seat_ADC_SAR.c ****     Seat_ADC_SAR_offset = 0;
 313              		.loc 1 124 0
 314 0004 0C20     		movs	r0, #12
 121:Generated_Source\PSoC5/Seat_ADC_SAR.c **** 
 315              		.loc 1 121 0
 316 0006 1378     		ldrb	r3, [r2]	@ zero_extendqisi2
 317 0008 43F00603 		orr	r3, r3, #6
 318 000c 1370     		strb	r3, [r2]
 124:Generated_Source\PSoC5/Seat_ADC_SAR.c ****     Seat_ADC_SAR_offset = 0;
 319              		.loc 1 124 0
 320 000e FFF7FEFF 		bl	Seat_ADC_SAR_SetResolution
 321              	.LVL24:
 125:Generated_Source\PSoC5/Seat_ADC_SAR.c **** }
 322              		.loc 1 125 0
 323 0012 034B     		ldr	r3, .L21+4
 324 0014 0022     		movs	r2, #0
 325 0016 1A80     		strh	r2, [r3]	@ movhi
 326 0018 08BD     		pop	{r3, pc}
 327              	.L22:
 328 001a 00BF     		.align	2
 329              	.L21:
 330 001c 01590040 		.word	1073764609
 331 0020 00000000 		.word	Seat_ADC_SAR_offset
 332              		.cfi_endproc
 333              	.LFE1:
 334              		.size	Seat_ADC_SAR_Init, .-Seat_ADC_SAR_Init
 335              		.section	.text.Seat_ADC_SAR_Start,"ax",%progbits
 336              		.align	1
ARM GAS  C:\Users\jebush2\AppData\Local\Temp\cc1oDB5a.s 			page 19


 337              		.global	Seat_ADC_SAR_Start
 338              		.thumb
 339              		.thumb_func
 340              		.type	Seat_ADC_SAR_Start, %function
 341              	Seat_ADC_SAR_Start:
 342              	.LFB0:
  75:Generated_Source\PSoC5/Seat_ADC_SAR.c **** 
 343              		.loc 1 75 0
 344              		.cfi_startproc
 345              		@ args = 0, pretend = 0, frame = 0
 346              		@ frame_needed = 0, uses_anonymous_args = 0
 347 0000 10B5     		push	{r4, lr}
 348              		.cfi_def_cfa_offset 8
 349              		.cfi_offset 4, -8
 350              		.cfi_offset 14, -4
  78:Generated_Source\PSoC5/Seat_ADC_SAR.c ****     {
 351              		.loc 1 78 0
 352 0002 054C     		ldr	r4, .L25
 353 0004 2378     		ldrb	r3, [r4]	@ zero_extendqisi2
 354 0006 1BB9     		cbnz	r3, .L24
  80:Generated_Source\PSoC5/Seat_ADC_SAR.c ****         Seat_ADC_SAR_initVar = 1u;
 355              		.loc 1 80 0
 356 0008 FFF7FEFF 		bl	Seat_ADC_SAR_Init
 357              	.LVL25:
  81:Generated_Source\PSoC5/Seat_ADC_SAR.c ****     }
 358              		.loc 1 81 0
 359 000c 0123     		movs	r3, #1
 360 000e 2370     		strb	r3, [r4]
 361              	.L24:
  84:Generated_Source\PSoC5/Seat_ADC_SAR.c **** 
 362              		.loc 1 84 0
 363 0010 BDE81040 		pop	{r4, lr}
 364              		.cfi_restore 14
 365              		.cfi_restore 4
 366              		.cfi_def_cfa_offset 0
  83:Generated_Source\PSoC5/Seat_ADC_SAR.c **** }
 367              		.loc 1 83 0
 368 0014 FFF7FEBF 		b	Seat_ADC_SAR_Enable
 369              	.LVL26:
 370              	.L26:
 371              		.align	2
 372              	.L25:
 373 0018 00000000 		.word	.LANCHOR1
 374              		.cfi_endproc
 375              	.LFE0:
 376              		.size	Seat_ADC_SAR_Start, .-Seat_ADC_SAR_Start
 377              		.section	.text.Seat_ADC_SAR_StartConvert,"ax",%progbits
 378              		.align	1
 379              		.global	Seat_ADC_SAR_StartConvert
 380              		.thumb
 381              		.thumb_func
 382              		.type	Seat_ADC_SAR_StartConvert, %function
 383              	Seat_ADC_SAR_StartConvert:
 384              	.LFB6:
 402:Generated_Source\PSoC5/Seat_ADC_SAR.c ****         #if(Seat_ADC_SAR_DEFAULT_CONV_MODE != Seat_ADC_SAR__FREE_RUNNING)  /* If software triggered
 385              		.loc 1 402 0
 386              		.cfi_startproc
ARM GAS  C:\Users\jebush2\AppData\Local\Temp\cc1oDB5a.s 			page 20


 387              		@ args = 0, pretend = 0, frame = 0
 388              		@ frame_needed = 0, uses_anonymous_args = 0
 389              		@ link register save eliminated.
 404:Generated_Source\PSoC5/Seat_ADC_SAR.c ****         #endif /* End Seat_ADC_SAR_DEFAULT_CONV_MODE */
 390              		.loc 1 404 0
 391 0000 044B     		ldr	r3, .L28
 392 0002 1A78     		ldrb	r2, [r3]	@ zero_extendqisi2
 393 0004 02F0FB02 		and	r2, r2, #251
 394 0008 1A70     		strb	r2, [r3]
 408:Generated_Source\PSoC5/Seat_ADC_SAR.c ****     }
 395              		.loc 1 408 0
 396 000a 1A78     		ldrb	r2, [r3]	@ zero_extendqisi2
 397 000c 42F00102 		orr	r2, r2, #1
 398 0010 1A70     		strb	r2, [r3]
 399 0012 7047     		bx	lr
 400              	.L29:
 401              		.align	2
 402              	.L28:
 403 0014 00590040 		.word	1073764608
 404              		.cfi_endproc
 405              	.LFE6:
 406              		.size	Seat_ADC_SAR_StartConvert, .-Seat_ADC_SAR_StartConvert
 407              		.section	.text.Seat_ADC_SAR_StopConvert,"ax",%progbits
 408              		.align	1
 409              		.global	Seat_ADC_SAR_StopConvert
 410              		.thumb
 411              		.thumb_func
 412              		.type	Seat_ADC_SAR_StopConvert, %function
 413              	Seat_ADC_SAR_StopConvert:
 414              	.LFB7:
 436:Generated_Source\PSoC5/Seat_ADC_SAR.c ****         /* Stop all conversions */
 415              		.loc 1 436 0
 416              		.cfi_startproc
 417              		@ args = 0, pretend = 0, frame = 0
 418              		@ frame_needed = 0, uses_anonymous_args = 0
 419              		@ link register save eliminated.
 438:Generated_Source\PSoC5/Seat_ADC_SAR.c **** 
 420              		.loc 1 438 0
 421 0000 044B     		ldr	r3, .L31
 422 0002 1A78     		ldrb	r2, [r3]	@ zero_extendqisi2
 423 0004 02F0FE02 		and	r2, r2, #254
 424 0008 1A70     		strb	r2, [r3]
 442:Generated_Source\PSoC5/Seat_ADC_SAR.c ****         #endif /* End Seat_ADC_SAR_DEFAULT_CONV_MODE */
 425              		.loc 1 442 0
 426 000a 1A78     		ldrb	r2, [r3]	@ zero_extendqisi2
 427 000c 42F00402 		orr	r2, r2, #4
 428 0010 1A70     		strb	r2, [r3]
 429 0012 7047     		bx	lr
 430              	.L32:
 431              		.align	2
 432              	.L31:
 433 0014 00590040 		.word	1073764608
 434              		.cfi_endproc
 435              	.LFE7:
 436              		.size	Seat_ADC_SAR_StopConvert, .-Seat_ADC_SAR_StopConvert
 437              		.section	.text.Seat_ADC_SAR_IsEndConversion,"ax",%progbits
 438              		.align	1
ARM GAS  C:\Users\jebush2\AppData\Local\Temp\cc1oDB5a.s 			page 21


 439              		.global	Seat_ADC_SAR_IsEndConversion
 440              		.thumb
 441              		.thumb_func
 442              		.type	Seat_ADC_SAR_IsEndConversion, %function
 443              	Seat_ADC_SAR_IsEndConversion:
 444              	.LFB8:
 476:Generated_Source\PSoC5/Seat_ADC_SAR.c ****     uint8 status;
 445              		.loc 1 476 0
 446              		.cfi_startproc
 447              		@ args = 0, pretend = 0, frame = 0
 448              		@ frame_needed = 0, uses_anonymous_args = 0
 449              	.LVL27:
 450 0000 10B5     		push	{r4, lr}
 451              		.cfi_def_cfa_offset 8
 452              		.cfi_offset 4, -8
 453              		.cfi_offset 14, -4
 481:Generated_Source\PSoC5/Seat_ADC_SAR.c ****     } while ((status != Seat_ADC_SAR_SAR_EOF_1) && (retMode == Seat_ADC_SAR_WAIT_FOR_RESULT));
 454              		.loc 1 481 0
 455 0002 084B     		ldr	r3, .L40
 456              	.L35:
 481:Generated_Source\PSoC5/Seat_ADC_SAR.c ****     } while ((status != Seat_ADC_SAR_SAR_EOF_1) && (retMode == Seat_ADC_SAR_WAIT_FOR_RESULT));
 457              		.loc 1 481 0 is_stmt 0 discriminator 2
 458 0004 1C78     		ldrb	r4, [r3]	@ zero_extendqisi2
 459              	.LVL28:
 482:Generated_Source\PSoC5/Seat_ADC_SAR.c ****     /* If convertion complete, wait until EOF bit released */
 460              		.loc 1 482 0 is_stmt 1 discriminator 2
 461 0006 14F00104 		ands	r4, r4, #1
 462              	.LVL29:
 463 000a 03D1     		bne	.L34
 482:Generated_Source\PSoC5/Seat_ADC_SAR.c ****     /* If convertion complete, wait until EOF bit released */
 464              		.loc 1 482 0 is_stmt 0 discriminator 1
 465 000c 0028     		cmp	r0, #0
 466 000e F9D0     		beq	.L35
 467 0010 0024     		movs	r4, #0
 468 0012 04E0     		b	.L39
 469              	.L34:
 487:Generated_Source\PSoC5/Seat_ADC_SAR.c ****         /* Do the unconditional read operation of the CSR1 register to make sure the EOC bit has be
 470              		.loc 1 487 0 is_stmt 1
 471 0014 2046     		mov	r0, r4
 472              	.LVL30:
 473 0016 FFF7FEFF 		bl	CyDelayUs
 474              	.LVL31:
 489:Generated_Source\PSoC5/Seat_ADC_SAR.c ****     }
 475              		.loc 1 489 0
 476 001a 024B     		ldr	r3, .L40
 477 001c 1B78     		ldrb	r3, [r3]	@ zero_extendqisi2
 478              	.L39:
 493:Generated_Source\PSoC5/Seat_ADC_SAR.c **** 
 479              		.loc 1 493 0
 480 001e 2046     		mov	r0, r4
 481 0020 10BD     		pop	{r4, pc}
 482              	.L41:
 483 0022 00BF     		.align	2
 484              	.L40:
 485 0024 01590040 		.word	1073764609
 486              		.cfi_endproc
 487              	.LFE8:
ARM GAS  C:\Users\jebush2\AppData\Local\Temp\cc1oDB5a.s 			page 22


 488              		.size	Seat_ADC_SAR_IsEndConversion, .-Seat_ADC_SAR_IsEndConversion
 489              		.section	.text.Seat_ADC_SAR_GetResult8,"ax",%progbits
 490              		.align	1
 491              		.global	Seat_ADC_SAR_GetResult8
 492              		.thumb
 493              		.thumb_func
 494              		.type	Seat_ADC_SAR_GetResult8, %function
 495              	Seat_ADC_SAR_GetResult8:
 496              	.LFB9:
 521:Generated_Source\PSoC5/Seat_ADC_SAR.c ****     return( (int8)Seat_ADC_SAR_SAR_WRK0_REG - (int8)Seat_ADC_SAR_shift);
 497              		.loc 1 521 0
 498              		.cfi_startproc
 499              		@ args = 0, pretend = 0, frame = 0
 500              		@ frame_needed = 0, uses_anonymous_args = 0
 501              		@ link register save eliminated.
 522:Generated_Source\PSoC5/Seat_ADC_SAR.c **** }
 502              		.loc 1 522 0
 503 0000 034A     		ldr	r2, .L43
 504 0002 044B     		ldr	r3, .L43+4
 505 0004 1B78     		ldrb	r3, [r3]	@ zero_extendqisi2
 506 0006 1088     		ldrh	r0, [r2]
 507 0008 181A     		subs	r0, r3, r0
 523:Generated_Source\PSoC5/Seat_ADC_SAR.c **** 
 508              		.loc 1 523 0
 509 000a 40B2     		sxtb	r0, r0
 510 000c 7047     		bx	lr
 511              	.L44:
 512 000e 00BF     		.align	2
 513              	.L43:
 514 0010 00000000 		.word	Seat_ADC_SAR_shift
 515 0014 A05B0040 		.word	1073765280
 516              		.cfi_endproc
 517              	.LFE9:
 518              		.size	Seat_ADC_SAR_GetResult8, .-Seat_ADC_SAR_GetResult8
 519              		.section	.text.Seat_ADC_SAR_GetResult16,"ax",%progbits
 520              		.align	1
 521              		.global	Seat_ADC_SAR_GetResult16
 522              		.thumb
 523              		.thumb_func
 524              		.type	Seat_ADC_SAR_GetResult16, %function
 525              	Seat_ADC_SAR_GetResult16:
 526              	.LFB10:
 551:Generated_Source\PSoC5/Seat_ADC_SAR.c ****     uint16 res;
 527              		.loc 1 551 0
 528              		.cfi_startproc
 529              		@ args = 0, pretend = 0, frame = 0
 530              		@ frame_needed = 0, uses_anonymous_args = 0
 531              		@ link register save eliminated.
 556:Generated_Source\PSoC5/Seat_ADC_SAR.c **** }
 532              		.loc 1 556 0
 533 0000 034A     		ldr	r2, .L46
 554:Generated_Source\PSoC5/Seat_ADC_SAR.c **** 
 534              		.loc 1 554 0
 535 0002 044B     		ldr	r3, .L46+4
 536 0004 1B88     		ldrh	r3, [r3]
 537              	.LVL32:
 556:Generated_Source\PSoC5/Seat_ADC_SAR.c **** }
ARM GAS  C:\Users\jebush2\AppData\Local\Temp\cc1oDB5a.s 			page 23


 538              		.loc 1 556 0
 539 0006 1088     		ldrh	r0, [r2]
 540 0008 181A     		subs	r0, r3, r0
 557:Generated_Source\PSoC5/Seat_ADC_SAR.c **** 
 541              		.loc 1 557 0
 542 000a 00B2     		sxth	r0, r0
 543 000c 7047     		bx	lr
 544              	.L47:
 545 000e 00BF     		.align	2
 546              	.L46:
 547 0010 00000000 		.word	Seat_ADC_SAR_shift
 548 0014 A05B0040 		.word	1073765280
 549              		.cfi_endproc
 550              	.LFE10:
 551              		.size	Seat_ADC_SAR_GetResult16, .-Seat_ADC_SAR_GetResult16
 552              		.section	.text.Seat_ADC_SAR_SetOffset,"ax",%progbits
 553              		.align	1
 554              		.global	Seat_ADC_SAR_SetOffset
 555              		.thumb
 556              		.thumb_func
 557              		.type	Seat_ADC_SAR_SetOffset, %function
 558              	Seat_ADC_SAR_SetOffset:
 559              	.LFB11:
 586:Generated_Source\PSoC5/Seat_ADC_SAR.c ****     Seat_ADC_SAR_offset = offset;
 560              		.loc 1 586 0
 561              		.cfi_startproc
 562              		@ args = 0, pretend = 0, frame = 0
 563              		@ frame_needed = 0, uses_anonymous_args = 0
 564              		@ link register save eliminated.
 565              	.LVL33:
 587:Generated_Source\PSoC5/Seat_ADC_SAR.c **** }
 566              		.loc 1 587 0
 567 0000 014B     		ldr	r3, .L49
 568 0002 1880     		strh	r0, [r3]	@ movhi
 569 0004 7047     		bx	lr
 570              	.L50:
 571 0006 00BF     		.align	2
 572              	.L49:
 573 0008 00000000 		.word	Seat_ADC_SAR_offset
 574              		.cfi_endproc
 575              	.LFE11:
 576              		.size	Seat_ADC_SAR_SetOffset, .-Seat_ADC_SAR_SetOffset
 577              		.section	.text.Seat_ADC_SAR_SetGain,"ax",%progbits
 578              		.align	1
 579              		.global	Seat_ADC_SAR_SetGain
 580              		.thumb
 581              		.thumb_func
 582              		.type	Seat_ADC_SAR_SetGain, %function
 583              	Seat_ADC_SAR_SetGain:
 584              	.LFB13:
 667:Generated_Source\PSoC5/Seat_ADC_SAR.c ****     #endif /* End Seat_ADC_SAR_DEFAULT_RANGE */
 668:Generated_Source\PSoC5/Seat_ADC_SAR.c **** }
 669:Generated_Source\PSoC5/Seat_ADC_SAR.c **** 
 670:Generated_Source\PSoC5/Seat_ADC_SAR.c **** 
 671:Generated_Source\PSoC5/Seat_ADC_SAR.c **** /*******************************************************************************
 672:Generated_Source\PSoC5/Seat_ADC_SAR.c **** * Function Name: Seat_ADC_SAR_SetGain
 673:Generated_Source\PSoC5/Seat_ADC_SAR.c **** ********************************************************************************
ARM GAS  C:\Users\jebush2\AppData\Local\Temp\cc1oDB5a.s 			page 24


 674:Generated_Source\PSoC5/Seat_ADC_SAR.c **** *
 675:Generated_Source\PSoC5/Seat_ADC_SAR.c **** * Summary:
 676:Generated_Source\PSoC5/Seat_ADC_SAR.c **** *  Sets the ADC gain in counts per volt for the voltage conversion functions
 677:Generated_Source\PSoC5/Seat_ADC_SAR.c **** *  that follow. This value is set by default by the reference and input range
 678:Generated_Source\PSoC5/Seat_ADC_SAR.c **** *  settings. It should only be used to further calibrate the ADC with a known
 679:Generated_Source\PSoC5/Seat_ADC_SAR.c **** *  input or if the ADC is using an external reference.
 680:Generated_Source\PSoC5/Seat_ADC_SAR.c **** *
 681:Generated_Source\PSoC5/Seat_ADC_SAR.c **** * Parameters:
 682:Generated_Source\PSoC5/Seat_ADC_SAR.c **** *  int16 adcGain counts per volt
 683:Generated_Source\PSoC5/Seat_ADC_SAR.c **** *
 684:Generated_Source\PSoC5/Seat_ADC_SAR.c **** * Return:
 685:Generated_Source\PSoC5/Seat_ADC_SAR.c **** *  None.
 686:Generated_Source\PSoC5/Seat_ADC_SAR.c **** *
 687:Generated_Source\PSoC5/Seat_ADC_SAR.c **** * Global Variables:
 688:Generated_Source\PSoC5/Seat_ADC_SAR.c **** *  Seat_ADC_SAR_countsPer10Volt variable modified. This variable is used
 689:Generated_Source\PSoC5/Seat_ADC_SAR.c **** *  for gain calibration purpose.
 690:Generated_Source\PSoC5/Seat_ADC_SAR.c **** *
 691:Generated_Source\PSoC5/Seat_ADC_SAR.c **** *******************************************************************************/
 692:Generated_Source\PSoC5/Seat_ADC_SAR.c **** void Seat_ADC_SAR_SetGain(int16 adcGain)
 693:Generated_Source\PSoC5/Seat_ADC_SAR.c **** {
 585              		.loc 1 693 0
 586              		.cfi_startproc
 587              		@ args = 0, pretend = 0, frame = 0
 588              		@ frame_needed = 0, uses_anonymous_args = 0
 589              		@ link register save eliminated.
 590              	.LVL34:
 694:Generated_Source\PSoC5/Seat_ADC_SAR.c ****     Seat_ADC_SAR_countsPer10Volt = (int32)adcGain * 10;
 591              		.loc 1 694 0
 592 0000 0A23     		movs	r3, #10
 593 0002 5843     		muls	r0, r3, r0
 594              	.LVL35:
 595 0004 014B     		ldr	r3, .L52
 596 0006 1860     		str	r0, [r3]
 597 0008 7047     		bx	lr
 598              	.L53:
 599 000a 00BF     		.align	2
 600              	.L52:
 601 000c 00000000 		.word	Seat_ADC_SAR_countsPer10Volt
 602              		.cfi_endproc
 603              	.LFE13:
 604              		.size	Seat_ADC_SAR_SetGain, .-Seat_ADC_SAR_SetGain
 605              		.section	.text.Seat_ADC_SAR_SetScaledGain,"ax",%progbits
 606              		.align	1
 607              		.global	Seat_ADC_SAR_SetScaledGain
 608              		.thumb
 609              		.thumb_func
 610              		.type	Seat_ADC_SAR_SetScaledGain, %function
 611              	Seat_ADC_SAR_SetScaledGain:
 612              	.LFB14:
 695:Generated_Source\PSoC5/Seat_ADC_SAR.c **** }
 696:Generated_Source\PSoC5/Seat_ADC_SAR.c **** 
 697:Generated_Source\PSoC5/Seat_ADC_SAR.c **** 
 698:Generated_Source\PSoC5/Seat_ADC_SAR.c **** /*******************************************************************************
 699:Generated_Source\PSoC5/Seat_ADC_SAR.c **** * Function Name: Seat_ADC_SAR_SetScaledGain
 700:Generated_Source\PSoC5/Seat_ADC_SAR.c **** ********************************************************************************
 701:Generated_Source\PSoC5/Seat_ADC_SAR.c **** *
 702:Generated_Source\PSoC5/Seat_ADC_SAR.c **** * Summary:
ARM GAS  C:\Users\jebush2\AppData\Local\Temp\cc1oDB5a.s 			page 25


 703:Generated_Source\PSoC5/Seat_ADC_SAR.c **** *  Sets the ADC gain in counts per 10 volt for the voltage conversion functions
 704:Generated_Source\PSoC5/Seat_ADC_SAR.c **** *  that follow. This value is set by default by the reference and input range
 705:Generated_Source\PSoC5/Seat_ADC_SAR.c **** *  settings. It should only be used to further calibrate the ADC with a known
 706:Generated_Source\PSoC5/Seat_ADC_SAR.c **** *  input or if the ADC is using an external reference.
 707:Generated_Source\PSoC5/Seat_ADC_SAR.c **** *
 708:Generated_Source\PSoC5/Seat_ADC_SAR.c **** * Parameters:
 709:Generated_Source\PSoC5/Seat_ADC_SAR.c **** *  int32 adcGain  counts per 10 volt
 710:Generated_Source\PSoC5/Seat_ADC_SAR.c **** *
 711:Generated_Source\PSoC5/Seat_ADC_SAR.c **** * Return:
 712:Generated_Source\PSoC5/Seat_ADC_SAR.c **** *  None.
 713:Generated_Source\PSoC5/Seat_ADC_SAR.c **** *
 714:Generated_Source\PSoC5/Seat_ADC_SAR.c **** * Global Variables:
 715:Generated_Source\PSoC5/Seat_ADC_SAR.c **** *  Seat_ADC_SAR_countsPer10Volt variable modified. This variable is used
 716:Generated_Source\PSoC5/Seat_ADC_SAR.c **** *  for gain calibration purpose.
 717:Generated_Source\PSoC5/Seat_ADC_SAR.c **** *
 718:Generated_Source\PSoC5/Seat_ADC_SAR.c **** *******************************************************************************/
 719:Generated_Source\PSoC5/Seat_ADC_SAR.c **** void Seat_ADC_SAR_SetScaledGain(int32 adcGain)
 720:Generated_Source\PSoC5/Seat_ADC_SAR.c **** {
 613              		.loc 1 720 0
 614              		.cfi_startproc
 615              		@ args = 0, pretend = 0, frame = 0
 616              		@ frame_needed = 0, uses_anonymous_args = 0
 617              		@ link register save eliminated.
 618              	.LVL36:
 721:Generated_Source\PSoC5/Seat_ADC_SAR.c ****     Seat_ADC_SAR_countsPer10Volt = adcGain;
 619              		.loc 1 721 0
 620 0000 014B     		ldr	r3, .L55
 621 0002 1860     		str	r0, [r3]
 622 0004 7047     		bx	lr
 623              	.L56:
 624 0006 00BF     		.align	2
 625              	.L55:
 626 0008 00000000 		.word	Seat_ADC_SAR_countsPer10Volt
 627              		.cfi_endproc
 628              	.LFE14:
 629              		.size	Seat_ADC_SAR_SetScaledGain, .-Seat_ADC_SAR_SetScaledGain
 630              		.section	.text.Seat_ADC_SAR_CountsTo_mVolts,"ax",%progbits
 631              		.align	1
 632              		.global	Seat_ADC_SAR_CountsTo_mVolts
 633              		.thumb
 634              		.thumb_func
 635              		.type	Seat_ADC_SAR_CountsTo_mVolts, %function
 636              	Seat_ADC_SAR_CountsTo_mVolts:
 637              	.LFB15:
 722:Generated_Source\PSoC5/Seat_ADC_SAR.c **** }
 723:Generated_Source\PSoC5/Seat_ADC_SAR.c **** 
 724:Generated_Source\PSoC5/Seat_ADC_SAR.c **** 
 725:Generated_Source\PSoC5/Seat_ADC_SAR.c **** /*******************************************************************************
 726:Generated_Source\PSoC5/Seat_ADC_SAR.c **** * Function Name: Seat_ADC_SAR_CountsTo_mVolts
 727:Generated_Source\PSoC5/Seat_ADC_SAR.c **** ********************************************************************************
 728:Generated_Source\PSoC5/Seat_ADC_SAR.c **** *
 729:Generated_Source\PSoC5/Seat_ADC_SAR.c **** * Summary:
 730:Generated_Source\PSoC5/Seat_ADC_SAR.c **** *  Converts the ADC output to millivolts as a 16-bit integer.
 731:Generated_Source\PSoC5/Seat_ADC_SAR.c **** *
 732:Generated_Source\PSoC5/Seat_ADC_SAR.c **** * Parameters:
 733:Generated_Source\PSoC5/Seat_ADC_SAR.c **** *  int16 adcCounts:  Result from the ADC conversion
 734:Generated_Source\PSoC5/Seat_ADC_SAR.c **** *
ARM GAS  C:\Users\jebush2\AppData\Local\Temp\cc1oDB5a.s 			page 26


 735:Generated_Source\PSoC5/Seat_ADC_SAR.c **** * Return:
 736:Generated_Source\PSoC5/Seat_ADC_SAR.c **** *  int16 Result in mVolts
 737:Generated_Source\PSoC5/Seat_ADC_SAR.c **** *
 738:Generated_Source\PSoC5/Seat_ADC_SAR.c **** * Global Variables:
 739:Generated_Source\PSoC5/Seat_ADC_SAR.c **** *  Seat_ADC_SAR_offset variable used.
 740:Generated_Source\PSoC5/Seat_ADC_SAR.c **** *  Seat_ADC_SAR_countsPer10Volt variable used.
 741:Generated_Source\PSoC5/Seat_ADC_SAR.c **** *
 742:Generated_Source\PSoC5/Seat_ADC_SAR.c **** *******************************************************************************/
 743:Generated_Source\PSoC5/Seat_ADC_SAR.c **** int16 Seat_ADC_SAR_CountsTo_mVolts(int16 adcCounts)
 744:Generated_Source\PSoC5/Seat_ADC_SAR.c **** {
 638              		.loc 1 744 0
 639              		.cfi_startproc
 640              		@ args = 0, pretend = 0, frame = 0
 641              		@ frame_needed = 0, uses_anonymous_args = 0
 642              		@ link register save eliminated.
 643              	.LVL37:
 745:Generated_Source\PSoC5/Seat_ADC_SAR.c ****     int16 mVolts;
 746:Generated_Source\PSoC5/Seat_ADC_SAR.c ****     int32 countsPer10Volt;
 747:Generated_Source\PSoC5/Seat_ADC_SAR.c **** 
 748:Generated_Source\PSoC5/Seat_ADC_SAR.c ****     if(Seat_ADC_SAR_countsPerVolt != 0)
 644              		.loc 1 748 0
 645 0000 0E4A     		ldr	r2, .L62
 646 0002 1388     		ldrh	r3, [r2]
 647 0004 1BB2     		sxth	r3, r3
 648 0006 23B1     		cbz	r3, .L58
 749:Generated_Source\PSoC5/Seat_ADC_SAR.c ****     {   /* Support obsolete method */
 750:Generated_Source\PSoC5/Seat_ADC_SAR.c ****         countsPer10Volt = (int32)Seat_ADC_SAR_countsPerVolt * 10;
 649              		.loc 1 750 0
 650 0008 1188     		ldrh	r1, [r2]
 651 000a 0A23     		movs	r3, #10
 652 000c 09B2     		sxth	r1, r1
 653 000e 5943     		muls	r1, r3, r1
 654              	.LVL38:
 655 0010 01E0     		b	.L59
 656              	.LVL39:
 657              	.L58:
 751:Generated_Source\PSoC5/Seat_ADC_SAR.c ****     }
 752:Generated_Source\PSoC5/Seat_ADC_SAR.c ****     else
 753:Generated_Source\PSoC5/Seat_ADC_SAR.c ****     {
 754:Generated_Source\PSoC5/Seat_ADC_SAR.c ****         countsPer10Volt = Seat_ADC_SAR_countsPer10Volt;
 658              		.loc 1 754 0
 659 0012 0B4B     		ldr	r3, .L62+4
 660 0014 1968     		ldr	r1, [r3]
 661              	.LVL40:
 662              	.L59:
 755:Generated_Source\PSoC5/Seat_ADC_SAR.c ****     }
 756:Generated_Source\PSoC5/Seat_ADC_SAR.c **** 
 757:Generated_Source\PSoC5/Seat_ADC_SAR.c ****     /* Subtract ADC offset */
 758:Generated_Source\PSoC5/Seat_ADC_SAR.c ****     adcCounts -= Seat_ADC_SAR_offset;
 663              		.loc 1 758 0
 664 0016 0B4B     		ldr	r3, .L62+8
 665 0018 1B88     		ldrh	r3, [r3]
 666 001a C01A     		subs	r0, r0, r3
 667              	.LVL41:
 759:Generated_Source\PSoC5/Seat_ADC_SAR.c ****     /* Convert to millivolts with rounding */
 760:Generated_Source\PSoC5/Seat_ADC_SAR.c ****     mVolts = (int16)( (( (int32)adcCounts * Seat_ADC_SAR_10MV_COUNTS ) + ( (adcCounts > 0) ?
 668              		.loc 1 760 0
ARM GAS  C:\Users\jebush2\AppData\Local\Temp\cc1oDB5a.s 			page 27


 669 001c 42F21073 		movw	r3, #10000
 758:Generated_Source\PSoC5/Seat_ADC_SAR.c ****     /* Convert to millivolts with rounding */
 670              		.loc 1 758 0
 671 0020 00B2     		sxth	r0, r0
 672              	.LVL42:
 673              		.loc 1 760 0
 674 0022 03FB00F2 		mul	r2, r3, r0
 675 0026 0223     		movs	r3, #2
 761:Generated_Source\PSoC5/Seat_ADC_SAR.c ****                        (countsPer10Volt / 2) : (-(countsPer10Volt / 2)) )) / countsPer10Volt);
 676              		.loc 1 761 0
 677 0028 91FBF3F3 		sdiv	r3, r1, r3
 678 002c 0028     		cmp	r0, #0
 679 002e D8BF     		it	le
 680 0030 5B42     		rsble	r3, r3, #0
 681              	.LVL43:
 762:Generated_Source\PSoC5/Seat_ADC_SAR.c **** 
 763:Generated_Source\PSoC5/Seat_ADC_SAR.c ****     return( mVolts );
 682              		.loc 1 763 0
 683 0032 1344     		add	r3, r3, r2
 684              	.LVL44:
 685 0034 93FBF1F0 		sdiv	r0, r3, r1
 686              	.LVL45:
 764:Generated_Source\PSoC5/Seat_ADC_SAR.c **** }
 687              		.loc 1 764 0
 688 0038 00B2     		sxth	r0, r0
 689 003a 7047     		bx	lr
 690              	.L63:
 691              		.align	2
 692              	.L62:
 693 003c 00000000 		.word	Seat_ADC_SAR_countsPerVolt
 694 0040 00000000 		.word	Seat_ADC_SAR_countsPer10Volt
 695 0044 00000000 		.word	Seat_ADC_SAR_offset
 696              		.cfi_endproc
 697              	.LFE15:
 698              		.size	Seat_ADC_SAR_CountsTo_mVolts, .-Seat_ADC_SAR_CountsTo_mVolts
 699              		.global	__aeabi_ldivmod
 700              		.section	.text.Seat_ADC_SAR_CountsTo_uVolts,"ax",%progbits
 701              		.align	1
 702              		.global	Seat_ADC_SAR_CountsTo_uVolts
 703              		.thumb
 704              		.thumb_func
 705              		.type	Seat_ADC_SAR_CountsTo_uVolts, %function
 706              	Seat_ADC_SAR_CountsTo_uVolts:
 707              	.LFB16:
 765:Generated_Source\PSoC5/Seat_ADC_SAR.c **** 
 766:Generated_Source\PSoC5/Seat_ADC_SAR.c **** 
 767:Generated_Source\PSoC5/Seat_ADC_SAR.c **** /*******************************************************************************
 768:Generated_Source\PSoC5/Seat_ADC_SAR.c **** * Function Name: Seat_ADC_SAR_CountsTo_uVolts
 769:Generated_Source\PSoC5/Seat_ADC_SAR.c **** ********************************************************************************
 770:Generated_Source\PSoC5/Seat_ADC_SAR.c **** *
 771:Generated_Source\PSoC5/Seat_ADC_SAR.c **** * Summary:
 772:Generated_Source\PSoC5/Seat_ADC_SAR.c **** *  Converts the ADC output to microvolts as a 32-bit integer.
 773:Generated_Source\PSoC5/Seat_ADC_SAR.c **** *
 774:Generated_Source\PSoC5/Seat_ADC_SAR.c **** * Parameters:
 775:Generated_Source\PSoC5/Seat_ADC_SAR.c **** *  int16 adcCounts: Result from the ADC conversion
 776:Generated_Source\PSoC5/Seat_ADC_SAR.c **** *
 777:Generated_Source\PSoC5/Seat_ADC_SAR.c **** * Return:
ARM GAS  C:\Users\jebush2\AppData\Local\Temp\cc1oDB5a.s 			page 28


 778:Generated_Source\PSoC5/Seat_ADC_SAR.c **** *  int32 Result in micro Volts
 779:Generated_Source\PSoC5/Seat_ADC_SAR.c **** *
 780:Generated_Source\PSoC5/Seat_ADC_SAR.c **** * Global Variables:
 781:Generated_Source\PSoC5/Seat_ADC_SAR.c **** *  Seat_ADC_SAR_offset variable used.
 782:Generated_Source\PSoC5/Seat_ADC_SAR.c **** *  Seat_ADC_SAR_countsPer10Volt used to convert ADC counts to uVolts.
 783:Generated_Source\PSoC5/Seat_ADC_SAR.c **** *
 784:Generated_Source\PSoC5/Seat_ADC_SAR.c **** *******************************************************************************/
 785:Generated_Source\PSoC5/Seat_ADC_SAR.c **** int32 Seat_ADC_SAR_CountsTo_uVolts(int16 adcCounts)
 786:Generated_Source\PSoC5/Seat_ADC_SAR.c **** {
 708              		.loc 1 786 0
 709              		.cfi_startproc
 710              		@ args = 0, pretend = 0, frame = 0
 711              		@ frame_needed = 0, uses_anonymous_args = 0
 712              	.LVL46:
 787:Generated_Source\PSoC5/Seat_ADC_SAR.c **** 
 788:Generated_Source\PSoC5/Seat_ADC_SAR.c ****     int64 uVolts;
 789:Generated_Source\PSoC5/Seat_ADC_SAR.c ****     int32 countsPer10Volt;
 790:Generated_Source\PSoC5/Seat_ADC_SAR.c **** 
 791:Generated_Source\PSoC5/Seat_ADC_SAR.c ****     if(Seat_ADC_SAR_countsPerVolt != 0)
 713              		.loc 1 791 0
 714 0000 0C4A     		ldr	r2, .L67
 786:Generated_Source\PSoC5/Seat_ADC_SAR.c **** 
 715              		.loc 1 786 0
 716 0002 38B5     		push	{r3, r4, r5, lr}
 717              		.cfi_def_cfa_offset 16
 718              		.cfi_offset 3, -16
 719              		.cfi_offset 4, -12
 720              		.cfi_offset 5, -8
 721              		.cfi_offset 14, -4
 722              		.loc 1 791 0
 723 0004 1388     		ldrh	r3, [r2]
 724 0006 1BB2     		sxth	r3, r3
 725 0008 23B1     		cbz	r3, .L65
 792:Generated_Source\PSoC5/Seat_ADC_SAR.c ****     {   /* Support obsolete method */
 793:Generated_Source\PSoC5/Seat_ADC_SAR.c ****         countsPer10Volt = (int32)Seat_ADC_SAR_countsPerVolt * 10;
 726              		.loc 1 793 0
 727 000a 1288     		ldrh	r2, [r2]
 728 000c 0A23     		movs	r3, #10
 729 000e 12B2     		sxth	r2, r2
 730 0010 5A43     		muls	r2, r3, r2
 731              	.LVL47:
 732 0012 01E0     		b	.L66
 733              	.LVL48:
 734              	.L65:
 794:Generated_Source\PSoC5/Seat_ADC_SAR.c ****     }
 795:Generated_Source\PSoC5/Seat_ADC_SAR.c ****     else
 796:Generated_Source\PSoC5/Seat_ADC_SAR.c ****     {
 797:Generated_Source\PSoC5/Seat_ADC_SAR.c ****         countsPer10Volt = Seat_ADC_SAR_countsPer10Volt;
 735              		.loc 1 797 0
 736 0014 084B     		ldr	r3, .L67+4
 737 0016 1A68     		ldr	r2, [r3]
 738              	.LVL49:
 739              	.L66:
 798:Generated_Source\PSoC5/Seat_ADC_SAR.c ****     }
 799:Generated_Source\PSoC5/Seat_ADC_SAR.c **** 
 800:Generated_Source\PSoC5/Seat_ADC_SAR.c ****     /* Subtract ADC offset */
 801:Generated_Source\PSoC5/Seat_ADC_SAR.c ****     adcCounts -= Seat_ADC_SAR_offset;
ARM GAS  C:\Users\jebush2\AppData\Local\Temp\cc1oDB5a.s 			page 29


 740              		.loc 1 801 0
 741 0018 084B     		ldr	r3, .L67+8
 742 001a 1C88     		ldrh	r4, [r3]
 802:Generated_Source\PSoC5/Seat_ADC_SAR.c ****     /* To convert adcCounts to microVolts it is required to be multiplied
 803:Generated_Source\PSoC5/Seat_ADC_SAR.c ****     *  on 10 million and later divide on gain in counts per 10V.
 804:Generated_Source\PSoC5/Seat_ADC_SAR.c ****     */
 805:Generated_Source\PSoC5/Seat_ADC_SAR.c ****     uVolts = (( (int64)adcCounts * Seat_ADC_SAR_10UV_COUNTS ) / countsPer10Volt);
 806:Generated_Source\PSoC5/Seat_ADC_SAR.c **** 
 807:Generated_Source\PSoC5/Seat_ADC_SAR.c ****     return((int32) uVolts );
 743              		.loc 1 807 0
 744 001c 084B     		ldr	r3, .L67+12
 801:Generated_Source\PSoC5/Seat_ADC_SAR.c ****     /* To convert adcCounts to microVolts it is required to be multiplied
 745              		.loc 1 801 0
 746 001e 041B     		subs	r4, r0, r4
 747              	.LVL50:
 748              		.loc 1 807 0
 749 0020 24B2     		sxth	r4, r4
 750 0022 A4FB0301 		umull	r0, r1, r4, r3
 751 0026 E517     		asrs	r5, r4, #31
 752 0028 03FB0511 		mla	r1, r3, r5, r1
 753 002c D317     		asrs	r3, r2, #31
 754 002e FFF7FEFF 		bl	__aeabi_ldivmod
 755              	.LVL51:
 808:Generated_Source\PSoC5/Seat_ADC_SAR.c **** }
 756              		.loc 1 808 0
 757 0032 38BD     		pop	{r3, r4, r5, pc}
 758              	.LVL52:
 759              	.L68:
 760              		.align	2
 761              	.L67:
 762 0034 00000000 		.word	Seat_ADC_SAR_countsPerVolt
 763 0038 00000000 		.word	Seat_ADC_SAR_countsPer10Volt
 764 003c 00000000 		.word	Seat_ADC_SAR_offset
 765 0040 80969800 		.word	10000000
 766              		.cfi_endproc
 767              	.LFE16:
 768              		.size	Seat_ADC_SAR_CountsTo_uVolts, .-Seat_ADC_SAR_CountsTo_uVolts
 769              		.global	__aeabi_i2f
 770              		.global	__aeabi_fmul
 771              		.global	__aeabi_fdiv
 772              		.section	.text.Seat_ADC_SAR_CountsTo_Volts,"ax",%progbits
 773              		.align	1
 774              		.global	Seat_ADC_SAR_CountsTo_Volts
 775              		.thumb
 776              		.thumb_func
 777              		.type	Seat_ADC_SAR_CountsTo_Volts, %function
 778              	Seat_ADC_SAR_CountsTo_Volts:
 779              	.LFB17:
 809:Generated_Source\PSoC5/Seat_ADC_SAR.c **** 
 810:Generated_Source\PSoC5/Seat_ADC_SAR.c **** 
 811:Generated_Source\PSoC5/Seat_ADC_SAR.c **** /*******************************************************************************
 812:Generated_Source\PSoC5/Seat_ADC_SAR.c **** * Function Name: Seat_ADC_SAR_CountsTo_Volts
 813:Generated_Source\PSoC5/Seat_ADC_SAR.c **** ********************************************************************************
 814:Generated_Source\PSoC5/Seat_ADC_SAR.c **** *
 815:Generated_Source\PSoC5/Seat_ADC_SAR.c **** * Summary:
 816:Generated_Source\PSoC5/Seat_ADC_SAR.c **** *  Converts the ADC output to volts as a floating-point number.
 817:Generated_Source\PSoC5/Seat_ADC_SAR.c **** *
ARM GAS  C:\Users\jebush2\AppData\Local\Temp\cc1oDB5a.s 			page 30


 818:Generated_Source\PSoC5/Seat_ADC_SAR.c **** * Parameters:
 819:Generated_Source\PSoC5/Seat_ADC_SAR.c **** *  int16 adcCounts: Result from the ADC conversion
 820:Generated_Source\PSoC5/Seat_ADC_SAR.c **** *
 821:Generated_Source\PSoC5/Seat_ADC_SAR.c **** * Return:
 822:Generated_Source\PSoC5/Seat_ADC_SAR.c **** *  float Result in Volts
 823:Generated_Source\PSoC5/Seat_ADC_SAR.c **** *
 824:Generated_Source\PSoC5/Seat_ADC_SAR.c **** * Global Variables:
 825:Generated_Source\PSoC5/Seat_ADC_SAR.c **** *  Seat_ADC_SAR_offset variable used.
 826:Generated_Source\PSoC5/Seat_ADC_SAR.c **** *  Seat_ADC_SAR_countsPer10Volt used to convert ADC counts to Volts.
 827:Generated_Source\PSoC5/Seat_ADC_SAR.c **** *
 828:Generated_Source\PSoC5/Seat_ADC_SAR.c **** *******************************************************************************/
 829:Generated_Source\PSoC5/Seat_ADC_SAR.c **** float32 Seat_ADC_SAR_CountsTo_Volts(int16 adcCounts)
 830:Generated_Source\PSoC5/Seat_ADC_SAR.c **** {
 780              		.loc 1 830 0
 781              		.cfi_startproc
 782              		@ args = 0, pretend = 0, frame = 0
 783              		@ frame_needed = 0, uses_anonymous_args = 0
 784              	.LVL53:
 831:Generated_Source\PSoC5/Seat_ADC_SAR.c ****     float32 volts;
 832:Generated_Source\PSoC5/Seat_ADC_SAR.c ****     int32 countsPer10Volt;
 833:Generated_Source\PSoC5/Seat_ADC_SAR.c **** 
 834:Generated_Source\PSoC5/Seat_ADC_SAR.c ****     if(Seat_ADC_SAR_countsPerVolt != 0)
 785              		.loc 1 834 0
 786 0000 0E4A     		ldr	r2, .L72
 830:Generated_Source\PSoC5/Seat_ADC_SAR.c ****     float32 volts;
 787              		.loc 1 830 0
 788 0002 38B5     		push	{r3, r4, r5, lr}
 789              		.cfi_def_cfa_offset 16
 790              		.cfi_offset 3, -16
 791              		.cfi_offset 4, -12
 792              		.cfi_offset 5, -8
 793              		.cfi_offset 14, -4
 794              		.loc 1 834 0
 795 0004 1388     		ldrh	r3, [r2]
 796 0006 1BB2     		sxth	r3, r3
 797 0008 23B1     		cbz	r3, .L70
 835:Generated_Source\PSoC5/Seat_ADC_SAR.c ****     {   /* Support obsolete method */
 836:Generated_Source\PSoC5/Seat_ADC_SAR.c ****         countsPer10Volt = (int32)Seat_ADC_SAR_countsPerVolt * 10;
 798              		.loc 1 836 0
 799 000a 1488     		ldrh	r4, [r2]
 800 000c 0A23     		movs	r3, #10
 801 000e 24B2     		sxth	r4, r4
 802 0010 5C43     		muls	r4, r3, r4
 803              	.LVL54:
 804 0012 01E0     		b	.L71
 805              	.LVL55:
 806              	.L70:
 837:Generated_Source\PSoC5/Seat_ADC_SAR.c ****     }
 838:Generated_Source\PSoC5/Seat_ADC_SAR.c ****     else
 839:Generated_Source\PSoC5/Seat_ADC_SAR.c ****     {
 840:Generated_Source\PSoC5/Seat_ADC_SAR.c ****         countsPer10Volt = Seat_ADC_SAR_countsPer10Volt;
 807              		.loc 1 840 0
 808 0014 0A4B     		ldr	r3, .L72+4
 809 0016 1C68     		ldr	r4, [r3]
 810              	.LVL56:
 811              	.L71:
 841:Generated_Source\PSoC5/Seat_ADC_SAR.c ****     }
ARM GAS  C:\Users\jebush2\AppData\Local\Temp\cc1oDB5a.s 			page 31


 842:Generated_Source\PSoC5/Seat_ADC_SAR.c **** 
 843:Generated_Source\PSoC5/Seat_ADC_SAR.c ****     /* Subtract ADC offset */
 844:Generated_Source\PSoC5/Seat_ADC_SAR.c ****     adcCounts -= Seat_ADC_SAR_offset;
 812              		.loc 1 844 0
 813 0018 0A4B     		ldr	r3, .L72+8
 814 001a 1B88     		ldrh	r3, [r3]
 815 001c C01A     		subs	r0, r0, r3
 816              	.LVL57:
 845:Generated_Source\PSoC5/Seat_ADC_SAR.c **** 
 846:Generated_Source\PSoC5/Seat_ADC_SAR.c ****     volts = ((float32)adcCounts * Seat_ADC_SAR_10V_COUNTS) / (float32)countsPer10Volt;
 847:Generated_Source\PSoC5/Seat_ADC_SAR.c **** 
 848:Generated_Source\PSoC5/Seat_ADC_SAR.c ****     return( volts );
 817              		.loc 1 848 0
 818 001e 00B2     		sxth	r0, r0
 819 0020 FFF7FEFF 		bl	__aeabi_i2f
 820              	.LVL58:
 821 0024 0849     		ldr	r1, .L72+12
 822 0026 FFF7FEFF 		bl	__aeabi_fmul
 823              	.LVL59:
 824 002a 0546     		mov	r5, r0
 825 002c 2046     		mov	r0, r4
 826 002e FFF7FEFF 		bl	__aeabi_i2f
 827              	.LVL60:
 828 0032 0146     		mov	r1, r0
 829 0034 2846     		mov	r0, r5
 830 0036 FFF7FEFF 		bl	__aeabi_fdiv
 831              	.LVL61:
 849:Generated_Source\PSoC5/Seat_ADC_SAR.c **** }
 832              		.loc 1 849 0
 833 003a 38BD     		pop	{r3, r4, r5, pc}
 834              	.LVL62:
 835              	.L73:
 836              		.align	2
 837              	.L72:
 838 003c 00000000 		.word	Seat_ADC_SAR_countsPerVolt
 839 0040 00000000 		.word	Seat_ADC_SAR_countsPer10Volt
 840 0044 00000000 		.word	Seat_ADC_SAR_offset
 841 0048 00002041 		.word	1092616192
 842              		.cfi_endproc
 843              	.LFE17:
 844              		.size	Seat_ADC_SAR_CountsTo_Volts, .-Seat_ADC_SAR_CountsTo_Volts
 845              		.comm	Seat_ADC_SAR_shift,2,2
 846              		.comm	Seat_ADC_SAR_countsPer10Volt,4,4
 847              		.comm	Seat_ADC_SAR_countsPerVolt,2,2
 848              		.comm	Seat_ADC_SAR_offset,2,2
 849              		.global	Seat_ADC_SAR_initVar
 850              		.section	.rodata
 851              		.align	1
 852              		.set	.LANCHOR0,. + 0
 853              		.type	CSWTCH.25, %object
 854              		.size	CSWTCH.25, 10
 855              	CSWTCH.25:
 856 0000 0001     		.short	256
 857 0002 0000     		.short	0
 858 0004 0004     		.short	1024
 859 0006 0000     		.short	0
 860 0008 0010     		.short	4096
ARM GAS  C:\Users\jebush2\AppData\Local\Temp\cc1oDB5a.s 			page 32


 861              		.type	CSWTCH.26, %object
 862              		.size	CSWTCH.26, 10
 863              	CSWTCH.26:
 864 000a 8000     		.short	128
 865 000c 0000     		.short	0
 866 000e 0002     		.short	512
 867 0010 0000     		.short	0
 868 0012 0008     		.short	2048
 869              		.bss
 870              		.set	.LANCHOR1,. + 0
 871              		.type	Seat_ADC_SAR_initVar, %object
 872              		.size	Seat_ADC_SAR_initVar, 1
 873              	Seat_ADC_SAR_initVar:
 874 0000 00       		.space	1
 875              		.text
 876              	.Letext0:
 877              		.file 2 "Generated_Source\\PSoC5\\cytypes.h"
 878              		.file 3 "Generated_Source\\PSoC5\\CyLib.h"