ARM GAS  C:\Users\jebush2\AppData\Local\Temp\ccyjodLG.s 			page 1


   1              		.syntax unified
   2              		.cpu cortex-m3
   3              		.fpu softvfp
   4              		.eabi_attribute 20, 1
   5              		.eabi_attribute 21, 1
   6              		.eabi_attribute 23, 3
   7              		.eabi_attribute 24, 1
   8              		.eabi_attribute 25, 1
   9              		.eabi_attribute 26, 1
  10              		.eabi_attribute 30, 4
  11              		.eabi_attribute 34, 1
  12              		.eabi_attribute 18, 4
  13              		.thumb
  14              		.syntax unified
  15              		.file	"Seat_MUX.c"
  16              		.text
  17              	.Ltext0:
  18              		.cfi_sections	.debug_frame
  19              		.section	.text.Seat_MUX_Next,"ax",%progbits
  20              		.align	1
  21              		.global	Seat_MUX_Next
  22              		.thumb
  23              		.thumb_func
  24              		.type	Seat_MUX_Next, %function
  25              	Seat_MUX_Next:
  26              	.LFB3:
  27              		.file 1 "Generated_Source\\PSoC5\\Seat_MUX.c"
   1:Generated_Source\PSoC5/Seat_MUX.c **** /*******************************************************************************
   2:Generated_Source\PSoC5/Seat_MUX.c **** * File Name: Seat_MUX.c
   3:Generated_Source\PSoC5/Seat_MUX.c **** * Version 1.80
   4:Generated_Source\PSoC5/Seat_MUX.c **** *
   5:Generated_Source\PSoC5/Seat_MUX.c **** *  Description:
   6:Generated_Source\PSoC5/Seat_MUX.c **** *    This file contains functions for the AMuxSeq.
   7:Generated_Source\PSoC5/Seat_MUX.c **** *
   8:Generated_Source\PSoC5/Seat_MUX.c **** *   Note:
   9:Generated_Source\PSoC5/Seat_MUX.c **** *
  10:Generated_Source\PSoC5/Seat_MUX.c **** *******************************************************************************
  11:Generated_Source\PSoC5/Seat_MUX.c **** * Copyright 2008-2010, Cypress Semiconductor Corporation.  All rights reserved.
  12:Generated_Source\PSoC5/Seat_MUX.c **** * You may use this file only in accordance with the license, terms, conditions, 
  13:Generated_Source\PSoC5/Seat_MUX.c **** * disclaimers, and limitations in the end user license agreement accompanying 
  14:Generated_Source\PSoC5/Seat_MUX.c **** * the software package with which this file was provided.
  15:Generated_Source\PSoC5/Seat_MUX.c **** ********************************************************************************/
  16:Generated_Source\PSoC5/Seat_MUX.c **** 
  17:Generated_Source\PSoC5/Seat_MUX.c **** #include "Seat_MUX.h"
  18:Generated_Source\PSoC5/Seat_MUX.c **** 
  19:Generated_Source\PSoC5/Seat_MUX.c **** uint8 Seat_MUX_initVar = 0u;
  20:Generated_Source\PSoC5/Seat_MUX.c **** 
  21:Generated_Source\PSoC5/Seat_MUX.c **** 
  22:Generated_Source\PSoC5/Seat_MUX.c **** /*******************************************************************************
  23:Generated_Source\PSoC5/Seat_MUX.c **** * Function Name: Seat_MUX_Start
  24:Generated_Source\PSoC5/Seat_MUX.c **** ********************************************************************************
  25:Generated_Source\PSoC5/Seat_MUX.c **** * Summary:
  26:Generated_Source\PSoC5/Seat_MUX.c **** *  Disconnect all channels. The next time Next is called, channel 0 will be
  27:Generated_Source\PSoC5/Seat_MUX.c **** *  connected.
  28:Generated_Source\PSoC5/Seat_MUX.c **** *
  29:Generated_Source\PSoC5/Seat_MUX.c **** * Parameters:
  30:Generated_Source\PSoC5/Seat_MUX.c **** *  void
ARM GAS  C:\Users\jebush2\AppData\Local\Temp\ccyjodLG.s 			page 2


  31:Generated_Source\PSoC5/Seat_MUX.c **** *
  32:Generated_Source\PSoC5/Seat_MUX.c **** * Return:
  33:Generated_Source\PSoC5/Seat_MUX.c **** *  void
  34:Generated_Source\PSoC5/Seat_MUX.c **** *
  35:Generated_Source\PSoC5/Seat_MUX.c **** *******************************************************************************/
  36:Generated_Source\PSoC5/Seat_MUX.c **** void Seat_MUX_Start(void)
  37:Generated_Source\PSoC5/Seat_MUX.c **** {
  38:Generated_Source\PSoC5/Seat_MUX.c ****     Seat_MUX_DisconnectAll();
  39:Generated_Source\PSoC5/Seat_MUX.c ****     Seat_MUX_initVar = 1u;
  40:Generated_Source\PSoC5/Seat_MUX.c **** }
  41:Generated_Source\PSoC5/Seat_MUX.c **** 
  42:Generated_Source\PSoC5/Seat_MUX.c **** 
  43:Generated_Source\PSoC5/Seat_MUX.c **** /*******************************************************************************
  44:Generated_Source\PSoC5/Seat_MUX.c **** * Function Name: Seat_MUX_Init
  45:Generated_Source\PSoC5/Seat_MUX.c **** ********************************************************************************
  46:Generated_Source\PSoC5/Seat_MUX.c **** * Summary:
  47:Generated_Source\PSoC5/Seat_MUX.c **** *  Disconnect all channels. The next time Next is called, channel 0 will be
  48:Generated_Source\PSoC5/Seat_MUX.c **** *  connected.
  49:Generated_Source\PSoC5/Seat_MUX.c **** *
  50:Generated_Source\PSoC5/Seat_MUX.c **** * Parameters:
  51:Generated_Source\PSoC5/Seat_MUX.c **** *  void
  52:Generated_Source\PSoC5/Seat_MUX.c **** *
  53:Generated_Source\PSoC5/Seat_MUX.c **** * Return:
  54:Generated_Source\PSoC5/Seat_MUX.c **** *  void
  55:Generated_Source\PSoC5/Seat_MUX.c **** *
  56:Generated_Source\PSoC5/Seat_MUX.c **** *******************************************************************************/
  57:Generated_Source\PSoC5/Seat_MUX.c **** void Seat_MUX_Init(void)
  58:Generated_Source\PSoC5/Seat_MUX.c **** {
  59:Generated_Source\PSoC5/Seat_MUX.c ****     Seat_MUX_DisconnectAll();
  60:Generated_Source\PSoC5/Seat_MUX.c **** }
  61:Generated_Source\PSoC5/Seat_MUX.c **** 
  62:Generated_Source\PSoC5/Seat_MUX.c **** 
  63:Generated_Source\PSoC5/Seat_MUX.c **** /*******************************************************************************
  64:Generated_Source\PSoC5/Seat_MUX.c **** * Function Name: Seat_MUX_Stop
  65:Generated_Source\PSoC5/Seat_MUX.c **** ********************************************************************************
  66:Generated_Source\PSoC5/Seat_MUX.c **** * Summary:
  67:Generated_Source\PSoC5/Seat_MUX.c **** *  Disconnect all channels. The next time Next is called, channel 0 will be
  68:Generated_Source\PSoC5/Seat_MUX.c **** *  connected.
  69:Generated_Source\PSoC5/Seat_MUX.c **** *
  70:Generated_Source\PSoC5/Seat_MUX.c **** * Parameters:
  71:Generated_Source\PSoC5/Seat_MUX.c **** *  void
  72:Generated_Source\PSoC5/Seat_MUX.c **** *
  73:Generated_Source\PSoC5/Seat_MUX.c **** * Return:
  74:Generated_Source\PSoC5/Seat_MUX.c **** *  void
  75:Generated_Source\PSoC5/Seat_MUX.c **** *
  76:Generated_Source\PSoC5/Seat_MUX.c **** *******************************************************************************/
  77:Generated_Source\PSoC5/Seat_MUX.c **** void Seat_MUX_Stop(void)
  78:Generated_Source\PSoC5/Seat_MUX.c **** {
  79:Generated_Source\PSoC5/Seat_MUX.c ****     Seat_MUX_DisconnectAll();
  80:Generated_Source\PSoC5/Seat_MUX.c **** }
  81:Generated_Source\PSoC5/Seat_MUX.c **** 
  82:Generated_Source\PSoC5/Seat_MUX.c **** #if (Seat_MUX_MUXTYPE == Seat_MUX_MUX_DIFF)
  83:Generated_Source\PSoC5/Seat_MUX.c **** 
  84:Generated_Source\PSoC5/Seat_MUX.c **** /*******************************************************************************
  85:Generated_Source\PSoC5/Seat_MUX.c **** * Function Name: Seat_MUX_Next
  86:Generated_Source\PSoC5/Seat_MUX.c **** ********************************************************************************
  87:Generated_Source\PSoC5/Seat_MUX.c **** * Summary:
ARM GAS  C:\Users\jebush2\AppData\Local\Temp\ccyjodLG.s 			page 3


  88:Generated_Source\PSoC5/Seat_MUX.c **** *  Disconnects the previous channel and connects the next one in the sequence.
  89:Generated_Source\PSoC5/Seat_MUX.c **** *  When Next is called for the first time after Init, Start, Enable, Stop, or
  90:Generated_Source\PSoC5/Seat_MUX.c **** *  DisconnectAll, it connects channel 0.
  91:Generated_Source\PSoC5/Seat_MUX.c **** *
  92:Generated_Source\PSoC5/Seat_MUX.c **** * Parameters:
  93:Generated_Source\PSoC5/Seat_MUX.c **** *  void
  94:Generated_Source\PSoC5/Seat_MUX.c **** *
  95:Generated_Source\PSoC5/Seat_MUX.c **** * Return:
  96:Generated_Source\PSoC5/Seat_MUX.c **** *  void
  97:Generated_Source\PSoC5/Seat_MUX.c **** *
  98:Generated_Source\PSoC5/Seat_MUX.c **** *******************************************************************************/
  99:Generated_Source\PSoC5/Seat_MUX.c **** void Seat_MUX_Next(void)
 100:Generated_Source\PSoC5/Seat_MUX.c **** {
  28              		.loc 1 100 0
  29              		.cfi_startproc
  30              		@ args = 0, pretend = 0, frame = 0
  31              		@ frame_needed = 0, uses_anonymous_args = 0
  32 0000 08B5     		push	{r3, lr}
  33              		.cfi_def_cfa_offset 8
  34              		.cfi_offset 3, -8
  35              		.cfi_offset 14, -4
 101:Generated_Source\PSoC5/Seat_MUX.c ****     Seat_MUX_CYAMUXSIDE_A_Next();
  36              		.loc 1 101 0
  37 0002 FFF7FEFF 		bl	Seat_MUX_CYAMUXSIDE_A_Next
  38              	.LVL0:
 102:Generated_Source\PSoC5/Seat_MUX.c ****     Seat_MUX_CYAMUXSIDE_B_Next();
 103:Generated_Source\PSoC5/Seat_MUX.c **** }
  39              		.loc 1 103 0
  40 0006 BDE80840 		pop	{r3, lr}
  41              		.cfi_restore 14
  42              		.cfi_restore 3
  43              		.cfi_def_cfa_offset 0
 102:Generated_Source\PSoC5/Seat_MUX.c ****     Seat_MUX_CYAMUXSIDE_B_Next();
  44              		.loc 1 102 0
  45 000a FFF7FEBF 		b	Seat_MUX_CYAMUXSIDE_B_Next
  46              	.LVL1:
  47              		.cfi_endproc
  48              	.LFE3:
  49              		.size	Seat_MUX_Next, .-Seat_MUX_Next
  50              		.section	.text.Seat_MUX_DisconnectAll,"ax",%progbits
  51              		.align	1
  52              		.global	Seat_MUX_DisconnectAll
  53              		.thumb
  54              		.thumb_func
  55              		.type	Seat_MUX_DisconnectAll, %function
  56              	Seat_MUX_DisconnectAll:
  57              	.LFB4:
 104:Generated_Source\PSoC5/Seat_MUX.c **** 
 105:Generated_Source\PSoC5/Seat_MUX.c **** 
 106:Generated_Source\PSoC5/Seat_MUX.c **** /*******************************************************************************
 107:Generated_Source\PSoC5/Seat_MUX.c **** * Function Name: Seat_MUX_DisconnectAll
 108:Generated_Source\PSoC5/Seat_MUX.c **** ********************************************************************************
 109:Generated_Source\PSoC5/Seat_MUX.c **** * Summary:
 110:Generated_Source\PSoC5/Seat_MUX.c **** *  This function disconnects all channels. The next time Next is called, channel
 111:Generated_Source\PSoC5/Seat_MUX.c **** *  0 will be connected.
 112:Generated_Source\PSoC5/Seat_MUX.c **** *
 113:Generated_Source\PSoC5/Seat_MUX.c **** * Parameters:
ARM GAS  C:\Users\jebush2\AppData\Local\Temp\ccyjodLG.s 			page 4


 114:Generated_Source\PSoC5/Seat_MUX.c **** *  void
 115:Generated_Source\PSoC5/Seat_MUX.c **** *
 116:Generated_Source\PSoC5/Seat_MUX.c **** * Return:
 117:Generated_Source\PSoC5/Seat_MUX.c **** *  void
 118:Generated_Source\PSoC5/Seat_MUX.c **** *
 119:Generated_Source\PSoC5/Seat_MUX.c **** *******************************************************************************/
 120:Generated_Source\PSoC5/Seat_MUX.c **** void Seat_MUX_DisconnectAll(void)
 121:Generated_Source\PSoC5/Seat_MUX.c **** {
  58              		.loc 1 121 0
  59              		.cfi_startproc
  60              		@ args = 0, pretend = 0, frame = 0
  61              		@ frame_needed = 0, uses_anonymous_args = 0
  62 0000 08B5     		push	{r3, lr}
  63              		.cfi_def_cfa_offset 8
  64              		.cfi_offset 3, -8
  65              		.cfi_offset 14, -4
 122:Generated_Source\PSoC5/Seat_MUX.c ****     Seat_MUX_CYAMUXSIDE_A_DisconnectAll();
  66              		.loc 1 122 0
  67 0002 FFF7FEFF 		bl	Seat_MUX_CYAMUXSIDE_A_DisconnectAll
  68              	.LVL2:
 123:Generated_Source\PSoC5/Seat_MUX.c ****     Seat_MUX_CYAMUXSIDE_B_DisconnectAll();
 124:Generated_Source\PSoC5/Seat_MUX.c **** }
  69              		.loc 1 124 0
  70 0006 BDE80840 		pop	{r3, lr}
  71              		.cfi_restore 14
  72              		.cfi_restore 3
  73              		.cfi_def_cfa_offset 0
 123:Generated_Source\PSoC5/Seat_MUX.c ****     Seat_MUX_CYAMUXSIDE_B_DisconnectAll();
  74              		.loc 1 123 0
  75 000a FFF7FEBF 		b	Seat_MUX_CYAMUXSIDE_B_DisconnectAll
  76              	.LVL3:
  77              		.cfi_endproc
  78              	.LFE4:
  79              		.size	Seat_MUX_DisconnectAll, .-Seat_MUX_DisconnectAll
  80              		.section	.text.Seat_MUX_Start,"ax",%progbits
  81              		.align	1
  82              		.global	Seat_MUX_Start
  83              		.thumb
  84              		.thumb_func
  85              		.type	Seat_MUX_Start, %function
  86              	Seat_MUX_Start:
  87              	.LFB0:
  37:Generated_Source\PSoC5/Seat_MUX.c ****     Seat_MUX_DisconnectAll();
  88              		.loc 1 37 0
  89              		.cfi_startproc
  90              		@ args = 0, pretend = 0, frame = 0
  91              		@ frame_needed = 0, uses_anonymous_args = 0
  92 0000 08B5     		push	{r3, lr}
  93              		.cfi_def_cfa_offset 8
  94              		.cfi_offset 3, -8
  95              		.cfi_offset 14, -4
  38:Generated_Source\PSoC5/Seat_MUX.c ****     Seat_MUX_initVar = 1u;
  96              		.loc 1 38 0
  97 0002 FFF7FEFF 		bl	Seat_MUX_DisconnectAll
  98              	.LVL4:
  39:Generated_Source\PSoC5/Seat_MUX.c **** }
  99              		.loc 1 39 0
ARM GAS  C:\Users\jebush2\AppData\Local\Temp\ccyjodLG.s 			page 5


 100 0006 024B     		ldr	r3, .L4
 101 0008 0122     		movs	r2, #1
 102 000a 1A70     		strb	r2, [r3]
 103 000c 08BD     		pop	{r3, pc}
 104              	.L5:
 105 000e 00BF     		.align	2
 106              	.L4:
 107 0010 00000000 		.word	.LANCHOR0
 108              		.cfi_endproc
 109              	.LFE0:
 110              		.size	Seat_MUX_Start, .-Seat_MUX_Start
 111              		.section	.text.Seat_MUX_Stop,"ax",%progbits
 112              		.align	1
 113              		.global	Seat_MUX_Stop
 114              		.thumb
 115              		.thumb_func
 116              		.type	Seat_MUX_Stop, %function
 117              	Seat_MUX_Stop:
 118              	.LFB2:
  78:Generated_Source\PSoC5/Seat_MUX.c ****     Seat_MUX_DisconnectAll();
 119              		.loc 1 78 0
 120              		.cfi_startproc
 121              		@ args = 0, pretend = 0, frame = 0
 122              		@ frame_needed = 0, uses_anonymous_args = 0
 123              		@ link register save eliminated.
  79:Generated_Source\PSoC5/Seat_MUX.c **** }
 124              		.loc 1 79 0
 125 0000 FFF7FEBF 		b	Seat_MUX_DisconnectAll
 126              	.LVL5:
 127              		.cfi_endproc
 128              	.LFE2:
 129              		.size	Seat_MUX_Stop, .-Seat_MUX_Stop
 130              		.section	.text.Seat_MUX_Init,"ax",%progbits
 131              		.align	1
 132              		.global	Seat_MUX_Init
 133              		.thumb
 134              		.thumb_func
 135              		.type	Seat_MUX_Init, %function
 136              	Seat_MUX_Init:
 137              	.LFB7:
 138              		.cfi_startproc
 139              		@ args = 0, pretend = 0, frame = 0
 140              		@ frame_needed = 0, uses_anonymous_args = 0
 141              		@ link register save eliminated.
 142 0000 FFF7FEBF 		b	Seat_MUX_DisconnectAll
 143              		.cfi_endproc
 144              	.LFE7:
 145              		.size	Seat_MUX_Init, .-Seat_MUX_Init
 146              		.section	.text.Seat_MUX_GetChannel,"ax",%progbits
 147              		.align	1
 148              		.global	Seat_MUX_GetChannel
 149              		.thumb
 150              		.thumb_func
 151              		.type	Seat_MUX_GetChannel, %function
 152              	Seat_MUX_GetChannel:
 153              	.LFB5:
 125:Generated_Source\PSoC5/Seat_MUX.c **** 
ARM GAS  C:\Users\jebush2\AppData\Local\Temp\ccyjodLG.s 			page 6


 126:Generated_Source\PSoC5/Seat_MUX.c **** 
 127:Generated_Source\PSoC5/Seat_MUX.c **** /*******************************************************************************
 128:Generated_Source\PSoC5/Seat_MUX.c **** * Function Name: Seat_MUX_GetChannel
 129:Generated_Source\PSoC5/Seat_MUX.c **** ********************************************************************************
 130:Generated_Source\PSoC5/Seat_MUX.c **** * Summary:
 131:Generated_Source\PSoC5/Seat_MUX.c **** *  The currently connected channel is retuned. If no channel is connected
 132:Generated_Source\PSoC5/Seat_MUX.c **** *  returns -1.
 133:Generated_Source\PSoC5/Seat_MUX.c **** *
 134:Generated_Source\PSoC5/Seat_MUX.c **** * Parameters:
 135:Generated_Source\PSoC5/Seat_MUX.c **** *  void
 136:Generated_Source\PSoC5/Seat_MUX.c **** *
 137:Generated_Source\PSoC5/Seat_MUX.c **** * Return:
 138:Generated_Source\PSoC5/Seat_MUX.c **** *  The current channel or -1.
 139:Generated_Source\PSoC5/Seat_MUX.c **** *
 140:Generated_Source\PSoC5/Seat_MUX.c **** *******************************************************************************/
 141:Generated_Source\PSoC5/Seat_MUX.c **** int8 Seat_MUX_GetChannel(void)
 142:Generated_Source\PSoC5/Seat_MUX.c **** {
 154              		.loc 1 142 0
 155              		.cfi_startproc
 156              		@ args = 0, pretend = 0, frame = 0
 157              		@ frame_needed = 0, uses_anonymous_args = 0
 158              		@ link register save eliminated.
 143:Generated_Source\PSoC5/Seat_MUX.c ****     return Seat_MUX_CYAMUXSIDE_A_curChannel;
 144:Generated_Source\PSoC5/Seat_MUX.c **** }
 159              		.loc 1 144 0
 160 0000 014B     		ldr	r3, .L9
 161 0002 93F90000 		ldrsb	r0, [r3]
 162 0006 7047     		bx	lr
 163              	.L10:
 164              		.align	2
 165              	.L9:
 166 0008 00000000 		.word	Seat_MUX_CYAMUXSIDE_A_curChannel
 167              		.cfi_endproc
 168              	.LFE5:
 169              		.size	Seat_MUX_GetChannel, .-Seat_MUX_GetChannel
 170              		.global	Seat_MUX_initVar
 171              		.bss
 172              		.set	.LANCHOR0,. + 0
 173              		.type	Seat_MUX_initVar, %object
 174              		.size	Seat_MUX_initVar, 1
 175              	Seat_MUX_initVar:
 176 0000 00       		.space	1
 177              		.text
 178              	.Letext0:
 179              		.file 2 "Generated_Source\\PSoC5\\cytypes.h"
 180              		.file 3 "Generated_Source\\PSoC5\\cyfitter_cfg.h"