ARM GAS  C:\Users\jon\AppData\Local\Temp\ccAGf3wR.s 			page 1


   1              		.syntax unified
   2              		.cpu cortex-m3
   3              		.fpu softvfp
   4              		.eabi_attribute 20, 1
   5              		.eabi_attribute 21, 1
   6              		.eabi_attribute 23, 3
   7              		.eabi_attribute 24, 1
   8              		.eabi_attribute 25, 1
   9              		.eabi_attribute 26, 1
  10              		.eabi_attribute 30, 4
  11              		.eabi_attribute 34, 1
  12              		.eabi_attribute 18, 4
  13              		.thumb
  14              		.syntax unified
  15              		.file	"cyfitter_cfg.c"
  16              		.text
  17              	.Ltext0:
  18              		.cfi_sections	.debug_frame
  19              		.section	.text.SetAnalogRoutingPumps,"ax",%progbits
  20              		.align	1
  21              		.global	SetAnalogRoutingPumps
  22              		.thumb
  23              		.thumb_func
  24              		.type	SetAnalogRoutingPumps, %function
  25              	SetAnalogRoutingPumps:
  26              	.LFB7:
  27              		.file 1 "Generated_Source\\PSoC5\\cyfitter_cfg.c"
   1:Generated_Source\PSoC5/cyfitter_cfg.c **** 
   2:Generated_Source\PSoC5/cyfitter_cfg.c **** /*******************************************************************************
   3:Generated_Source\PSoC5/cyfitter_cfg.c **** * File Name: cyfitter_cfg.c
   4:Generated_Source\PSoC5/cyfitter_cfg.c **** * 
   5:Generated_Source\PSoC5/cyfitter_cfg.c **** * PSoC Creator  4.1 Update 1
   6:Generated_Source\PSoC5/cyfitter_cfg.c **** *
   7:Generated_Source\PSoC5/cyfitter_cfg.c **** * Description:
   8:Generated_Source\PSoC5/cyfitter_cfg.c **** * This file contains device initialization code.
   9:Generated_Source\PSoC5/cyfitter_cfg.c **** * Except for the user defined sections in CyClockStartupError(), this file should not be modified.
  10:Generated_Source\PSoC5/cyfitter_cfg.c **** * This file is automatically generated by PSoC Creator.
  11:Generated_Source\PSoC5/cyfitter_cfg.c **** *
  12:Generated_Source\PSoC5/cyfitter_cfg.c **** ********************************************************************************
  13:Generated_Source\PSoC5/cyfitter_cfg.c **** * Copyright (c) 2007-2017 Cypress Semiconductor.  All rights reserved.
  14:Generated_Source\PSoC5/cyfitter_cfg.c **** * You may use this file only in accordance with the license, terms, conditions, 
  15:Generated_Source\PSoC5/cyfitter_cfg.c **** * disclaimers, and limitations in the end user license agreement accompanying 
  16:Generated_Source\PSoC5/cyfitter_cfg.c **** * the software package with which this file was provided.
  17:Generated_Source\PSoC5/cyfitter_cfg.c **** ********************************************************************************/
  18:Generated_Source\PSoC5/cyfitter_cfg.c **** 
  19:Generated_Source\PSoC5/cyfitter_cfg.c **** #include <string.h>
  20:Generated_Source\PSoC5/cyfitter_cfg.c **** #include "cytypes.h"
  21:Generated_Source\PSoC5/cyfitter_cfg.c **** #include "cydevice_trm.h"
  22:Generated_Source\PSoC5/cyfitter_cfg.c **** #include "cyfitter.h"
  23:Generated_Source\PSoC5/cyfitter_cfg.c **** #include "CyLib.h"
  24:Generated_Source\PSoC5/cyfitter_cfg.c **** #include "cyfitter_cfg.h"
  25:Generated_Source\PSoC5/cyfitter_cfg.c **** #include "cyapicallbacks.h"
  26:Generated_Source\PSoC5/cyfitter_cfg.c **** 
  27:Generated_Source\PSoC5/cyfitter_cfg.c **** #define CY_NEED_CYCLOCKSTARTUPERROR 1
  28:Generated_Source\PSoC5/cyfitter_cfg.c **** 
  29:Generated_Source\PSoC5/cyfitter_cfg.c **** 
  30:Generated_Source\PSoC5/cyfitter_cfg.c **** #if defined(__GNUC__) || defined(__ARMCC_VERSION)
ARM GAS  C:\Users\jon\AppData\Local\Temp\ccAGf3wR.s 			page 2


  31:Generated_Source\PSoC5/cyfitter_cfg.c ****     #define CYPACKED 
  32:Generated_Source\PSoC5/cyfitter_cfg.c ****     #define CYPACKED_ATTR __attribute__ ((packed))
  33:Generated_Source\PSoC5/cyfitter_cfg.c ****     #define CYALIGNED __attribute__ ((aligned))
  34:Generated_Source\PSoC5/cyfitter_cfg.c ****     #define CY_CFG_UNUSED __attribute__ ((unused))
  35:Generated_Source\PSoC5/cyfitter_cfg.c ****     #ifndef CY_CFG_SECTION
  36:Generated_Source\PSoC5/cyfitter_cfg.c ****         #define CY_CFG_SECTION __attribute__ ((section(".psocinit")))
  37:Generated_Source\PSoC5/cyfitter_cfg.c ****     #endif
  38:Generated_Source\PSoC5/cyfitter_cfg.c ****     
  39:Generated_Source\PSoC5/cyfitter_cfg.c ****     #if defined(__ARMCC_VERSION)
  40:Generated_Source\PSoC5/cyfitter_cfg.c ****         #define CY_CFG_MEMORY_BARRIER() __memory_changed()
  41:Generated_Source\PSoC5/cyfitter_cfg.c ****     #else
  42:Generated_Source\PSoC5/cyfitter_cfg.c ****         #define CY_CFG_MEMORY_BARRIER() __sync_synchronize()
  43:Generated_Source\PSoC5/cyfitter_cfg.c ****     #endif
  44:Generated_Source\PSoC5/cyfitter_cfg.c ****     
  45:Generated_Source\PSoC5/cyfitter_cfg.c **** #elif defined(__ICCARM__)
  46:Generated_Source\PSoC5/cyfitter_cfg.c ****     #include <intrinsics.h>
  47:Generated_Source\PSoC5/cyfitter_cfg.c **** 
  48:Generated_Source\PSoC5/cyfitter_cfg.c ****     #define CYPACKED __packed
  49:Generated_Source\PSoC5/cyfitter_cfg.c ****     #define CYPACKED_ATTR 
  50:Generated_Source\PSoC5/cyfitter_cfg.c ****     #define CYALIGNED _Pragma("data_alignment=4")
  51:Generated_Source\PSoC5/cyfitter_cfg.c ****     #define CY_CFG_UNUSED _Pragma("diag_suppress=Pe177")
  52:Generated_Source\PSoC5/cyfitter_cfg.c ****     #define CY_CFG_SECTION _Pragma("location=\".psocinit\"")
  53:Generated_Source\PSoC5/cyfitter_cfg.c ****     
  54:Generated_Source\PSoC5/cyfitter_cfg.c ****     #define CY_CFG_MEMORY_BARRIER() __DMB()
  55:Generated_Source\PSoC5/cyfitter_cfg.c ****     
  56:Generated_Source\PSoC5/cyfitter_cfg.c **** #else
  57:Generated_Source\PSoC5/cyfitter_cfg.c ****     #error Unsupported toolchain
  58:Generated_Source\PSoC5/cyfitter_cfg.c **** #endif
  59:Generated_Source\PSoC5/cyfitter_cfg.c **** 
  60:Generated_Source\PSoC5/cyfitter_cfg.c **** #ifndef CYCODE
  61:Generated_Source\PSoC5/cyfitter_cfg.c ****     #define CYCODE
  62:Generated_Source\PSoC5/cyfitter_cfg.c **** #endif
  63:Generated_Source\PSoC5/cyfitter_cfg.c **** #ifndef CYDATA
  64:Generated_Source\PSoC5/cyfitter_cfg.c ****     #define CYDATA
  65:Generated_Source\PSoC5/cyfitter_cfg.c **** #endif
  66:Generated_Source\PSoC5/cyfitter_cfg.c **** #ifndef CYFAR
  67:Generated_Source\PSoC5/cyfitter_cfg.c ****     #define CYFAR
  68:Generated_Source\PSoC5/cyfitter_cfg.c **** #endif
  69:Generated_Source\PSoC5/cyfitter_cfg.c **** #ifndef CYXDATA
  70:Generated_Source\PSoC5/cyfitter_cfg.c ****     #define CYXDATA
  71:Generated_Source\PSoC5/cyfitter_cfg.c **** #endif
  72:Generated_Source\PSoC5/cyfitter_cfg.c **** 
  73:Generated_Source\PSoC5/cyfitter_cfg.c **** 
  74:Generated_Source\PSoC5/cyfitter_cfg.c **** CY_CFG_UNUSED
  75:Generated_Source\PSoC5/cyfitter_cfg.c **** static void CYMEMZERO(void *s, size_t n);
  76:Generated_Source\PSoC5/cyfitter_cfg.c **** CY_CFG_UNUSED
  77:Generated_Source\PSoC5/cyfitter_cfg.c **** static void CYMEMZERO(void *s, size_t n)
  78:Generated_Source\PSoC5/cyfitter_cfg.c **** {
  79:Generated_Source\PSoC5/cyfitter_cfg.c **** 	(void)memset(s, 0, n);
  80:Generated_Source\PSoC5/cyfitter_cfg.c **** }
  81:Generated_Source\PSoC5/cyfitter_cfg.c **** CY_CFG_UNUSED
  82:Generated_Source\PSoC5/cyfitter_cfg.c **** static void CYCONFIGCPY(void *dest, const void *src, size_t n);
  83:Generated_Source\PSoC5/cyfitter_cfg.c **** CY_CFG_UNUSED
  84:Generated_Source\PSoC5/cyfitter_cfg.c **** static void CYCONFIGCPY(void *dest, const void *src, size_t n)
  85:Generated_Source\PSoC5/cyfitter_cfg.c **** {
  86:Generated_Source\PSoC5/cyfitter_cfg.c **** 	(void)memcpy(dest, src, n);
  87:Generated_Source\PSoC5/cyfitter_cfg.c **** }
ARM GAS  C:\Users\jon\AppData\Local\Temp\ccAGf3wR.s 			page 3


  88:Generated_Source\PSoC5/cyfitter_cfg.c **** CY_CFG_UNUSED
  89:Generated_Source\PSoC5/cyfitter_cfg.c **** static void CYCONFIGCPYCODE(void *dest, const void *src, size_t n);
  90:Generated_Source\PSoC5/cyfitter_cfg.c **** CY_CFG_UNUSED
  91:Generated_Source\PSoC5/cyfitter_cfg.c **** static void CYCONFIGCPYCODE(void *dest, const void *src, size_t n)
  92:Generated_Source\PSoC5/cyfitter_cfg.c **** {
  93:Generated_Source\PSoC5/cyfitter_cfg.c **** 	(void)memcpy(dest, src, n);
  94:Generated_Source\PSoC5/cyfitter_cfg.c **** }
  95:Generated_Source\PSoC5/cyfitter_cfg.c **** 
  96:Generated_Source\PSoC5/cyfitter_cfg.c **** 
  97:Generated_Source\PSoC5/cyfitter_cfg.c **** 
  98:Generated_Source\PSoC5/cyfitter_cfg.c **** 
  99:Generated_Source\PSoC5/cyfitter_cfg.c **** /* Clock startup error codes                                                   */
 100:Generated_Source\PSoC5/cyfitter_cfg.c **** #define CYCLOCKSTART_NO_ERROR    0u
 101:Generated_Source\PSoC5/cyfitter_cfg.c **** #define CYCLOCKSTART_XTAL_ERROR  1u
 102:Generated_Source\PSoC5/cyfitter_cfg.c **** #define CYCLOCKSTART_32KHZ_ERROR 2u
 103:Generated_Source\PSoC5/cyfitter_cfg.c **** #define CYCLOCKSTART_PLL_ERROR   3u
 104:Generated_Source\PSoC5/cyfitter_cfg.c **** #define CYCLOCKSTART_FLL_ERROR   4u
 105:Generated_Source\PSoC5/cyfitter_cfg.c **** 
 106:Generated_Source\PSoC5/cyfitter_cfg.c **** 
 107:Generated_Source\PSoC5/cyfitter_cfg.c **** #ifdef CY_NEED_CYCLOCKSTARTUPERROR
 108:Generated_Source\PSoC5/cyfitter_cfg.c **** /*******************************************************************************
 109:Generated_Source\PSoC5/cyfitter_cfg.c **** * Function Name: CyClockStartupError
 110:Generated_Source\PSoC5/cyfitter_cfg.c **** ********************************************************************************
 111:Generated_Source\PSoC5/cyfitter_cfg.c **** * Summary:
 112:Generated_Source\PSoC5/cyfitter_cfg.c **** *  If an error is encountered during clock configuration (crystal startup error,
 113:Generated_Source\PSoC5/cyfitter_cfg.c **** *  PLL lock error, etc.), the system will end up here.  Unless reimplemented by
 114:Generated_Source\PSoC5/cyfitter_cfg.c **** *  the customer, this function will stop in an infinite loop.
 115:Generated_Source\PSoC5/cyfitter_cfg.c **** *
 116:Generated_Source\PSoC5/cyfitter_cfg.c **** * Parameters:
 117:Generated_Source\PSoC5/cyfitter_cfg.c **** *   void
 118:Generated_Source\PSoC5/cyfitter_cfg.c **** *
 119:Generated_Source\PSoC5/cyfitter_cfg.c **** * Return:
 120:Generated_Source\PSoC5/cyfitter_cfg.c **** *   void
 121:Generated_Source\PSoC5/cyfitter_cfg.c **** *
 122:Generated_Source\PSoC5/cyfitter_cfg.c **** *******************************************************************************/
 123:Generated_Source\PSoC5/cyfitter_cfg.c **** CY_CFG_UNUSED
 124:Generated_Source\PSoC5/cyfitter_cfg.c **** static void CyClockStartupError(uint8 errorCode);
 125:Generated_Source\PSoC5/cyfitter_cfg.c **** CY_CFG_UNUSED
 126:Generated_Source\PSoC5/cyfitter_cfg.c **** static void CyClockStartupError(uint8 errorCode)
 127:Generated_Source\PSoC5/cyfitter_cfg.c **** {
 128:Generated_Source\PSoC5/cyfitter_cfg.c ****     /* To remove the compiler warning if errorCode not used. */
 129:Generated_Source\PSoC5/cyfitter_cfg.c **** #if defined(CY_PSOC3) && (CY_PSOC3)
 130:Generated_Source\PSoC5/cyfitter_cfg.c ****     errorCode = errorCode;
 131:Generated_Source\PSoC5/cyfitter_cfg.c **** #else
 132:Generated_Source\PSoC5/cyfitter_cfg.c ****     (void)errorCode;
 133:Generated_Source\PSoC5/cyfitter_cfg.c **** #endif /* CY_PSOC3 */
 134:Generated_Source\PSoC5/cyfitter_cfg.c **** 
 135:Generated_Source\PSoC5/cyfitter_cfg.c ****     /* If we have a clock startup error (bad MHz crystal, PLL lock, etc.),  */
 136:Generated_Source\PSoC5/cyfitter_cfg.c ****     /* we will end up here to allow the customer to implement something to  */
 137:Generated_Source\PSoC5/cyfitter_cfg.c ****     /* deal with the clock condition.                                       */
 138:Generated_Source\PSoC5/cyfitter_cfg.c **** 
 139:Generated_Source\PSoC5/cyfitter_cfg.c **** #ifdef CY_CFG_CLOCK_STARTUP_ERROR_CALLBACK
 140:Generated_Source\PSoC5/cyfitter_cfg.c ****     CY_CFG_Clock_Startup_ErrorCallback();
 141:Generated_Source\PSoC5/cyfitter_cfg.c **** #else
 142:Generated_Source\PSoC5/cyfitter_cfg.c ****     /*  If not using CY_CFG_CLOCK_STARTUP_ERROR_CALLBACK, place your clock startup code here. */
 143:Generated_Source\PSoC5/cyfitter_cfg.c ****     /* `#START CyClockStartupError` */
 144:Generated_Source\PSoC5/cyfitter_cfg.c **** 
ARM GAS  C:\Users\jon\AppData\Local\Temp\ccAGf3wR.s 			page 4


 145:Generated_Source\PSoC5/cyfitter_cfg.c **** 
 146:Generated_Source\PSoC5/cyfitter_cfg.c **** 
 147:Generated_Source\PSoC5/cyfitter_cfg.c ****     /* `#END` */
 148:Generated_Source\PSoC5/cyfitter_cfg.c **** 
 149:Generated_Source\PSoC5/cyfitter_cfg.c ****     while(1) {}
 150:Generated_Source\PSoC5/cyfitter_cfg.c **** #endif /* CY_CFG_CLOCK_STARTUP_ERROR_CALLBACK */
 151:Generated_Source\PSoC5/cyfitter_cfg.c **** }
 152:Generated_Source\PSoC5/cyfitter_cfg.c **** #endif
 153:Generated_Source\PSoC5/cyfitter_cfg.c **** 
 154:Generated_Source\PSoC5/cyfitter_cfg.c **** #define CY_CFG_BASE_ADDR_COUNT 22u
 155:Generated_Source\PSoC5/cyfitter_cfg.c **** CYPACKED typedef struct
 156:Generated_Source\PSoC5/cyfitter_cfg.c **** {
 157:Generated_Source\PSoC5/cyfitter_cfg.c **** 	uint8 offset;
 158:Generated_Source\PSoC5/cyfitter_cfg.c **** 	uint8 value;
 159:Generated_Source\PSoC5/cyfitter_cfg.c **** } CYPACKED_ATTR cy_cfg_addrvalue_t;
 160:Generated_Source\PSoC5/cyfitter_cfg.c **** 
 161:Generated_Source\PSoC5/cyfitter_cfg.c **** #define cy_cfg_addr_table ((const uint32 CYFAR *)0x48000000u)
 162:Generated_Source\PSoC5/cyfitter_cfg.c **** #define cy_cfg_data_table ((const cy_cfg_addrvalue_t CYFAR *)0x48000058u)
 163:Generated_Source\PSoC5/cyfitter_cfg.c **** 
 164:Generated_Source\PSoC5/cyfitter_cfg.c **** /* IOPINS0_0 Address: CYREG_PRT0_DM0 Size (bytes): 8 */
 165:Generated_Source\PSoC5/cyfitter_cfg.c **** #define BS_IOPINS0_0_VAL ((const uint8 CYFAR *)0x480000E0u)
 166:Generated_Source\PSoC5/cyfitter_cfg.c **** 
 167:Generated_Source\PSoC5/cyfitter_cfg.c **** /* IOPINS0_8 Address: CYREG_PRT15_DR Size (bytes): 10 */
 168:Generated_Source\PSoC5/cyfitter_cfg.c **** #define BS_IOPINS0_8_VAL ((const uint8 CYFAR *)0x480000E8u)
 169:Generated_Source\PSoC5/cyfitter_cfg.c **** 
 170:Generated_Source\PSoC5/cyfitter_cfg.c **** /* IOPINS0_1 Address: CYREG_PRT1_DM0 Size (bytes): 8 */
 171:Generated_Source\PSoC5/cyfitter_cfg.c **** #define BS_IOPINS0_1_VAL ((const uint8 CYFAR *)0x480000F4u)
 172:Generated_Source\PSoC5/cyfitter_cfg.c **** 
 173:Generated_Source\PSoC5/cyfitter_cfg.c **** 
 174:Generated_Source\PSoC5/cyfitter_cfg.c **** /*******************************************************************************
 175:Generated_Source\PSoC5/cyfitter_cfg.c **** * Function Name: cfg_write_bytes32
 176:Generated_Source\PSoC5/cyfitter_cfg.c **** ********************************************************************************
 177:Generated_Source\PSoC5/cyfitter_cfg.c **** * Summary:
 178:Generated_Source\PSoC5/cyfitter_cfg.c **** *  This function is used for setting up the chip configuration areas that
 179:Generated_Source\PSoC5/cyfitter_cfg.c **** *  contain relatively sparse data.
 180:Generated_Source\PSoC5/cyfitter_cfg.c **** *
 181:Generated_Source\PSoC5/cyfitter_cfg.c **** * Parameters:
 182:Generated_Source\PSoC5/cyfitter_cfg.c **** *   void
 183:Generated_Source\PSoC5/cyfitter_cfg.c **** *
 184:Generated_Source\PSoC5/cyfitter_cfg.c **** * Return:
 185:Generated_Source\PSoC5/cyfitter_cfg.c **** *   void
 186:Generated_Source\PSoC5/cyfitter_cfg.c **** *
 187:Generated_Source\PSoC5/cyfitter_cfg.c **** *******************************************************************************/
 188:Generated_Source\PSoC5/cyfitter_cfg.c **** static void cfg_write_bytes32(const uint32 addr_table[], const cy_cfg_addrvalue_t data_table[]);
 189:Generated_Source\PSoC5/cyfitter_cfg.c **** static void cfg_write_bytes32(const uint32 addr_table[], const cy_cfg_addrvalue_t data_table[])
 190:Generated_Source\PSoC5/cyfitter_cfg.c **** {
 191:Generated_Source\PSoC5/cyfitter_cfg.c **** 	/* For 32-bit little-endian architectures */
 192:Generated_Source\PSoC5/cyfitter_cfg.c **** 	uint32 i, j = 0u;
 193:Generated_Source\PSoC5/cyfitter_cfg.c **** 	for (i = 0u; i < CY_CFG_BASE_ADDR_COUNT; i++)
 194:Generated_Source\PSoC5/cyfitter_cfg.c **** 	{
 195:Generated_Source\PSoC5/cyfitter_cfg.c **** 		uint32 baseAddr = addr_table[i];
 196:Generated_Source\PSoC5/cyfitter_cfg.c **** 		uint8 count = (uint8)baseAddr;
 197:Generated_Source\PSoC5/cyfitter_cfg.c **** 		baseAddr &= 0xFFFFFF00u;
 198:Generated_Source\PSoC5/cyfitter_cfg.c **** 		while (count != 0u)
 199:Generated_Source\PSoC5/cyfitter_cfg.c **** 		{
 200:Generated_Source\PSoC5/cyfitter_cfg.c **** 			CY_SET_REG8((void *)(baseAddr + data_table[j].offset), data_table[j].value);
 201:Generated_Source\PSoC5/cyfitter_cfg.c **** 			j++;
ARM GAS  C:\Users\jon\AppData\Local\Temp\ccAGf3wR.s 			page 5


 202:Generated_Source\PSoC5/cyfitter_cfg.c **** 			count--;
 203:Generated_Source\PSoC5/cyfitter_cfg.c **** 		}
 204:Generated_Source\PSoC5/cyfitter_cfg.c **** 	}
 205:Generated_Source\PSoC5/cyfitter_cfg.c **** }
 206:Generated_Source\PSoC5/cyfitter_cfg.c **** 
 207:Generated_Source\PSoC5/cyfitter_cfg.c **** /*******************************************************************************
 208:Generated_Source\PSoC5/cyfitter_cfg.c **** * Function Name: ClockSetup
 209:Generated_Source\PSoC5/cyfitter_cfg.c **** ********************************************************************************
 210:Generated_Source\PSoC5/cyfitter_cfg.c **** *
 211:Generated_Source\PSoC5/cyfitter_cfg.c **** * Summary:
 212:Generated_Source\PSoC5/cyfitter_cfg.c **** *  Performs the initialization of all of the clocks in the device based on the
 213:Generated_Source\PSoC5/cyfitter_cfg.c **** *  settings in the Clock tab of the DWR.  This includes enabling the requested
 214:Generated_Source\PSoC5/cyfitter_cfg.c **** *  clocks and setting the necessary dividers to produce the desired frequency. 
 215:Generated_Source\PSoC5/cyfitter_cfg.c **** *
 216:Generated_Source\PSoC5/cyfitter_cfg.c **** * Parameters:
 217:Generated_Source\PSoC5/cyfitter_cfg.c **** *  void
 218:Generated_Source\PSoC5/cyfitter_cfg.c **** *
 219:Generated_Source\PSoC5/cyfitter_cfg.c **** * Return:
 220:Generated_Source\PSoC5/cyfitter_cfg.c **** *  void
 221:Generated_Source\PSoC5/cyfitter_cfg.c **** *
 222:Generated_Source\PSoC5/cyfitter_cfg.c **** *******************************************************************************/
 223:Generated_Source\PSoC5/cyfitter_cfg.c **** static void ClockSetup(void);
 224:Generated_Source\PSoC5/cyfitter_cfg.c **** static void ClockSetup(void)
 225:Generated_Source\PSoC5/cyfitter_cfg.c **** {
 226:Generated_Source\PSoC5/cyfitter_cfg.c **** 	uint32 timeout;
 227:Generated_Source\PSoC5/cyfitter_cfg.c **** 	uint8 pllLock;
 228:Generated_Source\PSoC5/cyfitter_cfg.c **** 
 229:Generated_Source\PSoC5/cyfitter_cfg.c **** 
 230:Generated_Source\PSoC5/cyfitter_cfg.c **** 	/* Configure Digital Clocks based on settings from Clock DWR */
 231:Generated_Source\PSoC5/cyfitter_cfg.c **** 	CY_SET_XTND_REG16((void CYFAR *)(CYREG_CLKDIST_DCFG0_CFG0), 0x0001u);
 232:Generated_Source\PSoC5/cyfitter_cfg.c **** 	CY_SET_XTND_REG8((void CYFAR *)(CYREG_CLKDIST_DCFG0_CFG0 + 0x2u), 0x18u);
 233:Generated_Source\PSoC5/cyfitter_cfg.c **** 	CY_SET_XTND_REG16((void CYFAR *)(CYREG_CLKDIST_DCFG1_CFG0), 0x5DBFu);
 234:Generated_Source\PSoC5/cyfitter_cfg.c **** 	CY_SET_XTND_REG8((void CYFAR *)(CYREG_CLKDIST_DCFG1_CFG0 + 0x2u), 0x18u);
 235:Generated_Source\PSoC5/cyfitter_cfg.c **** 
 236:Generated_Source\PSoC5/cyfitter_cfg.c **** 	/* Configure ILO based on settings from Clock DWR */
 237:Generated_Source\PSoC5/cyfitter_cfg.c **** 	CY_SET_XTND_REG8((void CYFAR *)(CYREG_SLOWCLK_ILO_CR0), 0x06u);
 238:Generated_Source\PSoC5/cyfitter_cfg.c **** 
 239:Generated_Source\PSoC5/cyfitter_cfg.c **** 	/* Configure IMO based on settings from Clock DWR */
 240:Generated_Source\PSoC5/cyfitter_cfg.c **** 	CY_SET_XTND_REG8((void CYFAR *)(CYREG_FASTCLK_IMO_CR), 0x52u);
 241:Generated_Source\PSoC5/cyfitter_cfg.c **** 	CY_SET_XTND_REG8((void CYFAR *)(CYREG_IMO_TR1), (CY_GET_XTND_REG8((void CYFAR *)CYREG_FLSHID_CUST_
 242:Generated_Source\PSoC5/cyfitter_cfg.c **** 
 243:Generated_Source\PSoC5/cyfitter_cfg.c **** 	/* Configure PLL based on settings from Clock DWR */
 244:Generated_Source\PSoC5/cyfitter_cfg.c **** 	CY_SET_XTND_REG16((void CYFAR *)(CYREG_FASTCLK_PLL_P), 0x0708u);
 245:Generated_Source\PSoC5/cyfitter_cfg.c **** 	CY_SET_XTND_REG16((void CYFAR *)(CYREG_FASTCLK_PLL_CFG0), 0x1251u);
 246:Generated_Source\PSoC5/cyfitter_cfg.c **** 	/* Wait up to 250us for the PLL to lock */
 247:Generated_Source\PSoC5/cyfitter_cfg.c **** 	pllLock = 0u;
 248:Generated_Source\PSoC5/cyfitter_cfg.c **** 	for (timeout = 250u / 10u; (timeout > 0u) && (pllLock != 0x03u); timeout--)
 249:Generated_Source\PSoC5/cyfitter_cfg.c **** 	{ 
 250:Generated_Source\PSoC5/cyfitter_cfg.c **** 		pllLock = 0x03u & ((uint8)((uint8)pllLock << 1) | ((CY_GET_XTND_REG8((void CYFAR *)CYREG_FASTCLK_
 251:Generated_Source\PSoC5/cyfitter_cfg.c **** 		CyDelayCycles(10u * 48u); /* Delay 10us based on 48MHz clock */
 252:Generated_Source\PSoC5/cyfitter_cfg.c **** 	}
 253:Generated_Source\PSoC5/cyfitter_cfg.c **** 	/* If we ran out of time the PLL didn't lock so go to the error function */
 254:Generated_Source\PSoC5/cyfitter_cfg.c **** 	if (timeout == 0u)
 255:Generated_Source\PSoC5/cyfitter_cfg.c **** 	{
 256:Generated_Source\PSoC5/cyfitter_cfg.c **** 		CyClockStartupError(CYCLOCKSTART_PLL_ERROR);
 257:Generated_Source\PSoC5/cyfitter_cfg.c **** 	}
 258:Generated_Source\PSoC5/cyfitter_cfg.c **** 
ARM GAS  C:\Users\jon\AppData\Local\Temp\ccAGf3wR.s 			page 6


 259:Generated_Source\PSoC5/cyfitter_cfg.c **** 	/* Configure Bus/Master Clock based on settings from Clock DWR */
 260:Generated_Source\PSoC5/cyfitter_cfg.c **** 	CY_SET_XTND_REG16((void CYFAR *)(CYREG_CLKDIST_MSTR0), 0x0100u);
 261:Generated_Source\PSoC5/cyfitter_cfg.c **** 	CY_SET_XTND_REG8((void CYFAR *)(CYREG_CLKDIST_MSTR0), 0x07u);
 262:Generated_Source\PSoC5/cyfitter_cfg.c **** 	CY_SET_XTND_REG8((void CYFAR *)(CYREG_CLKDIST_BCFG0), 0x00u);
 263:Generated_Source\PSoC5/cyfitter_cfg.c **** 	CY_SET_XTND_REG8((void CYFAR *)(CYREG_CLKDIST_BCFG2), 0x48u);
 264:Generated_Source\PSoC5/cyfitter_cfg.c **** 	CY_SET_XTND_REG8((void CYFAR *)(CYREG_CLKDIST_MSTR0), 0x00u);
 265:Generated_Source\PSoC5/cyfitter_cfg.c **** 
 266:Generated_Source\PSoC5/cyfitter_cfg.c **** 	/* Configure USB Clock based on settings from Clock DWR */
 267:Generated_Source\PSoC5/cyfitter_cfg.c **** 	CY_SET_XTND_REG8((void CYFAR *)(CYREG_CLKDIST_UCFG), 0x00u);
 268:Generated_Source\PSoC5/cyfitter_cfg.c **** 	CY_SET_XTND_REG8((void CYFAR *)(CYREG_CLKDIST_LD), 0x02u);
 269:Generated_Source\PSoC5/cyfitter_cfg.c **** 
 270:Generated_Source\PSoC5/cyfitter_cfg.c **** 	CY_SET_XTND_REG8((void CYFAR *)(CYREG_PM_ACT_CFG2), ((CY_GET_XTND_REG8((void CYFAR *)CYREG_PM_ACT_
 271:Generated_Source\PSoC5/cyfitter_cfg.c **** }
 272:Generated_Source\PSoC5/cyfitter_cfg.c **** 
 273:Generated_Source\PSoC5/cyfitter_cfg.c **** 
 274:Generated_Source\PSoC5/cyfitter_cfg.c **** /* Analog API Functions */
 275:Generated_Source\PSoC5/cyfitter_cfg.c **** 
 276:Generated_Source\PSoC5/cyfitter_cfg.c **** 
 277:Generated_Source\PSoC5/cyfitter_cfg.c **** /*******************************************************************************
 278:Generated_Source\PSoC5/cyfitter_cfg.c **** * Function Name: AnalogSetDefault
 279:Generated_Source\PSoC5/cyfitter_cfg.c **** ********************************************************************************
 280:Generated_Source\PSoC5/cyfitter_cfg.c **** *
 281:Generated_Source\PSoC5/cyfitter_cfg.c **** * Summary:
 282:Generated_Source\PSoC5/cyfitter_cfg.c **** *  Sets up the analog portions of the chip to default values based on chip
 283:Generated_Source\PSoC5/cyfitter_cfg.c **** *  configuration options from the project.
 284:Generated_Source\PSoC5/cyfitter_cfg.c **** *
 285:Generated_Source\PSoC5/cyfitter_cfg.c **** * Parameters:
 286:Generated_Source\PSoC5/cyfitter_cfg.c **** *  void
 287:Generated_Source\PSoC5/cyfitter_cfg.c **** *
 288:Generated_Source\PSoC5/cyfitter_cfg.c **** * Return:
 289:Generated_Source\PSoC5/cyfitter_cfg.c **** *  void
 290:Generated_Source\PSoC5/cyfitter_cfg.c **** *
 291:Generated_Source\PSoC5/cyfitter_cfg.c **** *******************************************************************************/
 292:Generated_Source\PSoC5/cyfitter_cfg.c **** static void AnalogSetDefault(void);
 293:Generated_Source\PSoC5/cyfitter_cfg.c **** static void AnalogSetDefault(void)
 294:Generated_Source\PSoC5/cyfitter_cfg.c **** {
 295:Generated_Source\PSoC5/cyfitter_cfg.c **** 	uint8 bg_xover_inl_trim = CY_GET_XTND_REG8((void CYFAR *)(CYREG_FLSHID_MFG_CFG_BG_XOVER_INL_TRIM +
 296:Generated_Source\PSoC5/cyfitter_cfg.c **** 	CY_SET_XTND_REG8((void CYFAR *)(CYREG_BG_DFT0), (bg_xover_inl_trim & 0x07u));
 297:Generated_Source\PSoC5/cyfitter_cfg.c **** 	CY_SET_XTND_REG8((void CYFAR *)(CYREG_BG_DFT1), ((bg_xover_inl_trim >> 4) & 0x0Fu));
 298:Generated_Source\PSoC5/cyfitter_cfg.c **** 	CY_SET_XTND_REG8((void CYFAR *)CYREG_PUMP_CR0, 0x44u);
 299:Generated_Source\PSoC5/cyfitter_cfg.c **** }
 300:Generated_Source\PSoC5/cyfitter_cfg.c **** 
 301:Generated_Source\PSoC5/cyfitter_cfg.c **** 
 302:Generated_Source\PSoC5/cyfitter_cfg.c **** /*******************************************************************************
 303:Generated_Source\PSoC5/cyfitter_cfg.c **** * Function Name: SetAnalogRoutingPumps
 304:Generated_Source\PSoC5/cyfitter_cfg.c **** ********************************************************************************
 305:Generated_Source\PSoC5/cyfitter_cfg.c **** *
 306:Generated_Source\PSoC5/cyfitter_cfg.c **** * Summary:
 307:Generated_Source\PSoC5/cyfitter_cfg.c **** * Enables or disables the analog pumps feeding analog routing switches.
 308:Generated_Source\PSoC5/cyfitter_cfg.c **** * Intended to be called at startup, based on the Vdda system configuration;
 309:Generated_Source\PSoC5/cyfitter_cfg.c **** * may be called during operation when the user informs us that the Vdda voltage
 310:Generated_Source\PSoC5/cyfitter_cfg.c **** * crossed the pump threshold.
 311:Generated_Source\PSoC5/cyfitter_cfg.c **** *
 312:Generated_Source\PSoC5/cyfitter_cfg.c **** * Parameters:
 313:Generated_Source\PSoC5/cyfitter_cfg.c **** *  enabled - 1 to enable the pumps, 0 to disable the pumps
 314:Generated_Source\PSoC5/cyfitter_cfg.c **** *
 315:Generated_Source\PSoC5/cyfitter_cfg.c **** * Return:
ARM GAS  C:\Users\jon\AppData\Local\Temp\ccAGf3wR.s 			page 7


 316:Generated_Source\PSoC5/cyfitter_cfg.c **** *  void
 317:Generated_Source\PSoC5/cyfitter_cfg.c **** *
 318:Generated_Source\PSoC5/cyfitter_cfg.c **** *******************************************************************************/
 319:Generated_Source\PSoC5/cyfitter_cfg.c **** void SetAnalogRoutingPumps(uint8 enabled)
 320:Generated_Source\PSoC5/cyfitter_cfg.c **** {
  28              		.loc 1 320 0
  29              		.cfi_startproc
  30              		@ args = 0, pretend = 0, frame = 0
  31              		@ frame_needed = 0, uses_anonymous_args = 0
  32              		@ link register save eliminated.
  33              	.LVL0:
 321:Generated_Source\PSoC5/cyfitter_cfg.c **** 	uint8 regValue = CY_GET_XTND_REG8((void CYFAR *)CYREG_PUMP_CR0);
  34              		.loc 1 321 0
  35 0000 024A     		ldr	r2, .L2
  36 0002 1378     		ldrb	r3, [r2]	@ zero_extendqisi2
  37 0004 DBB2     		uxtb	r3, r3
  38              	.LVL1:
 322:Generated_Source\PSoC5/cyfitter_cfg.c **** 	if (enabled != 0u)
 323:Generated_Source\PSoC5/cyfitter_cfg.c **** 	{
 324:Generated_Source\PSoC5/cyfitter_cfg.c **** 		regValue |= 0x00u;
 325:Generated_Source\PSoC5/cyfitter_cfg.c **** 	}
 326:Generated_Source\PSoC5/cyfitter_cfg.c **** 	else
 327:Generated_Source\PSoC5/cyfitter_cfg.c **** 	{
 328:Generated_Source\PSoC5/cyfitter_cfg.c **** 		regValue &= (uint8)~0x00u;
 329:Generated_Source\PSoC5/cyfitter_cfg.c **** 	}
 330:Generated_Source\PSoC5/cyfitter_cfg.c **** 	CY_SET_XTND_REG8((void CYFAR *)CYREG_PUMP_CR0, regValue);
  39              		.loc 1 330 0
  40 0006 1370     		strb	r3, [r2]
  41 0008 7047     		bx	lr
  42              	.L3:
  43 000a 00BF     		.align	2
  44              	.L2:
  45 000c 76580040 		.word	1073764470
  46              		.cfi_endproc
  47              	.LFE7:
  48              		.size	SetAnalogRoutingPumps, .-SetAnalogRoutingPumps
  49              		.section	.text.cyfitter_cfg,"ax",%progbits
  50              		.align	1
  51              		.global	cyfitter_cfg
  52              		.thumb
  53              		.thumb_func
  54              		.type	cyfitter_cfg, %function
  55              	cyfitter_cfg:
  56              	.LFB8:
 331:Generated_Source\PSoC5/cyfitter_cfg.c **** }
 332:Generated_Source\PSoC5/cyfitter_cfg.c **** 
 333:Generated_Source\PSoC5/cyfitter_cfg.c **** 
 334:Generated_Source\PSoC5/cyfitter_cfg.c **** 
 335:Generated_Source\PSoC5/cyfitter_cfg.c **** 
 336:Generated_Source\PSoC5/cyfitter_cfg.c **** /*******************************************************************************
 337:Generated_Source\PSoC5/cyfitter_cfg.c **** * Function Name: cyfitter_cfg
 338:Generated_Source\PSoC5/cyfitter_cfg.c **** ********************************************************************************
 339:Generated_Source\PSoC5/cyfitter_cfg.c **** * Summary:
 340:Generated_Source\PSoC5/cyfitter_cfg.c **** *  This function is called by the start-up code for the selected device. It
 341:Generated_Source\PSoC5/cyfitter_cfg.c **** *  performs all of the necessary device configuration based on the design
 342:Generated_Source\PSoC5/cyfitter_cfg.c **** *  settings.  This includes settings from the Design Wide Resources (DWR) such
 343:Generated_Source\PSoC5/cyfitter_cfg.c **** *  as Clocks and Pins as well as any component configuration that is necessary.
ARM GAS  C:\Users\jon\AppData\Local\Temp\ccAGf3wR.s 			page 8


 344:Generated_Source\PSoC5/cyfitter_cfg.c **** *
 345:Generated_Source\PSoC5/cyfitter_cfg.c **** * Parameters:
 346:Generated_Source\PSoC5/cyfitter_cfg.c **** *   void
 347:Generated_Source\PSoC5/cyfitter_cfg.c **** *
 348:Generated_Source\PSoC5/cyfitter_cfg.c **** * Return:
 349:Generated_Source\PSoC5/cyfitter_cfg.c **** *   void
 350:Generated_Source\PSoC5/cyfitter_cfg.c **** *
 351:Generated_Source\PSoC5/cyfitter_cfg.c **** *******************************************************************************/
 352:Generated_Source\PSoC5/cyfitter_cfg.c **** 
 353:Generated_Source\PSoC5/cyfitter_cfg.c **** void cyfitter_cfg(void)
 354:Generated_Source\PSoC5/cyfitter_cfg.c **** {
  57              		.loc 1 354 0
  58              		.cfi_startproc
  59              		@ args = 0, pretend = 0, frame = 0
  60              		@ frame_needed = 0, uses_anonymous_args = 0
  61 0000 F8B5     		push	{r3, r4, r5, r6, r7, lr}
  62              		.cfi_def_cfa_offset 24
  63              		.cfi_offset 3, -24
  64              		.cfi_offset 4, -20
  65              		.cfi_offset 5, -16
  66              		.cfi_offset 6, -12
  67              		.cfi_offset 7, -8
  68              		.cfi_offset 14, -4
 355:Generated_Source\PSoC5/cyfitter_cfg.c **** #ifdef CYGlobalIntDisable
 356:Generated_Source\PSoC5/cyfitter_cfg.c **** 	/* Disable interrupts by default. Let user enable if/when they want. */
 357:Generated_Source\PSoC5/cyfitter_cfg.c **** 	CYGlobalIntDisable
  69              		.loc 1 357 0
  70              		.syntax unified
  71              	@ 357 "Generated_Source\PSoC5\cyfitter_cfg.c" 1
  72 0002 72B6     		CPSID   i
  73              	@ 0 "" 2
 358:Generated_Source\PSoC5/cyfitter_cfg.c **** #endif
 359:Generated_Source\PSoC5/cyfitter_cfg.c **** 
 360:Generated_Source\PSoC5/cyfitter_cfg.c **** 	/* Enable/Disable Debug functionality based on settings from System DWR */
 361:Generated_Source\PSoC5/cyfitter_cfg.c **** 	CY_SET_XTND_REG8((void CYFAR *)CYREG_MLOGIC_DEBUG, (CY_GET_XTND_REG8((void CYFAR *)CYREG_MLOGIC_DE
  74              		.loc 1 361 0
  75              		.thumb
  76              		.syntax unified
  77 0004 5C4A     		ldr	r2, .L20
  78              	.LBB34:
  79              	.LBB35:
 362:Generated_Source\PSoC5/cyfitter_cfg.c **** 
 363:Generated_Source\PSoC5/cyfitter_cfg.c **** 	{
 364:Generated_Source\PSoC5/cyfitter_cfg.c **** 
 365:Generated_Source\PSoC5/cyfitter_cfg.c **** 		CYPACKED typedef struct {
 366:Generated_Source\PSoC5/cyfitter_cfg.c **** 			void CYFAR *address;
 367:Generated_Source\PSoC5/cyfitter_cfg.c **** 			uint16 size;
 368:Generated_Source\PSoC5/cyfitter_cfg.c **** 		} CYPACKED_ATTR cfg_memset_t;
 369:Generated_Source\PSoC5/cyfitter_cfg.c **** 
 370:Generated_Source\PSoC5/cyfitter_cfg.c **** 		static const cfg_memset_t CYCODE cfg_memset_list[] = {
 371:Generated_Source\PSoC5/cyfitter_cfg.c **** 			/* address, size */
 372:Generated_Source\PSoC5/cyfitter_cfg.c **** 			{(void CYFAR *)(CYREG_TMR0_CFG0), 12u},
 373:Generated_Source\PSoC5/cyfitter_cfg.c **** 			{(void CYFAR *)(CYREG_PRT2_DR), 80u},
 374:Generated_Source\PSoC5/cyfitter_cfg.c **** 			{(void CYFAR *)(CYREG_PRT12_DR), 16u},
 375:Generated_Source\PSoC5/cyfitter_cfg.c **** 			{(void CYFAR *)(CYDEV_UCFG_B0_P0_U0_BASE), 4096u},
 376:Generated_Source\PSoC5/cyfitter_cfg.c **** 			{(void CYFAR *)(CYDEV_UCFG_B1_P2_U0_BASE), 2048u},
 377:Generated_Source\PSoC5/cyfitter_cfg.c **** 			{(void CYFAR *)(CYDEV_UCFG_DSI0_BASE), 2560u},
ARM GAS  C:\Users\jon\AppData\Local\Temp\ccAGf3wR.s 			page 9


 378:Generated_Source\PSoC5/cyfitter_cfg.c **** 			{(void CYFAR *)(CYDEV_UCFG_DSI12_BASE), 512u},
 379:Generated_Source\PSoC5/cyfitter_cfg.c **** 			{(void CYFAR *)(CYREG_BCTL0_MDCLK_EN), 32u},
 380:Generated_Source\PSoC5/cyfitter_cfg.c **** 		};
 381:Generated_Source\PSoC5/cyfitter_cfg.c **** 
 382:Generated_Source\PSoC5/cyfitter_cfg.c **** 		uint8 CYDATA i;
 383:Generated_Source\PSoC5/cyfitter_cfg.c **** 
 384:Generated_Source\PSoC5/cyfitter_cfg.c **** 		/* Zero out critical memory blocks before beginning configuration */
 385:Generated_Source\PSoC5/cyfitter_cfg.c **** 		for (i = 0u; i < (sizeof(cfg_memset_list)/sizeof(cfg_memset_list[0])); i++)
 386:Generated_Source\PSoC5/cyfitter_cfg.c **** 		{
 387:Generated_Source\PSoC5/cyfitter_cfg.c **** 			const cfg_memset_t CYCODE * CYDATA ms = &cfg_memset_list[i];
 388:Generated_Source\PSoC5/cyfitter_cfg.c **** 			CYMEMZERO(ms->address, (size_t)(uint32)(ms->size));
  80              		.loc 1 388 0
  81 0006 5D4D     		ldr	r5, .L20+4
  82              	.LBE35:
  83              	.LBE34:
 361:Generated_Source\PSoC5/cyfitter_cfg.c **** 
  84              		.loc 1 361 0
  85 0008 1378     		ldrb	r3, [r2]	@ zero_extendqisi2
  86 000a 0024     		movs	r4, #0
  87 000c 43F00403 		orr	r3, r3, #4
  88 0010 1370     		strb	r3, [r2]
  89              	.LVL2:
  90              	.LBB44:
  91              	.LBB38:
  92              		.loc 1 388 0
  93 0012 0626     		movs	r6, #6
  94              	.LVL3:
  95              	.L5:
  96              		.loc 1 388 0 is_stmt 0 discriminator 3
  97 0014 06FB0453 		mla	r3, r6, r4, r5
  98              	.LBB36:
  99              	.LBB37:
  79:Generated_Source\PSoC5/cyfitter_cfg.c **** }
 100              		.loc 1 79 0 is_stmt 1 discriminator 3
 101 0018 0021     		movs	r1, #0
 102 001a 9A88     		ldrh	r2, [r3, #4]	@ unaligned
 103 001c 1868     		ldr	r0, [r3]	@ unaligned
 104 001e 0134     		adds	r4, r4, #1
 105              	.LVL4:
 106 0020 FFF7FEFF 		bl	memset
 107              	.LVL5:
 108              	.LBE37:
 109              	.LBE36:
 110              	.LBE38:
 385:Generated_Source\PSoC5/cyfitter_cfg.c **** 		{
 111              		.loc 1 385 0 discriminator 3
 112 0024 082C     		cmp	r4, #8
 113 0026 F5D1     		bne	.L5
 114 0028 5548     		ldr	r0, .L20+8
 115              	.LBB39:
 116              	.LBB40:
 193:Generated_Source\PSoC5/cyfitter_cfg.c **** 	{
 117              		.loc 1 193 0
 118 002a 564D     		ldr	r5, .L20+12
 119              	.LBE40:
 120              	.LBE39:
 121 002c 0024     		movs	r4, #0
ARM GAS  C:\Users\jon\AppData\Local\Temp\ccAGf3wR.s 			page 10


 122              	.LVL6:
 123              	.L8:
 124              	.LBB43:
 125              	.LBB42:
 126              	.LBB41:
 195:Generated_Source\PSoC5/cyfitter_cfg.c **** 		uint8 count = (uint8)baseAddr;
 127              		.loc 1 195 0
 128 002e 50F8041F 		ldr	r1, [r0, #4]!
 129              	.LVL7:
 130 0032 04F11053 		add	r3, r4, #603979776
 131 0036 03F12C02 		add	r2, r3, #44
 197:Generated_Source\PSoC5/cyfitter_cfg.c **** 		while (count != 0u)
 132              		.loc 1 197 0
 133 003a 21F0FF06 		bic	r6, r1, #255
 134              	.LVL8:
 135 003e 2D33     		adds	r3, r3, #45
 136 0040 C9B2     		uxtb	r1, r1
 137 0042 0B44     		add	r3, r3, r1
 138 0044 5200     		lsls	r2, r2, #1
 139 0046 5B00     		lsls	r3, r3, #1
 140              	.LVL9:
 141              	.L6:
 142 0048 0232     		adds	r2, r2, #2
 198:Generated_Source\PSoC5/cyfitter_cfg.c **** 		{
 143              		.loc 1 198 0
 144 004a 9A42     		cmp	r2, r3
 145 004c 06D0     		beq	.L19
 200:Generated_Source\PSoC5/cyfitter_cfg.c **** 			j++;
 146              		.loc 1 200 0
 147 004e 12F8027C 		ldrb	r7, [r2, #-2]	@ zero_extendqisi2
 148 0052 12F801EC 		ldrb	lr, [r2, #-1]	@ zero_extendqisi2
 149 0056 07F806E0 		strb	lr, [r7, r6]
 150 005a F5E7     		b	.L6
 151              	.L19:
 152              	.LBE41:
 193:Generated_Source\PSoC5/cyfitter_cfg.c **** 	{
 153              		.loc 1 193 0
 154 005c A842     		cmp	r0, r5
 155 005e 0C44     		add	r4, r4, r1
 156              	.LVL10:
 157 0060 E5D1     		bne	.L8
 158              	.LVL11:
 159              	.LBE42:
 160              	.LBE43:
 389:Generated_Source\PSoC5/cyfitter_cfg.c **** 		}
 390:Generated_Source\PSoC5/cyfitter_cfg.c **** 
 391:Generated_Source\PSoC5/cyfitter_cfg.c **** 		cfg_write_bytes32(cy_cfg_addr_table, cy_cfg_data_table);
 392:Generated_Source\PSoC5/cyfitter_cfg.c **** 
 393:Generated_Source\PSoC5/cyfitter_cfg.c **** 		/* Enable digital routing */
 394:Generated_Source\PSoC5/cyfitter_cfg.c **** 		CY_SET_XTND_REG8((void CYFAR *)CYREG_BCTL0_BANK_CTL, CY_GET_XTND_REG8((void CYFAR *)CYREG_BCTL0_B
 161              		.loc 1 394 0
 162 0062 494A     		ldr	r2, .L20+16
 395:Generated_Source\PSoC5/cyfitter_cfg.c **** 		CY_SET_XTND_REG8((void CYFAR *)CYREG_BCTL1_BANK_CTL, CY_GET_XTND_REG8((void CYFAR *)CYREG_BCTL1_B
 396:Generated_Source\PSoC5/cyfitter_cfg.c **** 
 397:Generated_Source\PSoC5/cyfitter_cfg.c **** 		/* Enable UDB array */
 398:Generated_Source\PSoC5/cyfitter_cfg.c **** 		CY_SET_XTND_REG8((void CYFAR *)CYREG_PM_ACT_CFG0, CY_GET_XTND_REG8((void CYFAR *)CYREG_PM_ACT_CFG
 163              		.loc 1 398 0
ARM GAS  C:\Users\jon\AppData\Local\Temp\ccAGf3wR.s 			page 11


 164 0064 494C     		ldr	r4, .L20+20
 394:Generated_Source\PSoC5/cyfitter_cfg.c **** 		CY_SET_XTND_REG8((void CYFAR *)CYREG_BCTL1_BANK_CTL, CY_GET_XTND_REG8((void CYFAR *)CYREG_BCTL1_B
 165              		.loc 1 394 0
 166 0066 1378     		ldrb	r3, [r2]	@ zero_extendqisi2
 167              	.LBE44:
 168              	.LBB45:
 169              	.LBB46:
  86:Generated_Source\PSoC5/cyfitter_cfg.c **** }
 170              		.loc 1 86 0
 171 0068 494D     		ldr	r5, .L20+24
 172              	.LBE46:
 173              	.LBE45:
 174              	.LBB48:
 394:Generated_Source\PSoC5/cyfitter_cfg.c **** 		CY_SET_XTND_REG8((void CYFAR *)CYREG_BCTL1_BANK_CTL, CY_GET_XTND_REG8((void CYFAR *)CYREG_BCTL1_B
 175              		.loc 1 394 0
 176 006a 43F00203 		orr	r3, r3, #2
 177 006e 1370     		strb	r3, [r2]
 395:Generated_Source\PSoC5/cyfitter_cfg.c **** 		CY_SET_XTND_REG8((void CYFAR *)CYREG_BCTL1_BANK_CTL, CY_GET_XTND_REG8((void CYFAR *)CYREG_BCTL1_B
 178              		.loc 1 395 0
 179 0070 137C     		ldrb	r3, [r2, #16]	@ zero_extendqisi2
 180              	.LBE48:
 181              	.LBB49:
 182              	.LBB50:
 250:Generated_Source\PSoC5/cyfitter_cfg.c **** 		CyDelayCycles(10u * 48u); /* Delay 10us based on 48MHz clock */
 183              		.loc 1 250 0
 184 0072 484F     		ldr	r7, .L20+28
 185              	.LBE50:
 186              	.LBE49:
 187              	.LBB56:
 395:Generated_Source\PSoC5/cyfitter_cfg.c **** 
 188              		.loc 1 395 0
 189 0074 43F00203 		orr	r3, r3, #2
 190 0078 1374     		strb	r3, [r2, #16]
 191              		.loc 1 398 0
 192 007a 2378     		ldrb	r3, [r4]	@ zero_extendqisi2
 399:Generated_Source\PSoC5/cyfitter_cfg.c **** 		CY_SET_XTND_REG8((void CYFAR *)CYREG_PM_AVAIL_CR2, CY_GET_XTND_REG8((void CYFAR *)CYREG_PM_AVAIL_
 193              		.loc 1 399 0
 194 007c A2F58632 		sub	r2, r2, #68608
 398:Generated_Source\PSoC5/cyfitter_cfg.c **** 		CY_SET_XTND_REG8((void CYFAR *)CYREG_PM_AVAIL_CR2, CY_GET_XTND_REG8((void CYFAR *)CYREG_PM_AVAIL_
 195              		.loc 1 398 0
 196 0080 43F04003 		orr	r3, r3, #64
 197 0084 2370     		strb	r3, [r4]
 198              		.loc 1 399 0
 199 0086 413A     		subs	r2, r2, #65
 200 0088 1378     		ldrb	r3, [r2]	@ zero_extendqisi2
 201              	.LBE56:
 202              	.LBB57:
 203              	.LBB51:
 245:Generated_Source\PSoC5/cyfitter_cfg.c **** 	/* Wait up to 250us for the PLL to lock */
 204              		.loc 1 245 0
 205 008a 1926     		movs	r6, #25
 206              	.LBE51:
 207              	.LBE57:
 208              	.LBB58:
 209              		.loc 1 399 0
 210 008c 43F01003 		orr	r3, r3, #16
 211 0090 1370     		strb	r3, [r2]
ARM GAS  C:\Users\jon\AppData\Local\Temp\ccAGf3wR.s 			page 12


 212              	.LVL12:
 213              	.LBE58:
 214              	.LBB59:
 215              	.LBB60:
  86:Generated_Source\PSoC5/cyfitter_cfg.c **** }
 216              		.loc 1 86 0
 217 0092 414B     		ldr	r3, .L20+32
 218 0094 03CB     		ldmia	r3!, {r0, r1}
 219 0096 C2F8400D 		str	r0, [r2, #3392]	@ unaligned
 220 009a C2F8441D 		str	r1, [r2, #3396]	@ unaligned
 221              	.LVL13:
 222              	.LBE60:
 223              	.LBE59:
 224              	.LBB61:
 225              	.LBB47:
 226 009e 93E80700 		ldmia	r3, {r0, r1, r2}
 227 00a2 03C5     		stmia	r5!, {r0, r1}
 228 00a4 2A80     		strh	r2, [r5]	@ movhi
 229              	.LVL14:
 230              	.LBE47:
 231              	.LBE61:
 232              	.LBB62:
 233              	.LBB63:
 234 00a6 3D4A     		ldr	r2, .L20+36
 235 00a8 0C33     		adds	r3, r3, #12
 236 00aa 03CB     		ldmia	r3!, {r0, r1}
 237 00ac 5160     		str	r1, [r2, #4]	@ unaligned
 238              	.LVL15:
 239              	.LBE63:
 240              	.LBE62:
 241              	.LBB65:
 242              	.LBB52:
 233:Generated_Source\PSoC5/cyfitter_cfg.c **** 	CY_SET_XTND_REG8((void CYFAR *)(CYREG_CLKDIST_DCFG1_CFG0 + 0x2u), 0x18u);
 243              		.loc 1 233 0
 244 00ae 45F6BF51 		movw	r1, #23999
 245              	.LBE52:
 246              	.LBE65:
 247              	.LBB66:
 248              	.LBB64:
  86:Generated_Source\PSoC5/cyfitter_cfg.c **** }
 249              		.loc 1 86 0
 250 00b2 1060     		str	r0, [r2]	@ unaligned
 251              	.LBE64:
 252              	.LBE66:
 400:Generated_Source\PSoC5/cyfitter_cfg.c **** 	}
 401:Generated_Source\PSoC5/cyfitter_cfg.c **** 
 402:Generated_Source\PSoC5/cyfitter_cfg.c **** 
 403:Generated_Source\PSoC5/cyfitter_cfg.c **** 	/* Perform second pass device configuration. These items must be configured in specific order afte
 404:Generated_Source\PSoC5/cyfitter_cfg.c **** 	CYCONFIGCPY((void CYFAR *)(CYREG_PRT0_DM0), (const void CYFAR *)(BS_IOPINS0_0_VAL), 8u);
 405:Generated_Source\PSoC5/cyfitter_cfg.c **** 	CYCONFIGCPY((void CYFAR *)(CYREG_PRT15_DR), (const void CYFAR *)(BS_IOPINS0_8_VAL), 10u);
 406:Generated_Source\PSoC5/cyfitter_cfg.c **** 	CYCONFIGCPY((void CYFAR *)(CYREG_PRT1_DM0), (const void CYFAR *)(BS_IOPINS0_1_VAL), 8u);
 407:Generated_Source\PSoC5/cyfitter_cfg.c **** 	/* Switch Boost to the precision bandgap reference from its internal reference */
 408:Generated_Source\PSoC5/cyfitter_cfg.c **** 	CY_SET_REG8((void CYXDATA *)CYREG_BOOST_CR2, (CY_GET_REG8((void CYXDATA *)CYREG_BOOST_CR2) | 0x08u
 253              		.loc 1 408 0
 254 00b4 A2F55F62 		sub	r2, r2, #3568
 255 00b8 1378     		ldrb	r3, [r2]	@ zero_extendqisi2
 256              	.LBB67:
ARM GAS  C:\Users\jon\AppData\Local\Temp\ccAGf3wR.s 			page 13


 257              	.LBB53:
 247:Generated_Source\PSoC5/cyfitter_cfg.c **** 	for (timeout = 250u / 10u; (timeout > 0u) && (pllLock != 0x03u); timeout--)
 258              		.loc 1 247 0
 259 00ba 0025     		movs	r5, #0
 260              	.LBE53:
 261              	.LBE67:
 262              		.loc 1 408 0
 263 00bc 43F00803 		orr	r3, r3, #8
 264 00c0 1370     		strb	r3, [r2]
 409:Generated_Source\PSoC5/cyfitter_cfg.c **** 
 410:Generated_Source\PSoC5/cyfitter_cfg.c **** 	/* Set Flash Cycles based on max possible frequency in case a glitch occurs during ClockSetup(). *
 411:Generated_Source\PSoC5/cyfitter_cfg.c **** 	CY_SET_XTND_REG8((void CYFAR *)(CYREG_CACHE_CC_CTL), (((CYDEV_INSTRUCT_CACHE_ENABLED) != 0) ? 0x61
 265              		.loc 1 411 0
 266 00c2 374B     		ldr	r3, .L20+40
 267 00c4 6122     		movs	r2, #97
 268 00c6 1A70     		strb	r2, [r3]
 269              	.LBB68:
 270              	.LBB54:
 231:Generated_Source\PSoC5/cyfitter_cfg.c **** 	CY_SET_XTND_REG8((void CYFAR *)(CYREG_CLKDIST_DCFG0_CFG0 + 0x2u), 0x18u);
 271              		.loc 1 231 0
 272 00c8 0122     		movs	r2, #1
 273 00ca A3F5F063 		sub	r3, r3, #1920
 274 00ce 1A80     		strh	r2, [r3]	@ movhi
 232:Generated_Source\PSoC5/cyfitter_cfg.c **** 	CY_SET_XTND_REG16((void CYFAR *)(CYREG_CLKDIST_DCFG1_CFG0), 0x5DBFu);
 275              		.loc 1 232 0
 276 00d0 344A     		ldr	r2, .L20+44
 277 00d2 1823     		movs	r3, #24
 278 00d4 1370     		strb	r3, [r2]
 233:Generated_Source\PSoC5/cyfitter_cfg.c **** 	CY_SET_XTND_REG8((void CYFAR *)(CYREG_CLKDIST_DCFG1_CFG0 + 0x2u), 0x18u);
 279              		.loc 1 233 0
 280 00d6 5180     		strh	r1, [r2, #2]	@ movhi
 234:Generated_Source\PSoC5/cyfitter_cfg.c **** 
 281              		.loc 1 234 0
 282 00d8 1371     		strb	r3, [r2, #4]
 237:Generated_Source\PSoC5/cyfitter_cfg.c **** 
 283              		.loc 1 237 0
 284 00da 334B     		ldr	r3, .L20+48
 285 00dc 0622     		movs	r2, #6
 286 00de 1A70     		strb	r2, [r3]
 240:Generated_Source\PSoC5/cyfitter_cfg.c **** 	CY_SET_XTND_REG8((void CYFAR *)(CYREG_IMO_TR1), (CY_GET_XTND_REG8((void CYFAR *)CYREG_FLSHID_CUST_
 287              		.loc 1 240 0
 288 00e0 5222     		movs	r2, #82
 289 00e2 A3F58073 		sub	r3, r3, #256
 290 00e6 1A70     		strb	r2, [r3]
 241:Generated_Source\PSoC5/cyfitter_cfg.c **** 
 291              		.loc 1 241 0
 292 00e8 304B     		ldr	r3, .L20+52
 293 00ea 314A     		ldr	r2, .L20+56
 294 00ec 1B78     		ldrb	r3, [r3]	@ zero_extendqisi2
 295 00ee DBB2     		uxtb	r3, r3
 296 00f0 1370     		strb	r3, [r2]
 244:Generated_Source\PSoC5/cyfitter_cfg.c **** 	CY_SET_XTND_REG16((void CYFAR *)(CYREG_FASTCLK_PLL_CFG0), 0x1251u);
 297              		.loc 1 244 0
 298 00f2 304B     		ldr	r3, .L20+60
 299 00f4 4FF4E162 		mov	r2, #1800
 300 00f8 1A80     		strh	r2, [r3]	@ movhi
 245:Generated_Source\PSoC5/cyfitter_cfg.c **** 	/* Wait up to 250us for the PLL to lock */
ARM GAS  C:\Users\jon\AppData\Local\Temp\ccAGf3wR.s 			page 14


 301              		.loc 1 245 0
 302 00fa 41F25122 		movw	r2, #4689
 303 00fe 23F8022C 		strh	r2, [r3, #-2]	@ movhi
 304              	.LVL16:
 305              	.L10:
 250:Generated_Source\PSoC5/cyfitter_cfg.c **** 		CyDelayCycles(10u * 48u); /* Delay 10us based on 48MHz clock */
 306              		.loc 1 250 0
 307 0102 3B78     		ldrb	r3, [r7]	@ zero_extendqisi2
 251:Generated_Source\PSoC5/cyfitter_cfg.c **** 	}
 308              		.loc 1 251 0
 309 0104 4FF4F070 		mov	r0, #480
 250:Generated_Source\PSoC5/cyfitter_cfg.c **** 		CyDelayCycles(10u * 48u); /* Delay 10us based on 48MHz clock */
 310              		.loc 1 250 0
 311 0108 03F00103 		and	r3, r3, #1
 312 010c 43EA4505 		orr	r5, r3, r5, lsl #1
 313              	.LVL17:
 251:Generated_Source\PSoC5/cyfitter_cfg.c **** 	}
 314              		.loc 1 251 0
 315 0110 FFF7FEFF 		bl	CyDelayCycles
 316              	.LVL18:
 248:Generated_Source\PSoC5/cyfitter_cfg.c **** 	{ 
 317              		.loc 1 248 0
 318 0114 013E     		subs	r6, r6, #1
 319              	.LVL19:
 250:Generated_Source\PSoC5/cyfitter_cfg.c **** 		CyDelayCycles(10u * 48u); /* Delay 10us based on 48MHz clock */
 320              		.loc 1 250 0
 321 0116 05F00305 		and	r5, r5, #3
 322              	.LVL20:
 248:Generated_Source\PSoC5/cyfitter_cfg.c **** 	{ 
 323              		.loc 1 248 0
 324 011a 2BD0     		beq	.L9
 325              	.LVL21:
 326 011c 032D     		cmp	r5, #3
 327 011e F0D1     		bne	.L10
 260:Generated_Source\PSoC5/cyfitter_cfg.c **** 	CY_SET_XTND_REG8((void CYFAR *)(CYREG_CLKDIST_MSTR0), 0x07u);
 328              		.loc 1 260 0
 329 0120 254A     		ldr	r2, .L20+64
 330 0122 4FF48073 		mov	r3, #256
 331 0126 1380     		strh	r3, [r2]	@ movhi
 262:Generated_Source\PSoC5/cyfitter_cfg.c **** 	CY_SET_XTND_REG8((void CYFAR *)(CYREG_CLKDIST_BCFG2), 0x48u);
 332              		.loc 1 262 0
 333 0128 2449     		ldr	r1, .L20+68
 261:Generated_Source\PSoC5/cyfitter_cfg.c **** 	CY_SET_XTND_REG8((void CYFAR *)(CYREG_CLKDIST_BCFG0), 0x00u);
 334              		.loc 1 261 0
 335 012a 0723     		movs	r3, #7
 336 012c 1370     		strb	r3, [r2]
 263:Generated_Source\PSoC5/cyfitter_cfg.c **** 	CY_SET_XTND_REG8((void CYFAR *)(CYREG_CLKDIST_MSTR0), 0x00u);
 337              		.loc 1 263 0
 338 012e 4820     		movs	r0, #72
 262:Generated_Source\PSoC5/cyfitter_cfg.c **** 	CY_SET_XTND_REG8((void CYFAR *)(CYREG_CLKDIST_BCFG2), 0x48u);
 339              		.loc 1 262 0
 340 0130 0023     		movs	r3, #0
 341 0132 0B70     		strb	r3, [r1]
 263:Generated_Source\PSoC5/cyfitter_cfg.c **** 	CY_SET_XTND_REG8((void CYFAR *)(CYREG_CLKDIST_MSTR0), 0x00u);
 342              		.loc 1 263 0
 343 0134 8870     		strb	r0, [r1, #2]
 264:Generated_Source\PSoC5/cyfitter_cfg.c **** 
ARM GAS  C:\Users\jon\AppData\Local\Temp\ccAGf3wR.s 			page 15


 344              		.loc 1 264 0
 345 0136 1370     		strb	r3, [r2]
 267:Generated_Source\PSoC5/cyfitter_cfg.c **** 	CY_SET_XTND_REG8((void CYFAR *)(CYREG_CLKDIST_LD), 0x02u);
 346              		.loc 1 267 0
 347 0138 5371     		strb	r3, [r2, #5]
 268:Generated_Source\PSoC5/cyfitter_cfg.c **** 
 348              		.loc 1 268 0
 349 013a 214B     		ldr	r3, .L20+72
 350 013c 0222     		movs	r2, #2
 351 013e 1A70     		strb	r2, [r3]
 270:Generated_Source\PSoC5/cyfitter_cfg.c **** }
 352              		.loc 1 270 0
 353 0140 204A     		ldr	r2, .L20+76
 354              	.LBE54:
 355              	.LBE68:
 356              	.LBB69:
 357              	.LBB70:
  86:Generated_Source\PSoC5/cyfitter_cfg.c **** }
 358              		.loc 1 86 0
 359 0142 214D     		ldr	r5, .L20+80
 360              	.LVL22:
 361              	.LBE70:
 362              	.LBE69:
 363              	.LBB72:
 364              	.LBB55:
 270:Generated_Source\PSoC5/cyfitter_cfg.c **** }
 365              		.loc 1 270 0
 366 0144 1378     		ldrb	r3, [r2]	@ zero_extendqisi2
 367 0146 43F00303 		orr	r3, r3, #3
 368 014a 1370     		strb	r3, [r2]
 369              	.LVL23:
 370              	.LBE55:
 371              	.LBE72:
 412:Generated_Source\PSoC5/cyfitter_cfg.c **** 	/* Setup clocks based on selections from Clock DWR */
 413:Generated_Source\PSoC5/cyfitter_cfg.c **** 	ClockSetup();
 414:Generated_Source\PSoC5/cyfitter_cfg.c **** 	/* Set Flash Cycles based on newly configured 24.00MHz Bus Clock. */
 415:Generated_Source\PSoC5/cyfitter_cfg.c **** 	CY_SET_XTND_REG8((void CYFAR *)(CYREG_CACHE_CC_CTL), (((CYDEV_INSTRUCT_CACHE_ENABLED) != 0) ? 0x81
 372              		.loc 1 415 0
 373 014c 144B     		ldr	r3, .L20+40
 374 014e 8122     		movs	r2, #129
 375 0150 1A70     		strb	r2, [r3]
 376              	.LBB73:
 377              	.LBB74:
 295:Generated_Source\PSoC5/cyfitter_cfg.c **** 	CY_SET_XTND_REG8((void CYFAR *)(CYREG_BG_DFT0), (bg_xover_inl_trim & 0x07u));
 378              		.loc 1 295 0
 379 0152 1E4B     		ldr	r3, .L20+84
 296:Generated_Source\PSoC5/cyfitter_cfg.c **** 	CY_SET_XTND_REG8((void CYFAR *)(CYREG_BG_DFT1), ((bg_xover_inl_trim >> 4) & 0x0Fu));
 380              		.loc 1 296 0
 381 0154 1E4A     		ldr	r2, .L20+88
 295:Generated_Source\PSoC5/cyfitter_cfg.c **** 	CY_SET_XTND_REG8((void CYFAR *)(CYREG_BG_DFT0), (bg_xover_inl_trim & 0x07u));
 382              		.loc 1 295 0
 383 0156 1B78     		ldrb	r3, [r3]	@ zero_extendqisi2
 384 0158 DBB2     		uxtb	r3, r3
 385              	.LVL24:
 296:Generated_Source\PSoC5/cyfitter_cfg.c **** 	CY_SET_XTND_REG8((void CYFAR *)(CYREG_BG_DFT1), ((bg_xover_inl_trim >> 4) & 0x0Fu));
 386              		.loc 1 296 0
 387 015a 03F00701 		and	r1, r3, #7
ARM GAS  C:\Users\jon\AppData\Local\Temp\ccAGf3wR.s 			page 16


 297:Generated_Source\PSoC5/cyfitter_cfg.c **** 	CY_SET_XTND_REG8((void CYFAR *)CYREG_PUMP_CR0, 0x44u);
 388              		.loc 1 297 0
 389 015e 1B09     		lsrs	r3, r3, #4
 390              	.LVL25:
 296:Generated_Source\PSoC5/cyfitter_cfg.c **** 	CY_SET_XTND_REG8((void CYFAR *)(CYREG_BG_DFT1), ((bg_xover_inl_trim >> 4) & 0x0Fu));
 391              		.loc 1 296 0
 392 0160 1170     		strb	r1, [r2]
 297:Generated_Source\PSoC5/cyfitter_cfg.c **** 	CY_SET_XTND_REG8((void CYFAR *)CYREG_PUMP_CR0, 0x44u);
 393              		.loc 1 297 0
 394 0162 5370     		strb	r3, [r2, #1]
 298:Generated_Source\PSoC5/cyfitter_cfg.c **** }
 395              		.loc 1 298 0
 396 0164 1B4B     		ldr	r3, .L20+92
 397 0166 4422     		movs	r2, #68
 398 0168 1A70     		strb	r2, [r3]
 399              	.LVL26:
 400              	.LBE74:
 401              	.LBE73:
 402              	.LBB75:
 403              	.LBB71:
  86:Generated_Source\PSoC5/cyfitter_cfg.c **** }
 404              		.loc 1 86 0
 405 016a 94E80F00 		ldmia	r4, {r0, r1, r2, r3}
 406 016e 07C5     		stmia	r5!, {r0, r1, r2}
 407 0170 2B80     		strh	r3, [r5]	@ movhi
 408              	.LVL27:
 409 0172 F8BD     		pop	{r3, r4, r5, r6, r7, pc}
 410              	.LVL28:
 411              	.L9:
 412 0174 FEE7     		b	.L9
 413              	.L21:
 414 0176 00BF     		.align	2
 415              	.L20:
 416 0178 E8460040 		.word	1073759976
 417 017c 00000000 		.word	.LANCHOR0
 418 0180 FCFFFF47 		.word	1207959548
 419 0184 54000048 		.word	1207959636
 420 0188 03500140 		.word	1073827843
 421 018c A0430040 		.word	1073759136
 422 0190 F0510040 		.word	1073762800
 423 0194 25420040 		.word	1073758757
 424 0198 E0000048 		.word	1207959776
 425 019c 12510040 		.word	1073762578
 426 01a0 00480040 		.word	1073760256
 427 01a4 82400040 		.word	1073758338
 428 01a8 00430040 		.word	1073758976
 429 01ac 0F010049 		.word	1224737039
 430 01b0 A1460040 		.word	1073759905
 431 01b4 22420040 		.word	1073758754
 432 01b8 04400040 		.word	1073758212
 433 01bc 06400040 		.word	1073758214
 434 01c0 01400040 		.word	1073758209
 435 01c4 A2430040 		.word	1073759138
 436 01c8 B0430040 		.word	1073759152
 437 01cc CF010049 		.word	1224737231
 438 01d0 6E580040 		.word	1073764462
 439 01d4 76580040 		.word	1073764470
ARM GAS  C:\Users\jon\AppData\Local\Temp\ccAGf3wR.s 			page 17


 440              	.LBE71:
 441              	.LBE75:
 442              		.cfi_endproc
 443              	.LFE8:
 444              		.size	cyfitter_cfg, .-cyfitter_cfg
 445              		.section	.rodata
 446              		.set	.LANCHOR0,. + 0
 447              		.type	cfg_memset_list.5003, %object
 448              		.size	cfg_memset_list.5003, 48
 449              	cfg_memset_list.5003:
 450 0000 004F0040 		.4byte	1073762048
 451 0004 0C00     		.2byte	12
 452 0006 20510040 		.4byte	1073762592
 453 000a 5000     		.2byte	80
 454 000c C0510040 		.4byte	1073762752
 455 0010 1000     		.2byte	16
 456 0012 00000140 		.4byte	1073807360
 457 0016 0010     		.2byte	4096
 458 0018 00140140 		.4byte	1073812480
 459 001c 0008     		.2byte	2048
 460 001e 00400140 		.4byte	1073823744
 461 0022 000A     		.2byte	2560
 462 0024 004C0140 		.4byte	1073826816
 463 0028 0002     		.2byte	512
 464 002a 00500140 		.4byte	1073827840
 465 002e 2000     		.2byte	32
 466              		.text
 467              	.Letext0:
 468              		.file 2 "c:\\program files (x86)\\cypress\\psoc creator\\4.1\\psoc creator\\import\\gnu\\arm\\5.4.
 469              		.file 3 "Generated_Source\\PSoC5\\cytypes.h"
 470              		.file 4 "Generated_Source\\PSoC5\\CyLib.h"