ARM GAS  C:\Users\jebush2\AppData\Local\Temp\ccwRKVwA.s 			page 1


   1              		.syntax unified
   2              		.cpu cortex-m3
   3              		.fpu softvfp
   4              		.eabi_attribute 20, 1
   5              		.eabi_attribute 21, 1
   6              		.eabi_attribute 23, 3
   7              		.eabi_attribute 24, 1
   8              		.eabi_attribute 25, 1
   9              		.eabi_attribute 26, 1
  10              		.eabi_attribute 30, 1
  11              		.eabi_attribute 34, 1
  12              		.eabi_attribute 18, 4
  13              		.thumb
  14              		.syntax unified
  15              		.file	"main.c"
  16              		.text
  17              	.Ltext0:
  18              		.cfi_sections	.debug_frame
  19              		.section	.text.sample_isr,"ax",%progbits
  20              		.align	2
  21              		.global	sample_isr
  22              		.thumb
  23              		.thumb_func
  24              		.type	sample_isr, %function
  25              	sample_isr:
  26              	.LFB65:
  27              		.file 1 "main.c"
   1:main.c        **** /* ========================================
   2:main.c        ****  *
   3:main.c        ****  * Copyright YOUR COMPANY, THE YEAR
   4:main.c        ****  * All Rights Reserved
   5:main.c        ****  * UNPUBLISHED, LICENSED SOFTWARE.
   6:main.c        ****  *
   7:main.c        ****  * CONFIDENTIAL AND PROPRIETARY INFORMATION
   8:main.c        ****  * WHICH IS THE PROPERTY OF your company.
   9:main.c        ****  *
  10:main.c        ****  * ========================================
  11:main.c        **** */
  12:main.c        **** #include "project.h"
  13:main.c        **** #include "bno055.h"
  14:main.c        **** #include <stdio.h>
  15:main.c        **** 
  16:main.c        **** #define STARTBYTE 0xFF
  17:main.c        **** #define ENDBYTE 0x77
  18:main.c        **** 
  19:main.c        **** #define OVERSAMPLING (10)
  20:main.c        **** 
  21:main.c        **** CY_ISR_PROTO(sample_isr);
  22:main.c        **** CY_ISR_PROTO(enc_high_isr);
  23:main.c        **** CY_ISR_PROTO(enc_low_isr);
  24:main.c        **** 
  25:main.c        **** volatile int take_sample = 0;
  26:main.c        **** 
  27:main.c        **** struct packet {
  28:main.c        ****     uint8 startbyte;
  29:main.c        ****     uint8 checksum;
  30:main.c        ****     int16 channels[3];
ARM GAS  C:\Users\jebush2\AppData\Local\Temp\ccwRKVwA.s 			page 2


  31:main.c        **** };
  32:main.c        **** 
  33:main.c        **** void set_checksum(struct packet *pkt)
  34:main.c        **** {
  35:main.c        ****     uint8 *data = (uint8 *)(&(pkt->channels[0]));
  36:main.c        ****     uint8 checksum = 0;
  37:main.c        ****     for (int i = 0; i < 6; ++i) {
  38:main.c        ****         checksum = (uint8)(((uint16)checksum + (uint16)data[i]) % 255);
  39:main.c        ****     }
  40:main.c        ****     pkt->checksum = checksum;
  41:main.c        **** }
  42:main.c        **** 
  43:main.c        **** CY_ISR(sample_isr) {
  28              		.loc 1 43 0
  29              		.cfi_startproc
  30              		@ args = 0, pretend = 0, frame = 0
  31              		@ frame_needed = 0, uses_anonymous_args = 0
  32 0000 08B5     		push	{r3, lr}
  33              		.cfi_def_cfa_offset 8
  34              		.cfi_offset 3, -8
  35              		.cfi_offset 14, -4
  44:main.c        ****     Sample_Timer_ReadStatusRegister();
  36              		.loc 1 44 0
  37 0002 FFF7FEFF 		bl	Sample_Timer_ReadStatusRegister
  38              	.LVL0:
  45:main.c        ****     take_sample = 1;
  39              		.loc 1 45 0
  40 0006 0122     		movs	r2, #1
  41 0008 014B     		ldr	r3, .L3
  42 000a 1A60     		str	r2, [r3]
  43 000c 08BD     		pop	{r3, pc}
  44              	.L4:
  45 000e 00BF     		.align	2
  46              	.L3:
  47 0010 00000000 		.word	.LANCHOR0
  48              		.cfi_endproc
  49              	.LFE65:
  50              		.size	sample_isr, .-sample_isr
  51              		.section	.text.set_checksum,"ax",%progbits
  52              		.align	2
  53              		.global	set_checksum
  54              		.thumb
  55              		.thumb_func
  56              		.type	set_checksum, %function
  57              	set_checksum:
  58              	.LFB64:
  34:main.c        ****     uint8 *data = (uint8 *)(&(pkt->channels[0]));
  59              		.loc 1 34 0
  60              		.cfi_startproc
  61              		@ args = 0, pretend = 0, frame = 0
  62              		@ frame_needed = 0, uses_anonymous_args = 0
  63              		@ link register save eliminated.
  64              	.LVL1:
  65 0000 30B4     		push	{r4, r5}
  66              		.cfi_def_cfa_offset 8
  67              		.cfi_offset 4, -8
  68              		.cfi_offset 5, -4
ARM GAS  C:\Users\jebush2\AppData\Local\Temp\ccwRKVwA.s 			page 3


  35:main.c        ****     uint8 checksum = 0;
  69              		.loc 1 35 0
  70 0002 851C     		adds	r5, r0, #2
  71              	.LVL2:
  72              	.LBB2:
  37:main.c        ****         checksum = (uint8)(((uint16)checksum + (uint16)data[i]) % 255);
  73              		.loc 1 37 0
  74 0004 0024     		movs	r4, #0
  75              	.LBE2:
  36:main.c        ****     for (int i = 0; i < 6; ++i) {
  76              		.loc 1 36 0
  77 0006 2346     		mov	r3, r4
  78              	.LBB3:
  37:main.c        ****         checksum = (uint8)(((uint16)checksum + (uint16)data[i]) % 255);
  79              		.loc 1 37 0
  80 0008 0DE0     		b	.L6
  81              	.LVL3:
  82              	.L7:
  38:main.c        ****     }
  83              		.loc 1 38 0 discriminator 3
  84 000a 295D     		ldrb	r1, [r5, r4]	@ zero_extendqisi2
  85 000c 1944     		add	r1, r1, r3
  86 000e 084A     		ldr	r2, .L9
  87 0010 81FB0223 		smull	r2, r3, r1, r2
  88 0014 0B44     		add	r3, r3, r1
  89              	.LVL4:
  90 0016 CA17     		asrs	r2, r1, #31
  91 0018 C2EBE313 		rsb	r3, r2, r3, asr #7
  92 001c C3EB0323 		rsb	r3, r3, r3, lsl #8
  93 0020 CB1A     		subs	r3, r1, r3
  94 0022 DBB2     		uxtb	r3, r3
  95              	.LVL5:
  37:main.c        ****         checksum = (uint8)(((uint16)checksum + (uint16)data[i]) % 255);
  96              		.loc 1 37 0 discriminator 3
  97 0024 0134     		adds	r4, r4, #1
  98              	.LVL6:
  99              	.L6:
  37:main.c        ****         checksum = (uint8)(((uint16)checksum + (uint16)data[i]) % 255);
 100              		.loc 1 37 0 is_stmt 0 discriminator 1
 101 0026 052C     		cmp	r4, #5
 102 0028 EFDD     		ble	.L7
 103              	.LBE3:
  40:main.c        **** }
 104              		.loc 1 40 0 is_stmt 1
 105 002a 4370     		strb	r3, [r0, #1]
  41:main.c        **** 
 106              		.loc 1 41 0
 107 002c 30BC     		pop	{r4, r5}
 108              		.cfi_restore 5
 109              		.cfi_restore 4
 110              		.cfi_def_cfa_offset 0
 111              	.LVL7:
 112 002e 7047     		bx	lr
 113              	.L10:
 114              		.align	2
 115              	.L9:
 116 0030 81808080 		.word	-2139062143
ARM GAS  C:\Users\jebush2\AppData\Local\Temp\ccwRKVwA.s 			page 4


 117              		.cfi_endproc
 118              	.LFE64:
 119              		.size	set_checksum, .-set_checksum
 120              		.section	.text.enc_high_isr,"ax",%progbits
 121              		.align	2
 122              		.global	enc_high_isr
 123              		.thumb
 124              		.thumb_func
 125              		.type	enc_high_isr, %function
 126              	enc_high_isr:
 127              	.LFB66:
  46:main.c        **** }
  47:main.c        **** 
  48:main.c        **** CY_ISR(enc_high_isr) {
 128              		.loc 1 48 0
 129              		.cfi_startproc
 130              		@ args = 0, pretend = 0, frame = 0
 131              		@ frame_needed = 0, uses_anonymous_args = 0
 132              		@ link register save eliminated.
 133 0000 7047     		bx	lr
 134              		.cfi_endproc
 135              	.LFE66:
 136              		.size	enc_high_isr, .-enc_high_isr
 137 0002 00BF     		.section	.text.enc_low_isr,"ax",%progbits
 138              		.align	2
 139              		.global	enc_low_isr
 140              		.thumb
 141              		.thumb_func
 142              		.type	enc_low_isr, %function
 143              	enc_low_isr:
 144              	.LFB67:
  49:main.c        ****     
  50:main.c        **** }
  51:main.c        **** 
  52:main.c        **** CY_ISR(enc_low_isr) {
 145              		.loc 1 52 0
 146              		.cfi_startproc
 147              		@ args = 0, pretend = 0, frame = 0
 148              		@ frame_needed = 0, uses_anonymous_args = 0
 149              		@ link register save eliminated.
 150 0000 7047     		bx	lr
 151              		.cfi_endproc
 152              	.LFE67:
 153              		.size	enc_low_isr, .-enc_low_isr
 154              		.global	__aeabi_f2d
 155 0002 00BF     		.section	.text.main,"ax",%progbits
 156              		.align	2
 157              		.global	main
 158              		.thumb
 159              		.thumb_func
 160              		.type	main, %function
 161              	main:
 162              	.LFB68:
  53:main.c        ****     
  54:main.c        **** }
  55:main.c        **** 
  56:main.c        **** int main(void)
ARM GAS  C:\Users\jebush2\AppData\Local\Temp\ccwRKVwA.s 			page 5


  57:main.c        **** {
 163              		.loc 1 57 0
 164              		.cfi_startproc
 165              		@ args = 0, pretend = 0, frame = 40
 166              		@ frame_needed = 0, uses_anonymous_args = 0
 167              		.loc 1 57 0
 168 0000 F0B5     		push	{r4, r5, r6, r7, lr}
 169              		.cfi_def_cfa_offset 20
 170              		.cfi_offset 4, -20
 171              		.cfi_offset 5, -16
 172              		.cfi_offset 6, -12
 173              		.cfi_offset 7, -8
 174              		.cfi_offset 14, -4
 175 0002 8FB0     		sub	sp, sp, #60
 176              		.cfi_def_cfa_offset 80
  58:main.c        ****     CyGlobalIntEnable; /* Enable global interrupts. */
 177              		.loc 1 58 0
 178              		.syntax unified
 179              	@ 58 "main.c" 1
 180 0004 62B6     		CPSIE   i
 181              	@ 0 "" 2
  59:main.c        **** 
  60:main.c        ****     struct packet data = {.startbyte = STARTBYTE};
  61:main.c        ****     
  62:main.c        ****     /* Place your initialization/startup code here (e.g. MyInst_Start()) */
  63:main.c        ****     Seat_ADC_Start();
 182              		.loc 1 63 0
 183              		.thumb
 184              		.syntax unified
 185 0006 FFF7FEFF 		bl	Seat_ADC_Start
 186              	.LVL8:
  64:main.c        **** 
  65:main.c        ****     USBUART_Init();
 187              		.loc 1 65 0
 188 000a FFF7FEFF 		bl	USBUART_Init
 189              	.LVL9:
  66:main.c        ****     USBUART_CDC_Init();
 190              		.loc 1 66 0
 191 000e FFF7FEFF 		bl	USBUART_CDC_Init
 192              	.LVL10:
  67:main.c        ****     USBUART_Start(0, USBUART_5V_OPERATION);
 193              		.loc 1 67 0
 194 0012 0121     		movs	r1, #1
 195 0014 0020     		movs	r0, #0
 196 0016 FFF7FEFF 		bl	USBUART_Start
 197              	.LVL11:
  68:main.c        ****     
  69:main.c        ****     Sample_Interrupt_StartEx(sample_isr);
 198              		.loc 1 69 0
 199 001a 1548     		ldr	r0, .L16
 200 001c FFF7FEFF 		bl	Sample_Interrupt_StartEx
 201              	.LVL12:
  70:main.c        ****     Sample_Timer_Start();
 202              		.loc 1 70 0
 203 0020 FFF7FEFF 		bl	Sample_Timer_Start
 204              	.LVL13:
  71:main.c        ****     
ARM GAS  C:\Users\jebush2\AppData\Local\Temp\ccwRKVwA.s 			page 6


  72:main.c        ****     char output[40];
  73:main.c        ****     
  74:main.c        ****     
  75:main.c        ****     bno_init();
 205              		.loc 1 75 0
 206 0024 FFF7FEFF 		bl	bno_init
 207              	.LVL14:
 208              	.L14:
  76:main.c        ****     
  77:main.c        ****     
  78:main.c        ****     for(;;)
  79:main.c        ****     {
  80:main.c        ****         
  81:main.c        ****         bno_update();
 209              		.loc 1 81 0 discriminator 1
 210 0028 FFF7FEFF 		bl	bno_update
 211              	.LVL15:
  82:main.c        ****         LED_Write(0);
 212              		.loc 1 82 0 discriminator 1
 213 002c 0020     		movs	r0, #0
 214 002e FFF7FEFF 		bl	LED_Write
 215              	.LVL16:
  83:main.c        ****         sprintf(output, "h: %3.3f, r: %3.3f, p: %3.3f\n\r", orientation.yaw, orientation.roll, orie
 216              		.loc 1 83 0 discriminator 1
 217 0032 104B     		ldr	r3, .L16+4
 218 0034 9868     		ldr	r0, [r3, #8]	@ float
 219 0036 1E68     		ldr	r6, [r3]	@ float
 220 0038 5F68     		ldr	r7, [r3, #4]	@ float
 221 003a FFF7FEFF 		bl	__aeabi_f2d
 222              	.LVL17:
 223 003e 0446     		mov	r4, r0
 224 0040 0D46     		mov	r5, r1
 225 0042 3846     		mov	r0, r7
 226 0044 FFF7FEFF 		bl	__aeabi_f2d
 227              	.LVL18:
 228 0048 CDE90201 		strd	r0, [sp, #8]
 229 004c 3046     		mov	r0, r6
 230 004e FFF7FEFF 		bl	__aeabi_f2d
 231              	.LVL19:
 232 0052 CDE90001 		strd	r0, [sp]
 233 0056 2246     		mov	r2, r4
 234 0058 2B46     		mov	r3, r5
 235 005a 0749     		ldr	r1, .L16+8
 236 005c 04A8     		add	r0, sp, #16
 237 005e FFF7FEFF 		bl	sprintf
 238              	.LVL20:
  84:main.c        ****         USBUART_PutString(output);
 239              		.loc 1 84 0 discriminator 1
 240 0062 04A8     		add	r0, sp, #16
 241 0064 FFF7FEFF 		bl	USBUART_PutString
 242              	.LVL21:
  85:main.c        ****         CyDelay(100);
 243              		.loc 1 85 0 discriminator 1
 244 0068 6420     		movs	r0, #100
 245 006a FFF7FEFF 		bl	CyDelay
 246              	.LVL22:
 247 006e DBE7     		b	.L14
ARM GAS  C:\Users\jebush2\AppData\Local\Temp\ccwRKVwA.s 			page 7


 248              	.L17:
 249              		.align	2
 250              	.L16:
 251 0070 00000000 		.word	sample_isr
 252 0074 00000000 		.word	orientation
 253 0078 00000000 		.word	.LC0
 254              		.cfi_endproc
 255              	.LFE68:
 256              		.size	main, .-main
 257              		.global	take_sample
 258              		.section	.rodata.str1.4,"aMS",%progbits,1
 259              		.align	2
 260              	.LC0:
 261 0000 683A2025 		.ascii	"h: %3.3f, r: %3.3f, p: %3.3f\012\015\000"
 261      332E3366 
 261      2C20723A 
 261      2025332E 
 261      33662C20 
 262              		.bss
 263              		.align	2
 264              		.set	.LANCHOR0,. + 0
 265              		.type	take_sample, %object
 266              		.size	take_sample, 4
 267              	take_sample:
 268 0000 00000000 		.space	4
 269              		.text
 270              	.Letext0:
 271              		.file 2 "c:\\program files (x86)\\cypress\\psoc creator\\4.2\\psoc creator\\import\\gnu\\arm\\5.4.
 272              		.file 3 "c:\\program files (x86)\\cypress\\psoc creator\\4.2\\psoc creator\\import\\gnu\\arm\\5.4.
 273              		.file 4 "Generated_Source\\PSoC5/cytypes.h"
 274              		.file 5 "bno055.h"
 275              		.file 6 "Generated_Source\\PSoC5/core_cm3.h"
 276              		.file 7 "Generated_Source\\PSoC5/Sample_Timer.h"
 277              		.file 8 "Generated_Source\\PSoC5/Seat_ADC.h"
 278              		.file 9 "Generated_Source\\PSoC5/USBUART.h"
 279              		.file 10 "Generated_Source\\PSoC5/USBUART_cdc.h"
 280              		.file 11 "Generated_Source\\PSoC5/Sample_Interrupt.h"
 281              		.file 12 "Generated_Source\\PSoC5/LED.h"
 282              		.file 13 "c:\\program files (x86)\\cypress\\psoc creator\\4.2\\psoc creator\\import\\gnu\\arm\\5.4
 283              		.file 14 "Generated_Source\\PSoC5/CyLib.h"