ARM GAS  C:\Users\jebush2\AppData\Local\Temp\ccGO4qI0.s 			page 1


   1              		.syntax unified
   2              		.cpu cortex-m3
   3              		.fpu softvfp
   4              		.eabi_attribute 20, 1
   5              		.eabi_attribute 21, 1
   6              		.eabi_attribute 23, 3
   7              		.eabi_attribute 24, 1
   8              		.eabi_attribute 25, 1
   9              		.eabi_attribute 26, 1
  10              		.eabi_attribute 30, 4
  11              		.eabi_attribute 34, 1
  12              		.eabi_attribute 18, 4
  13              		.thumb
  14              		.syntax unified
  15              		.file	"bno055.c"
  16              		.text
  17              	.Ltext0:
  18              		.cfi_sections	.debug_frame
  19              		.section	.text.bno_write,"ax",%progbits
  20              		.align	1
  21              		.global	bno_write
  22              		.thumb
  23              		.thumb_func
  24              		.type	bno_write, %function
  25              	bno_write:
  26              	.LFB64:
  27              		.file 1 "bno055.c"
   1:bno055.c      **** /* ========================================
   2:bno055.c      ****  *
   3:bno055.c      ****  * Copyright YOUR COMPANY, THE YEAR
   4:bno055.c      ****  * All Rights Reserved
   5:bno055.c      ****  * UNPUBLISHED, LICENSED SOFTWARE.
   6:bno055.c      ****  *
   7:bno055.c      ****  * CONFIDENTIAL AND PROPRIETARY INFORMATION
   8:bno055.c      ****  * WHICH IS THE PROPERTY OF your company.
   9:bno055.c      ****  *
  10:bno055.c      ****  * ========================================
  11:bno055.c      **** */
  12:bno055.c      **** 
  13:bno055.c      **** #include "project.h"
  14:bno055.c      **** #include "bno055.h"
  15:bno055.c      **** 
  16:bno055.c      **** #define DEVICE_ADDRESS 0x28
  17:bno055.c      **** #define BNO055_ID (0xA0)
  18:bno055.c      **** 
  19:bno055.c      **** //volatile euler_angles orientation = {.roll = 0, .pitch = 0, .yaw = 0};
  20:bno055.c      **** 
  21:bno055.c      **** int bno_init() {
  22:bno055.c      ****     
  23:bno055.c      ****     uint8_t id = bno_read(BNO055_CHIP_ID_ADDR);
  24:bno055.c      ****     if (id != BNO055_ID) {
  25:bno055.c      ****         CyDelay(1000); // hold on for boot
  26:bno055.c      ****         id = bno_read(BNO055_CHIP_ID_ADDR);
  27:bno055.c      ****         if (id != BNO055_ID) {
  28:bno055.c      ****             return 0; // still not? ok bail
  29:bno055.c      ****         }
  30:bno055.c      ****     }
ARM GAS  C:\Users\jebush2\AppData\Local\Temp\ccGO4qI0.s 			page 2


  31:bno055.c      ****     
  32:bno055.c      ****     bno_write(BNO055_OPR_MODE_ADDR, OPERATION_MODE_CONFIG);
  33:bno055.c      ****     CyDelay(60);
  34:bno055.c      ****     bno_write(BNO055_SYS_TRIGGER_ADDR, 0x20);   // reset
  35:bno055.c      ****     while (bno_read(BNO055_CHIP_ID_ADDR) != BNO055_ID) {
  36:bno055.c      ****         CyDelay(10);
  37:bno055.c      ****     }
  38:bno055.c      ****     CyDelay(60);
  39:bno055.c      ****     
  40:bno055.c      ****     bno_write(BNO055_PWR_MODE_ADDR, POWER_MODE_NORMAL);
  41:bno055.c      ****     CyDelay(10);
  42:bno055.c      ****     
  43:bno055.c      ****     bno_write(BNO055_PAGE_ID_ADDR, 0);
  44:bno055.c      ****     CyDelay(10);
  45:bno055.c      ****     
  46:bno055.c      ****     bno_write(BNO055_SYS_TRIGGER_ADDR, 0x00);
  47:bno055.c      ****     CyDelay(20);
  48:bno055.c      ****     
  49:bno055.c      ****     bno_write(BNO055_OPR_MODE_ADDR, OPERATION_MODE_GYRONLY);
  50:bno055.c      ****     CyDelay(60);
  51:bno055.c      ****     
  52:bno055.c      ****     return 1;
  53:bno055.c      ****     
  54:bno055.c      **** }
  55:bno055.c      **** 
  56:bno055.c      **** /* writes a single byte register */
  57:bno055.c      **** void bno_write(uint8 reg, uint8 data) {
  28              		.loc 1 57 0
  29              		.cfi_startproc
  30              		@ args = 0, pretend = 0, frame = 0
  31              		@ frame_needed = 0, uses_anonymous_args = 0
  32              	.LVL0:
  33 0000 70B5     		push	{r4, r5, r6, lr}
  34              		.cfi_def_cfa_offset 16
  35              		.cfi_offset 4, -16
  36              		.cfi_offset 5, -12
  37              		.cfi_offset 6, -8
  38              		.cfi_offset 14, -4
  39              		.loc 1 57 0
  40 0002 0646     		mov	r6, r0
  41 0004 0D46     		mov	r5, r1
  58:bno055.c      ****     uint8 status = I2C_MasterSendStart(DEVICE_ADDRESS, I2C_WRITE_XFER_MODE);
  42              		.loc 1 58 0
  43 0006 2820     		movs	r0, #40
  44              	.LVL1:
  45 0008 0021     		movs	r1, #0
  46              	.LVL2:
  47 000a FFF7FEFF 		bl	I2C_MasterSendStart
  48              	.LVL3:
  59:bno055.c      ****     if (status == I2C_MSTR_NO_ERROR) {
  49              		.loc 1 59 0
  50 000e 0446     		mov	r4, r0
  51 0010 40B9     		cbnz	r0, .L2
  60:bno055.c      ****         I2C_MasterWriteByte(reg);
  52              		.loc 1 60 0
  53 0012 3046     		mov	r0, r6
  54              	.LVL4:
ARM GAS  C:\Users\jebush2\AppData\Local\Temp\ccGO4qI0.s 			page 3


  55 0014 FFF7FEFF 		bl	I2C_MasterWriteByte
  56              	.LVL5:
  61:bno055.c      ****         LED_Write(0);
  57              		.loc 1 61 0
  58 0018 2046     		mov	r0, r4
  59 001a FFF7FEFF 		bl	LED_Write
  60              	.LVL6:
  62:bno055.c      ****         I2C_MasterWriteByte(data);
  61              		.loc 1 62 0
  62 001e 2846     		mov	r0, r5
  63 0020 FFF7FEFF 		bl	I2C_MasterWriteByte
  64              	.LVL7:
  65              	.L2:
  63:bno055.c      ****     }
  64:bno055.c      ****     
  65:bno055.c      ****     I2C_MasterSendStop();
  66:bno055.c      ****     
  67:bno055.c      **** }
  66              		.loc 1 67 0
  67 0024 BDE87040 		pop	{r4, r5, r6, lr}
  68              		.cfi_restore 14
  69              		.cfi_restore 6
  70              		.cfi_restore 5
  71              		.cfi_restore 4
  72              		.cfi_def_cfa_offset 0
  65:bno055.c      ****     
  73              		.loc 1 65 0
  74 0028 FFF7FEBF 		b	I2C_MasterSendStop
  75              	.LVL8:
  76              		.cfi_endproc
  77              	.LFE64:
  78              		.size	bno_write, .-bno_write
  79              		.section	.text.bno_read,"ax",%progbits
  80              		.align	1
  81              		.global	bno_read
  82              		.thumb
  83              		.thumb_func
  84              		.type	bno_read, %function
  85              	bno_read:
  86              	.LFB65:
  68:bno055.c      **** 
  69:bno055.c      **** /* reads a single byte register */
  70:bno055.c      **** uint8 bno_read(uint8 reg) {
  87              		.loc 1 70 0
  88              		.cfi_startproc
  89              		@ args = 0, pretend = 0, frame = 0
  90              		@ frame_needed = 0, uses_anonymous_args = 0
  91              	.LVL9:
  92 0000 10B5     		push	{r4, lr}
  93              		.cfi_def_cfa_offset 8
  94              		.cfi_offset 4, -8
  95              		.cfi_offset 14, -4
  96              		.loc 1 70 0
  97 0002 0446     		mov	r4, r0
  71:bno055.c      ****     I2C_MasterSendStart(DEVICE_ADDRESS, I2C_WRITE_XFER_MODE);
  98              		.loc 1 71 0
  99 0004 0021     		movs	r1, #0
ARM GAS  C:\Users\jebush2\AppData\Local\Temp\ccGO4qI0.s 			page 4


 100 0006 2820     		movs	r0, #40
 101              	.LVL10:
 102 0008 FFF7FEFF 		bl	I2C_MasterSendStart
 103              	.LVL11:
  72:bno055.c      ****     I2C_MasterWriteByte(reg);
 104              		.loc 1 72 0
 105 000c 2046     		mov	r0, r4
 106 000e FFF7FEFF 		bl	I2C_MasterWriteByte
 107              	.LVL12:
  73:bno055.c      ****     I2C_MasterSendRestart(DEVICE_ADDRESS, I2C_READ_XFER_MODE);
 108              		.loc 1 73 0
 109 0012 0121     		movs	r1, #1
 110 0014 2820     		movs	r0, #40
 111 0016 FFF7FEFF 		bl	I2C_MasterSendRestart
 112              	.LVL13:
  74:bno055.c      ****     uint8 data = I2C_MasterReadByte(I2C_NAK_DATA);
 113              		.loc 1 74 0
 114 001a 0020     		movs	r0, #0
 115 001c FFF7FEFF 		bl	I2C_MasterReadByte
 116              	.LVL14:
 117 0020 0446     		mov	r4, r0
 118              	.LVL15:
  75:bno055.c      ****     I2C_MasterSendStop();
 119              		.loc 1 75 0
 120 0022 FFF7FEFF 		bl	I2C_MasterSendStop
 121              	.LVL16:
  76:bno055.c      ****     return data;
  77:bno055.c      **** }
 122              		.loc 1 77 0
 123 0026 2046     		mov	r0, r4
 124 0028 10BD     		pop	{r4, pc}
 125              		.cfi_endproc
 126              	.LFE65:
 127              		.size	bno_read, .-bno_read
 128              		.section	.text.bno_init,"ax",%progbits
 129              		.align	1
 130              		.global	bno_init
 131              		.thumb
 132              		.thumb_func
 133              		.type	bno_init, %function
 134              	bno_init:
 135              	.LFB63:
  21:bno055.c      ****     
 136              		.loc 1 21 0
 137              		.cfi_startproc
 138              		@ args = 0, pretend = 0, frame = 0
 139              		@ frame_needed = 0, uses_anonymous_args = 0
 140 0000 08B5     		push	{r3, lr}
 141              		.cfi_def_cfa_offset 8
 142              		.cfi_offset 3, -8
 143              		.cfi_offset 14, -4
  23:bno055.c      ****     if (id != BNO055_ID) {
 144              		.loc 1 23 0
 145 0002 0020     		movs	r0, #0
 146 0004 FFF7FEFF 		bl	bno_read
 147              	.LVL17:
  24:bno055.c      ****         CyDelay(1000); // hold on for boot
ARM GAS  C:\Users\jebush2\AppData\Local\Temp\ccGO4qI0.s 			page 5


 148              		.loc 1 24 0
 149 0008 A028     		cmp	r0, #160
 150 000a 0BD1     		bne	.L6
 151              	.L9:
  32:bno055.c      ****     CyDelay(60);
 152              		.loc 1 32 0
 153 000c 0021     		movs	r1, #0
 154 000e 3D20     		movs	r0, #61
 155              	.LVL18:
 156 0010 FFF7FEFF 		bl	bno_write
 157              	.LVL19:
  33:bno055.c      ****     bno_write(BNO055_SYS_TRIGGER_ADDR, 0x20);   // reset
 158              		.loc 1 33 0
 159 0014 3C20     		movs	r0, #60
 160 0016 FFF7FEFF 		bl	CyDelay
 161              	.LVL20:
  34:bno055.c      ****     while (bno_read(BNO055_CHIP_ID_ADDR) != BNO055_ID) {
 162              		.loc 1 34 0
 163 001a 2021     		movs	r1, #32
 164 001c 3F20     		movs	r0, #63
 165 001e FFF7FEFF 		bl	bno_write
 166              	.LVL21:
  35:bno055.c      ****         CyDelay(10);
 167              		.loc 1 35 0
 168 0022 0AE0     		b	.L7
 169              	.LVL22:
 170              	.L6:
  25:bno055.c      ****         id = bno_read(BNO055_CHIP_ID_ADDR);
 171              		.loc 1 25 0
 172 0024 4FF47A70 		mov	r0, #1000
 173              	.LVL23:
 174 0028 FFF7FEFF 		bl	CyDelay
 175              	.LVL24:
  26:bno055.c      ****         if (id != BNO055_ID) {
 176              		.loc 1 26 0
 177 002c 0020     		movs	r0, #0
 178 002e FFF7FEFF 		bl	bno_read
 179              	.LVL25:
  27:bno055.c      ****             return 0; // still not? ok bail
 180              		.loc 1 27 0
 181 0032 A028     		cmp	r0, #160
 182 0034 EAD0     		beq	.L9
  28:bno055.c      ****         }
 183              		.loc 1 28 0
 184 0036 0020     		movs	r0, #0
 185              	.LVL26:
  54:bno055.c      **** 
 186              		.loc 1 54 0
 187 0038 08BD     		pop	{r3, pc}
 188              	.L7:
  35:bno055.c      ****         CyDelay(10);
 189              		.loc 1 35 0
 190 003a 0020     		movs	r0, #0
 191 003c FFF7FEFF 		bl	bno_read
 192              	.LVL27:
 193 0040 A028     		cmp	r0, #160
 194 0042 03D0     		beq	.L12
ARM GAS  C:\Users\jebush2\AppData\Local\Temp\ccGO4qI0.s 			page 6


  36:bno055.c      ****     }
 195              		.loc 1 36 0
 196 0044 0A20     		movs	r0, #10
 197 0046 FFF7FEFF 		bl	CyDelay
 198              	.LVL28:
 199 004a F6E7     		b	.L7
 200              	.L12:
  38:bno055.c      ****     
 201              		.loc 1 38 0
 202 004c 3C20     		movs	r0, #60
 203 004e FFF7FEFF 		bl	CyDelay
 204              	.LVL29:
  40:bno055.c      ****     CyDelay(10);
 205              		.loc 1 40 0
 206 0052 0021     		movs	r1, #0
 207 0054 3E20     		movs	r0, #62
 208 0056 FFF7FEFF 		bl	bno_write
 209              	.LVL30:
  41:bno055.c      ****     
 210              		.loc 1 41 0
 211 005a 0A20     		movs	r0, #10
 212 005c FFF7FEFF 		bl	CyDelay
 213              	.LVL31:
  43:bno055.c      ****     CyDelay(10);
 214              		.loc 1 43 0
 215 0060 0021     		movs	r1, #0
 216 0062 0720     		movs	r0, #7
 217 0064 FFF7FEFF 		bl	bno_write
 218              	.LVL32:
  44:bno055.c      ****     
 219              		.loc 1 44 0
 220 0068 0A20     		movs	r0, #10
 221 006a FFF7FEFF 		bl	CyDelay
 222              	.LVL33:
  46:bno055.c      ****     CyDelay(20);
 223              		.loc 1 46 0
 224 006e 0021     		movs	r1, #0
 225 0070 3F20     		movs	r0, #63
 226 0072 FFF7FEFF 		bl	bno_write
 227              	.LVL34:
  47:bno055.c      ****     
 228              		.loc 1 47 0
 229 0076 1420     		movs	r0, #20
 230 0078 FFF7FEFF 		bl	CyDelay
 231              	.LVL35:
  49:bno055.c      ****     CyDelay(60);
 232              		.loc 1 49 0
 233 007c 0321     		movs	r1, #3
 234 007e 3D20     		movs	r0, #61
 235 0080 FFF7FEFF 		bl	bno_write
 236              	.LVL36:
  50:bno055.c      ****     
 237              		.loc 1 50 0
 238 0084 3C20     		movs	r0, #60
 239 0086 FFF7FEFF 		bl	CyDelay
 240              	.LVL37:
  52:bno055.c      ****     
ARM GAS  C:\Users\jebush2\AppData\Local\Temp\ccGO4qI0.s 			page 7


 241              		.loc 1 52 0
 242 008a 0120     		movs	r0, #1
 243 008c 08BD     		pop	{r3, pc}
 244              		.cfi_endproc
 245              	.LFE63:
 246              		.size	bno_init, .-bno_init
 247              		.section	.text.bno_readbuf,"ax",%progbits
 248              		.align	1
 249              		.global	bno_readbuf
 250              		.thumb
 251              		.thumb_func
 252              		.type	bno_readbuf, %function
 253              	bno_readbuf:
 254              	.LFB66:
  78:bno055.c      **** 
  79:bno055.c      **** /* read data register into rdData buffer */
  80:bno055.c      **** void bno_readbuf(uint8 reg, uint8 * rdData, uint8 cnt) {
 255              		.loc 1 80 0
 256              		.cfi_startproc
 257              		@ args = 0, pretend = 0, frame = 0
 258              		@ frame_needed = 0, uses_anonymous_args = 0
 259              	.LVL38:
 260 0000 70B5     		push	{r4, r5, r6, lr}
 261              		.cfi_def_cfa_offset 16
 262              		.cfi_offset 4, -16
 263              		.cfi_offset 5, -12
 264              		.cfi_offset 6, -8
 265              		.cfi_offset 14, -4
 266              		.loc 1 80 0
 267 0002 0646     		mov	r6, r0
 268 0004 1546     		mov	r5, r2
 269 0006 0C46     		mov	r4, r1
  81:bno055.c      ****     uint8 status = I2C_MasterSendStart(DEVICE_ADDRESS, 0);
 270              		.loc 1 81 0
 271 0008 2820     		movs	r0, #40
 272              	.LVL39:
 273 000a 0021     		movs	r1, #0
 274              	.LVL40:
 275 000c FFF7FEFF 		bl	I2C_MasterSendStart
 276              	.LVL41:
  82:bno055.c      ****     //if (status == I2C_MSTR_NO_ERROR) {
  83:bno055.c      ****         I2C_MasterWriteByte(reg);
 277              		.loc 1 83 0
 278 0010 3046     		mov	r0, r6
 279 0012 FFF7FEFF 		bl	I2C_MasterWriteByte
 280              	.LVL42:
  84:bno055.c      ****         I2C_MasterReadBuf(DEVICE_ADDRESS, rdData, cnt, I2C_MODE_COMPLETE_XFER);
 281              		.loc 1 84 0
 282 0016 2A46     		mov	r2, r5
 283 0018 2146     		mov	r1, r4
 284 001a 0023     		movs	r3, #0
 285 001c 2820     		movs	r0, #40
 286 001e FFF7FEFF 		bl	I2C_MasterReadBuf
 287              	.LVL43:
  85:bno055.c      ****         I2C_MasterSendStop();
  86:bno055.c      ****     //}
  87:bno055.c      **** }
ARM GAS  C:\Users\jebush2\AppData\Local\Temp\ccGO4qI0.s 			page 8


 288              		.loc 1 87 0
 289 0022 BDE87040 		pop	{r4, r5, r6, lr}
 290              		.cfi_restore 14
 291              		.cfi_restore 6
 292              		.cfi_restore 5
 293              		.cfi_restore 4
 294              		.cfi_def_cfa_offset 0
 295              	.LVL44:
  85:bno055.c      ****         I2C_MasterSendStop();
 296              		.loc 1 85 0
 297 0026 FFF7FEBF 		b	I2C_MasterSendStop
 298              	.LVL45:
 299              		.cfi_endproc
 300              	.LFE66:
 301              		.size	bno_readbuf, .-bno_readbuf
 302              		.section	.text.bno_update,"ax",%progbits
 303              		.align	1
 304              		.global	bno_update
 305              		.thumb
 306              		.thumb_func
 307              		.type	bno_update, %function
 308              	bno_update:
 309              	.LFB67:
  88:bno055.c      **** 
  89:bno055.c      **** void bno_update(euler_angles * orientation) {
 310              		.loc 1 89 0
 311              		.cfi_startproc
 312              		@ args = 0, pretend = 0, frame = 0
 313              		@ frame_needed = 0, uses_anonymous_args = 0
 314              	.LVL46:
 315 0000 2DE9F843 		push	{r3, r4, r5, r6, r7, r8, r9, lr}
 316              		.cfi_def_cfa_offset 32
 317              		.cfi_offset 3, -32
 318              		.cfi_offset 4, -28
 319              		.cfi_offset 5, -24
 320              		.cfi_offset 6, -20
 321              		.cfi_offset 7, -16
 322              		.cfi_offset 8, -12
 323              		.cfi_offset 9, -8
 324              		.cfi_offset 14, -4
 325              		.loc 1 89 0
 326 0004 0446     		mov	r4, r0
  90:bno055.c      ****     uint8 buffer[6];
  91:bno055.c      ****     //bno_readbuf(VECTOR_GYROSCOPE, buffer, 6);
  92:bno055.c      ****     buffer[0] = bno_read(BNO055_EULER_H_LSB_ADDR);
 327              		.loc 1 92 0
 328 0006 1A20     		movs	r0, #26
 329              	.LVL47:
 330 0008 FFF7FEFF 		bl	bno_read
 331              	.LVL48:
 332 000c 0746     		mov	r7, r0
 333              	.LVL49:
  93:bno055.c      ****     buffer[1] = bno_read(BNO055_EULER_H_MSB_ADDR);
 334              		.loc 1 93 0
 335 000e 1B20     		movs	r0, #27
 336 0010 FFF7FEFF 		bl	bno_read
 337              	.LVL50:
ARM GAS  C:\Users\jebush2\AppData\Local\Temp\ccGO4qI0.s 			page 9


 338 0014 8146     		mov	r9, r0
 339              	.LVL51:
  94:bno055.c      ****     buffer[2] = bno_read(BNO055_EULER_R_LSB_ADDR);
 340              		.loc 1 94 0
 341 0016 1C20     		movs	r0, #28
 342 0018 FFF7FEFF 		bl	bno_read
 343              	.LVL52:
 344 001c 0646     		mov	r6, r0
 345              	.LVL53:
  95:bno055.c      ****     buffer[3] = bno_read(BNO055_EULER_R_MSB_ADDR);
 346              		.loc 1 95 0
 347 001e 1D20     		movs	r0, #29
 348 0020 FFF7FEFF 		bl	bno_read
 349              	.LVL54:
 350 0024 8046     		mov	r8, r0
 351              	.LVL55:
  96:bno055.c      ****     buffer[4] = bno_read(BNO055_EULER_P_LSB_ADDR);
 352              		.loc 1 96 0
 353 0026 1E20     		movs	r0, #30
 354 0028 FFF7FEFF 		bl	bno_read
 355              	.LVL56:
 356 002c 0546     		mov	r5, r0
 357              	.LVL57:
  97:bno055.c      ****     buffer[5] = bno_read(BNO055_EULER_P_MSB_ADDR);
 358              		.loc 1 97 0
 359 002e 1F20     		movs	r0, #31
 360 0030 FFF7FEFF 		bl	bno_read
 361              	.LVL58:
  98:bno055.c      ****     //buffer[5] = 0;
  99:bno055.c      ****     orientation->yaw   = (int16)buffer[1] << 8 | (int16)buffer[0];
 362              		.loc 1 99 0
 363 0034 47EA0927 		orr	r7, r7, r9, lsl #8
 364              	.LVL59:
 100:bno055.c      ****     orientation->roll  = (int16)buffer[3] << 8 | (int16)buffer[2];
 365              		.loc 1 100 0
 366 0038 46EA0826 		orr	r6, r6, r8, lsl #8
 367              	.LVL60:
 101:bno055.c      ****     orientation->pitch = (int16)buffer[5] << 8 | (int16)buffer[4];   
 368              		.loc 1 101 0
 369 003c 45EA0020 		orr	r0, r5, r0, lsl #8
 370              	.LVL61:
  99:bno055.c      ****     orientation->roll  = (int16)buffer[3] << 8 | (int16)buffer[2];
 371              		.loc 1 99 0
 372 0040 A780     		strh	r7, [r4, #4]	@ movhi
 100:bno055.c      ****     orientation->roll  = (int16)buffer[3] << 8 | (int16)buffer[2];
 373              		.loc 1 100 0
 374 0042 2680     		strh	r6, [r4]	@ movhi
 375              		.loc 1 101 0
 376 0044 6080     		strh	r0, [r4, #2]	@ movhi
 377 0046 BDE8F883 		pop	{r3, r4, r5, r6, r7, r8, r9, pc}
 378              		.cfi_endproc
 379              	.LFE67:
 380              		.size	bno_update, .-bno_update
 381              		.text
 382              	.Letext0:
 383              		.file 2 "c:\\program files (x86)\\cypress\\psoc creator\\4.2\\psoc creator\\import\\gnu\\arm\\5.4.
 384              		.file 3 "c:\\program files (x86)\\cypress\\psoc creator\\4.2\\psoc creator\\import\\gnu\\arm\\5.4.
ARM GAS  C:\Users\jebush2\AppData\Local\Temp\ccGO4qI0.s 			page 10


 385              		.file 4 "Generated_Source\\PSoC5/cytypes.h"
 386              		.file 5 "bno055.h"
 387              		.file 6 "Generated_Source\\PSoC5/I2C.h"
 388              		.file 7 "Generated_Source\\PSoC5/LED.h"
 389              		.file 8 "Generated_Source\\PSoC5/CyLib.h"
 390              		.file 9 "Generated_Source\\PSoC5/core_cm3.h"