ARM GAS  C:\Users\jebush2\AppData\Local\Temp\ccQjmQyh.s 			page 1


   1              		.syntax unified
   2              		.cpu cortex-m3
   3              		.fpu softvfp
   4              		.eabi_attribute 20, 1
   5              		.eabi_attribute 21, 1
   6              		.eabi_attribute 23, 3
   7              		.eabi_attribute 24, 1
   8              		.eabi_attribute 25, 1
   9              		.eabi_attribute 26, 1
  10              		.eabi_attribute 30, 4
  11              		.eabi_attribute 34, 1
  12              		.eabi_attribute 18, 4
  13              		.thumb
  14              		.syntax unified
  15              		.file	"cyfitter_cfg.c"
  16              		.text
  17              	.Ltext0:
  18              		.cfi_sections	.debug_frame
  19              		.section	.text.SetAnalogRoutingPumps,"ax",%progbits
  20              		.align	1
  21              		.global	SetAnalogRoutingPumps
  22              		.thumb
  23              		.thumb_func
  24              		.type	SetAnalogRoutingPumps, %function
  25              	SetAnalogRoutingPumps:
  26              	.LFB7:
  27              		.file 1 "Generated_Source\\PSoC5\\cyfitter_cfg.c"
   1:Generated_Source\PSoC5/cyfitter_cfg.c **** 
   2:Generated_Source\PSoC5/cyfitter_cfg.c **** /*******************************************************************************
   3:Generated_Source\PSoC5/cyfitter_cfg.c **** * File Name: cyfitter_cfg.c
   4:Generated_Source\PSoC5/cyfitter_cfg.c **** * 
   5:Generated_Source\PSoC5/cyfitter_cfg.c **** * PSoC Creator  4.2
   6:Generated_Source\PSoC5/cyfitter_cfg.c **** *
   7:Generated_Source\PSoC5/cyfitter_cfg.c **** * Description:
   8:Generated_Source\PSoC5/cyfitter_cfg.c **** * This file contains device initialization code.
   9:Generated_Source\PSoC5/cyfitter_cfg.c **** * Except for the user defined sections in CyClockStartupError(), this file should not be modified.
  10:Generated_Source\PSoC5/cyfitter_cfg.c **** * This file is automatically generated by PSoC Creator.
  11:Generated_Source\PSoC5/cyfitter_cfg.c **** *
  12:Generated_Source\PSoC5/cyfitter_cfg.c **** ********************************************************************************
  13:Generated_Source\PSoC5/cyfitter_cfg.c **** * Copyright (c) 2007-2018 Cypress Semiconductor.  All rights reserved.
  14:Generated_Source\PSoC5/cyfitter_cfg.c **** * You may use this file only in accordance with the license, terms, conditions, 
  15:Generated_Source\PSoC5/cyfitter_cfg.c **** * disclaimers, and limitations in the end user license agreement accompanying 
  16:Generated_Source\PSoC5/cyfitter_cfg.c **** * the software package with which this file was provided.
  17:Generated_Source\PSoC5/cyfitter_cfg.c **** ********************************************************************************/
  18:Generated_Source\PSoC5/cyfitter_cfg.c **** 
  19:Generated_Source\PSoC5/cyfitter_cfg.c **** #include <string.h>
  20:Generated_Source\PSoC5/cyfitter_cfg.c **** #include "cytypes.h"
  21:Generated_Source\PSoC5/cyfitter_cfg.c **** #include "cydevice_trm.h"
  22:Generated_Source\PSoC5/cyfitter_cfg.c **** #include "cyfitter.h"
  23:Generated_Source\PSoC5/cyfitter_cfg.c **** #include "CyLib.h"
  24:Generated_Source\PSoC5/cyfitter_cfg.c **** #include "cyfitter_cfg.h"
  25:Generated_Source\PSoC5/cyfitter_cfg.c **** #include "cyapicallbacks.h"
  26:Generated_Source\PSoC5/cyfitter_cfg.c **** 
  27:Generated_Source\PSoC5/cyfitter_cfg.c **** #define CY_NEED_CYCLOCKSTARTUPERROR 1
  28:Generated_Source\PSoC5/cyfitter_cfg.c **** 
  29:Generated_Source\PSoC5/cyfitter_cfg.c **** 
  30:Generated_Source\PSoC5/cyfitter_cfg.c **** #if defined(__GNUC__) || defined(__ARMCC_VERSION)
ARM GAS  C:\Users\jebush2\AppData\Local\Temp\ccQjmQyh.s 			page 2


  31:Generated_Source\PSoC5/cyfitter_cfg.c ****     #define CYPACKED 
  32:Generated_Source\PSoC5/cyfitter_cfg.c ****     #define CYPACKED_ATTR __attribute__ ((packed))
  33:Generated_Source\PSoC5/cyfitter_cfg.c ****     #define CYALIGNED __attribute__ ((aligned))
  34:Generated_Source\PSoC5/cyfitter_cfg.c ****     #define CY_CFG_UNUSED __attribute__ ((unused))
  35:Generated_Source\PSoC5/cyfitter_cfg.c ****     #ifndef CY_CFG_SECTION
  36:Generated_Source\PSoC5/cyfitter_cfg.c ****         #define CY_CFG_SECTION __attribute__ ((section(".psocinit")))
  37:Generated_Source\PSoC5/cyfitter_cfg.c ****     #endif
  38:Generated_Source\PSoC5/cyfitter_cfg.c ****     
  39:Generated_Source\PSoC5/cyfitter_cfg.c ****     #if defined(__ARMCC_VERSION)
  40:Generated_Source\PSoC5/cyfitter_cfg.c ****         #define CY_CFG_MEMORY_BARRIER() __memory_changed()
  41:Generated_Source\PSoC5/cyfitter_cfg.c ****     #else
  42:Generated_Source\PSoC5/cyfitter_cfg.c ****         #define CY_CFG_MEMORY_BARRIER() __sync_synchronize()
  43:Generated_Source\PSoC5/cyfitter_cfg.c ****     #endif
  44:Generated_Source\PSoC5/cyfitter_cfg.c ****     
  45:Generated_Source\PSoC5/cyfitter_cfg.c **** #elif defined(__ICCARM__)
  46:Generated_Source\PSoC5/cyfitter_cfg.c ****     #include <intrinsics.h>
  47:Generated_Source\PSoC5/cyfitter_cfg.c **** 
  48:Generated_Source\PSoC5/cyfitter_cfg.c ****     #define CYPACKED __packed
  49:Generated_Source\PSoC5/cyfitter_cfg.c ****     #define CYPACKED_ATTR 
  50:Generated_Source\PSoC5/cyfitter_cfg.c ****     #define CYALIGNED _Pragma("data_alignment=4")
  51:Generated_Source\PSoC5/cyfitter_cfg.c ****     #define CY_CFG_UNUSED _Pragma("diag_suppress=Pe177")
  52:Generated_Source\PSoC5/cyfitter_cfg.c ****     #define CY_CFG_SECTION _Pragma("location=\".psocinit\"")
  53:Generated_Source\PSoC5/cyfitter_cfg.c ****     
  54:Generated_Source\PSoC5/cyfitter_cfg.c ****     #define CY_CFG_MEMORY_BARRIER() __DMB()
  55:Generated_Source\PSoC5/cyfitter_cfg.c ****     
  56:Generated_Source\PSoC5/cyfitter_cfg.c **** #else
  57:Generated_Source\PSoC5/cyfitter_cfg.c ****     #error Unsupported toolchain
  58:Generated_Source\PSoC5/cyfitter_cfg.c **** #endif
  59:Generated_Source\PSoC5/cyfitter_cfg.c **** 
  60:Generated_Source\PSoC5/cyfitter_cfg.c **** #ifndef CYCODE
  61:Generated_Source\PSoC5/cyfitter_cfg.c ****     #define CYCODE
  62:Generated_Source\PSoC5/cyfitter_cfg.c **** #endif
  63:Generated_Source\PSoC5/cyfitter_cfg.c **** #ifndef CYDATA
  64:Generated_Source\PSoC5/cyfitter_cfg.c ****     #define CYDATA
  65:Generated_Source\PSoC5/cyfitter_cfg.c **** #endif
  66:Generated_Source\PSoC5/cyfitter_cfg.c **** #ifndef CYFAR
  67:Generated_Source\PSoC5/cyfitter_cfg.c ****     #define CYFAR
  68:Generated_Source\PSoC5/cyfitter_cfg.c **** #endif
  69:Generated_Source\PSoC5/cyfitter_cfg.c **** #ifndef CYXDATA
  70:Generated_Source\PSoC5/cyfitter_cfg.c ****     #define CYXDATA
  71:Generated_Source\PSoC5/cyfitter_cfg.c **** #endif
  72:Generated_Source\PSoC5/cyfitter_cfg.c **** 
  73:Generated_Source\PSoC5/cyfitter_cfg.c **** 
  74:Generated_Source\PSoC5/cyfitter_cfg.c **** CY_CFG_UNUSED
  75:Generated_Source\PSoC5/cyfitter_cfg.c **** static void CYMEMZERO(void *s, size_t n);
  76:Generated_Source\PSoC5/cyfitter_cfg.c **** CY_CFG_UNUSED
  77:Generated_Source\PSoC5/cyfitter_cfg.c **** static void CYMEMZERO(void *s, size_t n)
  78:Generated_Source\PSoC5/cyfitter_cfg.c **** {
  79:Generated_Source\PSoC5/cyfitter_cfg.c **** 	(void)memset(s, 0, n);
  80:Generated_Source\PSoC5/cyfitter_cfg.c **** }
  81:Generated_Source\PSoC5/cyfitter_cfg.c **** CY_CFG_UNUSED
  82:Generated_Source\PSoC5/cyfitter_cfg.c **** static void CYCONFIGCPY(void *dest, const void *src, size_t n);
  83:Generated_Source\PSoC5/cyfitter_cfg.c **** CY_CFG_UNUSED
  84:Generated_Source\PSoC5/cyfitter_cfg.c **** static void CYCONFIGCPY(void *dest, const void *src, size_t n)
  85:Generated_Source\PSoC5/cyfitter_cfg.c **** {
  86:Generated_Source\PSoC5/cyfitter_cfg.c **** 	(void)memcpy(dest, src, n);
  87:Generated_Source\PSoC5/cyfitter_cfg.c **** }
ARM GAS  C:\Users\jebush2\AppData\Local\Temp\ccQjmQyh.s 			page 3


  88:Generated_Source\PSoC5/cyfitter_cfg.c **** CY_CFG_UNUSED
  89:Generated_Source\PSoC5/cyfitter_cfg.c **** static void CYCONFIGCPYCODE(void *dest, const void *src, size_t n);
  90:Generated_Source\PSoC5/cyfitter_cfg.c **** CY_CFG_UNUSED
  91:Generated_Source\PSoC5/cyfitter_cfg.c **** static void CYCONFIGCPYCODE(void *dest, const void *src, size_t n)
  92:Generated_Source\PSoC5/cyfitter_cfg.c **** {
  93:Generated_Source\PSoC5/cyfitter_cfg.c **** 	(void)memcpy(dest, src, n);
  94:Generated_Source\PSoC5/cyfitter_cfg.c **** }
  95:Generated_Source\PSoC5/cyfitter_cfg.c **** 
  96:Generated_Source\PSoC5/cyfitter_cfg.c **** 
  97:Generated_Source\PSoC5/cyfitter_cfg.c **** 
  98:Generated_Source\PSoC5/cyfitter_cfg.c **** 
  99:Generated_Source\PSoC5/cyfitter_cfg.c **** /* Clock startup error codes                                                   */
 100:Generated_Source\PSoC5/cyfitter_cfg.c **** #define CYCLOCKSTART_NO_ERROR    0u
 101:Generated_Source\PSoC5/cyfitter_cfg.c **** #define CYCLOCKSTART_XTAL_ERROR  1u
 102:Generated_Source\PSoC5/cyfitter_cfg.c **** #define CYCLOCKSTART_32KHZ_ERROR 2u
 103:Generated_Source\PSoC5/cyfitter_cfg.c **** #define CYCLOCKSTART_PLL_ERROR   3u
 104:Generated_Source\PSoC5/cyfitter_cfg.c **** #define CYCLOCKSTART_FLL_ERROR   4u
 105:Generated_Source\PSoC5/cyfitter_cfg.c **** #define CYCLOCKSTART_WCO_ERROR   5u
 106:Generated_Source\PSoC5/cyfitter_cfg.c **** 
 107:Generated_Source\PSoC5/cyfitter_cfg.c **** 
 108:Generated_Source\PSoC5/cyfitter_cfg.c **** #ifdef CY_NEED_CYCLOCKSTARTUPERROR
 109:Generated_Source\PSoC5/cyfitter_cfg.c **** /*******************************************************************************
 110:Generated_Source\PSoC5/cyfitter_cfg.c **** * Function Name: CyClockStartupError
 111:Generated_Source\PSoC5/cyfitter_cfg.c **** ********************************************************************************
 112:Generated_Source\PSoC5/cyfitter_cfg.c **** * Summary:
 113:Generated_Source\PSoC5/cyfitter_cfg.c **** *  If an error is encountered during clock configuration (crystal startup error,
 114:Generated_Source\PSoC5/cyfitter_cfg.c **** *  PLL lock error, etc.), the system will end up here.  Unless reimplemented by
 115:Generated_Source\PSoC5/cyfitter_cfg.c **** *  the customer, this function will stop in an infinite loop.
 116:Generated_Source\PSoC5/cyfitter_cfg.c **** *
 117:Generated_Source\PSoC5/cyfitter_cfg.c **** * Parameters:
 118:Generated_Source\PSoC5/cyfitter_cfg.c **** *   void
 119:Generated_Source\PSoC5/cyfitter_cfg.c **** *
 120:Generated_Source\PSoC5/cyfitter_cfg.c **** * Return:
 121:Generated_Source\PSoC5/cyfitter_cfg.c **** *   void
 122:Generated_Source\PSoC5/cyfitter_cfg.c **** *
 123:Generated_Source\PSoC5/cyfitter_cfg.c **** *******************************************************************************/
 124:Generated_Source\PSoC5/cyfitter_cfg.c **** CY_CFG_UNUSED
 125:Generated_Source\PSoC5/cyfitter_cfg.c **** static void CyClockStartupError(uint8 errorCode);
 126:Generated_Source\PSoC5/cyfitter_cfg.c **** CY_CFG_UNUSED
 127:Generated_Source\PSoC5/cyfitter_cfg.c **** static void CyClockStartupError(uint8 errorCode)
 128:Generated_Source\PSoC5/cyfitter_cfg.c **** {
 129:Generated_Source\PSoC5/cyfitter_cfg.c ****     /* To remove the compiler warning if errorCode not used.                */
 130:Generated_Source\PSoC5/cyfitter_cfg.c ****     errorCode = errorCode;
 131:Generated_Source\PSoC5/cyfitter_cfg.c **** 
 132:Generated_Source\PSoC5/cyfitter_cfg.c ****     /* If we have a clock startup error (bad MHz crystal, PLL lock, etc.),  */
 133:Generated_Source\PSoC5/cyfitter_cfg.c ****     /* we will end up here to allow the customer to implement something to  */
 134:Generated_Source\PSoC5/cyfitter_cfg.c ****     /* deal with the clock condition.                                       */
 135:Generated_Source\PSoC5/cyfitter_cfg.c **** 
 136:Generated_Source\PSoC5/cyfitter_cfg.c **** #ifdef CY_CFG_CLOCK_STARTUP_ERROR_CALLBACK
 137:Generated_Source\PSoC5/cyfitter_cfg.c ****     CY_CFG_Clock_Startup_ErrorCallback();
 138:Generated_Source\PSoC5/cyfitter_cfg.c **** #else
 139:Generated_Source\PSoC5/cyfitter_cfg.c ****     /*  If not using CY_CFG_CLOCK_STARTUP_ERROR_CALLBACK, place your clock startup code here. */
 140:Generated_Source\PSoC5/cyfitter_cfg.c ****     /* `#START CyClockStartupError` */
 141:Generated_Source\PSoC5/cyfitter_cfg.c **** 
 142:Generated_Source\PSoC5/cyfitter_cfg.c **** 
 143:Generated_Source\PSoC5/cyfitter_cfg.c **** 
 144:Generated_Source\PSoC5/cyfitter_cfg.c ****     /* `#END` */
ARM GAS  C:\Users\jebush2\AppData\Local\Temp\ccQjmQyh.s 			page 4


 145:Generated_Source\PSoC5/cyfitter_cfg.c **** 
 146:Generated_Source\PSoC5/cyfitter_cfg.c ****     while(1) {}
 147:Generated_Source\PSoC5/cyfitter_cfg.c **** #endif /* CY_CFG_CLOCK_STARTUP_ERROR_CALLBACK */
 148:Generated_Source\PSoC5/cyfitter_cfg.c **** }
 149:Generated_Source\PSoC5/cyfitter_cfg.c **** #endif
 150:Generated_Source\PSoC5/cyfitter_cfg.c **** 
 151:Generated_Source\PSoC5/cyfitter_cfg.c **** #define CY_CFG_BASE_ADDR_COUNT 34u
 152:Generated_Source\PSoC5/cyfitter_cfg.c **** CYPACKED typedef struct
 153:Generated_Source\PSoC5/cyfitter_cfg.c **** {
 154:Generated_Source\PSoC5/cyfitter_cfg.c **** 	uint8 offset;
 155:Generated_Source\PSoC5/cyfitter_cfg.c **** 	uint8 value;
 156:Generated_Source\PSoC5/cyfitter_cfg.c **** } CYPACKED_ATTR cy_cfg_addrvalue_t;
 157:Generated_Source\PSoC5/cyfitter_cfg.c **** 
 158:Generated_Source\PSoC5/cyfitter_cfg.c **** #define cy_cfg_addr_table ((const uint32 CYFAR *)0x48000000u)
 159:Generated_Source\PSoC5/cyfitter_cfg.c **** #define cy_cfg_data_table ((const cy_cfg_addrvalue_t CYFAR *)0x48000088u)
 160:Generated_Source\PSoC5/cyfitter_cfg.c **** 
 161:Generated_Source\PSoC5/cyfitter_cfg.c **** /* IOPINS0_0 Address: CYREG_PRT0_DM0 Size (bytes): 8 */
 162:Generated_Source\PSoC5/cyfitter_cfg.c **** #define BS_IOPINS0_0_VAL ((const uint8 CYFAR *)0x48000444u)
 163:Generated_Source\PSoC5/cyfitter_cfg.c **** 
 164:Generated_Source\PSoC5/cyfitter_cfg.c **** /* IOPINS0_7 Address: CYREG_PRT12_DR Size (bytes): 10 */
 165:Generated_Source\PSoC5/cyfitter_cfg.c **** #define BS_IOPINS0_7_VAL ((const uint8 CYFAR *)0x4800044Cu)
 166:Generated_Source\PSoC5/cyfitter_cfg.c **** 
 167:Generated_Source\PSoC5/cyfitter_cfg.c **** /* IOPINS0_8 Address: CYREG_PRT15_DR Size (bytes): 10 */
 168:Generated_Source\PSoC5/cyfitter_cfg.c **** #define BS_IOPINS0_8_VAL ((const uint8 CYFAR *)0x48000458u)
 169:Generated_Source\PSoC5/cyfitter_cfg.c **** 
 170:Generated_Source\PSoC5/cyfitter_cfg.c **** /* IOPINS0_1 Address: CYREG_PRT1_DM0 Size (bytes): 8 */
 171:Generated_Source\PSoC5/cyfitter_cfg.c **** #define BS_IOPINS0_1_VAL ((const uint8 CYFAR *)0x48000464u)
 172:Generated_Source\PSoC5/cyfitter_cfg.c **** 
 173:Generated_Source\PSoC5/cyfitter_cfg.c **** /* IOPINS0_2 Address: CYREG_PRT2_DM0 Size (bytes): 8 */
 174:Generated_Source\PSoC5/cyfitter_cfg.c **** #define BS_IOPINS0_2_VAL ((const uint8 CYFAR *)0x4800046Cu)
 175:Generated_Source\PSoC5/cyfitter_cfg.c **** 
 176:Generated_Source\PSoC5/cyfitter_cfg.c **** /* IOPINS0_3 Address: CYREG_PRT3_DM0 Size (bytes): 8 */
 177:Generated_Source\PSoC5/cyfitter_cfg.c **** #define BS_IOPINS0_3_VAL ((const uint8 CYFAR *)0x48000474u)
 178:Generated_Source\PSoC5/cyfitter_cfg.c **** 
 179:Generated_Source\PSoC5/cyfitter_cfg.c **** /* PHUB_CFGMEM1 Address: CYREG_PHUB_CFGMEM1_CFG0 Size (bytes): 4 */
 180:Generated_Source\PSoC5/cyfitter_cfg.c **** #define BS_PHUB_CFGMEM1_VAL ((const uint8 CYFAR *)0x4800047Cu)
 181:Generated_Source\PSoC5/cyfitter_cfg.c **** 
 182:Generated_Source\PSoC5/cyfitter_cfg.c **** 
 183:Generated_Source\PSoC5/cyfitter_cfg.c **** /*******************************************************************************
 184:Generated_Source\PSoC5/cyfitter_cfg.c **** * Function Name: cfg_write_bytes32
 185:Generated_Source\PSoC5/cyfitter_cfg.c **** ********************************************************************************
 186:Generated_Source\PSoC5/cyfitter_cfg.c **** * Summary:
 187:Generated_Source\PSoC5/cyfitter_cfg.c **** *  This function is used for setting up the chip configuration areas that
 188:Generated_Source\PSoC5/cyfitter_cfg.c **** *  contain relatively sparse data.
 189:Generated_Source\PSoC5/cyfitter_cfg.c **** *
 190:Generated_Source\PSoC5/cyfitter_cfg.c **** * Parameters:
 191:Generated_Source\PSoC5/cyfitter_cfg.c **** *   void
 192:Generated_Source\PSoC5/cyfitter_cfg.c **** *
 193:Generated_Source\PSoC5/cyfitter_cfg.c **** * Return:
 194:Generated_Source\PSoC5/cyfitter_cfg.c **** *   void
 195:Generated_Source\PSoC5/cyfitter_cfg.c **** *
 196:Generated_Source\PSoC5/cyfitter_cfg.c **** *******************************************************************************/
 197:Generated_Source\PSoC5/cyfitter_cfg.c **** static void cfg_write_bytes32(const uint32 addr_table[], const cy_cfg_addrvalue_t data_table[]);
 198:Generated_Source\PSoC5/cyfitter_cfg.c **** static void cfg_write_bytes32(const uint32 addr_table[], const cy_cfg_addrvalue_t data_table[])
 199:Generated_Source\PSoC5/cyfitter_cfg.c **** {
 200:Generated_Source\PSoC5/cyfitter_cfg.c **** 	/* For 32-bit little-endian architectures */
 201:Generated_Source\PSoC5/cyfitter_cfg.c **** 	uint32 i, j = 0u;
ARM GAS  C:\Users\jebush2\AppData\Local\Temp\ccQjmQyh.s 			page 5


 202:Generated_Source\PSoC5/cyfitter_cfg.c **** 	for (i = 0u; i < CY_CFG_BASE_ADDR_COUNT; i++)
 203:Generated_Source\PSoC5/cyfitter_cfg.c **** 	{
 204:Generated_Source\PSoC5/cyfitter_cfg.c **** 		uint32 baseAddr = addr_table[i];
 205:Generated_Source\PSoC5/cyfitter_cfg.c **** 		uint8 count = (uint8)baseAddr;
 206:Generated_Source\PSoC5/cyfitter_cfg.c **** 		baseAddr &= 0xFFFFFF00u;
 207:Generated_Source\PSoC5/cyfitter_cfg.c **** 		while (count != 0u)
 208:Generated_Source\PSoC5/cyfitter_cfg.c **** 		{
 209:Generated_Source\PSoC5/cyfitter_cfg.c **** 			CY_SET_REG8((void *)(baseAddr + data_table[j].offset), data_table[j].value);
 210:Generated_Source\PSoC5/cyfitter_cfg.c **** 			j++;
 211:Generated_Source\PSoC5/cyfitter_cfg.c **** 			count--;
 212:Generated_Source\PSoC5/cyfitter_cfg.c **** 		}
 213:Generated_Source\PSoC5/cyfitter_cfg.c **** 	}
 214:Generated_Source\PSoC5/cyfitter_cfg.c **** }
 215:Generated_Source\PSoC5/cyfitter_cfg.c **** 
 216:Generated_Source\PSoC5/cyfitter_cfg.c **** /*******************************************************************************
 217:Generated_Source\PSoC5/cyfitter_cfg.c **** * Function Name: ClockSetup
 218:Generated_Source\PSoC5/cyfitter_cfg.c **** ********************************************************************************
 219:Generated_Source\PSoC5/cyfitter_cfg.c **** *
 220:Generated_Source\PSoC5/cyfitter_cfg.c **** * Summary:
 221:Generated_Source\PSoC5/cyfitter_cfg.c **** *  Performs the initialization of all of the clocks in the device based on the
 222:Generated_Source\PSoC5/cyfitter_cfg.c **** *  settings in the Clock tab of the DWR.  This includes enabling the requested
 223:Generated_Source\PSoC5/cyfitter_cfg.c **** *  clocks and setting the necessary dividers to produce the desired frequency. 
 224:Generated_Source\PSoC5/cyfitter_cfg.c **** *
 225:Generated_Source\PSoC5/cyfitter_cfg.c **** * Parameters:
 226:Generated_Source\PSoC5/cyfitter_cfg.c **** *  void
 227:Generated_Source\PSoC5/cyfitter_cfg.c **** *
 228:Generated_Source\PSoC5/cyfitter_cfg.c **** * Return:
 229:Generated_Source\PSoC5/cyfitter_cfg.c **** *  void
 230:Generated_Source\PSoC5/cyfitter_cfg.c **** *
 231:Generated_Source\PSoC5/cyfitter_cfg.c **** *******************************************************************************/
 232:Generated_Source\PSoC5/cyfitter_cfg.c **** static void ClockSetup(void);
 233:Generated_Source\PSoC5/cyfitter_cfg.c **** static void ClockSetup(void)
 234:Generated_Source\PSoC5/cyfitter_cfg.c **** {
 235:Generated_Source\PSoC5/cyfitter_cfg.c **** 	uint32 timeout;
 236:Generated_Source\PSoC5/cyfitter_cfg.c **** 	uint8 pllLock;
 237:Generated_Source\PSoC5/cyfitter_cfg.c **** 
 238:Generated_Source\PSoC5/cyfitter_cfg.c **** 
 239:Generated_Source\PSoC5/cyfitter_cfg.c **** 	/* Configure Digital Clocks based on settings from Clock DWR */
 240:Generated_Source\PSoC5/cyfitter_cfg.c **** 	CY_SET_XTND_REG16((void CYFAR *)(CYREG_CLKDIST_DCFG0_CFG0), 0x001Du);
 241:Generated_Source\PSoC5/cyfitter_cfg.c **** 	CY_SET_XTND_REG8((void CYFAR *)(CYREG_CLKDIST_DCFG0_CFG0 + 0x2u), 0x18u);
 242:Generated_Source\PSoC5/cyfitter_cfg.c **** 	CY_SET_XTND_REG16((void CYFAR *)(CYREG_CLKDIST_DCFG1_CFG0), 0x5DBFu);
 243:Generated_Source\PSoC5/cyfitter_cfg.c **** 	CY_SET_XTND_REG8((void CYFAR *)(CYREG_CLKDIST_DCFG1_CFG0 + 0x2u), 0x19u);
 244:Generated_Source\PSoC5/cyfitter_cfg.c **** 
 245:Generated_Source\PSoC5/cyfitter_cfg.c **** 	/* Configure ILO based on settings from Clock DWR */
 246:Generated_Source\PSoC5/cyfitter_cfg.c **** 	CY_SET_XTND_REG8((void CYFAR *)(CYREG_SLOWCLK_ILO_CR0), 0x06u);
 247:Generated_Source\PSoC5/cyfitter_cfg.c **** 
 248:Generated_Source\PSoC5/cyfitter_cfg.c **** 	/* Configure IMO based on settings from Clock DWR */
 249:Generated_Source\PSoC5/cyfitter_cfg.c **** 	CY_SET_XTND_REG8((void CYFAR *)(CYREG_FASTCLK_IMO_CR), 0x52u);
 250:Generated_Source\PSoC5/cyfitter_cfg.c **** 	CY_SET_XTND_REG8((void CYFAR *)(CYREG_IMO_TR1), (CY_GET_XTND_REG8((void CYFAR *)CYREG_FLSHID_CUST_
 251:Generated_Source\PSoC5/cyfitter_cfg.c **** 
 252:Generated_Source\PSoC5/cyfitter_cfg.c **** 	/* Configure PLL based on settings from Clock DWR */
 253:Generated_Source\PSoC5/cyfitter_cfg.c **** 	CY_SET_XTND_REG16((void CYFAR *)(CYREG_FASTCLK_PLL_P), 0x0710u);
 254:Generated_Source\PSoC5/cyfitter_cfg.c **** 	CY_SET_XTND_REG16((void CYFAR *)(CYREG_FASTCLK_PLL_CFG0), 0x1251u);
 255:Generated_Source\PSoC5/cyfitter_cfg.c **** 	/* Wait up to 250us for the PLL to lock */
 256:Generated_Source\PSoC5/cyfitter_cfg.c **** 	pllLock = 0u;
 257:Generated_Source\PSoC5/cyfitter_cfg.c **** 	for (timeout = 250u / 10u; (timeout > 0u) && (pllLock != 0x03u); timeout--)
 258:Generated_Source\PSoC5/cyfitter_cfg.c **** 	{ 
ARM GAS  C:\Users\jebush2\AppData\Local\Temp\ccQjmQyh.s 			page 6


 259:Generated_Source\PSoC5/cyfitter_cfg.c **** 		pllLock = 0x03u & ((uint8)((uint8)pllLock << 1) | ((CY_GET_XTND_REG8((void CYFAR *)CYREG_FASTCLK_
 260:Generated_Source\PSoC5/cyfitter_cfg.c **** 		CyDelayCycles(10u * 48u); /* Delay 10us based on 48MHz clock */
 261:Generated_Source\PSoC5/cyfitter_cfg.c **** 	}
 262:Generated_Source\PSoC5/cyfitter_cfg.c **** 	/* If we ran out of time the PLL didn't lock so go to the error function */
 263:Generated_Source\PSoC5/cyfitter_cfg.c **** 	if (timeout == 0u)
 264:Generated_Source\PSoC5/cyfitter_cfg.c **** 	{
 265:Generated_Source\PSoC5/cyfitter_cfg.c **** 		CyClockStartupError(CYCLOCKSTART_PLL_ERROR);
 266:Generated_Source\PSoC5/cyfitter_cfg.c **** 	}
 267:Generated_Source\PSoC5/cyfitter_cfg.c **** 
 268:Generated_Source\PSoC5/cyfitter_cfg.c **** 	/* Configure Bus/Master Clock based on settings from Clock DWR */
 269:Generated_Source\PSoC5/cyfitter_cfg.c **** 	CY_SET_XTND_REG16((void CYFAR *)(CYREG_CLKDIST_MSTR0), 0x0100u);
 270:Generated_Source\PSoC5/cyfitter_cfg.c **** 	CY_SET_XTND_REG8((void CYFAR *)(CYREG_CLKDIST_MSTR0), 0x07u);
 271:Generated_Source\PSoC5/cyfitter_cfg.c **** 	CY_SET_XTND_REG8((void CYFAR *)(CYREG_CLKDIST_BCFG0), 0x00u);
 272:Generated_Source\PSoC5/cyfitter_cfg.c **** 	CY_SET_XTND_REG8((void CYFAR *)(CYREG_CLKDIST_BCFG2), 0x48u);
 273:Generated_Source\PSoC5/cyfitter_cfg.c **** 	CY_SET_XTND_REG8((void CYFAR *)(CYREG_CLKDIST_MSTR0), 0x00u);
 274:Generated_Source\PSoC5/cyfitter_cfg.c **** 
 275:Generated_Source\PSoC5/cyfitter_cfg.c **** 	/* Configure USB Clock based on settings from Clock DWR */
 276:Generated_Source\PSoC5/cyfitter_cfg.c **** 	CY_SET_XTND_REG8((void CYFAR *)(CYREG_CLKDIST_UCFG), 0x00u);
 277:Generated_Source\PSoC5/cyfitter_cfg.c **** 	CY_SET_XTND_REG8((void CYFAR *)(CYREG_CLKDIST_LD), 0x02u);
 278:Generated_Source\PSoC5/cyfitter_cfg.c **** 
 279:Generated_Source\PSoC5/cyfitter_cfg.c **** 	CY_SET_XTND_REG8((void CYFAR *)(CYREG_PM_ACT_CFG2), ((CY_GET_XTND_REG8((void CYFAR *)CYREG_PM_ACT_
 280:Generated_Source\PSoC5/cyfitter_cfg.c **** }
 281:Generated_Source\PSoC5/cyfitter_cfg.c **** 
 282:Generated_Source\PSoC5/cyfitter_cfg.c **** 
 283:Generated_Source\PSoC5/cyfitter_cfg.c **** /* Analog API Functions */
 284:Generated_Source\PSoC5/cyfitter_cfg.c **** 
 285:Generated_Source\PSoC5/cyfitter_cfg.c **** 
 286:Generated_Source\PSoC5/cyfitter_cfg.c **** /*******************************************************************************
 287:Generated_Source\PSoC5/cyfitter_cfg.c **** * Function Name: AnalogSetDefault
 288:Generated_Source\PSoC5/cyfitter_cfg.c **** ********************************************************************************
 289:Generated_Source\PSoC5/cyfitter_cfg.c **** *
 290:Generated_Source\PSoC5/cyfitter_cfg.c **** * Summary:
 291:Generated_Source\PSoC5/cyfitter_cfg.c **** *  Sets up the analog portions of the chip to default values based on chip
 292:Generated_Source\PSoC5/cyfitter_cfg.c **** *  configuration options from the project.
 293:Generated_Source\PSoC5/cyfitter_cfg.c **** *
 294:Generated_Source\PSoC5/cyfitter_cfg.c **** * Parameters:
 295:Generated_Source\PSoC5/cyfitter_cfg.c **** *  void
 296:Generated_Source\PSoC5/cyfitter_cfg.c **** *
 297:Generated_Source\PSoC5/cyfitter_cfg.c **** * Return:
 298:Generated_Source\PSoC5/cyfitter_cfg.c **** *  void
 299:Generated_Source\PSoC5/cyfitter_cfg.c **** *
 300:Generated_Source\PSoC5/cyfitter_cfg.c **** *******************************************************************************/
 301:Generated_Source\PSoC5/cyfitter_cfg.c **** static void AnalogSetDefault(void);
 302:Generated_Source\PSoC5/cyfitter_cfg.c **** static void AnalogSetDefault(void)
 303:Generated_Source\PSoC5/cyfitter_cfg.c **** {
 304:Generated_Source\PSoC5/cyfitter_cfg.c **** 	uint8 bg_xover_inl_trim = CY_GET_XTND_REG8((void CYFAR *)(CYREG_FLSHID_MFG_CFG_BG_XOVER_INL_TRIM +
 305:Generated_Source\PSoC5/cyfitter_cfg.c **** 	uint8 cr4 = CY_GET_XTND_REG8((void CYFAR *)(CYREG_RESET_CR4));
 306:Generated_Source\PSoC5/cyfitter_cfg.c **** 	uint8 cr5 = CY_GET_XTND_REG8((void CYFAR *)(CYREG_RESET_CR5));
 307:Generated_Source\PSoC5/cyfitter_cfg.c **** 	CY_SET_XTND_REG8((void CYFAR *)(CYREG_BG_DFT0), (bg_xover_inl_trim & 0x07u));
 308:Generated_Source\PSoC5/cyfitter_cfg.c **** 	CY_SET_XTND_REG8((void CYFAR *)(CYREG_BG_DFT1), ((bg_xover_inl_trim >> 4) & 0x0Fu));
 309:Generated_Source\PSoC5/cyfitter_cfg.c **** 	/* Disable PRES while setting up SAR voltage reference */
 310:Generated_Source\PSoC5/cyfitter_cfg.c **** 	CY_SET_XTND_REG8((void CYFAR *)(CYREG_RESET_CR4), (cr4 | 0x03u));
 311:Generated_Source\PSoC5/cyfitter_cfg.c **** 	CY_SET_XTND_REG8((void CYFAR *)(CYREG_RESET_CR5), (cr5 | 0x03u));
 312:Generated_Source\PSoC5/cyfitter_cfg.c **** 	CY_SET_XTND_REG8((void CYFAR *)CYREG_PRT0_AG, 0x3Fu);
 313:Generated_Source\PSoC5/cyfitter_cfg.c **** 	CY_SET_XTND_REG8((void CYFAR *)CYREG_SAR0_CSR1, 0x80u);
 314:Generated_Source\PSoC5/cyfitter_cfg.c **** 	CY_SET_XTND_REG8((void CYFAR *)CYREG_SAR0_SW0, 0xA0u);
 315:Generated_Source\PSoC5/cyfitter_cfg.c **** 	CY_SET_XTND_REG8((void CYFAR *)CYREG_SAR0_SW4, 0x50u);
ARM GAS  C:\Users\jebush2\AppData\Local\Temp\ccQjmQyh.s 			page 7


 316:Generated_Source\PSoC5/cyfitter_cfg.c **** 	CyDelayUs(10u); /* Allow vref to settle before re-enabling PRES */
 317:Generated_Source\PSoC5/cyfitter_cfg.c **** 	CY_SET_XTND_REG8((void CYFAR *)(CYREG_RESET_CR5), (cr5));
 318:Generated_Source\PSoC5/cyfitter_cfg.c **** 	CY_SET_XTND_REG8((void CYFAR *)(CYREG_RESET_CR4), (cr4));
 319:Generated_Source\PSoC5/cyfitter_cfg.c **** 	CY_SET_XTND_REG8((void CYFAR *)CYREG_PUMP_CR0, 0x44u);
 320:Generated_Source\PSoC5/cyfitter_cfg.c **** }
 321:Generated_Source\PSoC5/cyfitter_cfg.c **** 
 322:Generated_Source\PSoC5/cyfitter_cfg.c **** 
 323:Generated_Source\PSoC5/cyfitter_cfg.c **** /*******************************************************************************
 324:Generated_Source\PSoC5/cyfitter_cfg.c **** * Function Name: SetAnalogRoutingPumps
 325:Generated_Source\PSoC5/cyfitter_cfg.c **** ********************************************************************************
 326:Generated_Source\PSoC5/cyfitter_cfg.c **** *
 327:Generated_Source\PSoC5/cyfitter_cfg.c **** * Summary:
 328:Generated_Source\PSoC5/cyfitter_cfg.c **** * Enables or disables the analog pumps feeding analog routing switches.
 329:Generated_Source\PSoC5/cyfitter_cfg.c **** * Intended to be called at startup, based on the Vdda system configuration;
 330:Generated_Source\PSoC5/cyfitter_cfg.c **** * may be called during operation when the user informs us that the Vdda voltage
 331:Generated_Source\PSoC5/cyfitter_cfg.c **** * crossed the pump threshold.
 332:Generated_Source\PSoC5/cyfitter_cfg.c **** *
 333:Generated_Source\PSoC5/cyfitter_cfg.c **** * Parameters:
 334:Generated_Source\PSoC5/cyfitter_cfg.c **** *  enabled - 1 to enable the pumps, 0 to disable the pumps
 335:Generated_Source\PSoC5/cyfitter_cfg.c **** *
 336:Generated_Source\PSoC5/cyfitter_cfg.c **** * Return:
 337:Generated_Source\PSoC5/cyfitter_cfg.c **** *  void
 338:Generated_Source\PSoC5/cyfitter_cfg.c **** *
 339:Generated_Source\PSoC5/cyfitter_cfg.c **** *******************************************************************************/
 340:Generated_Source\PSoC5/cyfitter_cfg.c **** void SetAnalogRoutingPumps(uint8 enabled)
 341:Generated_Source\PSoC5/cyfitter_cfg.c **** {
  28              		.loc 1 341 0
  29              		.cfi_startproc
  30              		@ args = 0, pretend = 0, frame = 0
  31              		@ frame_needed = 0, uses_anonymous_args = 0
  32              		@ link register save eliminated.
  33              	.LVL0:
 342:Generated_Source\PSoC5/cyfitter_cfg.c **** 	uint8 regValue = CY_GET_XTND_REG8((void CYFAR *)CYREG_PUMP_CR0);
  34              		.loc 1 342 0
  35 0000 054A     		ldr	r2, .L5
  36 0002 1378     		ldrb	r3, [r2]	@ zero_extendqisi2
  37 0004 DBB2     		uxtb	r3, r3
  38              	.LVL1:
 343:Generated_Source\PSoC5/cyfitter_cfg.c **** 	if (enabled != 0u)
  39              		.loc 1 343 0
  40 0006 10B1     		cbz	r0, .L2
 344:Generated_Source\PSoC5/cyfitter_cfg.c **** 	{
 345:Generated_Source\PSoC5/cyfitter_cfg.c **** 		regValue |= 0x22u;
  41              		.loc 1 345 0
  42 0008 43F02203 		orr	r3, r3, #34
  43              	.LVL2:
  44 000c 01E0     		b	.L3
  45              	.L2:
 346:Generated_Source\PSoC5/cyfitter_cfg.c **** 	}
 347:Generated_Source\PSoC5/cyfitter_cfg.c **** 	else
 348:Generated_Source\PSoC5/cyfitter_cfg.c **** 	{
 349:Generated_Source\PSoC5/cyfitter_cfg.c **** 		regValue &= (uint8)~0x22u;
  46              		.loc 1 349 0
  47 000e 03F0DD03 		and	r3, r3, #221
  48              	.LVL3:
  49              	.L3:
 350:Generated_Source\PSoC5/cyfitter_cfg.c **** 	}
ARM GAS  C:\Users\jebush2\AppData\Local\Temp\ccQjmQyh.s 			page 8


 351:Generated_Source\PSoC5/cyfitter_cfg.c **** 	CY_SET_XTND_REG8((void CYFAR *)CYREG_PUMP_CR0, regValue);
  50              		.loc 1 351 0
  51 0012 1370     		strb	r3, [r2]
  52 0014 7047     		bx	lr
  53              	.L6:
  54 0016 00BF     		.align	2
  55              	.L5:
  56 0018 76580040 		.word	1073764470
  57              		.cfi_endproc
  58              	.LFE7:
  59              		.size	SetAnalogRoutingPumps, .-SetAnalogRoutingPumps
  60              		.section	.text.cyfitter_cfg,"ax",%progbits
  61              		.align	1
  62              		.global	cyfitter_cfg
  63              		.thumb
  64              		.thumb_func
  65              		.type	cyfitter_cfg, %function
  66              	cyfitter_cfg:
  67              	.LFB8:
 352:Generated_Source\PSoC5/cyfitter_cfg.c **** }
 353:Generated_Source\PSoC5/cyfitter_cfg.c **** 
 354:Generated_Source\PSoC5/cyfitter_cfg.c **** 
 355:Generated_Source\PSoC5/cyfitter_cfg.c **** #define CY_AMUX_UNUSED CYREG_BOOST_SR
 356:Generated_Source\PSoC5/cyfitter_cfg.c **** 
 357:Generated_Source\PSoC5/cyfitter_cfg.c **** 
 358:Generated_Source\PSoC5/cyfitter_cfg.c **** /*******************************************************************************
 359:Generated_Source\PSoC5/cyfitter_cfg.c **** * Function Name: cyfitter_cfg
 360:Generated_Source\PSoC5/cyfitter_cfg.c **** ********************************************************************************
 361:Generated_Source\PSoC5/cyfitter_cfg.c **** * Summary:
 362:Generated_Source\PSoC5/cyfitter_cfg.c **** *  This function is called by the start-up code for the selected device. It
 363:Generated_Source\PSoC5/cyfitter_cfg.c **** *  performs all of the necessary device configuration based on the design
 364:Generated_Source\PSoC5/cyfitter_cfg.c **** *  settings.  This includes settings from the Design Wide Resources (DWR) such
 365:Generated_Source\PSoC5/cyfitter_cfg.c **** *  as Clocks and Pins as well as any component configuration that is necessary.
 366:Generated_Source\PSoC5/cyfitter_cfg.c **** *
 367:Generated_Source\PSoC5/cyfitter_cfg.c **** * Parameters:
 368:Generated_Source\PSoC5/cyfitter_cfg.c **** *   void
 369:Generated_Source\PSoC5/cyfitter_cfg.c **** *
 370:Generated_Source\PSoC5/cyfitter_cfg.c **** * Return:
 371:Generated_Source\PSoC5/cyfitter_cfg.c **** *   void
 372:Generated_Source\PSoC5/cyfitter_cfg.c **** *
 373:Generated_Source\PSoC5/cyfitter_cfg.c **** *******************************************************************************/
 374:Generated_Source\PSoC5/cyfitter_cfg.c **** 
 375:Generated_Source\PSoC5/cyfitter_cfg.c **** void cyfitter_cfg(void)
 376:Generated_Source\PSoC5/cyfitter_cfg.c **** {
  68              		.loc 1 376 0
  69              		.cfi_startproc
  70              		@ args = 0, pretend = 0, frame = 0
  71              		@ frame_needed = 0, uses_anonymous_args = 0
  72 0000 2DE9F041 		push	{r4, r5, r6, r7, r8, lr}
  73              		.cfi_def_cfa_offset 24
  74              		.cfi_offset 4, -24
  75              		.cfi_offset 5, -20
  76              		.cfi_offset 6, -16
  77              		.cfi_offset 7, -12
  78              		.cfi_offset 8, -8
  79              		.cfi_offset 14, -4
 377:Generated_Source\PSoC5/cyfitter_cfg.c **** #ifdef CYGlobalIntDisable
ARM GAS  C:\Users\jebush2\AppData\Local\Temp\ccQjmQyh.s 			page 9


 378:Generated_Source\PSoC5/cyfitter_cfg.c **** 	/* Disable interrupts by default. Let user enable if/when they want. */
 379:Generated_Source\PSoC5/cyfitter_cfg.c **** 	CYGlobalIntDisable
  80              		.loc 1 379 0
  81              		.syntax unified
  82              	@ 379 "Generated_Source\PSoC5\cyfitter_cfg.c" 1
  83 0004 72B6     		CPSID   i
  84              	@ 0 "" 2
 380:Generated_Source\PSoC5/cyfitter_cfg.c **** #endif
 381:Generated_Source\PSoC5/cyfitter_cfg.c **** 
 382:Generated_Source\PSoC5/cyfitter_cfg.c **** 	/* Enable/Disable Debug functionality based on settings from System DWR */
 383:Generated_Source\PSoC5/cyfitter_cfg.c **** 	CY_SET_XTND_REG8((void CYFAR *)CYREG_MLOGIC_DEBUG, (CY_GET_XTND_REG8((void CYFAR *)CYREG_MLOGIC_DE
  85              		.loc 1 383 0
  86              		.thumb
  87              		.syntax unified
  88 0006 784A     		ldr	r2, .L22
  89              	.LBB52:
  90              	.LBB53:
 384:Generated_Source\PSoC5/cyfitter_cfg.c **** 
 385:Generated_Source\PSoC5/cyfitter_cfg.c **** 	{
 386:Generated_Source\PSoC5/cyfitter_cfg.c **** 
 387:Generated_Source\PSoC5/cyfitter_cfg.c **** 		CYPACKED typedef struct {
 388:Generated_Source\PSoC5/cyfitter_cfg.c **** 			void CYFAR *address;
 389:Generated_Source\PSoC5/cyfitter_cfg.c **** 			uint16 size;
 390:Generated_Source\PSoC5/cyfitter_cfg.c **** 		} CYPACKED_ATTR cfg_memset_t;
 391:Generated_Source\PSoC5/cyfitter_cfg.c **** 
 392:Generated_Source\PSoC5/cyfitter_cfg.c **** 		static const cfg_memset_t CYCODE cfg_memset_list[] = {
 393:Generated_Source\PSoC5/cyfitter_cfg.c **** 			/* address, size */
 394:Generated_Source\PSoC5/cyfitter_cfg.c **** 			{(void CYFAR *)(CYREG_I2C_XCFG), 25u},
 395:Generated_Source\PSoC5/cyfitter_cfg.c **** 			{(void CYFAR *)(CYREG_TMR0_CFG0), 12u},
 396:Generated_Source\PSoC5/cyfitter_cfg.c **** 			{(void CYFAR *)(CYREG_PRT4_DR), 48u},
 397:Generated_Source\PSoC5/cyfitter_cfg.c **** 			{(void CYFAR *)(CYDEV_UCFG_B0_P0_U0_BASE), 4096u},
 398:Generated_Source\PSoC5/cyfitter_cfg.c **** 			{(void CYFAR *)(CYDEV_UCFG_B1_P2_U0_BASE), 2048u},
 399:Generated_Source\PSoC5/cyfitter_cfg.c **** 			{(void CYFAR *)(CYDEV_UCFG_DSI0_BASE), 2560u},
 400:Generated_Source\PSoC5/cyfitter_cfg.c **** 			{(void CYFAR *)(CYDEV_UCFG_DSI12_BASE), 512u},
 401:Generated_Source\PSoC5/cyfitter_cfg.c **** 			{(void CYFAR *)(CYREG_BCTL0_MDCLK_EN), 32u},
 402:Generated_Source\PSoC5/cyfitter_cfg.c **** 		};
 403:Generated_Source\PSoC5/cyfitter_cfg.c **** 
 404:Generated_Source\PSoC5/cyfitter_cfg.c **** 		uint8 CYDATA i;
 405:Generated_Source\PSoC5/cyfitter_cfg.c **** 
 406:Generated_Source\PSoC5/cyfitter_cfg.c **** 		/* Zero out critical memory blocks before beginning configuration */
 407:Generated_Source\PSoC5/cyfitter_cfg.c **** 		for (i = 0u; i < (sizeof(cfg_memset_list)/sizeof(cfg_memset_list[0])); i++)
 408:Generated_Source\PSoC5/cyfitter_cfg.c **** 		{
 409:Generated_Source\PSoC5/cyfitter_cfg.c **** 			const cfg_memset_t CYCODE * CYDATA ms = &cfg_memset_list[i];
 410:Generated_Source\PSoC5/cyfitter_cfg.c **** 			CYMEMZERO(ms->address, (size_t)(uint32)(ms->size));
  91              		.loc 1 410 0
  92 0008 784D     		ldr	r5, .L22+4
  93              	.LBE53:
  94              	.LBE52:
 383:Generated_Source\PSoC5/cyfitter_cfg.c **** 
  95              		.loc 1 383 0
  96 000a 1378     		ldrb	r3, [r2]	@ zero_extendqisi2
  97 000c 0024     		movs	r4, #0
  98 000e 43F00403 		orr	r3, r3, #4
  99 0012 1370     		strb	r3, [r2]
 100              	.LVL4:
 101              	.LBB68:
 102              	.LBB56:
ARM GAS  C:\Users\jebush2\AppData\Local\Temp\ccQjmQyh.s 			page 10


 103              		.loc 1 410 0
 104 0014 0626     		movs	r6, #6
 105              	.LVL5:
 106              	.L8:
 107              		.loc 1 410 0 is_stmt 0 discriminator 3
 108 0016 06FB0453 		mla	r3, r6, r4, r5
 109              	.LBB54:
 110              	.LBB55:
  79:Generated_Source\PSoC5/cyfitter_cfg.c **** }
 111              		.loc 1 79 0 is_stmt 1 discriminator 3
 112 001a 0021     		movs	r1, #0
 113 001c 9A88     		ldrh	r2, [r3, #4]	@ unaligned
 114 001e 1868     		ldr	r0, [r3]	@ unaligned
 115 0020 0134     		adds	r4, r4, #1
 116              	.LVL6:
 117 0022 FFF7FEFF 		bl	memset
 118              	.LVL7:
 119              	.LBE55:
 120              	.LBE54:
 121              	.LBE56:
 407:Generated_Source\PSoC5/cyfitter_cfg.c **** 		{
 122              		.loc 1 407 0 discriminator 3
 123 0026 082C     		cmp	r4, #8
 124 0028 F5D1     		bne	.L8
 125 002a 7148     		ldr	r0, .L22+8
 126              	.LBB57:
 127              	.LBB58:
 202:Generated_Source\PSoC5/cyfitter_cfg.c **** 	{
 128              		.loc 1 202 0
 129 002c 714D     		ldr	r5, .L22+12
 130              	.LBE58:
 131              	.LBE57:
 132 002e 0024     		movs	r4, #0
 133              	.LVL8:
 134              	.L11:
 135              	.LBB61:
 136              	.LBB60:
 137              	.LBB59:
 204:Generated_Source\PSoC5/cyfitter_cfg.c **** 		uint8 count = (uint8)baseAddr;
 138              		.loc 1 204 0
 139 0030 50F8041F 		ldr	r1, [r0, #4]!
 140              	.LVL9:
 141 0034 04F11053 		add	r3, r4, #603979776
 142 0038 03F14402 		add	r2, r3, #68
 206:Generated_Source\PSoC5/cyfitter_cfg.c **** 		while (count != 0u)
 143              		.loc 1 206 0
 144 003c 21F0FF06 		bic	r6, r1, #255
 145              	.LVL10:
 146 0040 4533     		adds	r3, r3, #69
 147 0042 C9B2     		uxtb	r1, r1
 148 0044 0B44     		add	r3, r3, r1
 149 0046 5200     		lsls	r2, r2, #1
 150 0048 5B00     		lsls	r3, r3, #1
 151              	.LVL11:
 152              	.L9:
 153 004a 0232     		adds	r2, r2, #2
 207:Generated_Source\PSoC5/cyfitter_cfg.c **** 		{
ARM GAS  C:\Users\jebush2\AppData\Local\Temp\ccQjmQyh.s 			page 11


 154              		.loc 1 207 0
 155 004c 9A42     		cmp	r2, r3
 156 004e 06D0     		beq	.L21
 209:Generated_Source\PSoC5/cyfitter_cfg.c **** 			j++;
 157              		.loc 1 209 0
 158 0050 12F8027C 		ldrb	r7, [r2, #-2]	@ zero_extendqisi2
 159 0054 12F801EC 		ldrb	lr, [r2, #-1]	@ zero_extendqisi2
 160 0058 07F806E0 		strb	lr, [r7, r6]
 161 005c F5E7     		b	.L9
 162              	.L21:
 163              	.LBE59:
 202:Generated_Source\PSoC5/cyfitter_cfg.c **** 	{
 164              		.loc 1 202 0
 165 005e A842     		cmp	r0, r5
 166 0060 0C44     		add	r4, r4, r1
 167              	.LVL12:
 168 0062 E5D1     		bne	.L11
 169              	.LVL13:
 170              	.LBE60:
 171              	.LBE61:
 172              	.LBB62:
 173              	.LBB63:
  79:Generated_Source\PSoC5/cyfitter_cfg.c **** }
 174              		.loc 1 79 0
 175 0064 644B     		ldr	r3, .L22+16
 176 0066 0025     		movs	r5, #0
 177 0068 1D60     		str	r5, [r3]
 178              	.LVL14:
 179 006a 644B     		ldr	r3, .L22+20
 180              	.LBE63:
 181              	.LBE62:
 411:Generated_Source\PSoC5/cyfitter_cfg.c **** 		}
 412:Generated_Source\PSoC5/cyfitter_cfg.c **** 
 413:Generated_Source\PSoC5/cyfitter_cfg.c **** 		cfg_write_bytes32(cy_cfg_addr_table, cy_cfg_data_table);
 414:Generated_Source\PSoC5/cyfitter_cfg.c **** 
 415:Generated_Source\PSoC5/cyfitter_cfg.c **** 		/* Perform normal device configuration. Order is not critical for these items. */
 416:Generated_Source\PSoC5/cyfitter_cfg.c **** 		CYMEMZERO((void CYFAR *)(CYREG_PHUB_CFGMEM0_CFG0), 4u);
 417:Generated_Source\PSoC5/cyfitter_cfg.c **** 		CYCONFIGCPY((void CYFAR *)(CYREG_PHUB_CFGMEM1_CFG0), (const void CYFAR *)(BS_PHUB_CFGMEM1_VAL), 4
 418:Generated_Source\PSoC5/cyfitter_cfg.c **** 
 419:Generated_Source\PSoC5/cyfitter_cfg.c **** 		/* Enable digital routing */
 420:Generated_Source\PSoC5/cyfitter_cfg.c **** 		CY_SET_XTND_REG8((void CYFAR *)CYREG_BCTL0_BANK_CTL, CY_GET_XTND_REG8((void CYFAR *)CYREG_BCTL0_B
 421:Generated_Source\PSoC5/cyfitter_cfg.c **** 		CY_SET_XTND_REG8((void CYFAR *)CYREG_BCTL1_BANK_CTL, CY_GET_XTND_REG8((void CYFAR *)CYREG_BCTL1_B
 422:Generated_Source\PSoC5/cyfitter_cfg.c **** 
 423:Generated_Source\PSoC5/cyfitter_cfg.c **** 		/* Enable UDB array */
 424:Generated_Source\PSoC5/cyfitter_cfg.c **** 		CY_SET_XTND_REG8((void CYFAR *)CYREG_PM_ACT_CFG0, CY_GET_XTND_REG8((void CYFAR *)CYREG_PM_ACT_CFG
 182              		.loc 1 424 0
 183 006c 644C     		ldr	r4, .L22+24
 184 006e 1A68     		ldr	r2, [r3]
 185              	.LBB64:
 186              	.LBB65:
  86:Generated_Source\PSoC5/cyfitter_cfg.c **** }
 187              		.loc 1 86 0
 188 0070 644B     		ldr	r3, .L22+28
 189              	.LBE65:
 190              	.LBE64:
 191              	.LBE68:
 192              	.LBB69:
ARM GAS  C:\Users\jebush2\AppData\Local\Temp\ccQjmQyh.s 			page 12


 193              	.LBB70:
 194 0072 654E     		ldr	r6, .L22+32
 195              	.LBE70:
 196              	.LBE69:
 197              	.LBB73:
 198              	.LBB67:
 199              	.LBB66:
 200 0074 1A60     		str	r2, [r3]
 201              	.LVL15:
 202              	.LBE66:
 203              	.LBE67:
 420:Generated_Source\PSoC5/cyfitter_cfg.c **** 		CY_SET_XTND_REG8((void CYFAR *)CYREG_BCTL1_BANK_CTL, CY_GET_XTND_REG8((void CYFAR *)CYREG_BCTL1_B
 204              		.loc 1 420 0
 205 0076 654A     		ldr	r2, .L22+36
 206              	.LBE73:
 207              	.LBB74:
 208              	.LBB75:
 259:Generated_Source\PSoC5/cyfitter_cfg.c **** 		CyDelayCycles(10u * 48u); /* Delay 10us based on 48MHz clock */
 209              		.loc 1 259 0
 210 0078 654F     		ldr	r7, .L22+40
 211              	.LBE75:
 212              	.LBE74:
 213              	.LBB80:
 420:Generated_Source\PSoC5/cyfitter_cfg.c **** 		CY_SET_XTND_REG8((void CYFAR *)CYREG_BCTL1_BANK_CTL, CY_GET_XTND_REG8((void CYFAR *)CYREG_BCTL1_B
 214              		.loc 1 420 0
 215 007a 1378     		ldrb	r3, [r2]	@ zero_extendqisi2
 216 007c 43F00203 		orr	r3, r3, #2
 217 0080 1370     		strb	r3, [r2]
 421:Generated_Source\PSoC5/cyfitter_cfg.c **** 
 218              		.loc 1 421 0
 219 0082 137C     		ldrb	r3, [r2, #16]	@ zero_extendqisi2
 220 0084 43F00203 		orr	r3, r3, #2
 221 0088 1374     		strb	r3, [r2, #16]
 222              		.loc 1 424 0
 223 008a 2378     		ldrb	r3, [r4]	@ zero_extendqisi2
 425:Generated_Source\PSoC5/cyfitter_cfg.c **** 		CY_SET_XTND_REG8((void CYFAR *)CYREG_PM_AVAIL_CR2, CY_GET_XTND_REG8((void CYFAR *)CYREG_PM_AVAIL_
 224              		.loc 1 425 0
 225 008c A2F58632 		sub	r2, r2, #68608
 424:Generated_Source\PSoC5/cyfitter_cfg.c **** 		CY_SET_XTND_REG8((void CYFAR *)CYREG_PM_AVAIL_CR2, CY_GET_XTND_REG8((void CYFAR *)CYREG_PM_AVAIL_
 226              		.loc 1 424 0
 227 0090 43F04003 		orr	r3, r3, #64
 228 0094 2370     		strb	r3, [r4]
 229              		.loc 1 425 0
 230 0096 413A     		subs	r2, r2, #65
 231 0098 1378     		ldrb	r3, [r2]	@ zero_extendqisi2
 232 009a 43F01003 		orr	r3, r3, #16
 233 009e 1370     		strb	r3, [r2]
 234              	.LVL16:
 235              	.LBE80:
 236              	.LBB81:
 237              	.LBB82:
  86:Generated_Source\PSoC5/cyfitter_cfg.c **** }
 238              		.loc 1 86 0
 239 00a0 5C4B     		ldr	r3, .L22+44
 240 00a2 03CB     		ldmia	r3!, {r0, r1}
 241 00a4 C2F8400D 		str	r0, [r2, #3392]	@ unaligned
 242 00a8 C2F8441D 		str	r1, [r2, #3396]	@ unaligned
ARM GAS  C:\Users\jebush2\AppData\Local\Temp\ccQjmQyh.s 			page 13


 243              	.LVL17:
 244              	.LBE82:
 245              	.LBE81:
 246              	.LBB83:
 247              	.LBB71:
 248 00ac 93E80700 		ldmia	r3, {r0, r1, r2}
 249 00b0 03C6     		stmia	r6!, {r0, r1}
 250              	.LBE71:
 251              	.LBE83:
 252              	.LBB84:
 253              	.LBB85:
 254 00b2 594B     		ldr	r3, .L22+48
 255              	.LBE85:
 256              	.LBE84:
 257              	.LBB88:
 258              	.LBB72:
 259 00b4 3280     		strh	r2, [r6]	@ movhi
 260              	.LVL18:
 261              	.LBE72:
 262              	.LBE88:
 263              	.LBB89:
 264              	.LBB86:
 265 00b6 594A     		ldr	r2, .L22+52
 266              	.LBE86:
 267              	.LBE89:
 268              	.LBB90:
 269              	.LBB76:
 243:Generated_Source\PSoC5/cyfitter_cfg.c **** 
 270              		.loc 1 243 0
 271 00b8 1926     		movs	r6, #25
 272              	.LBE76:
 273              	.LBE90:
 274              	.LBB91:
 275              	.LBB87:
  86:Generated_Source\PSoC5/cyfitter_cfg.c **** }
 276              		.loc 1 86 0
 277 00ba 07CA     		ldmia	r2, {r0, r1, r2}
 278 00bc 03C3     		stmia	r3!, {r0, r1}
 279 00be 1A80     		strh	r2, [r3]	@ movhi
 280              	.LVL19:
 281              	.LBE87:
 282              	.LBE91:
 283              	.LBB92:
 284              	.LBB93:
 285 00c0 574A     		ldr	r2, .L22+56
 286 00c2 584B     		ldr	r3, .L22+60
 287              	.LBE93:
 288              	.LBE92:
 426:Generated_Source\PSoC5/cyfitter_cfg.c **** 	}
 427:Generated_Source\PSoC5/cyfitter_cfg.c **** 
 428:Generated_Source\PSoC5/cyfitter_cfg.c **** 
 429:Generated_Source\PSoC5/cyfitter_cfg.c **** 	/* Perform second pass device configuration. These items must be configured in specific order afte
 430:Generated_Source\PSoC5/cyfitter_cfg.c **** 	CYCONFIGCPY((void CYFAR *)(CYREG_PRT0_DM0), (const void CYFAR *)(BS_IOPINS0_0_VAL), 8u);
 431:Generated_Source\PSoC5/cyfitter_cfg.c **** 	CYCONFIGCPY((void CYFAR *)(CYREG_PRT12_DR), (const void CYFAR *)(BS_IOPINS0_7_VAL), 10u);
 432:Generated_Source\PSoC5/cyfitter_cfg.c **** 	CYCONFIGCPY((void CYFAR *)(CYREG_PRT15_DR), (const void CYFAR *)(BS_IOPINS0_8_VAL), 10u);
 433:Generated_Source\PSoC5/cyfitter_cfg.c **** 	CYCONFIGCPY((void CYFAR *)(CYREG_PRT1_DM0), (const void CYFAR *)(BS_IOPINS0_1_VAL), 8u);
 434:Generated_Source\PSoC5/cyfitter_cfg.c **** 	CYCONFIGCPY((void CYFAR *)(CYREG_PRT2_DM0), (const void CYFAR *)(BS_IOPINS0_2_VAL), 8u);
ARM GAS  C:\Users\jebush2\AppData\Local\Temp\ccQjmQyh.s 			page 14


 435:Generated_Source\PSoC5/cyfitter_cfg.c **** 	CYCONFIGCPY((void CYFAR *)(CYREG_PRT3_DM0), (const void CYFAR *)(BS_IOPINS0_3_VAL), 8u);
 436:Generated_Source\PSoC5/cyfitter_cfg.c **** 	/* Switch Boost to the precision bandgap reference from its internal reference */
 437:Generated_Source\PSoC5/cyfitter_cfg.c **** 	CY_SET_REG8((void CYXDATA *)CYREG_BOOST_CR2, (CY_GET_REG8((void CYXDATA *)CYREG_BOOST_CR2) | 0x08u
 289              		.loc 1 437 0
 290 00c4 A2F55F62 		sub	r2, r2, #3568
 291              	.LBB95:
 292              	.LBB94:
  86:Generated_Source\PSoC5/cyfitter_cfg.c **** }
 293              		.loc 1 86 0
 294 00c8 03CB     		ldmia	r3!, {r0, r1}
 295 00ca C2F8F00D 		str	r0, [r2, #3568]	@ unaligned
 296 00ce C2F8F41D 		str	r1, [r2, #3572]	@ unaligned
 297              	.LVL20:
 298              	.LBE94:
 299              	.LBE95:
 300              	.LBB96:
 301              	.LBB97:
 302 00d2 03CB     		ldmia	r3!, {r0, r1}
 303 00d4 C2F8000E 		str	r0, [r2, #3584]	@ unaligned
 304 00d8 C2F8041E 		str	r1, [r2, #3588]	@ unaligned
 305              	.LVL21:
 306              	.LBE97:
 307              	.LBE96:
 308              	.LBB98:
 309              	.LBB99:
 310 00dc 03CB     		ldmia	r3!, {r0, r1}
 311 00de C2F8100E 		str	r0, [r2, #3600]	@ unaligned
 312 00e2 C2F8141E 		str	r1, [r2, #3604]	@ unaligned
 313              	.LVL22:
 314              	.LBE99:
 315              	.LBE98:
 316              		.loc 1 437 0
 317 00e6 1378     		ldrb	r3, [r2]	@ zero_extendqisi2
 318 00e8 43F00803 		orr	r3, r3, #8
 319 00ec 1370     		strb	r3, [r2]
 438:Generated_Source\PSoC5/cyfitter_cfg.c **** 
 439:Generated_Source\PSoC5/cyfitter_cfg.c **** 	/* Set Flash Cycles based on max possible frequency in case a glitch occurs during ClockSetup(). *
 440:Generated_Source\PSoC5/cyfitter_cfg.c **** 	CY_SET_XTND_REG8((void CYFAR *)(CYREG_CACHE_CC_CTL), (((CYDEV_INSTRUCT_CACHE_ENABLED) != 0) ? 0x61
 320              		.loc 1 440 0
 321 00ee 4E4B     		ldr	r3, .L22+64
 322 00f0 6122     		movs	r2, #97
 323 00f2 1A70     		strb	r2, [r3]
 324              	.LBB100:
 325              	.LBB77:
 240:Generated_Source\PSoC5/cyfitter_cfg.c **** 	CY_SET_XTND_REG8((void CYFAR *)(CYREG_CLKDIST_DCFG0_CFG0 + 0x2u), 0x18u);
 326              		.loc 1 240 0
 327 00f4 A3F5F063 		sub	r3, r3, #1920
 328 00f8 1D22     		movs	r2, #29
 329 00fa 1A80     		strh	r2, [r3]	@ movhi
 241:Generated_Source\PSoC5/cyfitter_cfg.c **** 	CY_SET_XTND_REG16((void CYFAR *)(CYREG_CLKDIST_DCFG1_CFG0), 0x5DBFu);
 330              		.loc 1 241 0
 331 00fc 1822     		movs	r2, #24
 332 00fe 9A70     		strb	r2, [r3, #2]
 242:Generated_Source\PSoC5/cyfitter_cfg.c **** 	CY_SET_XTND_REG8((void CYFAR *)(CYREG_CLKDIST_DCFG1_CFG0 + 0x2u), 0x19u);
 333              		.loc 1 242 0
 334 0100 45F6BF52 		movw	r2, #23999
 335 0104 9A80     		strh	r2, [r3, #4]	@ movhi
ARM GAS  C:\Users\jebush2\AppData\Local\Temp\ccQjmQyh.s 			page 15


 246:Generated_Source\PSoC5/cyfitter_cfg.c **** 
 336              		.loc 1 246 0
 337 0106 0622     		movs	r2, #6
 243:Generated_Source\PSoC5/cyfitter_cfg.c **** 
 338              		.loc 1 243 0
 339 0108 9E71     		strb	r6, [r3, #6]
 246:Generated_Source\PSoC5/cyfitter_cfg.c **** 
 340              		.loc 1 246 0
 341 010a 83F88022 		strb	r2, [r3, #640]
 249:Generated_Source\PSoC5/cyfitter_cfg.c **** 	CY_SET_XTND_REG8((void CYFAR *)(CYREG_IMO_TR1), (CY_GET_XTND_REG8((void CYFAR *)CYREG_FLSHID_CUST_
 342              		.loc 1 249 0
 343 010e 5222     		movs	r2, #82
 344 0110 03F5C073 		add	r3, r3, #384
 345 0114 1A70     		strb	r2, [r3]
 250:Generated_Source\PSoC5/cyfitter_cfg.c **** 
 346              		.loc 1 250 0
 347 0116 454B     		ldr	r3, .L22+68
 348 0118 454A     		ldr	r2, .L22+72
 349 011a 1B78     		ldrb	r3, [r3]	@ zero_extendqisi2
 350 011c DBB2     		uxtb	r3, r3
 351 011e 1370     		strb	r3, [r2]
 253:Generated_Source\PSoC5/cyfitter_cfg.c **** 	CY_SET_XTND_REG16((void CYFAR *)(CYREG_FASTCLK_PLL_CFG0), 0x1251u);
 352              		.loc 1 253 0
 353 0120 444B     		ldr	r3, .L22+76
 354 0122 4FF4E262 		mov	r2, #1808
 355 0126 1A80     		strh	r2, [r3]	@ movhi
 254:Generated_Source\PSoC5/cyfitter_cfg.c **** 	/* Wait up to 250us for the PLL to lock */
 356              		.loc 1 254 0
 357 0128 41F25122 		movw	r2, #4689
 358 012c 23F8022C 		strh	r2, [r3, #-2]	@ movhi
 359              	.LVL23:
 360              	.L13:
 259:Generated_Source\PSoC5/cyfitter_cfg.c **** 		CyDelayCycles(10u * 48u); /* Delay 10us based on 48MHz clock */
 361              		.loc 1 259 0
 362 0130 3B78     		ldrb	r3, [r7]	@ zero_extendqisi2
 260:Generated_Source\PSoC5/cyfitter_cfg.c **** 	}
 363              		.loc 1 260 0
 364 0132 4FF4F070 		mov	r0, #480
 259:Generated_Source\PSoC5/cyfitter_cfg.c **** 		CyDelayCycles(10u * 48u); /* Delay 10us based on 48MHz clock */
 365              		.loc 1 259 0
 366 0136 03F00103 		and	r3, r3, #1
 367 013a 43EA4505 		orr	r5, r3, r5, lsl #1
 368              	.LVL24:
 260:Generated_Source\PSoC5/cyfitter_cfg.c **** 	}
 369              		.loc 1 260 0
 370 013e FFF7FEFF 		bl	CyDelayCycles
 371              	.LVL25:
 257:Generated_Source\PSoC5/cyfitter_cfg.c **** 	{ 
 372              		.loc 1 257 0
 373 0142 013E     		subs	r6, r6, #1
 374              	.LVL26:
 259:Generated_Source\PSoC5/cyfitter_cfg.c **** 		CyDelayCycles(10u * 48u); /* Delay 10us based on 48MHz clock */
 375              		.loc 1 259 0
 376 0144 05F00305 		and	r5, r5, #3
 377              	.LVL27:
 257:Generated_Source\PSoC5/cyfitter_cfg.c **** 	{ 
 378              		.loc 1 257 0
ARM GAS  C:\Users\jebush2\AppData\Local\Temp\ccQjmQyh.s 			page 16


 379 0148 4DD0     		beq	.L12
 380              	.LVL28:
 381 014a 032D     		cmp	r5, #3
 382 014c F0D1     		bne	.L13
 269:Generated_Source\PSoC5/cyfitter_cfg.c **** 	CY_SET_XTND_REG8((void CYFAR *)(CYREG_CLKDIST_MSTR0), 0x07u);
 383              		.loc 1 269 0
 384 014e 3A4A     		ldr	r2, .L22+80
 385 0150 4FF48073 		mov	r3, #256
 386 0154 1380     		strh	r3, [r2]	@ movhi
 271:Generated_Source\PSoC5/cyfitter_cfg.c **** 	CY_SET_XTND_REG8((void CYFAR *)(CYREG_CLKDIST_BCFG2), 0x48u);
 387              		.loc 1 271 0
 388 0156 3949     		ldr	r1, .L22+84
 270:Generated_Source\PSoC5/cyfitter_cfg.c **** 	CY_SET_XTND_REG8((void CYFAR *)(CYREG_CLKDIST_BCFG0), 0x00u);
 389              		.loc 1 270 0
 390 0158 0723     		movs	r3, #7
 391 015a 1370     		strb	r3, [r2]
 272:Generated_Source\PSoC5/cyfitter_cfg.c **** 	CY_SET_XTND_REG8((void CYFAR *)(CYREG_CLKDIST_MSTR0), 0x00u);
 392              		.loc 1 272 0
 393 015c 4820     		movs	r0, #72
 271:Generated_Source\PSoC5/cyfitter_cfg.c **** 	CY_SET_XTND_REG8((void CYFAR *)(CYREG_CLKDIST_BCFG2), 0x48u);
 394              		.loc 1 271 0
 395 015e 0023     		movs	r3, #0
 396 0160 0B70     		strb	r3, [r1]
 272:Generated_Source\PSoC5/cyfitter_cfg.c **** 	CY_SET_XTND_REG8((void CYFAR *)(CYREG_CLKDIST_MSTR0), 0x00u);
 397              		.loc 1 272 0
 398 0162 8870     		strb	r0, [r1, #2]
 273:Generated_Source\PSoC5/cyfitter_cfg.c **** 
 399              		.loc 1 273 0
 400 0164 1370     		strb	r3, [r2]
 276:Generated_Source\PSoC5/cyfitter_cfg.c **** 	CY_SET_XTND_REG8((void CYFAR *)(CYREG_CLKDIST_LD), 0x02u);
 401              		.loc 1 276 0
 402 0166 5371     		strb	r3, [r2, #5]
 277:Generated_Source\PSoC5/cyfitter_cfg.c **** 
 403              		.loc 1 277 0
 404 0168 354B     		ldr	r3, .L22+88
 405 016a 0222     		movs	r2, #2
 406 016c 1A70     		strb	r2, [r3]
 279:Generated_Source\PSoC5/cyfitter_cfg.c **** }
 407              		.loc 1 279 0
 408 016e 354A     		ldr	r2, .L22+92
 409              	.LBE77:
 410              	.LBE100:
 411              	.LBB101:
 412              	.LBB102:
 305:Generated_Source\PSoC5/cyfitter_cfg.c **** 	uint8 cr5 = CY_GET_XTND_REG8((void CYFAR *)(CYREG_RESET_CR5));
 413              		.loc 1 305 0
 414 0170 354F     		ldr	r7, .L22+96
 415              	.LBE102:
 416              	.LBE101:
 417              	.LBB106:
 418              	.LBB78:
 279:Generated_Source\PSoC5/cyfitter_cfg.c **** }
 419              		.loc 1 279 0
 420 0172 1378     		ldrb	r3, [r2]	@ zero_extendqisi2
 421              	.LBE78:
 422              	.LBE106:
 423              	.LBB107:
ARM GAS  C:\Users\jebush2\AppData\Local\Temp\ccQjmQyh.s 			page 17


 424              	.LBB103:
 306:Generated_Source\PSoC5/cyfitter_cfg.c **** 	CY_SET_XTND_REG8((void CYFAR *)(CYREG_BG_DFT0), (bg_xover_inl_trim & 0x07u));
 425              		.loc 1 306 0
 426 0174 DFF8E880 		ldr	r8, .L22+120
 427              	.LBE103:
 428              	.LBE107:
 429              	.LBB108:
 430              	.LBB79:
 279:Generated_Source\PSoC5/cyfitter_cfg.c **** }
 431              		.loc 1 279 0
 432 0178 43F00303 		orr	r3, r3, #3
 433 017c 1370     		strb	r3, [r2]
 434              	.LVL29:
 435              	.LBE79:
 436              	.LBE108:
 441:Generated_Source\PSoC5/cyfitter_cfg.c **** 	/* Setup clocks based on selections from Clock DWR */
 442:Generated_Source\PSoC5/cyfitter_cfg.c **** 	ClockSetup();
 443:Generated_Source\PSoC5/cyfitter_cfg.c **** 	/* Set Flash Cycles based on newly configured 48.00MHz Bus Clock. */
 444:Generated_Source\PSoC5/cyfitter_cfg.c **** 	CY_SET_XTND_REG8((void CYFAR *)(CYREG_CACHE_CC_CTL), (((CYDEV_INSTRUCT_CACHE_ENABLED) != 0) ? 0xC1
 437              		.loc 1 444 0
 438 017e 2A4B     		ldr	r3, .L22+64
 439 0180 C122     		movs	r2, #193
 440 0182 1A70     		strb	r2, [r3]
 441              	.LBB109:
 442              	.LBB104:
 304:Generated_Source\PSoC5/cyfitter_cfg.c **** 	uint8 cr4 = CY_GET_XTND_REG8((void CYFAR *)(CYREG_RESET_CR4));
 443              		.loc 1 304 0
 444 0184 314B     		ldr	r3, .L22+100
 307:Generated_Source\PSoC5/cyfitter_cfg.c **** 	CY_SET_XTND_REG8((void CYFAR *)(CYREG_BG_DFT1), ((bg_xover_inl_trim >> 4) & 0x0Fu));
 445              		.loc 1 307 0
 446 0186 324A     		ldr	r2, .L22+104
 304:Generated_Source\PSoC5/cyfitter_cfg.c **** 	uint8 cr4 = CY_GET_XTND_REG8((void CYFAR *)(CYREG_RESET_CR4));
 447              		.loc 1 304 0
 448 0188 1B78     		ldrb	r3, [r3]	@ zero_extendqisi2
 305:Generated_Source\PSoC5/cyfitter_cfg.c **** 	uint8 cr5 = CY_GET_XTND_REG8((void CYFAR *)(CYREG_RESET_CR5));
 449              		.loc 1 305 0
 450 018a 3D78     		ldrb	r5, [r7]	@ zero_extendqisi2
 304:Generated_Source\PSoC5/cyfitter_cfg.c **** 	uint8 cr4 = CY_GET_XTND_REG8((void CYFAR *)(CYREG_RESET_CR4));
 451              		.loc 1 304 0
 452 018c DBB2     		uxtb	r3, r3
 453              	.LVL30:
 306:Generated_Source\PSoC5/cyfitter_cfg.c **** 	CY_SET_XTND_REG8((void CYFAR *)(CYREG_BG_DFT0), (bg_xover_inl_trim & 0x07u));
 454              		.loc 1 306 0
 455 018e 98F80060 		ldrb	r6, [r8]	@ zero_extendqisi2
 307:Generated_Source\PSoC5/cyfitter_cfg.c **** 	CY_SET_XTND_REG8((void CYFAR *)(CYREG_BG_DFT1), ((bg_xover_inl_trim >> 4) & 0x0Fu));
 456              		.loc 1 307 0
 457 0192 03F00701 		and	r1, r3, #7
 305:Generated_Source\PSoC5/cyfitter_cfg.c **** 	uint8 cr5 = CY_GET_XTND_REG8((void CYFAR *)(CYREG_RESET_CR5));
 458              		.loc 1 305 0
 459 0196 EDB2     		uxtb	r5, r5
 460              	.LVL31:
 308:Generated_Source\PSoC5/cyfitter_cfg.c **** 	/* Disable PRES while setting up SAR voltage reference */
 461              		.loc 1 308 0
 462 0198 1B09     		lsrs	r3, r3, #4
 463              	.LVL32:
 307:Generated_Source\PSoC5/cyfitter_cfg.c **** 	CY_SET_XTND_REG8((void CYFAR *)(CYREG_BG_DFT1), ((bg_xover_inl_trim >> 4) & 0x0Fu));
 464              		.loc 1 307 0
ARM GAS  C:\Users\jebush2\AppData\Local\Temp\ccQjmQyh.s 			page 18


 465 019a 1170     		strb	r1, [r2]
 306:Generated_Source\PSoC5/cyfitter_cfg.c **** 	CY_SET_XTND_REG8((void CYFAR *)(CYREG_BG_DFT0), (bg_xover_inl_trim & 0x07u));
 466              		.loc 1 306 0
 467 019c F6B2     		uxtb	r6, r6
 468              	.LVL33:
 308:Generated_Source\PSoC5/cyfitter_cfg.c **** 	/* Disable PRES while setting up SAR voltage reference */
 469              		.loc 1 308 0
 470 019e 5370     		strb	r3, [r2, #1]
 310:Generated_Source\PSoC5/cyfitter_cfg.c **** 	CY_SET_XTND_REG8((void CYFAR *)(CYREG_RESET_CR5), (cr5 | 0x03u));
 471              		.loc 1 310 0
 472 01a0 45F00303 		orr	r3, r5, #3
 473 01a4 3B70     		strb	r3, [r7]
 311:Generated_Source\PSoC5/cyfitter_cfg.c **** 	CY_SET_XTND_REG8((void CYFAR *)CYREG_PRT0_AG, 0x3Fu);
 474              		.loc 1 311 0
 475 01a6 46F00303 		orr	r3, r6, #3
 476 01aa 88F80030 		strb	r3, [r8]
 312:Generated_Source\PSoC5/cyfitter_cfg.c **** 	CY_SET_XTND_REG8((void CYFAR *)CYREG_SAR0_CSR1, 0x80u);
 477              		.loc 1 312 0
 478 01ae 294B     		ldr	r3, .L22+108
 479 01b0 3F22     		movs	r2, #63
 480 01b2 1A70     		strb	r2, [r3]
 313:Generated_Source\PSoC5/cyfitter_cfg.c **** 	CY_SET_XTND_REG8((void CYFAR *)CYREG_SAR0_SW0, 0xA0u);
 481              		.loc 1 313 0
 482 01b4 8022     		movs	r2, #128
 483 01b6 83F8F427 		strb	r2, [r3, #2036]
 314:Generated_Source\PSoC5/cyfitter_cfg.c **** 	CY_SET_XTND_REG8((void CYFAR *)CYREG_SAR0_SW4, 0x50u);
 484              		.loc 1 314 0
 485 01ba A022     		movs	r2, #160
 486 01bc 83F8132A 		strb	r2, [r3, #2579]
 315:Generated_Source\PSoC5/cyfitter_cfg.c **** 	CyDelayUs(10u); /* Allow vref to settle before re-enabling PRES */
 487              		.loc 1 315 0
 488 01c0 5022     		movs	r2, #80
 489 01c2 83F8172A 		strb	r2, [r3, #2583]
 316:Generated_Source\PSoC5/cyfitter_cfg.c **** 	CY_SET_XTND_REG8((void CYFAR *)(CYREG_RESET_CR5), (cr5));
 490              		.loc 1 316 0
 491 01c6 0A20     		movs	r0, #10
 492 01c8 FFF7FEFF 		bl	CyDelayUs
 493              	.LVL34:
 319:Generated_Source\PSoC5/cyfitter_cfg.c **** }
 494              		.loc 1 319 0
 495 01cc 224B     		ldr	r3, .L22+112
 317:Generated_Source\PSoC5/cyfitter_cfg.c **** 	CY_SET_XTND_REG8((void CYFAR *)(CYREG_RESET_CR4), (cr4));
 496              		.loc 1 317 0
 497 01ce 88F80060 		strb	r6, [r8]
 319:Generated_Source\PSoC5/cyfitter_cfg.c **** }
 498              		.loc 1 319 0
 499 01d2 4422     		movs	r2, #68
 318:Generated_Source\PSoC5/cyfitter_cfg.c **** 	CY_SET_XTND_REG8((void CYFAR *)CYREG_PUMP_CR0, 0x44u);
 500              		.loc 1 318 0
 501 01d4 3D70     		strb	r5, [r7]
 502              	.LBE104:
 503              	.LBE109:
 504              	.LBB110:
 505              	.LBB111:
  86:Generated_Source\PSoC5/cyfitter_cfg.c **** }
 506              		.loc 1 86 0
 507 01d6 214D     		ldr	r5, .L22+116
ARM GAS  C:\Users\jebush2\AppData\Local\Temp\ccQjmQyh.s 			page 19


 508              	.LVL35:
 509              	.LBE111:
 510              	.LBE110:
 511              	.LBB113:
 512              	.LBB105:
 319:Generated_Source\PSoC5/cyfitter_cfg.c **** }
 513              		.loc 1 319 0
 514 01d8 1A70     		strb	r2, [r3]
 515              	.LVL36:
 516              	.LBE105:
 517              	.LBE113:
 518              	.LBB114:
 519              	.LBB112:
  86:Generated_Source\PSoC5/cyfitter_cfg.c **** }
 520              		.loc 1 86 0
 521 01da 94E80F00 		ldmia	r4, {r0, r1, r2, r3}
 522 01de 07C5     		stmia	r5!, {r0, r1, r2}
 523 01e0 2B80     		strh	r3, [r5]	@ movhi
 524              	.LVL37:
 525 01e2 BDE8F081 		pop	{r4, r5, r6, r7, r8, pc}
 526              	.LVL38:
 527              	.L12:
 528 01e6 FEE7     		b	.L12
 529              	.L23:
 530              		.align	2
 531              	.L22:
 532 01e8 E8460040 		.word	1073759976
 533 01ec 00000000 		.word	.LANCHOR0
 534 01f0 FCFFFF47 		.word	1207959548
 535 01f4 84000048 		.word	1207959684
 536 01f8 00760040 		.word	1073772032
 537 01fc 7C040048 		.word	1207960700
 538 0200 A0430040 		.word	1073759136
 539 0204 08760040 		.word	1073772040
 540 0208 C0510040 		.word	1073762752
 541 020c 03500140 		.word	1073827843
 542 0210 25420040 		.word	1073758757
 543 0214 44040048 		.word	1207960644
 544 0218 F0510040 		.word	1073762800
 545 021c 58040048 		.word	1207960664
 546 0220 12510040 		.word	1073762578
 547 0224 64040048 		.word	1207960676
 548 0228 00480040 		.word	1073760256
 549 022c 0F010049 		.word	1224737039
 550 0230 A1460040 		.word	1073759905
 551 0234 22420040 		.word	1073758754
 552 0238 04400040 		.word	1073758212
 553 023c 06400040 		.word	1073758214
 554 0240 01400040 		.word	1073758209
 555 0244 A2430040 		.word	1073759138
 556 0248 F8460040 		.word	1073759992
 557 024c CF010049 		.word	1224737231
 558 0250 6E580040 		.word	1073764462
 559 0254 0D510040 		.word	1073762573
 560 0258 76580040 		.word	1073764470
 561 025c B0430040 		.word	1073759152
 562 0260 F9460040 		.word	1073759993
ARM GAS  C:\Users\jebush2\AppData\Local\Temp\ccQjmQyh.s 			page 20


 563              	.LBE112:
 564              	.LBE114:
 565              		.cfi_endproc
 566              	.LFE8:
 567              		.size	cyfitter_cfg, .-cyfitter_cfg
 568              		.section	.rodata
 569              		.set	.LANCHOR0,. + 0
 570              		.type	cfg_memset_list.5015, %object
 571              		.size	cfg_memset_list.5015, 48
 572              	cfg_memset_list.5015:
 573 0000 C8490040 		.4byte	1073760712
 574 0004 1900     		.2byte	25
 575 0006 004F0040 		.4byte	1073762048
 576 000a 0C00     		.2byte	12
 577 000c 40510040 		.4byte	1073762624
 578 0010 3000     		.2byte	48
 579 0012 00000140 		.4byte	1073807360
 580 0016 0010     		.2byte	4096
 581 0018 00140140 		.4byte	1073812480
 582 001c 0008     		.2byte	2048
 583 001e 00400140 		.4byte	1073823744
 584 0022 000A     		.2byte	2560
 585 0024 004C0140 		.4byte	1073826816
 586 0028 0002     		.2byte	512
 587 002a 00500140 		.4byte	1073827840
 588 002e 2000     		.2byte	32
 589              		.text
 590              	.Letext0:
 591              		.file 2 "c:\\program files (x86)\\cypress\\psoc creator\\4.2\\psoc creator\\import\\gnu\\arm\\5.4.
 592              		.file 3 "Generated_Source\\PSoC5\\cytypes.h"
 593              		.file 4 "Generated_Source\\PSoC5\\CyLib.h"