ARM GAS  C:\Users\jebush2\AppData\Local\Temp\ccmsuZpK.s 			page 1


   1              		.syntax unified
   2              		.cpu cortex-m3
   3              		.fpu softvfp
   4              		.eabi_attribute 20, 1
   5              		.eabi_attribute 21, 1
   6              		.eabi_attribute 23, 3
   7              		.eabi_attribute 24, 1
   8              		.eabi_attribute 25, 1
   9              		.eabi_attribute 26, 1
  10              		.eabi_attribute 30, 4
  11              		.eabi_attribute 34, 1
  12              		.eabi_attribute 18, 4
  13              		.thumb
  14              		.syntax unified
  15              		.file	"main.c"
  16              		.text
  17              	.Ltext0:
  18              		.cfi_sections	.debug_frame
  19              		.section	.text.sample_isr,"ax",%progbits
  20              		.align	1
  21              		.global	sample_isr
  22              		.thumb
  23              		.thumb_func
  24              		.type	sample_isr, %function
  25              	sample_isr:
  26              	.LFB65:
  27              		.file 1 "main.c"
   1:main.c        **** /* ========================================
   2:main.c        ****  *
   3:main.c        ****  * Copyright YOUR COMPANY, THE YEAR
   4:main.c        ****  * All Rights Reserved
   5:main.c        ****  * UNPUBLISHED, LICENSED SOFTWARE.
   6:main.c        ****  *
   7:main.c        ****  * CONFIDENTIAL AND PROPRIETARY INFORMATION
   8:main.c        ****  * WHICH IS THE PROPERTY OF your company.
   9:main.c        ****  *
  10:main.c        ****  * ========================================
  11:main.c        **** */
  12:main.c        **** #include "project.h"
  13:main.c        **** #include "bno055.h"
  14:main.c        **** #include <stdio.h>
  15:main.c        **** 
  16:main.c        **** #define STARTBYTE 0xFF
  17:main.c        **** #define ENDBYTE 0x77
  18:main.c        **** 
  19:main.c        **** #define OVERSAMPLING (10)
  20:main.c        **** 
  21:main.c        **** CY_ISR_PROTO(sample_isr);
  22:main.c        **** CY_ISR_PROTO(enc_high_isr);
  23:main.c        **** CY_ISR_PROTO(enc_low_isr);
  24:main.c        **** 
  25:main.c        **** volatile int take_sample = 0;
  26:main.c        **** 
  27:main.c        **** struct packet {
  28:main.c        ****     uint8 startbyte;
  29:main.c        ****     uint8 checksum;
  30:main.c        ****     int16 channels[3];
ARM GAS  C:\Users\jebush2\AppData\Local\Temp\ccmsuZpK.s 			page 2


  31:main.c        **** };
  32:main.c        **** 
  33:main.c        **** void set_checksum(struct packet *pkt)
  34:main.c        **** {
  35:main.c        ****     uint8 *data = (uint8 *)(&(pkt->channels[0]));
  36:main.c        ****     uint8 checksum = 0;
  37:main.c        ****     for (int i = 0; i < 6; ++i) {
  38:main.c        ****         checksum = (uint8)(((uint16)checksum + (uint16)data[i]) % 255);
  39:main.c        ****     }
  40:main.c        ****     pkt->checksum = checksum;
  41:main.c        **** }
  42:main.c        **** 
  43:main.c        **** CY_ISR(sample_isr) {
  28              		.loc 1 43 0
  29              		.cfi_startproc
  30              		@ args = 0, pretend = 0, frame = 0
  31              		@ frame_needed = 0, uses_anonymous_args = 0
  32 0000 08B5     		push	{r3, lr}
  33              		.cfi_def_cfa_offset 8
  34              		.cfi_offset 3, -8
  35              		.cfi_offset 14, -4
  44:main.c        ****     Sample_Timer_ReadStatusRegister();
  36              		.loc 1 44 0
  37 0002 FFF7FEFF 		bl	Sample_Timer_ReadStatusRegister
  38              	.LVL0:
  45:main.c        ****     take_sample = 1;
  39              		.loc 1 45 0
  40 0006 024B     		ldr	r3, .L2
  41 0008 0122     		movs	r2, #1
  42 000a 1A60     		str	r2, [r3]
  43 000c 08BD     		pop	{r3, pc}
  44              	.L3:
  45 000e 00BF     		.align	2
  46              	.L2:
  47 0010 00000000 		.word	.LANCHOR0
  48              		.cfi_endproc
  49              	.LFE65:
  50              		.size	sample_isr, .-sample_isr
  51              		.section	.text.set_checksum,"ax",%progbits
  52              		.align	1
  53              		.global	set_checksum
  54              		.thumb
  55              		.thumb_func
  56              		.type	set_checksum, %function
  57              	set_checksum:
  58              	.LFB64:
  34:main.c        ****     uint8 *data = (uint8 *)(&(pkt->channels[0]));
  59              		.loc 1 34 0
  60              		.cfi_startproc
  61              		@ args = 0, pretend = 0, frame = 0
  62              		@ frame_needed = 0, uses_anonymous_args = 0
  63              	.LVL1:
  64 0000 30B5     		push	{r4, r5, lr}
  65              		.cfi_def_cfa_offset 12
  66              		.cfi_offset 4, -12
  67              		.cfi_offset 5, -8
  68              		.cfi_offset 14, -4
ARM GAS  C:\Users\jebush2\AppData\Local\Temp\ccmsuZpK.s 			page 3


  69 0002 421C     		adds	r2, r0, #1
  70 0004 C41D     		adds	r4, r0, #7
  36:main.c        ****     for (int i = 0; i < 6; ++i) {
  71              		.loc 1 36 0
  72 0006 0023     		movs	r3, #0
  73              	.LBB2:
  38:main.c        ****     }
  74              		.loc 1 38 0
  75 0008 FF25     		movs	r5, #255
  76              	.LVL2:
  77              	.L5:
  38:main.c        ****     }
  78              		.loc 1 38 0 is_stmt 0 discriminator 3
  79 000a 12F8011F 		ldrb	r1, [r2, #1]!	@ zero_extendqisi2
  80              	.LVL3:
  81 000e 0B44     		add	r3, r3, r1
  82              	.LVL4:
  83 0010 93FBF5F1 		sdiv	r1, r3, r5
  37:main.c        ****         checksum = (uint8)(((uint16)checksum + (uint16)data[i]) % 255);
  84              		.loc 1 37 0 is_stmt 1 discriminator 3
  85 0014 9442     		cmp	r4, r2
  38:main.c        ****     }
  86              		.loc 1 38 0 discriminator 3
  87 0016 0B44     		add	r3, r3, r1
  88 0018 03F0FF03 		and	r3, r3, #255
  89              	.LVL5:
  37:main.c        ****         checksum = (uint8)(((uint16)checksum + (uint16)data[i]) % 255);
  90              		.loc 1 37 0 discriminator 3
  91 001c F5D1     		bne	.L5
  92              	.LBE2:
  40:main.c        **** }
  93              		.loc 1 40 0
  94 001e 4370     		strb	r3, [r0, #1]
  95 0020 30BD     		pop	{r4, r5, pc}
  96              		.cfi_endproc
  97              	.LFE64:
  98              		.size	set_checksum, .-set_checksum
  99              		.section	.text.enc_high_isr,"ax",%progbits
 100              		.align	1
 101              		.global	enc_high_isr
 102              		.thumb
 103              		.thumb_func
 104              		.type	enc_high_isr, %function
 105              	enc_high_isr:
 106              	.LFB70:
 107              		.cfi_startproc
 108              		@ args = 0, pretend = 0, frame = 0
 109              		@ frame_needed = 0, uses_anonymous_args = 0
 110              		@ link register save eliminated.
 111 0000 7047     		bx	lr
 112              		.cfi_endproc
 113              	.LFE70:
 114              		.size	enc_high_isr, .-enc_high_isr
 115              		.section	.text.enc_low_isr,"ax",%progbits
 116              		.align	1
 117              		.global	enc_low_isr
 118              		.thumb
ARM GAS  C:\Users\jebush2\AppData\Local\Temp\ccmsuZpK.s 			page 4


 119              		.thumb_func
 120              		.type	enc_low_isr, %function
 121              	enc_low_isr:
 122              	.LFB67:
  46:main.c        **** }
  47:main.c        **** 
  48:main.c        **** CY_ISR(enc_high_isr) {
  49:main.c        ****     
  50:main.c        **** }
  51:main.c        **** 
  52:main.c        **** CY_ISR(enc_low_isr) {
 123              		.loc 1 52 0
 124              		.cfi_startproc
 125              		@ args = 0, pretend = 0, frame = 0
 126              		@ frame_needed = 0, uses_anonymous_args = 0
 127              		@ link register save eliminated.
 128 0000 7047     		bx	lr
 129              		.cfi_endproc
 130              	.LFE67:
 131              		.size	enc_low_isr, .-enc_low_isr
 132              		.section	.text.startup.main,"ax",%progbits
 133              		.align	1
 134              		.global	main
 135              		.thumb
 136              		.thumb_func
 137              		.type	main, %function
 138              	main:
 139              	.LFB68:
  53:main.c        ****     
  54:main.c        **** }
  55:main.c        **** 
  56:main.c        **** int main(void)
  57:main.c        **** {
 140              		.loc 1 57 0
 141              		.cfi_startproc
 142              		@ args = 0, pretend = 0, frame = 88
 143              		@ frame_needed = 0, uses_anonymous_args = 0
 144              		.loc 1 57 0
 145 0000 00B5     		push	{lr}
 146              		.cfi_def_cfa_offset 4
 147              		.cfi_offset 14, -4
 148 0002 99B0     		sub	sp, sp, #100
 149              		.cfi_def_cfa_offset 104
  58:main.c        ****     CyGlobalIntEnable; /* Enable global interrupts. */
 150              		.loc 1 58 0
 151              		.syntax unified
 152              	@ 58 "main.c" 1
 153 0004 62B6     		CPSIE   i
 154              	@ 0 "" 2
 155              	.LVL6:
  59:main.c        **** 
  60:main.c        ****     struct packet data = {.startbyte = STARTBYTE};
  61:main.c        ****     
  62:main.c        ****     /* Place your initialization/startup code here (e.g. MyInst_Start()) */
  63:main.c        ****     Seat_ADC_Start();
 156              		.loc 1 63 0
 157              		.thumb
ARM GAS  C:\Users\jebush2\AppData\Local\Temp\ccmsuZpK.s 			page 5


 158              		.syntax unified
 159 0006 FFF7FEFF 		bl	Seat_ADC_Start
 160              	.LVL7:
  64:main.c        **** 
  65:main.c        ****     USBUART_Init();
 161              		.loc 1 65 0
 162 000a FFF7FEFF 		bl	USBUART_Init
 163              	.LVL8:
  66:main.c        ****     USBUART_CDC_Init();
 164              		.loc 1 66 0
 165 000e FFF7FEFF 		bl	USBUART_CDC_Init
 166              	.LVL9:
  67:main.c        ****     USBUART_Start(0, USBUART_5V_OPERATION);
 167              		.loc 1 67 0
 168 0012 0121     		movs	r1, #1
 169 0014 0020     		movs	r0, #0
 170 0016 FFF7FEFF 		bl	USBUART_Start
 171              	.LVL10:
  68:main.c        ****     
  69:main.c        ****     Sample_Interrupt_StartEx(sample_isr);
 172              		.loc 1 69 0
 173 001a 1848     		ldr	r0, .L12
 174 001c FFF7FEFF 		bl	Sample_Interrupt_StartEx
 175              	.LVL11:
  70:main.c        ****     Sample_Timer_Start();
 176              		.loc 1 70 0
 177 0020 FFF7FEFF 		bl	Sample_Timer_Start
 178              	.LVL12:
  71:main.c        ****     
  72:main.c        ****     char output[80];
  73:main.c        ****     
  74:main.c        ****     I2C_Enable();
 179              		.loc 1 74 0
 180 0024 FFF7FEFF 		bl	I2C_Enable
 181              	.LVL13:
  75:main.c        ****     I2C_Start();
 182              		.loc 1 75 0
 183 0028 FFF7FEFF 		bl	I2C_Start
 184              	.LVL14:
  76:main.c        ****     CyDelay(1000);
 185              		.loc 1 76 0
 186 002c 4FF47A70 		mov	r0, #1000
 187 0030 FFF7FEFF 		bl	CyDelay
 188              	.LVL15:
  77:main.c        ****     
  78:main.c        ****     bno_init();
 189              		.loc 1 78 0
 190 0034 FFF7FEFF 		bl	bno_init
 191              	.LVL16:
 192              	.L11:
 193              	.LBB3:
  79:main.c        ****     
  80:main.c        ****     euler_angles orientation;
  81:main.c        ****     for(;;)
  82:main.c        ****     {
  83:main.c        ****         
  84:main.c        ****         bno_update(&orientation);
ARM GAS  C:\Users\jebush2\AppData\Local\Temp\ccmsuZpK.s 			page 6


 194              		.loc 1 84 0 discriminator 1
 195 0038 02A8     		add	r0, sp, #8
 196 003a FFF7FEFF 		bl	bno_update
 197              	.LVL17:
  85:main.c        ****         uint8 opr_mode = bno_read(BNO055_OPR_MODE_ADDR);
 198              		.loc 1 85 0 discriminator 1
 199 003e 3D20     		movs	r0, #61
 200 0040 FFF7FEFF 		bl	bno_read
 201              	.LVL18:
  86:main.c        **** 
  87:main.c        ****         sprintf(output, "h: %d, r: %d, p: %d, mode: %u\n\r", orientation.yaw, orientation.roll, ori
 202              		.loc 1 87 0 discriminator 1
 203 0044 BDF90A10 		ldrsh	r1, [sp, #10]
 204 0048 BDF90830 		ldrsh	r3, [sp, #8]
 205 004c BDF90C20 		ldrsh	r2, [sp, #12]
 206 0050 0190     		str	r0, [sp, #4]
 207 0052 0091     		str	r1, [sp]
 208 0054 04A8     		add	r0, sp, #16
 209              	.LVL19:
 210 0056 0A49     		ldr	r1, .L12+4
 211 0058 FFF7FEFF 		bl	sprintf
 212              	.LVL20:
  88:main.c        ****         USBUART_PutString(output);
 213              		.loc 1 88 0 discriminator 1
 214 005c 04A8     		add	r0, sp, #16
 215 005e FFF7FEFF 		bl	USBUART_PutString
 216              	.LVL21:
  89:main.c        ****         LED_Write(!LED_Read());
 217              		.loc 1 89 0 discriminator 1
 218 0062 FFF7FEFF 		bl	LED_Read
 219              	.LVL22:
 220 0066 B0FA80F0 		clz	r0, r0
 221 006a 4009     		lsrs	r0, r0, #5
 222 006c FFF7FEFF 		bl	LED_Write
 223              	.LVL23:
  90:main.c        ****         CyDelay(500);
 224              		.loc 1 90 0 discriminator 1
 225 0070 4FF4FA70 		mov	r0, #500
 226 0074 FFF7FEFF 		bl	CyDelay
 227              	.LVL24:
 228 0078 DEE7     		b	.L11
 229              	.L13:
 230 007a 00BF     		.align	2
 231              	.L12:
 232 007c 00000000 		.word	sample_isr
 233 0080 00000000 		.word	.LC0
 234              	.LBE3:
 235              		.cfi_endproc
 236              	.LFE68:
 237              		.size	main, .-main
 238              		.global	take_sample
 239              		.section	.rodata.str1.1,"aMS",%progbits,1
 240              	.LC0:
 241 0000 683A2025 		.ascii	"h: %d, r: %d, p: %d, mode: %u\012\015\000"
 241      642C2072 
 241      3A202564 
 241      2C20703A 
ARM GAS  C:\Users\jebush2\AppData\Local\Temp\ccmsuZpK.s 			page 7


 241      2025642C 
 242              		.bss
 243              		.align	2
 244              		.set	.LANCHOR0,. + 0
 245              		.type	take_sample, %object
 246              		.size	take_sample, 4
 247              	take_sample:
 248 0000 00000000 		.space	4
 249              		.text
 250              	.Letext0:
 251              		.file 2 "c:\\program files (x86)\\cypress\\psoc creator\\4.2\\psoc creator\\import\\gnu\\arm\\5.4.
 252              		.file 3 "c:\\program files (x86)\\cypress\\psoc creator\\4.2\\psoc creator\\import\\gnu\\arm\\5.4.
 253              		.file 4 "Generated_Source\\PSoC5/cytypes.h"
 254              		.file 5 "bno055.h"
 255              		.file 6 "Generated_Source\\PSoC5/core_cm3.h"
 256              		.file 7 "Generated_Source\\PSoC5/Sample_Timer.h"
 257              		.file 8 "c:\\program files (x86)\\cypress\\psoc creator\\4.2\\psoc creator\\import\\gnu\\arm\\5.4.
 258              		.file 9 "Generated_Source\\PSoC5/USBUART_cdc.h"
 259              		.file 10 "Generated_Source\\PSoC5/LED.h"
 260              		.file 11 "Generated_Source\\PSoC5/CyLib.h"
 261              		.file 12 "Generated_Source\\PSoC5/Seat_ADC.h"
 262              		.file 13 "Generated_Source\\PSoC5/USBUART.h"
 263              		.file 14 "Generated_Source\\PSoC5/Sample_Interrupt.h"
 264              		.file 15 "Generated_Source\\PSoC5/I2C.h"