ARM GAS  C:\Users\jon\AppData\Local\Temp\cc8tJXAg.s 			page 1


   1              		.syntax unified
   2              		.cpu cortex-m3
   3              		.fpu softvfp
   4              		.eabi_attribute 20, 1
   5              		.eabi_attribute 21, 1
   6              		.eabi_attribute 23, 3
   7              		.eabi_attribute 24, 1
   8              		.eabi_attribute 25, 1
   9              		.eabi_attribute 26, 1
  10              		.eabi_attribute 30, 4
  11              		.eabi_attribute 34, 1
  12              		.eabi_attribute 18, 4
  13              		.thumb
  14              		.syntax unified
  15              		.file	"cyfitter_cfg.c"
  16              		.text
  17              	.Ltext0:
  18              		.cfi_sections	.debug_frame
  19              		.section	.text.SetAnalogRoutingPumps,"ax",%progbits
  20              		.align	1
  21              		.global	SetAnalogRoutingPumps
  22              		.thumb
  23              		.thumb_func
  24              		.type	SetAnalogRoutingPumps, %function
  25              	SetAnalogRoutingPumps:
  26              	.LFB7:
  27              		.file 1 "Generated_Source\\PSoC5\\cyfitter_cfg.c"
   1:Generated_Source\PSoC5/cyfitter_cfg.c **** 
   2:Generated_Source\PSoC5/cyfitter_cfg.c **** /*******************************************************************************
   3:Generated_Source\PSoC5/cyfitter_cfg.c **** * File Name: cyfitter_cfg.c
   4:Generated_Source\PSoC5/cyfitter_cfg.c **** * 
   5:Generated_Source\PSoC5/cyfitter_cfg.c **** * PSoC Creator  4.2
   6:Generated_Source\PSoC5/cyfitter_cfg.c **** *
   7:Generated_Source\PSoC5/cyfitter_cfg.c **** * Description:
   8:Generated_Source\PSoC5/cyfitter_cfg.c **** * This file contains device initialization code.
   9:Generated_Source\PSoC5/cyfitter_cfg.c **** * Except for the user defined sections in CyClockStartupError(), this file should not be modified.
  10:Generated_Source\PSoC5/cyfitter_cfg.c **** * This file is automatically generated by PSoC Creator.
  11:Generated_Source\PSoC5/cyfitter_cfg.c **** *
  12:Generated_Source\PSoC5/cyfitter_cfg.c **** ********************************************************************************
  13:Generated_Source\PSoC5/cyfitter_cfg.c **** * Copyright (c) 2007-2018 Cypress Semiconductor.  All rights reserved.
  14:Generated_Source\PSoC5/cyfitter_cfg.c **** * You may use this file only in accordance with the license, terms, conditions, 
  15:Generated_Source\PSoC5/cyfitter_cfg.c **** * disclaimers, and limitations in the end user license agreement accompanying 
  16:Generated_Source\PSoC5/cyfitter_cfg.c **** * the software package with which this file was provided.
  17:Generated_Source\PSoC5/cyfitter_cfg.c **** ********************************************************************************/
  18:Generated_Source\PSoC5/cyfitter_cfg.c **** 
  19:Generated_Source\PSoC5/cyfitter_cfg.c **** #include <string.h>
  20:Generated_Source\PSoC5/cyfitter_cfg.c **** #include "cytypes.h"
  21:Generated_Source\PSoC5/cyfitter_cfg.c **** #include "cydevice_trm.h"
  22:Generated_Source\PSoC5/cyfitter_cfg.c **** #include "cyfitter.h"
  23:Generated_Source\PSoC5/cyfitter_cfg.c **** #include "CyLib.h"
  24:Generated_Source\PSoC5/cyfitter_cfg.c **** #include "cyfitter_cfg.h"
  25:Generated_Source\PSoC5/cyfitter_cfg.c **** #include "cyapicallbacks.h"
  26:Generated_Source\PSoC5/cyfitter_cfg.c **** 
  27:Generated_Source\PSoC5/cyfitter_cfg.c **** #define CY_NEED_CYCLOCKSTARTUPERROR 1
  28:Generated_Source\PSoC5/cyfitter_cfg.c **** 
  29:Generated_Source\PSoC5/cyfitter_cfg.c **** 
  30:Generated_Source\PSoC5/cyfitter_cfg.c **** #if defined(__GNUC__) || defined(__ARMCC_VERSION)
ARM GAS  C:\Users\jon\AppData\Local\Temp\cc8tJXAg.s 			page 2


  31:Generated_Source\PSoC5/cyfitter_cfg.c ****     #define CYPACKED 
  32:Generated_Source\PSoC5/cyfitter_cfg.c ****     #define CYPACKED_ATTR __attribute__ ((packed))
  33:Generated_Source\PSoC5/cyfitter_cfg.c ****     #define CYALIGNED __attribute__ ((aligned))
  34:Generated_Source\PSoC5/cyfitter_cfg.c ****     #define CY_CFG_UNUSED __attribute__ ((unused))
  35:Generated_Source\PSoC5/cyfitter_cfg.c ****     #ifndef CY_CFG_SECTION
  36:Generated_Source\PSoC5/cyfitter_cfg.c ****         #define CY_CFG_SECTION __attribute__ ((section(".psocinit")))
  37:Generated_Source\PSoC5/cyfitter_cfg.c ****     #endif
  38:Generated_Source\PSoC5/cyfitter_cfg.c ****     
  39:Generated_Source\PSoC5/cyfitter_cfg.c ****     #if defined(__ARMCC_VERSION)
  40:Generated_Source\PSoC5/cyfitter_cfg.c ****         #define CY_CFG_MEMORY_BARRIER() __memory_changed()
  41:Generated_Source\PSoC5/cyfitter_cfg.c ****     #else
  42:Generated_Source\PSoC5/cyfitter_cfg.c ****         #define CY_CFG_MEMORY_BARRIER() __sync_synchronize()
  43:Generated_Source\PSoC5/cyfitter_cfg.c ****     #endif
  44:Generated_Source\PSoC5/cyfitter_cfg.c ****     
  45:Generated_Source\PSoC5/cyfitter_cfg.c **** #elif defined(__ICCARM__)
  46:Generated_Source\PSoC5/cyfitter_cfg.c ****     #include <intrinsics.h>
  47:Generated_Source\PSoC5/cyfitter_cfg.c **** 
  48:Generated_Source\PSoC5/cyfitter_cfg.c ****     #define CYPACKED __packed
  49:Generated_Source\PSoC5/cyfitter_cfg.c ****     #define CYPACKED_ATTR 
  50:Generated_Source\PSoC5/cyfitter_cfg.c ****     #define CYALIGNED _Pragma("data_alignment=4")
  51:Generated_Source\PSoC5/cyfitter_cfg.c ****     #define CY_CFG_UNUSED _Pragma("diag_suppress=Pe177")
  52:Generated_Source\PSoC5/cyfitter_cfg.c ****     #define CY_CFG_SECTION _Pragma("location=\".psocinit\"")
  53:Generated_Source\PSoC5/cyfitter_cfg.c ****     
  54:Generated_Source\PSoC5/cyfitter_cfg.c ****     #define CY_CFG_MEMORY_BARRIER() __DMB()
  55:Generated_Source\PSoC5/cyfitter_cfg.c ****     
  56:Generated_Source\PSoC5/cyfitter_cfg.c **** #else
  57:Generated_Source\PSoC5/cyfitter_cfg.c ****     #error Unsupported toolchain
  58:Generated_Source\PSoC5/cyfitter_cfg.c **** #endif
  59:Generated_Source\PSoC5/cyfitter_cfg.c **** 
  60:Generated_Source\PSoC5/cyfitter_cfg.c **** #ifndef CYCODE
  61:Generated_Source\PSoC5/cyfitter_cfg.c ****     #define CYCODE
  62:Generated_Source\PSoC5/cyfitter_cfg.c **** #endif
  63:Generated_Source\PSoC5/cyfitter_cfg.c **** #ifndef CYDATA
  64:Generated_Source\PSoC5/cyfitter_cfg.c ****     #define CYDATA
  65:Generated_Source\PSoC5/cyfitter_cfg.c **** #endif
  66:Generated_Source\PSoC5/cyfitter_cfg.c **** #ifndef CYFAR
  67:Generated_Source\PSoC5/cyfitter_cfg.c ****     #define CYFAR
  68:Generated_Source\PSoC5/cyfitter_cfg.c **** #endif
  69:Generated_Source\PSoC5/cyfitter_cfg.c **** #ifndef CYXDATA
  70:Generated_Source\PSoC5/cyfitter_cfg.c ****     #define CYXDATA
  71:Generated_Source\PSoC5/cyfitter_cfg.c **** #endif
  72:Generated_Source\PSoC5/cyfitter_cfg.c **** 
  73:Generated_Source\PSoC5/cyfitter_cfg.c **** 
  74:Generated_Source\PSoC5/cyfitter_cfg.c **** CY_CFG_UNUSED
  75:Generated_Source\PSoC5/cyfitter_cfg.c **** static void CYMEMZERO(void *s, size_t n);
  76:Generated_Source\PSoC5/cyfitter_cfg.c **** CY_CFG_UNUSED
  77:Generated_Source\PSoC5/cyfitter_cfg.c **** static void CYMEMZERO(void *s, size_t n)
  78:Generated_Source\PSoC5/cyfitter_cfg.c **** {
  79:Generated_Source\PSoC5/cyfitter_cfg.c **** 	(void)memset(s, 0, n);
  80:Generated_Source\PSoC5/cyfitter_cfg.c **** }
  81:Generated_Source\PSoC5/cyfitter_cfg.c **** CY_CFG_UNUSED
  82:Generated_Source\PSoC5/cyfitter_cfg.c **** static void CYCONFIGCPY(void *dest, const void *src, size_t n);
  83:Generated_Source\PSoC5/cyfitter_cfg.c **** CY_CFG_UNUSED
  84:Generated_Source\PSoC5/cyfitter_cfg.c **** static void CYCONFIGCPY(void *dest, const void *src, size_t n)
  85:Generated_Source\PSoC5/cyfitter_cfg.c **** {
  86:Generated_Source\PSoC5/cyfitter_cfg.c **** 	(void)memcpy(dest, src, n);
  87:Generated_Source\PSoC5/cyfitter_cfg.c **** }
ARM GAS  C:\Users\jon\AppData\Local\Temp\cc8tJXAg.s 			page 3


  88:Generated_Source\PSoC5/cyfitter_cfg.c **** CY_CFG_UNUSED
  89:Generated_Source\PSoC5/cyfitter_cfg.c **** static void CYCONFIGCPYCODE(void *dest, const void *src, size_t n);
  90:Generated_Source\PSoC5/cyfitter_cfg.c **** CY_CFG_UNUSED
  91:Generated_Source\PSoC5/cyfitter_cfg.c **** static void CYCONFIGCPYCODE(void *dest, const void *src, size_t n)
  92:Generated_Source\PSoC5/cyfitter_cfg.c **** {
  93:Generated_Source\PSoC5/cyfitter_cfg.c **** 	(void)memcpy(dest, src, n);
  94:Generated_Source\PSoC5/cyfitter_cfg.c **** }
  95:Generated_Source\PSoC5/cyfitter_cfg.c **** 
  96:Generated_Source\PSoC5/cyfitter_cfg.c **** 
  97:Generated_Source\PSoC5/cyfitter_cfg.c **** 
  98:Generated_Source\PSoC5/cyfitter_cfg.c **** 
  99:Generated_Source\PSoC5/cyfitter_cfg.c **** /* Clock startup error codes                                                   */
 100:Generated_Source\PSoC5/cyfitter_cfg.c **** #define CYCLOCKSTART_NO_ERROR    0u
 101:Generated_Source\PSoC5/cyfitter_cfg.c **** #define CYCLOCKSTART_XTAL_ERROR  1u
 102:Generated_Source\PSoC5/cyfitter_cfg.c **** #define CYCLOCKSTART_32KHZ_ERROR 2u
 103:Generated_Source\PSoC5/cyfitter_cfg.c **** #define CYCLOCKSTART_PLL_ERROR   3u
 104:Generated_Source\PSoC5/cyfitter_cfg.c **** #define CYCLOCKSTART_FLL_ERROR   4u
 105:Generated_Source\PSoC5/cyfitter_cfg.c **** #define CYCLOCKSTART_WCO_ERROR   5u
 106:Generated_Source\PSoC5/cyfitter_cfg.c **** 
 107:Generated_Source\PSoC5/cyfitter_cfg.c **** 
 108:Generated_Source\PSoC5/cyfitter_cfg.c **** #ifdef CY_NEED_CYCLOCKSTARTUPERROR
 109:Generated_Source\PSoC5/cyfitter_cfg.c **** /*******************************************************************************
 110:Generated_Source\PSoC5/cyfitter_cfg.c **** * Function Name: CyClockStartupError
 111:Generated_Source\PSoC5/cyfitter_cfg.c **** ********************************************************************************
 112:Generated_Source\PSoC5/cyfitter_cfg.c **** * Summary:
 113:Generated_Source\PSoC5/cyfitter_cfg.c **** *  If an error is encountered during clock configuration (crystal startup error,
 114:Generated_Source\PSoC5/cyfitter_cfg.c **** *  PLL lock error, etc.), the system will end up here.  Unless reimplemented by
 115:Generated_Source\PSoC5/cyfitter_cfg.c **** *  the customer, this function will stop in an infinite loop.
 116:Generated_Source\PSoC5/cyfitter_cfg.c **** *
 117:Generated_Source\PSoC5/cyfitter_cfg.c **** * Parameters:
 118:Generated_Source\PSoC5/cyfitter_cfg.c **** *   void
 119:Generated_Source\PSoC5/cyfitter_cfg.c **** *
 120:Generated_Source\PSoC5/cyfitter_cfg.c **** * Return:
 121:Generated_Source\PSoC5/cyfitter_cfg.c **** *   void
 122:Generated_Source\PSoC5/cyfitter_cfg.c **** *
 123:Generated_Source\PSoC5/cyfitter_cfg.c **** *******************************************************************************/
 124:Generated_Source\PSoC5/cyfitter_cfg.c **** CY_CFG_UNUSED
 125:Generated_Source\PSoC5/cyfitter_cfg.c **** static void CyClockStartupError(uint8 errorCode);
 126:Generated_Source\PSoC5/cyfitter_cfg.c **** CY_CFG_UNUSED
 127:Generated_Source\PSoC5/cyfitter_cfg.c **** static void CyClockStartupError(uint8 errorCode)
 128:Generated_Source\PSoC5/cyfitter_cfg.c **** {
 129:Generated_Source\PSoC5/cyfitter_cfg.c ****     /* To remove the compiler warning if errorCode not used.                */
 130:Generated_Source\PSoC5/cyfitter_cfg.c ****     errorCode = errorCode;
 131:Generated_Source\PSoC5/cyfitter_cfg.c **** 
 132:Generated_Source\PSoC5/cyfitter_cfg.c ****     /* If we have a clock startup error (bad MHz crystal, PLL lock, etc.),  */
 133:Generated_Source\PSoC5/cyfitter_cfg.c ****     /* we will end up here to allow the customer to implement something to  */
 134:Generated_Source\PSoC5/cyfitter_cfg.c ****     /* deal with the clock condition.                                       */
 135:Generated_Source\PSoC5/cyfitter_cfg.c **** 
 136:Generated_Source\PSoC5/cyfitter_cfg.c **** #ifdef CY_CFG_CLOCK_STARTUP_ERROR_CALLBACK
 137:Generated_Source\PSoC5/cyfitter_cfg.c ****     CY_CFG_Clock_Startup_ErrorCallback();
 138:Generated_Source\PSoC5/cyfitter_cfg.c **** #else
 139:Generated_Source\PSoC5/cyfitter_cfg.c ****     /*  If not using CY_CFG_CLOCK_STARTUP_ERROR_CALLBACK, place your clock startup code here. */
 140:Generated_Source\PSoC5/cyfitter_cfg.c ****     /* `#START CyClockStartupError` */
 141:Generated_Source\PSoC5/cyfitter_cfg.c **** 
 142:Generated_Source\PSoC5/cyfitter_cfg.c **** 
 143:Generated_Source\PSoC5/cyfitter_cfg.c **** 
 144:Generated_Source\PSoC5/cyfitter_cfg.c ****     /* `#END` */
ARM GAS  C:\Users\jon\AppData\Local\Temp\cc8tJXAg.s 			page 4


 145:Generated_Source\PSoC5/cyfitter_cfg.c **** 
 146:Generated_Source\PSoC5/cyfitter_cfg.c ****     while(1) {}
 147:Generated_Source\PSoC5/cyfitter_cfg.c **** #endif /* CY_CFG_CLOCK_STARTUP_ERROR_CALLBACK */
 148:Generated_Source\PSoC5/cyfitter_cfg.c **** }
 149:Generated_Source\PSoC5/cyfitter_cfg.c **** #endif
 150:Generated_Source\PSoC5/cyfitter_cfg.c **** 
 151:Generated_Source\PSoC5/cyfitter_cfg.c **** #define CY_CFG_BASE_ADDR_COUNT 41u
 152:Generated_Source\PSoC5/cyfitter_cfg.c **** CYPACKED typedef struct
 153:Generated_Source\PSoC5/cyfitter_cfg.c **** {
 154:Generated_Source\PSoC5/cyfitter_cfg.c **** 	uint8 offset;
 155:Generated_Source\PSoC5/cyfitter_cfg.c **** 	uint8 value;
 156:Generated_Source\PSoC5/cyfitter_cfg.c **** } CYPACKED_ATTR cy_cfg_addrvalue_t;
 157:Generated_Source\PSoC5/cyfitter_cfg.c **** 
 158:Generated_Source\PSoC5/cyfitter_cfg.c **** #define cy_cfg_addr_table ((const uint32 CYFAR *)0x48000000u)
 159:Generated_Source\PSoC5/cyfitter_cfg.c **** #define cy_cfg_data_table ((const cy_cfg_addrvalue_t CYFAR *)0x480000A4u)
 160:Generated_Source\PSoC5/cyfitter_cfg.c **** 
 161:Generated_Source\PSoC5/cyfitter_cfg.c **** /* UDB_0_2_0_CONFIG Address: CYDEV_UCFG_B0_P4_U1_BASE Size (bytes): 128 */
 162:Generated_Source\PSoC5/cyfitter_cfg.c **** #define BS_UDB_0_2_0_CONFIG_VAL ((const uint8 CYFAR *)0x480010B8u)
 163:Generated_Source\PSoC5/cyfitter_cfg.c **** 
 164:Generated_Source\PSoC5/cyfitter_cfg.c **** /* IOPINS0_0 Address: CYREG_PRT0_DR Size (bytes): 10 */
 165:Generated_Source\PSoC5/cyfitter_cfg.c **** #define BS_IOPINS0_0_VAL ((const uint8 CYFAR *)0x48001138u)
 166:Generated_Source\PSoC5/cyfitter_cfg.c **** 
 167:Generated_Source\PSoC5/cyfitter_cfg.c **** /* IOPINS0_7 Address: CYREG_PRT12_DR Size (bytes): 10 */
 168:Generated_Source\PSoC5/cyfitter_cfg.c **** #define BS_IOPINS0_7_VAL ((const uint8 CYFAR *)0x48001144u)
 169:Generated_Source\PSoC5/cyfitter_cfg.c **** 
 170:Generated_Source\PSoC5/cyfitter_cfg.c **** /* IOPINS1_7 Address: CYREG_PRT12_DR + 0x0000000Bu Size (bytes): 5 */
 171:Generated_Source\PSoC5/cyfitter_cfg.c **** #define BS_IOPINS1_7_VAL ((const uint8 CYFAR *)0x48001150u)
 172:Generated_Source\PSoC5/cyfitter_cfg.c **** 
 173:Generated_Source\PSoC5/cyfitter_cfg.c **** /* IOPINS0_8 Address: CYREG_PRT15_DM0 Size (bytes): 8 */
 174:Generated_Source\PSoC5/cyfitter_cfg.c **** #define BS_IOPINS0_8_VAL ((const uint8 CYFAR *)0x48001158u)
 175:Generated_Source\PSoC5/cyfitter_cfg.c **** 
 176:Generated_Source\PSoC5/cyfitter_cfg.c **** /* IOPINS0_1 Address: CYREG_PRT1_DM0 Size (bytes): 8 */
 177:Generated_Source\PSoC5/cyfitter_cfg.c **** #define BS_IOPINS0_1_VAL ((const uint8 CYFAR *)0x48001160u)
 178:Generated_Source\PSoC5/cyfitter_cfg.c **** 
 179:Generated_Source\PSoC5/cyfitter_cfg.c **** /* IOPINS0_2 Address: CYREG_PRT2_DR Size (bytes): 10 */
 180:Generated_Source\PSoC5/cyfitter_cfg.c **** #define BS_IOPINS0_2_VAL ((const uint8 CYFAR *)0x48001168u)
 181:Generated_Source\PSoC5/cyfitter_cfg.c **** 
 182:Generated_Source\PSoC5/cyfitter_cfg.c **** /* IOPINS0_3 Address: CYREG_PRT3_DM0 Size (bytes): 8 */
 183:Generated_Source\PSoC5/cyfitter_cfg.c **** #define BS_IOPINS0_3_VAL ((const uint8 CYFAR *)0x48001174u)
 184:Generated_Source\PSoC5/cyfitter_cfg.c **** 
 185:Generated_Source\PSoC5/cyfitter_cfg.c **** 
 186:Generated_Source\PSoC5/cyfitter_cfg.c **** /*******************************************************************************
 187:Generated_Source\PSoC5/cyfitter_cfg.c **** * Function Name: cfg_write_bytes32
 188:Generated_Source\PSoC5/cyfitter_cfg.c **** ********************************************************************************
 189:Generated_Source\PSoC5/cyfitter_cfg.c **** * Summary:
 190:Generated_Source\PSoC5/cyfitter_cfg.c **** *  This function is used for setting up the chip configuration areas that
 191:Generated_Source\PSoC5/cyfitter_cfg.c **** *  contain relatively sparse data.
 192:Generated_Source\PSoC5/cyfitter_cfg.c **** *
 193:Generated_Source\PSoC5/cyfitter_cfg.c **** * Parameters:
 194:Generated_Source\PSoC5/cyfitter_cfg.c **** *   void
 195:Generated_Source\PSoC5/cyfitter_cfg.c **** *
 196:Generated_Source\PSoC5/cyfitter_cfg.c **** * Return:
 197:Generated_Source\PSoC5/cyfitter_cfg.c **** *   void
 198:Generated_Source\PSoC5/cyfitter_cfg.c **** *
 199:Generated_Source\PSoC5/cyfitter_cfg.c **** *******************************************************************************/
 200:Generated_Source\PSoC5/cyfitter_cfg.c **** static void cfg_write_bytes32(const uint32 addr_table[], const cy_cfg_addrvalue_t data_table[]);
 201:Generated_Source\PSoC5/cyfitter_cfg.c **** static void cfg_write_bytes32(const uint32 addr_table[], const cy_cfg_addrvalue_t data_table[])
ARM GAS  C:\Users\jon\AppData\Local\Temp\cc8tJXAg.s 			page 5


 202:Generated_Source\PSoC5/cyfitter_cfg.c **** {
 203:Generated_Source\PSoC5/cyfitter_cfg.c **** 	/* For 32-bit little-endian architectures */
 204:Generated_Source\PSoC5/cyfitter_cfg.c **** 	uint32 i, j = 0u;
 205:Generated_Source\PSoC5/cyfitter_cfg.c **** 	for (i = 0u; i < CY_CFG_BASE_ADDR_COUNT; i++)
 206:Generated_Source\PSoC5/cyfitter_cfg.c **** 	{
 207:Generated_Source\PSoC5/cyfitter_cfg.c **** 		uint32 baseAddr = addr_table[i];
 208:Generated_Source\PSoC5/cyfitter_cfg.c **** 		uint8 count = (uint8)baseAddr;
 209:Generated_Source\PSoC5/cyfitter_cfg.c **** 		baseAddr &= 0xFFFFFF00u;
 210:Generated_Source\PSoC5/cyfitter_cfg.c **** 		while (count != 0u)
 211:Generated_Source\PSoC5/cyfitter_cfg.c **** 		{
 212:Generated_Source\PSoC5/cyfitter_cfg.c **** 			CY_SET_REG8((void *)(baseAddr + data_table[j].offset), data_table[j].value);
 213:Generated_Source\PSoC5/cyfitter_cfg.c **** 			j++;
 214:Generated_Source\PSoC5/cyfitter_cfg.c **** 			count--;
 215:Generated_Source\PSoC5/cyfitter_cfg.c **** 		}
 216:Generated_Source\PSoC5/cyfitter_cfg.c **** 	}
 217:Generated_Source\PSoC5/cyfitter_cfg.c **** }
 218:Generated_Source\PSoC5/cyfitter_cfg.c **** 
 219:Generated_Source\PSoC5/cyfitter_cfg.c **** /*******************************************************************************
 220:Generated_Source\PSoC5/cyfitter_cfg.c **** * Function Name: ClockSetup
 221:Generated_Source\PSoC5/cyfitter_cfg.c **** ********************************************************************************
 222:Generated_Source\PSoC5/cyfitter_cfg.c **** *
 223:Generated_Source\PSoC5/cyfitter_cfg.c **** * Summary:
 224:Generated_Source\PSoC5/cyfitter_cfg.c **** *  Performs the initialization of all of the clocks in the device based on the
 225:Generated_Source\PSoC5/cyfitter_cfg.c **** *  settings in the Clock tab of the DWR.  This includes enabling the requested
 226:Generated_Source\PSoC5/cyfitter_cfg.c **** *  clocks and setting the necessary dividers to produce the desired frequency. 
 227:Generated_Source\PSoC5/cyfitter_cfg.c **** *
 228:Generated_Source\PSoC5/cyfitter_cfg.c **** * Parameters:
 229:Generated_Source\PSoC5/cyfitter_cfg.c **** *  void
 230:Generated_Source\PSoC5/cyfitter_cfg.c **** *
 231:Generated_Source\PSoC5/cyfitter_cfg.c **** * Return:
 232:Generated_Source\PSoC5/cyfitter_cfg.c **** *  void
 233:Generated_Source\PSoC5/cyfitter_cfg.c **** *
 234:Generated_Source\PSoC5/cyfitter_cfg.c **** *******************************************************************************/
 235:Generated_Source\PSoC5/cyfitter_cfg.c **** static void ClockSetup(void);
 236:Generated_Source\PSoC5/cyfitter_cfg.c **** static void ClockSetup(void)
 237:Generated_Source\PSoC5/cyfitter_cfg.c **** {
 238:Generated_Source\PSoC5/cyfitter_cfg.c **** 	uint32 timeout;
 239:Generated_Source\PSoC5/cyfitter_cfg.c **** 	uint8 pllLock;
 240:Generated_Source\PSoC5/cyfitter_cfg.c **** 
 241:Generated_Source\PSoC5/cyfitter_cfg.c **** 
 242:Generated_Source\PSoC5/cyfitter_cfg.c **** 	/* Configure Digital Clocks based on settings from Clock DWR */
 243:Generated_Source\PSoC5/cyfitter_cfg.c **** 	CY_SET_XTND_REG16((void CYFAR *)(CYREG_CLKDIST_DCFG0_CFG0), 0x0000u);
 244:Generated_Source\PSoC5/cyfitter_cfg.c **** 	CY_SET_XTND_REG8((void CYFAR *)(CYREG_CLKDIST_DCFG0_CFG0 + 0x2u), 0x19u);
 245:Generated_Source\PSoC5/cyfitter_cfg.c **** 	CY_SET_XTND_REG16((void CYFAR *)(CYREG_CLKDIST_DCFG1_CFG0), 0x0001u);
 246:Generated_Source\PSoC5/cyfitter_cfg.c **** 	CY_SET_XTND_REG8((void CYFAR *)(CYREG_CLKDIST_DCFG1_CFG0 + 0x2u), 0x18u);
 247:Generated_Source\PSoC5/cyfitter_cfg.c **** 	CY_SET_XTND_REG16((void CYFAR *)(CYREG_CLKDIST_DCFG2_CFG0), 0x000Fu);
 248:Generated_Source\PSoC5/cyfitter_cfg.c **** 	CY_SET_XTND_REG8((void CYFAR *)(CYREG_CLKDIST_DCFG2_CFG0 + 0x2u), 0x18u);
 249:Generated_Source\PSoC5/cyfitter_cfg.c **** 	CY_SET_XTND_REG16((void CYFAR *)(CYREG_CLKDIST_DCFG3_CFG0), 0x003Bu);
 250:Generated_Source\PSoC5/cyfitter_cfg.c **** 	CY_SET_XTND_REG8((void CYFAR *)(CYREG_CLKDIST_DCFG3_CFG0 + 0x2u), 0x18u);
 251:Generated_Source\PSoC5/cyfitter_cfg.c **** 	CY_SET_XTND_REG16((void CYFAR *)(CYREG_CLKDIST_DCFG4_CFG0), 0x0067u);
 252:Generated_Source\PSoC5/cyfitter_cfg.c **** 	CY_SET_XTND_REG8((void CYFAR *)(CYREG_CLKDIST_DCFG4_CFG0 + 0x2u), 0x18u);
 253:Generated_Source\PSoC5/cyfitter_cfg.c **** 	CY_SET_XTND_REG16((void CYFAR *)(CYREG_CLKDIST_DCFG5_CFG0), 0x0270u);
 254:Generated_Source\PSoC5/cyfitter_cfg.c **** 	CY_SET_XTND_REG8((void CYFAR *)(CYREG_CLKDIST_DCFG5_CFG0 + 0x2u), 0x18u);
 255:Generated_Source\PSoC5/cyfitter_cfg.c **** 	CY_SET_XTND_REG16((void CYFAR *)(CYREG_CLKDIST_DCFG6_CFG0), 0x257Fu);
 256:Generated_Source\PSoC5/cyfitter_cfg.c **** 	CY_SET_XTND_REG8((void CYFAR *)(CYREG_CLKDIST_DCFG6_CFG0 + 0x2u), 0x18u);
 257:Generated_Source\PSoC5/cyfitter_cfg.c **** 	CY_SET_XTND_REG16((void CYFAR *)(CYREG_CLKDIST_DCFG7_CFG0), 0x5DBFu);
 258:Generated_Source\PSoC5/cyfitter_cfg.c **** 	CY_SET_XTND_REG8((void CYFAR *)(CYREG_CLKDIST_DCFG7_CFG0 + 0x2u), 0x19u);
ARM GAS  C:\Users\jon\AppData\Local\Temp\cc8tJXAg.s 			page 6


 259:Generated_Source\PSoC5/cyfitter_cfg.c **** 
 260:Generated_Source\PSoC5/cyfitter_cfg.c **** 	/* Configure ILO based on settings from Clock DWR */
 261:Generated_Source\PSoC5/cyfitter_cfg.c **** 	CY_SET_XTND_REG8((void CYFAR *)(CYREG_SLOWCLK_ILO_CR0), 0x06u);
 262:Generated_Source\PSoC5/cyfitter_cfg.c **** 
 263:Generated_Source\PSoC5/cyfitter_cfg.c **** 	/* Configure IMO based on settings from Clock DWR */
 264:Generated_Source\PSoC5/cyfitter_cfg.c **** 	CY_SET_XTND_REG8((void CYFAR *)(CYREG_FASTCLK_IMO_CR), 0x52u);
 265:Generated_Source\PSoC5/cyfitter_cfg.c **** 	CY_SET_XTND_REG8((void CYFAR *)(CYREG_IMO_TR1), (CY_GET_XTND_REG8((void CYFAR *)CYREG_FLSHID_CUST_
 266:Generated_Source\PSoC5/cyfitter_cfg.c **** 
 267:Generated_Source\PSoC5/cyfitter_cfg.c **** 	/* Configure PLL based on settings from Clock DWR */
 268:Generated_Source\PSoC5/cyfitter_cfg.c **** 	CY_SET_XTND_REG16((void CYFAR *)(CYREG_FASTCLK_PLL_P), 0x0710u);
 269:Generated_Source\PSoC5/cyfitter_cfg.c **** 	CY_SET_XTND_REG16((void CYFAR *)(CYREG_FASTCLK_PLL_CFG0), 0x1251u);
 270:Generated_Source\PSoC5/cyfitter_cfg.c **** 	/* Wait up to 250us for the PLL to lock */
 271:Generated_Source\PSoC5/cyfitter_cfg.c **** 	pllLock = 0u;
 272:Generated_Source\PSoC5/cyfitter_cfg.c **** 	for (timeout = 250u / 10u; (timeout > 0u) && (pllLock != 0x03u); timeout--)
 273:Generated_Source\PSoC5/cyfitter_cfg.c **** 	{ 
 274:Generated_Source\PSoC5/cyfitter_cfg.c **** 		pllLock = 0x03u & ((uint8)((uint8)pllLock << 1) | ((CY_GET_XTND_REG8((void CYFAR *)CYREG_FASTCLK_
 275:Generated_Source\PSoC5/cyfitter_cfg.c **** 		CyDelayCycles(10u * 48u); /* Delay 10us based on 48MHz clock */
 276:Generated_Source\PSoC5/cyfitter_cfg.c **** 	}
 277:Generated_Source\PSoC5/cyfitter_cfg.c **** 	/* If we ran out of time the PLL didn't lock so go to the error function */
 278:Generated_Source\PSoC5/cyfitter_cfg.c **** 	if (timeout == 0u)
 279:Generated_Source\PSoC5/cyfitter_cfg.c **** 	{
 280:Generated_Source\PSoC5/cyfitter_cfg.c **** 		CyClockStartupError(CYCLOCKSTART_PLL_ERROR);
 281:Generated_Source\PSoC5/cyfitter_cfg.c **** 	}
 282:Generated_Source\PSoC5/cyfitter_cfg.c **** 
 283:Generated_Source\PSoC5/cyfitter_cfg.c **** 	/* Configure Bus/Master Clock based on settings from Clock DWR */
 284:Generated_Source\PSoC5/cyfitter_cfg.c **** 	CY_SET_XTND_REG16((void CYFAR *)(CYREG_CLKDIST_MSTR0), 0x0100u);
 285:Generated_Source\PSoC5/cyfitter_cfg.c **** 	CY_SET_XTND_REG8((void CYFAR *)(CYREG_CLKDIST_MSTR0), 0x07u);
 286:Generated_Source\PSoC5/cyfitter_cfg.c **** 	CY_SET_XTND_REG8((void CYFAR *)(CYREG_CLKDIST_BCFG0), 0x00u);
 287:Generated_Source\PSoC5/cyfitter_cfg.c **** 	CY_SET_XTND_REG8((void CYFAR *)(CYREG_CLKDIST_BCFG2), 0x48u);
 288:Generated_Source\PSoC5/cyfitter_cfg.c **** 	CY_SET_XTND_REG8((void CYFAR *)(CYREG_CLKDIST_MSTR0), 0x00u);
 289:Generated_Source\PSoC5/cyfitter_cfg.c **** 
 290:Generated_Source\PSoC5/cyfitter_cfg.c **** 	/* Configure USB Clock based on settings from Clock DWR */
 291:Generated_Source\PSoC5/cyfitter_cfg.c **** 	CY_SET_XTND_REG8((void CYFAR *)(CYREG_CLKDIST_UCFG), 0x00u);
 292:Generated_Source\PSoC5/cyfitter_cfg.c **** 	CY_SET_XTND_REG8((void CYFAR *)(CYREG_CLKDIST_LD), 0x02u);
 293:Generated_Source\PSoC5/cyfitter_cfg.c **** 
 294:Generated_Source\PSoC5/cyfitter_cfg.c **** 	CY_SET_XTND_REG8((void CYFAR *)(CYREG_PM_ACT_CFG2), ((CY_GET_XTND_REG8((void CYFAR *)CYREG_PM_ACT_
 295:Generated_Source\PSoC5/cyfitter_cfg.c **** }
 296:Generated_Source\PSoC5/cyfitter_cfg.c **** 
 297:Generated_Source\PSoC5/cyfitter_cfg.c **** 
 298:Generated_Source\PSoC5/cyfitter_cfg.c **** /* Analog API Functions */
 299:Generated_Source\PSoC5/cyfitter_cfg.c **** 
 300:Generated_Source\PSoC5/cyfitter_cfg.c **** 
 301:Generated_Source\PSoC5/cyfitter_cfg.c **** /*******************************************************************************
 302:Generated_Source\PSoC5/cyfitter_cfg.c **** * Function Name: AnalogSetDefault
 303:Generated_Source\PSoC5/cyfitter_cfg.c **** ********************************************************************************
 304:Generated_Source\PSoC5/cyfitter_cfg.c **** *
 305:Generated_Source\PSoC5/cyfitter_cfg.c **** * Summary:
 306:Generated_Source\PSoC5/cyfitter_cfg.c **** *  Sets up the analog portions of the chip to default values based on chip
 307:Generated_Source\PSoC5/cyfitter_cfg.c **** *  configuration options from the project.
 308:Generated_Source\PSoC5/cyfitter_cfg.c **** *
 309:Generated_Source\PSoC5/cyfitter_cfg.c **** * Parameters:
 310:Generated_Source\PSoC5/cyfitter_cfg.c **** *  void
 311:Generated_Source\PSoC5/cyfitter_cfg.c **** *
 312:Generated_Source\PSoC5/cyfitter_cfg.c **** * Return:
 313:Generated_Source\PSoC5/cyfitter_cfg.c **** *  void
 314:Generated_Source\PSoC5/cyfitter_cfg.c **** *
 315:Generated_Source\PSoC5/cyfitter_cfg.c **** *******************************************************************************/
ARM GAS  C:\Users\jon\AppData\Local\Temp\cc8tJXAg.s 			page 7


 316:Generated_Source\PSoC5/cyfitter_cfg.c **** static void AnalogSetDefault(void);
 317:Generated_Source\PSoC5/cyfitter_cfg.c **** static void AnalogSetDefault(void)
 318:Generated_Source\PSoC5/cyfitter_cfg.c **** {
 319:Generated_Source\PSoC5/cyfitter_cfg.c **** 	uint8 bg_xover_inl_trim = CY_GET_XTND_REG8((void CYFAR *)(CYREG_FLSHID_MFG_CFG_BG_XOVER_INL_TRIM +
 320:Generated_Source\PSoC5/cyfitter_cfg.c **** 	CY_SET_XTND_REG8((void CYFAR *)(CYREG_BG_DFT0), (bg_xover_inl_trim & 0x07u));
 321:Generated_Source\PSoC5/cyfitter_cfg.c **** 	CY_SET_XTND_REG8((void CYFAR *)(CYREG_BG_DFT1), ((bg_xover_inl_trim >> 4) & 0x0Fu));
 322:Generated_Source\PSoC5/cyfitter_cfg.c **** 	CY_SET_XTND_REG8((void CYFAR *)CYREG_PRT12_AG, 0x08u);
 323:Generated_Source\PSoC5/cyfitter_cfg.c **** 	CY_SET_XTND_REG8((void CYFAR *)CYREG_DAC2_SW0, 0x20u);
 324:Generated_Source\PSoC5/cyfitter_cfg.c **** 	CY_SET_XTND_REG8((void CYFAR *)CYREG_DAC3_SW0, 0x20u);
 325:Generated_Source\PSoC5/cyfitter_cfg.c **** 	CY_SET_XTND_REG16((void CYFAR *)CYREG_OPAMP3_MX, 0x0102u);
 326:Generated_Source\PSoC5/cyfitter_cfg.c **** 	CY_SET_XTND_REG8((void CYFAR *)CYREG_PUMP_CR0, 0x44u);
 327:Generated_Source\PSoC5/cyfitter_cfg.c **** }
 328:Generated_Source\PSoC5/cyfitter_cfg.c **** 
 329:Generated_Source\PSoC5/cyfitter_cfg.c **** 
 330:Generated_Source\PSoC5/cyfitter_cfg.c **** /*******************************************************************************
 331:Generated_Source\PSoC5/cyfitter_cfg.c **** * Function Name: SetAnalogRoutingPumps
 332:Generated_Source\PSoC5/cyfitter_cfg.c **** ********************************************************************************
 333:Generated_Source\PSoC5/cyfitter_cfg.c **** *
 334:Generated_Source\PSoC5/cyfitter_cfg.c **** * Summary:
 335:Generated_Source\PSoC5/cyfitter_cfg.c **** * Enables or disables the analog pumps feeding analog routing switches.
 336:Generated_Source\PSoC5/cyfitter_cfg.c **** * Intended to be called at startup, based on the Vdda system configuration;
 337:Generated_Source\PSoC5/cyfitter_cfg.c **** * may be called during operation when the user informs us that the Vdda voltage
 338:Generated_Source\PSoC5/cyfitter_cfg.c **** * crossed the pump threshold.
 339:Generated_Source\PSoC5/cyfitter_cfg.c **** *
 340:Generated_Source\PSoC5/cyfitter_cfg.c **** * Parameters:
 341:Generated_Source\PSoC5/cyfitter_cfg.c **** *  enabled - 1 to enable the pumps, 0 to disable the pumps
 342:Generated_Source\PSoC5/cyfitter_cfg.c **** *
 343:Generated_Source\PSoC5/cyfitter_cfg.c **** * Return:
 344:Generated_Source\PSoC5/cyfitter_cfg.c **** *  void
 345:Generated_Source\PSoC5/cyfitter_cfg.c **** *
 346:Generated_Source\PSoC5/cyfitter_cfg.c **** *******************************************************************************/
 347:Generated_Source\PSoC5/cyfitter_cfg.c **** void SetAnalogRoutingPumps(uint8 enabled)
 348:Generated_Source\PSoC5/cyfitter_cfg.c **** {
  28              		.loc 1 348 0
  29              		.cfi_startproc
  30              		@ args = 0, pretend = 0, frame = 0
  31              		@ frame_needed = 0, uses_anonymous_args = 0
  32              		@ link register save eliminated.
  33              	.LVL0:
 349:Generated_Source\PSoC5/cyfitter_cfg.c **** 	uint8 regValue = CY_GET_XTND_REG8((void CYFAR *)CYREG_PUMP_CR0);
  34              		.loc 1 349 0
  35 0000 054A     		ldr	r2, .L5
  36 0002 1378     		ldrb	r3, [r2]	@ zero_extendqisi2
  37 0004 DBB2     		uxtb	r3, r3
  38              	.LVL1:
 350:Generated_Source\PSoC5/cyfitter_cfg.c **** 	if (enabled != 0u)
  39              		.loc 1 350 0
  40 0006 10B1     		cbz	r0, .L2
 351:Generated_Source\PSoC5/cyfitter_cfg.c **** 	{
 352:Generated_Source\PSoC5/cyfitter_cfg.c **** 		regValue |= 0x22u;
  41              		.loc 1 352 0
  42 0008 43F02203 		orr	r3, r3, #34
  43              	.LVL2:
  44 000c 01E0     		b	.L3
  45              	.L2:
 353:Generated_Source\PSoC5/cyfitter_cfg.c **** 	}
 354:Generated_Source\PSoC5/cyfitter_cfg.c **** 	else
ARM GAS  C:\Users\jon\AppData\Local\Temp\cc8tJXAg.s 			page 8


 355:Generated_Source\PSoC5/cyfitter_cfg.c **** 	{
 356:Generated_Source\PSoC5/cyfitter_cfg.c **** 		regValue &= (uint8)~0x22u;
  46              		.loc 1 356 0
  47 000e 03F0DD03 		and	r3, r3, #221
  48              	.LVL3:
  49              	.L3:
 357:Generated_Source\PSoC5/cyfitter_cfg.c **** 	}
 358:Generated_Source\PSoC5/cyfitter_cfg.c **** 	CY_SET_XTND_REG8((void CYFAR *)CYREG_PUMP_CR0, regValue);
  50              		.loc 1 358 0
  51 0012 1370     		strb	r3, [r2]
  52 0014 7047     		bx	lr
  53              	.L6:
  54 0016 00BF     		.align	2
  55              	.L5:
  56 0018 76580040 		.word	1073764470
  57              		.cfi_endproc
  58              	.LFE7:
  59              		.size	SetAnalogRoutingPumps, .-SetAnalogRoutingPumps
  60              		.section	.text.cyfitter_cfg,"ax",%progbits
  61              		.align	1
  62              		.global	cyfitter_cfg
  63              		.thumb
  64              		.thumb_func
  65              		.type	cyfitter_cfg, %function
  66              	cyfitter_cfg:
  67              	.LFB8:
 359:Generated_Source\PSoC5/cyfitter_cfg.c **** }
 360:Generated_Source\PSoC5/cyfitter_cfg.c **** 
 361:Generated_Source\PSoC5/cyfitter_cfg.c **** 
 362:Generated_Source\PSoC5/cyfitter_cfg.c **** 
 363:Generated_Source\PSoC5/cyfitter_cfg.c **** 
 364:Generated_Source\PSoC5/cyfitter_cfg.c **** /*******************************************************************************
 365:Generated_Source\PSoC5/cyfitter_cfg.c **** * Function Name: cyfitter_cfg
 366:Generated_Source\PSoC5/cyfitter_cfg.c **** ********************************************************************************
 367:Generated_Source\PSoC5/cyfitter_cfg.c **** * Summary:
 368:Generated_Source\PSoC5/cyfitter_cfg.c **** *  This function is called by the start-up code for the selected device. It
 369:Generated_Source\PSoC5/cyfitter_cfg.c **** *  performs all of the necessary device configuration based on the design
 370:Generated_Source\PSoC5/cyfitter_cfg.c **** *  settings.  This includes settings from the Design Wide Resources (DWR) such
 371:Generated_Source\PSoC5/cyfitter_cfg.c **** *  as Clocks and Pins as well as any component configuration that is necessary.
 372:Generated_Source\PSoC5/cyfitter_cfg.c **** *
 373:Generated_Source\PSoC5/cyfitter_cfg.c **** * Parameters:
 374:Generated_Source\PSoC5/cyfitter_cfg.c **** *   void
 375:Generated_Source\PSoC5/cyfitter_cfg.c **** *
 376:Generated_Source\PSoC5/cyfitter_cfg.c **** * Return:
 377:Generated_Source\PSoC5/cyfitter_cfg.c **** *   void
 378:Generated_Source\PSoC5/cyfitter_cfg.c **** *
 379:Generated_Source\PSoC5/cyfitter_cfg.c **** *******************************************************************************/
 380:Generated_Source\PSoC5/cyfitter_cfg.c **** 
 381:Generated_Source\PSoC5/cyfitter_cfg.c **** void cyfitter_cfg(void)
 382:Generated_Source\PSoC5/cyfitter_cfg.c **** {
  68              		.loc 1 382 0
  69              		.cfi_startproc
  70              		@ args = 0, pretend = 0, frame = 0
  71              		@ frame_needed = 0, uses_anonymous_args = 0
  72 0000 F8B5     		push	{r3, r4, r5, r6, r7, lr}
  73              		.cfi_def_cfa_offset 24
  74              		.cfi_offset 3, -24
ARM GAS  C:\Users\jon\AppData\Local\Temp\cc8tJXAg.s 			page 9


  75              		.cfi_offset 4, -20
  76              		.cfi_offset 5, -16
  77              		.cfi_offset 6, -12
  78              		.cfi_offset 7, -8
  79              		.cfi_offset 14, -4
 383:Generated_Source\PSoC5/cyfitter_cfg.c **** #ifdef CYGlobalIntDisable
 384:Generated_Source\PSoC5/cyfitter_cfg.c **** 	/* Disable interrupts by default. Let user enable if/when they want. */
 385:Generated_Source\PSoC5/cyfitter_cfg.c **** 	CYGlobalIntDisable
  80              		.loc 1 385 0
  81              		.syntax unified
  82              	@ 385 "Generated_Source\PSoC5\cyfitter_cfg.c" 1
  83 0002 72B6     		CPSID   i
  84              	@ 0 "" 2
 386:Generated_Source\PSoC5/cyfitter_cfg.c **** #endif
 387:Generated_Source\PSoC5/cyfitter_cfg.c **** 
 388:Generated_Source\PSoC5/cyfitter_cfg.c **** 	/* Enable/Disable Debug functionality based on settings from System DWR */
 389:Generated_Source\PSoC5/cyfitter_cfg.c **** 	CY_SET_XTND_REG8((void CYFAR *)CYREG_MLOGIC_DEBUG, (CY_GET_XTND_REG8((void CYFAR *)CYREG_MLOGIC_DE
  85              		.loc 1 389 0
  86              		.thumb
  87              		.syntax unified
  88 0004 7F4A     		ldr	r2, .L22
  89              	.LBB56:
  90              	.LBB57:
 390:Generated_Source\PSoC5/cyfitter_cfg.c **** 
 391:Generated_Source\PSoC5/cyfitter_cfg.c **** 	{
 392:Generated_Source\PSoC5/cyfitter_cfg.c **** 
 393:Generated_Source\PSoC5/cyfitter_cfg.c **** 		CYPACKED typedef struct {
 394:Generated_Source\PSoC5/cyfitter_cfg.c **** 			void CYFAR *address;
 395:Generated_Source\PSoC5/cyfitter_cfg.c **** 			uint16 size;
 396:Generated_Source\PSoC5/cyfitter_cfg.c **** 		} CYPACKED_ATTR cfg_memset_t;
 397:Generated_Source\PSoC5/cyfitter_cfg.c **** 
 398:Generated_Source\PSoC5/cyfitter_cfg.c **** 
 399:Generated_Source\PSoC5/cyfitter_cfg.c **** 		CYPACKED typedef struct {
 400:Generated_Source\PSoC5/cyfitter_cfg.c **** 			void CYFAR *dest;
 401:Generated_Source\PSoC5/cyfitter_cfg.c **** 			const void CYFAR *src;
 402:Generated_Source\PSoC5/cyfitter_cfg.c **** 			uint16 size;
 403:Generated_Source\PSoC5/cyfitter_cfg.c **** 		} CYPACKED_ATTR cfg_memcpy_t;
 404:Generated_Source\PSoC5/cyfitter_cfg.c **** 
 405:Generated_Source\PSoC5/cyfitter_cfg.c **** 		static const cfg_memset_t CYCODE cfg_memset_list[] = {
 406:Generated_Source\PSoC5/cyfitter_cfg.c **** 			/* address, size */
 407:Generated_Source\PSoC5/cyfitter_cfg.c **** 			{(void CYFAR *)(CYREG_TMR0_CFG0), 24u},
 408:Generated_Source\PSoC5/cyfitter_cfg.c **** 			{(void CYFAR *)(CYREG_PRT4_DR), 48u},
 409:Generated_Source\PSoC5/cyfitter_cfg.c **** 			{(void CYFAR *)(CYDEV_UCFG_B0_P0_U0_BASE), 2176u},
 410:Generated_Source\PSoC5/cyfitter_cfg.c **** 			{(void CYFAR *)(CYDEV_UCFG_B0_P4_ROUTE_BASE), 1792u},
 411:Generated_Source\PSoC5/cyfitter_cfg.c **** 			{(void CYFAR *)(CYDEV_UCFG_B1_P2_U0_BASE), 2048u},
 412:Generated_Source\PSoC5/cyfitter_cfg.c **** 			{(void CYFAR *)(CYDEV_UCFG_DSI0_BASE), 2560u},
 413:Generated_Source\PSoC5/cyfitter_cfg.c **** 			{(void CYFAR *)(CYDEV_UCFG_DSI12_BASE), 512u},
 414:Generated_Source\PSoC5/cyfitter_cfg.c **** 			{(void CYFAR *)(CYREG_BCTL0_MDCLK_EN), 32u},
 415:Generated_Source\PSoC5/cyfitter_cfg.c **** 		};
 416:Generated_Source\PSoC5/cyfitter_cfg.c **** 
 417:Generated_Source\PSoC5/cyfitter_cfg.c **** 		static const cfg_memcpy_t CYCODE cfg_memcpy_list [] = {
 418:Generated_Source\PSoC5/cyfitter_cfg.c **** 			/* dest, src, size */
 419:Generated_Source\PSoC5/cyfitter_cfg.c **** 			{(void CYFAR *)(CYDEV_UCFG_B0_P4_U1_BASE), BS_UDB_0_2_0_CONFIG_VAL, 128u},
 420:Generated_Source\PSoC5/cyfitter_cfg.c **** 		};
 421:Generated_Source\PSoC5/cyfitter_cfg.c **** 
 422:Generated_Source\PSoC5/cyfitter_cfg.c **** 		uint8 CYDATA i;
 423:Generated_Source\PSoC5/cyfitter_cfg.c **** 
ARM GAS  C:\Users\jon\AppData\Local\Temp\cc8tJXAg.s 			page 10


 424:Generated_Source\PSoC5/cyfitter_cfg.c **** 		/* Zero out critical memory blocks before beginning configuration */
 425:Generated_Source\PSoC5/cyfitter_cfg.c **** 		for (i = 0u; i < (sizeof(cfg_memset_list)/sizeof(cfg_memset_list[0])); i++)
 426:Generated_Source\PSoC5/cyfitter_cfg.c **** 		{
 427:Generated_Source\PSoC5/cyfitter_cfg.c **** 			const cfg_memset_t CYCODE * CYDATA ms = &cfg_memset_list[i];
 428:Generated_Source\PSoC5/cyfitter_cfg.c **** 			CYMEMZERO(ms->address, (size_t)(uint32)(ms->size));
  91              		.loc 1 428 0
  92 0006 804D     		ldr	r5, .L22+4
  93              	.LBE57:
  94              	.LBE56:
 389:Generated_Source\PSoC5/cyfitter_cfg.c **** 
  95              		.loc 1 389 0
  96 0008 1378     		ldrb	r3, [r2]	@ zero_extendqisi2
  97 000a 0024     		movs	r4, #0
  98 000c 43F00403 		orr	r3, r3, #4
  99 0010 1370     		strb	r3, [r2]
 100              	.LVL4:
 101              	.LBB72:
 102              	.LBB60:
 103              		.loc 1 428 0
 104 0012 0626     		movs	r6, #6
 105              	.LVL5:
 106              	.L8:
 107              		.loc 1 428 0 is_stmt 0 discriminator 3
 108 0014 06FB0453 		mla	r3, r6, r4, r5
 109              	.LBB58:
 110              	.LBB59:
  79:Generated_Source\PSoC5/cyfitter_cfg.c **** }
 111              		.loc 1 79 0 is_stmt 1 discriminator 3
 112 0018 0021     		movs	r1, #0
 113 001a 9A88     		ldrh	r2, [r3, #4]	@ unaligned
 114 001c 1868     		ldr	r0, [r3]	@ unaligned
 115 001e 0134     		adds	r4, r4, #1
 116              	.LVL6:
 117 0020 FFF7FEFF 		bl	memset
 118              	.LVL7:
 119              	.LBE59:
 120              	.LBE58:
 121              	.LBE60:
 425:Generated_Source\PSoC5/cyfitter_cfg.c **** 		{
 122              		.loc 1 425 0 discriminator 3
 123 0024 082C     		cmp	r4, #8
 124 0026 F5D1     		bne	.L8
 125              	.LVL8:
 126              	.LBB61:
 127              	.LBB62:
 128              	.LBB63:
  86:Generated_Source\PSoC5/cyfitter_cfg.c **** }
 129              		.loc 1 86 0 discriminator 3
 130 0028 8022     		movs	r2, #128
 131 002a 7849     		ldr	r1, .L22+8
 132 002c 7848     		ldr	r0, .L22+12
 133 002e FFF7FEFF 		bl	memcpy
 134              	.LVL9:
 135              	.LBE63:
 136              	.LBE62:
 137              	.LBE61:
 138              	.LBB66:
ARM GAS  C:\Users\jon\AppData\Local\Temp\cc8tJXAg.s 			page 11


 139              	.LBB67:
 205:Generated_Source\PSoC5/cyfitter_cfg.c **** 	{
 140              		.loc 1 205 0 discriminator 3
 141 0032 784D     		ldr	r5, .L22+16
 142              	.LBE67:
 143              	.LBE66:
 144              	.LBB70:
 145              	.LBB65:
 146              	.LBB64:
  86:Generated_Source\PSoC5/cyfitter_cfg.c **** }
 147              		.loc 1 86 0 discriminator 3
 148 0034 7848     		ldr	r0, .L22+20
 149 0036 0024     		movs	r4, #0
 150              	.LVL10:
 151              	.L11:
 152              	.LBE64:
 153              	.LBE65:
 154              	.LBE70:
 155              	.LBB71:
 156              	.LBB69:
 157              	.LBB68:
 207:Generated_Source\PSoC5/cyfitter_cfg.c **** 		uint8 count = (uint8)baseAddr;
 158              		.loc 1 207 0
 159 0038 50F8041F 		ldr	r1, [r0, #4]!
 160              	.LVL11:
 161 003c 04F11053 		add	r3, r4, #603979776
 162 0040 03F15202 		add	r2, r3, #82
 209:Generated_Source\PSoC5/cyfitter_cfg.c **** 		while (count != 0u)
 163              		.loc 1 209 0
 164 0044 21F0FF06 		bic	r6, r1, #255
 165              	.LVL12:
 166 0048 5333     		adds	r3, r3, #83
 167 004a C9B2     		uxtb	r1, r1
 168 004c 0B44     		add	r3, r3, r1
 169 004e 5200     		lsls	r2, r2, #1
 170 0050 5B00     		lsls	r3, r3, #1
 171              	.LVL13:
 172              	.L9:
 173 0052 0232     		adds	r2, r2, #2
 210:Generated_Source\PSoC5/cyfitter_cfg.c **** 		{
 174              		.loc 1 210 0
 175 0054 9342     		cmp	r3, r2
 176 0056 06D0     		beq	.L21
 212:Generated_Source\PSoC5/cyfitter_cfg.c **** 			j++;
 177              		.loc 1 212 0
 178 0058 12F8027C 		ldrb	r7, [r2, #-2]	@ zero_extendqisi2
 179 005c 12F801EC 		ldrb	lr, [r2, #-1]	@ zero_extendqisi2
 180 0060 07F806E0 		strb	lr, [r7, r6]
 181 0064 F5E7     		b	.L9
 182              	.L21:
 183              	.LBE68:
 205:Generated_Source\PSoC5/cyfitter_cfg.c **** 	{
 184              		.loc 1 205 0
 185 0066 A842     		cmp	r0, r5
 186 0068 0C44     		add	r4, r4, r1
 187              	.LVL14:
 188 006a E5D1     		bne	.L11
ARM GAS  C:\Users\jon\AppData\Local\Temp\cc8tJXAg.s 			page 12


 189              	.LVL15:
 190              	.LBE69:
 191              	.LBE71:
 429:Generated_Source\PSoC5/cyfitter_cfg.c **** 		}
 430:Generated_Source\PSoC5/cyfitter_cfg.c **** 
 431:Generated_Source\PSoC5/cyfitter_cfg.c **** 		/* Copy device configuration data into registers */
 432:Generated_Source\PSoC5/cyfitter_cfg.c **** 		for (i = 0u; i < (sizeof(cfg_memcpy_list)/sizeof(cfg_memcpy_list[0])); i++)
 433:Generated_Source\PSoC5/cyfitter_cfg.c **** 		{
 434:Generated_Source\PSoC5/cyfitter_cfg.c **** 			const cfg_memcpy_t CYCODE * CYDATA mc = &cfg_memcpy_list[i];
 435:Generated_Source\PSoC5/cyfitter_cfg.c **** 			void * CYDATA destPtr = mc->dest;
 436:Generated_Source\PSoC5/cyfitter_cfg.c **** 			const void * CYDATA srcPtr = mc->src;
 437:Generated_Source\PSoC5/cyfitter_cfg.c **** 			uint16 CYDATA numBytes = mc->size;
 438:Generated_Source\PSoC5/cyfitter_cfg.c **** 			CYCONFIGCPY(destPtr, srcPtr, numBytes);
 439:Generated_Source\PSoC5/cyfitter_cfg.c **** 		}
 440:Generated_Source\PSoC5/cyfitter_cfg.c **** 
 441:Generated_Source\PSoC5/cyfitter_cfg.c **** 		cfg_write_bytes32(cy_cfg_addr_table, cy_cfg_data_table);
 442:Generated_Source\PSoC5/cyfitter_cfg.c **** 
 443:Generated_Source\PSoC5/cyfitter_cfg.c **** 		/* B0_P2_U0_CFG24 Starting address: CYDEV_UCFG_B0_P2_U0_CFG24 */
 444:Generated_Source\PSoC5/cyfitter_cfg.c **** 		CY_SET_XTND_REG32((void CYFAR *)(CYREG_B0_P2_U0_CFG24), 0x84040404u);
 192              		.loc 1 444 0
 193 006c 6B4B     		ldr	r3, .L22+24
 194 006e 6C4A     		ldr	r2, .L22+28
 445:Generated_Source\PSoC5/cyfitter_cfg.c **** 
 446:Generated_Source\PSoC5/cyfitter_cfg.c **** 		/* B0_P7_U0_CFG24 Starting address: CYDEV_UCFG_B0_P7_U0_CFG24 */
 447:Generated_Source\PSoC5/cyfitter_cfg.c **** 		CY_SET_XTND_REG32((void CYFAR *)(CYREG_B0_P7_U0_CFG24), 0x84000404u);
 448:Generated_Source\PSoC5/cyfitter_cfg.c **** 
 449:Generated_Source\PSoC5/cyfitter_cfg.c **** 		/* Enable digital routing */
 450:Generated_Source\PSoC5/cyfitter_cfg.c **** 		CY_SET_XTND_REG8((void CYFAR *)CYREG_BCTL0_BANK_CTL, CY_GET_XTND_REG8((void CYFAR *)CYREG_BCTL0_B
 451:Generated_Source\PSoC5/cyfitter_cfg.c **** 		CY_SET_XTND_REG8((void CYFAR *)CYREG_BCTL1_BANK_CTL, CY_GET_XTND_REG8((void CYFAR *)CYREG_BCTL1_B
 452:Generated_Source\PSoC5/cyfitter_cfg.c **** 
 453:Generated_Source\PSoC5/cyfitter_cfg.c **** 		/* Enable UDB array */
 454:Generated_Source\PSoC5/cyfitter_cfg.c **** 		CY_SET_XTND_REG8((void CYFAR *)CYREG_PM_ACT_CFG0, CY_GET_XTND_REG8((void CYFAR *)CYREG_PM_ACT_CFG
 195              		.loc 1 454 0
 196 0070 6C4E     		ldr	r6, .L22+32
 444:Generated_Source\PSoC5/cyfitter_cfg.c **** 
 197              		.loc 1 444 0
 198 0072 1A60     		str	r2, [r3]
 447:Generated_Source\PSoC5/cyfitter_cfg.c **** 
 199              		.loc 1 447 0
 200 0074 A2F58022 		sub	r2, r2, #262144
 201 0078 C3F8002A 		str	r2, [r3, #2560]
 450:Generated_Source\PSoC5/cyfitter_cfg.c **** 		CY_SET_XTND_REG8((void CYFAR *)CYREG_BCTL1_BANK_CTL, CY_GET_XTND_REG8((void CYFAR *)CYREG_BCTL1_B
 202              		.loc 1 450 0
 203 007c 6A4A     		ldr	r2, .L22+36
 204              	.LBE72:
 205              	.LBB73:
 206              	.LBB74:
  86:Generated_Source\PSoC5/cyfitter_cfg.c **** }
 207              		.loc 1 86 0
 208 007e 6B4C     		ldr	r4, .L22+40
 209              	.LBE74:
 210              	.LBE73:
 211              	.LBB76:
 450:Generated_Source\PSoC5/cyfitter_cfg.c **** 		CY_SET_XTND_REG8((void CYFAR *)CYREG_BCTL1_BANK_CTL, CY_GET_XTND_REG8((void CYFAR *)CYREG_BCTL1_B
 212              		.loc 1 450 0
 213 0080 1378     		ldrb	r3, [r2]	@ zero_extendqisi2
 214              	.LBE76:
ARM GAS  C:\Users\jon\AppData\Local\Temp\cc8tJXAg.s 			page 13


 215              	.LBB77:
 216              	.LBB78:
 244:Generated_Source\PSoC5/cyfitter_cfg.c **** 	CY_SET_XTND_REG16((void CYFAR *)(CYREG_CLKDIST_DCFG1_CFG0), 0x0001u);
 217              		.loc 1 244 0
 218 0082 1925     		movs	r5, #25
 219              	.LBE78:
 220              	.LBE77:
 221              	.LBB82:
 450:Generated_Source\PSoC5/cyfitter_cfg.c **** 		CY_SET_XTND_REG8((void CYFAR *)CYREG_BCTL1_BANK_CTL, CY_GET_XTND_REG8((void CYFAR *)CYREG_BCTL1_B
 222              		.loc 1 450 0
 223 0084 43F00203 		orr	r3, r3, #2
 224 0088 1370     		strb	r3, [r2]
 451:Generated_Source\PSoC5/cyfitter_cfg.c **** 
 225              		.loc 1 451 0
 226 008a 137C     		ldrb	r3, [r2, #16]	@ zero_extendqisi2
 227              	.LBE82:
 228              	.LBB83:
 229              	.LBB79:
 274:Generated_Source\PSoC5/cyfitter_cfg.c **** 		CyDelayCycles(10u * 48u); /* Delay 10us based on 48MHz clock */
 230              		.loc 1 274 0
 231 008c 684F     		ldr	r7, .L22+44
 232              	.LBE79:
 233              	.LBE83:
 234              	.LBB84:
 451:Generated_Source\PSoC5/cyfitter_cfg.c **** 
 235              		.loc 1 451 0
 236 008e 43F00203 		orr	r3, r3, #2
 237 0092 1374     		strb	r3, [r2, #16]
 238              		.loc 1 454 0
 239 0094 3378     		ldrb	r3, [r6]	@ zero_extendqisi2
 455:Generated_Source\PSoC5/cyfitter_cfg.c **** 		CY_SET_XTND_REG8((void CYFAR *)CYREG_PM_AVAIL_CR2, CY_GET_XTND_REG8((void CYFAR *)CYREG_PM_AVAIL_
 240              		.loc 1 455 0
 241 0096 A2F58632 		sub	r2, r2, #68608
 454:Generated_Source\PSoC5/cyfitter_cfg.c **** 		CY_SET_XTND_REG8((void CYFAR *)CYREG_PM_AVAIL_CR2, CY_GET_XTND_REG8((void CYFAR *)CYREG_PM_AVAIL_
 242              		.loc 1 454 0
 243 009a 43F04003 		orr	r3, r3, #64
 244 009e 3370     		strb	r3, [r6]
 245              		.loc 1 455 0
 246 00a0 413A     		subs	r2, r2, #65
 247 00a2 1378     		ldrb	r3, [r2]	@ zero_extendqisi2
 248 00a4 43F01003 		orr	r3, r3, #16
 249 00a8 1370     		strb	r3, [r2]
 250              	.LVL16:
 251              	.LBE84:
 252              	.LBB85:
 253              	.LBB86:
  86:Generated_Source\PSoC5/cyfitter_cfg.c **** }
 254              		.loc 1 86 0
 255 00aa 624A     		ldr	r2, .L22+48
 256 00ac 624B     		ldr	r3, .L22+52
 257 00ae 07CA     		ldmia	r2, {r0, r1, r2}
 258 00b0 03C3     		stmia	r3!, {r0, r1}
 259 00b2 1A80     		strh	r2, [r3]	@ movhi
 260              	.LVL17:
 261              	.LBE86:
 262              	.LBE85:
 263              	.LBB87:
ARM GAS  C:\Users\jon\AppData\Local\Temp\cc8tJXAg.s 			page 14


 264              	.LBB88:
 265 00b4 614A     		ldr	r2, .L22+56
 266 00b6 B833     		adds	r3, r3, #184
 267 00b8 07CA     		ldmia	r2, {r0, r1, r2}
 268 00ba 03C3     		stmia	r3!, {r0, r1}
 269 00bc 1A80     		strh	r2, [r3]	@ movhi
 270              	.LVL18:
 271              	.LBE88:
 272              	.LBE87:
 273              	.LBB89:
 274              	.LBB90:
 275 00be 604A     		ldr	r2, .L22+60
 276 00c0 1068     		ldr	r0, [r2]	@ unaligned
 277 00c2 C3F80300 		str	r0, [r3, #3]	@ unaligned
 278 00c6 1279     		ldrb	r2, [r2, #4]	@ zero_extendqisi2
 279 00c8 DA71     		strb	r2, [r3, #7]
 280              	.LVL19:
 281              	.LBE90:
 282              	.LBE89:
 283              	.LBB91:
 284              	.LBB92:
 285 00ca 5E4A     		ldr	r2, .L22+64
 286 00cc 5E4B     		ldr	r3, .L22+68
 287 00ce 03CB     		ldmia	r3!, {r0, r1}
 288 00d0 1060     		str	r0, [r2]	@ unaligned
 289 00d2 5160     		str	r1, [r2, #4]	@ unaligned
 290              	.LVL20:
 291              	.LBE92:
 292              	.LBE91:
 293              	.LBB93:
 294              	.LBB94:
 295 00d4 03CB     		ldmia	r3!, {r0, r1}
 296 00d6 42F8E00C 		str	r0, [r2, #-224]	@ unaligned
 297 00da 42F8DC1C 		str	r1, [r2, #-220]	@ unaligned
 298              	.LVL21:
 299              	.LBE94:
 300              	.LBE93:
 301              	.LBB95:
 302              	.LBB75:
 303 00de 93E80700 		ldmia	r3, {r0, r1, r2}
 304 00e2 03C4     		stmia	r4!, {r0, r1}
 305 00e4 2280     		strh	r2, [r4]	@ movhi
 306              	.LVL22:
 307              	.LBE75:
 308              	.LBE95:
 309              	.LBB96:
 310              	.LBB97:
 311 00e6 594A     		ldr	r2, .L22+72
 312 00e8 0C33     		adds	r3, r3, #12
 313 00ea 03CB     		ldmia	r3!, {r0, r1}
 314              	.LBE97:
 315              	.LBE96:
 456:Generated_Source\PSoC5/cyfitter_cfg.c **** 	}
 457:Generated_Source\PSoC5/cyfitter_cfg.c **** 
 458:Generated_Source\PSoC5/cyfitter_cfg.c **** 
 459:Generated_Source\PSoC5/cyfitter_cfg.c **** 	/* Perform second pass device configuration. These items must be configured in specific order afte
 460:Generated_Source\PSoC5/cyfitter_cfg.c **** 	CYCONFIGCPY((void CYFAR *)(CYREG_PRT0_DR), (const void CYFAR *)(BS_IOPINS0_0_VAL), 10u);
ARM GAS  C:\Users\jon\AppData\Local\Temp\cc8tJXAg.s 			page 15


 461:Generated_Source\PSoC5/cyfitter_cfg.c **** 	CYCONFIGCPY((void CYFAR *)(CYREG_PRT12_DR), (const void CYFAR *)(BS_IOPINS0_7_VAL), 10u);
 462:Generated_Source\PSoC5/cyfitter_cfg.c **** 	CYCONFIGCPY((void CYFAR *)(CYREG_PRT12_DR + 0x0000000Bu), (const void CYFAR *)(BS_IOPINS1_7_VAL), 
 463:Generated_Source\PSoC5/cyfitter_cfg.c **** 	CYCONFIGCPY((void CYFAR *)(CYREG_PRT15_DM0), (const void CYFAR *)(BS_IOPINS0_8_VAL), 8u);
 464:Generated_Source\PSoC5/cyfitter_cfg.c **** 	CYCONFIGCPY((void CYFAR *)(CYREG_PRT1_DM0), (const void CYFAR *)(BS_IOPINS0_1_VAL), 8u);
 465:Generated_Source\PSoC5/cyfitter_cfg.c **** 	CYCONFIGCPY((void CYFAR *)(CYREG_PRT2_DR), (const void CYFAR *)(BS_IOPINS0_2_VAL), 10u);
 466:Generated_Source\PSoC5/cyfitter_cfg.c **** 	CYCONFIGCPY((void CYFAR *)(CYREG_PRT3_DM0), (const void CYFAR *)(BS_IOPINS0_3_VAL), 8u);
 467:Generated_Source\PSoC5/cyfitter_cfg.c **** 	/* Switch Boost to the precision bandgap reference from its internal reference */
 468:Generated_Source\PSoC5/cyfitter_cfg.c **** 	CY_SET_REG8((void CYXDATA *)CYREG_BOOST_CR2, (CY_GET_REG8((void CYXDATA *)CYREG_BOOST_CR2) | 0x08u
 316              		.loc 1 468 0
 317 00ec A2F56162 		sub	r2, r2, #3600
 318              	.LBB99:
 319              	.LBB98:
  86:Generated_Source\PSoC5/cyfitter_cfg.c **** }
 320              		.loc 1 86 0
 321 00f0 C2F8141E 		str	r1, [r2, #3604]	@ unaligned
 322              	.LVL23:
 323 00f4 C2F8100E 		str	r0, [r2, #3600]	@ unaligned
 324              	.LBE98:
 325              	.LBE99:
 326              		.loc 1 468 0
 327 00f8 1378     		ldrb	r3, [r2]	@ zero_extendqisi2
 328              	.LBB100:
 329              	.LBB80:
 243:Generated_Source\PSoC5/cyfitter_cfg.c **** 	CY_SET_XTND_REG8((void CYFAR *)(CYREG_CLKDIST_DCFG0_CFG0 + 0x2u), 0x19u);
 330              		.loc 1 243 0
 331 00fa 0024     		movs	r4, #0
 332              	.LBE80:
 333              	.LBE100:
 334              		.loc 1 468 0
 335 00fc 43F00803 		orr	r3, r3, #8
 336 0100 1370     		strb	r3, [r2]
 469:Generated_Source\PSoC5/cyfitter_cfg.c **** 
 470:Generated_Source\PSoC5/cyfitter_cfg.c **** 	/* Set Flash Cycles based on max possible frequency in case a glitch occurs during ClockSetup(). *
 471:Generated_Source\PSoC5/cyfitter_cfg.c **** 	CY_SET_XTND_REG8((void CYFAR *)(CYREG_CACHE_CC_CTL), (((CYDEV_INSTRUCT_CACHE_ENABLED) != 0) ? 0x61
 337              		.loc 1 471 0
 338 0102 534B     		ldr	r3, .L22+76
 339 0104 6122     		movs	r2, #97
 340 0106 1A70     		strb	r2, [r3]
 341              	.LBB101:
 342              	.LBB81:
 243:Generated_Source\PSoC5/cyfitter_cfg.c **** 	CY_SET_XTND_REG8((void CYFAR *)(CYREG_CLKDIST_DCFG0_CFG0 + 0x2u), 0x19u);
 343              		.loc 1 243 0
 344 0108 A3F5F063 		sub	r3, r3, #1920
 245:Generated_Source\PSoC5/cyfitter_cfg.c **** 	CY_SET_XTND_REG8((void CYFAR *)(CYREG_CLKDIST_DCFG1_CFG0 + 0x2u), 0x18u);
 345              		.loc 1 245 0
 346 010c 0122     		movs	r2, #1
 243:Generated_Source\PSoC5/cyfitter_cfg.c **** 	CY_SET_XTND_REG8((void CYFAR *)(CYREG_CLKDIST_DCFG0_CFG0 + 0x2u), 0x19u);
 347              		.loc 1 243 0
 348 010e 1C80     		strh	r4, [r3]	@ movhi
 244:Generated_Source\PSoC5/cyfitter_cfg.c **** 	CY_SET_XTND_REG16((void CYFAR *)(CYREG_CLKDIST_DCFG1_CFG0), 0x0001u);
 349              		.loc 1 244 0
 350 0110 9D70     		strb	r5, [r3, #2]
 245:Generated_Source\PSoC5/cyfitter_cfg.c **** 	CY_SET_XTND_REG8((void CYFAR *)(CYREG_CLKDIST_DCFG1_CFG0 + 0x2u), 0x18u);
 351              		.loc 1 245 0
 352 0112 9A80     		strh	r2, [r3, #4]	@ movhi
 246:Generated_Source\PSoC5/cyfitter_cfg.c **** 	CY_SET_XTND_REG16((void CYFAR *)(CYREG_CLKDIST_DCFG2_CFG0), 0x000Fu);
 353              		.loc 1 246 0
ARM GAS  C:\Users\jon\AppData\Local\Temp\cc8tJXAg.s 			page 16


 354 0114 4F4A     		ldr	r2, .L22+80
 355 0116 1823     		movs	r3, #24
 247:Generated_Source\PSoC5/cyfitter_cfg.c **** 	CY_SET_XTND_REG8((void CYFAR *)(CYREG_CLKDIST_DCFG2_CFG0 + 0x2u), 0x18u);
 356              		.loc 1 247 0
 357 0118 0F21     		movs	r1, #15
 246:Generated_Source\PSoC5/cyfitter_cfg.c **** 	CY_SET_XTND_REG16((void CYFAR *)(CYREG_CLKDIST_DCFG2_CFG0), 0x000Fu);
 358              		.loc 1 246 0
 359 011a 1370     		strb	r3, [r2]
 247:Generated_Source\PSoC5/cyfitter_cfg.c **** 	CY_SET_XTND_REG8((void CYFAR *)(CYREG_CLKDIST_DCFG2_CFG0 + 0x2u), 0x18u);
 360              		.loc 1 247 0
 361 011c 5180     		strh	r1, [r2, #2]	@ movhi
 249:Generated_Source\PSoC5/cyfitter_cfg.c **** 	CY_SET_XTND_REG8((void CYFAR *)(CYREG_CLKDIST_DCFG3_CFG0 + 0x2u), 0x18u);
 362              		.loc 1 249 0
 363 011e 3B21     		movs	r1, #59
 248:Generated_Source\PSoC5/cyfitter_cfg.c **** 	CY_SET_XTND_REG16((void CYFAR *)(CYREG_CLKDIST_DCFG3_CFG0), 0x003Bu);
 364              		.loc 1 248 0
 365 0120 1371     		strb	r3, [r2, #4]
 249:Generated_Source\PSoC5/cyfitter_cfg.c **** 	CY_SET_XTND_REG8((void CYFAR *)(CYREG_CLKDIST_DCFG3_CFG0 + 0x2u), 0x18u);
 366              		.loc 1 249 0
 367 0122 D180     		strh	r1, [r2, #6]	@ movhi
 251:Generated_Source\PSoC5/cyfitter_cfg.c **** 	CY_SET_XTND_REG8((void CYFAR *)(CYREG_CLKDIST_DCFG4_CFG0 + 0x2u), 0x18u);
 368              		.loc 1 251 0
 369 0124 6721     		movs	r1, #103
 250:Generated_Source\PSoC5/cyfitter_cfg.c **** 	CY_SET_XTND_REG16((void CYFAR *)(CYREG_CLKDIST_DCFG4_CFG0), 0x0067u);
 370              		.loc 1 250 0
 371 0126 1372     		strb	r3, [r2, #8]
 251:Generated_Source\PSoC5/cyfitter_cfg.c **** 	CY_SET_XTND_REG8((void CYFAR *)(CYREG_CLKDIST_DCFG4_CFG0 + 0x2u), 0x18u);
 372              		.loc 1 251 0
 373 0128 5181     		strh	r1, [r2, #10]	@ movhi
 253:Generated_Source\PSoC5/cyfitter_cfg.c **** 	CY_SET_XTND_REG8((void CYFAR *)(CYREG_CLKDIST_DCFG5_CFG0 + 0x2u), 0x18u);
 374              		.loc 1 253 0
 375 012a 4FF41C71 		mov	r1, #624
 252:Generated_Source\PSoC5/cyfitter_cfg.c **** 	CY_SET_XTND_REG16((void CYFAR *)(CYREG_CLKDIST_DCFG5_CFG0), 0x0270u);
 376              		.loc 1 252 0
 377 012e 1373     		strb	r3, [r2, #12]
 253:Generated_Source\PSoC5/cyfitter_cfg.c **** 	CY_SET_XTND_REG8((void CYFAR *)(CYREG_CLKDIST_DCFG5_CFG0 + 0x2u), 0x18u);
 378              		.loc 1 253 0
 379 0130 D181     		strh	r1, [r2, #14]	@ movhi
 255:Generated_Source\PSoC5/cyfitter_cfg.c **** 	CY_SET_XTND_REG8((void CYFAR *)(CYREG_CLKDIST_DCFG6_CFG0 + 0x2u), 0x18u);
 380              		.loc 1 255 0
 381 0132 42F27F51 		movw	r1, #9599
 254:Generated_Source\PSoC5/cyfitter_cfg.c **** 	CY_SET_XTND_REG16((void CYFAR *)(CYREG_CLKDIST_DCFG6_CFG0), 0x257Fu);
 382              		.loc 1 254 0
 383 0136 1374     		strb	r3, [r2, #16]
 255:Generated_Source\PSoC5/cyfitter_cfg.c **** 	CY_SET_XTND_REG8((void CYFAR *)(CYREG_CLKDIST_DCFG6_CFG0 + 0x2u), 0x18u);
 384              		.loc 1 255 0
 385 0138 5182     		strh	r1, [r2, #18]	@ movhi
 256:Generated_Source\PSoC5/cyfitter_cfg.c **** 	CY_SET_XTND_REG16((void CYFAR *)(CYREG_CLKDIST_DCFG7_CFG0), 0x5DBFu);
 386              		.loc 1 256 0
 387 013a 1375     		strb	r3, [r2, #20]
 257:Generated_Source\PSoC5/cyfitter_cfg.c **** 	CY_SET_XTND_REG8((void CYFAR *)(CYREG_CLKDIST_DCFG7_CFG0 + 0x2u), 0x19u);
 388              		.loc 1 257 0
 389 013c 45F6BF52 		movw	r2, #23999
 390 0140 454B     		ldr	r3, .L22+84
 391 0142 1A80     		strh	r2, [r3]	@ movhi
 261:Generated_Source\PSoC5/cyfitter_cfg.c **** 
 392              		.loc 1 261 0
ARM GAS  C:\Users\jon\AppData\Local\Temp\cc8tJXAg.s 			page 17


 393 0144 0622     		movs	r2, #6
 258:Generated_Source\PSoC5/cyfitter_cfg.c **** 
 394              		.loc 1 258 0
 395 0146 9D70     		strb	r5, [r3, #2]
 261:Generated_Source\PSoC5/cyfitter_cfg.c **** 
 396              		.loc 1 261 0
 397 0148 83F86422 		strb	r2, [r3, #612]
 264:Generated_Source\PSoC5/cyfitter_cfg.c **** 	CY_SET_XTND_REG8((void CYFAR *)(CYREG_IMO_TR1), (CY_GET_XTND_REG8((void CYFAR *)CYREG_FLSHID_CUST_
 398              		.loc 1 264 0
 399 014c 5222     		movs	r2, #82
 400 014e 03F5B273 		add	r3, r3, #356
 401 0152 1A70     		strb	r2, [r3]
 265:Generated_Source\PSoC5/cyfitter_cfg.c **** 
 402              		.loc 1 265 0
 403 0154 414B     		ldr	r3, .L22+88
 404 0156 424A     		ldr	r2, .L22+92
 405 0158 1B78     		ldrb	r3, [r3]	@ zero_extendqisi2
 406 015a DBB2     		uxtb	r3, r3
 407 015c 1370     		strb	r3, [r2]
 268:Generated_Source\PSoC5/cyfitter_cfg.c **** 	CY_SET_XTND_REG16((void CYFAR *)(CYREG_FASTCLK_PLL_CFG0), 0x1251u);
 408              		.loc 1 268 0
 409 015e 414B     		ldr	r3, .L22+96
 410 0160 4FF4E262 		mov	r2, #1808
 411 0164 1A80     		strh	r2, [r3]	@ movhi
 269:Generated_Source\PSoC5/cyfitter_cfg.c **** 	/* Wait up to 250us for the PLL to lock */
 412              		.loc 1 269 0
 413 0166 41F25122 		movw	r2, #4689
 414 016a 23F8022C 		strh	r2, [r3, #-2]	@ movhi
 415              	.LVL24:
 416              	.L13:
 274:Generated_Source\PSoC5/cyfitter_cfg.c **** 		CyDelayCycles(10u * 48u); /* Delay 10us based on 48MHz clock */
 417              		.loc 1 274 0
 418 016e 3B78     		ldrb	r3, [r7]	@ zero_extendqisi2
 275:Generated_Source\PSoC5/cyfitter_cfg.c **** 	}
 419              		.loc 1 275 0
 420 0170 4FF4F070 		mov	r0, #480
 274:Generated_Source\PSoC5/cyfitter_cfg.c **** 		CyDelayCycles(10u * 48u); /* Delay 10us based on 48MHz clock */
 421              		.loc 1 274 0
 422 0174 03F00103 		and	r3, r3, #1
 423 0178 43EA4404 		orr	r4, r3, r4, lsl #1
 424              	.LVL25:
 275:Generated_Source\PSoC5/cyfitter_cfg.c **** 	}
 425              		.loc 1 275 0
 426 017c FFF7FEFF 		bl	CyDelayCycles
 427              	.LVL26:
 272:Generated_Source\PSoC5/cyfitter_cfg.c **** 	{ 
 428              		.loc 1 272 0
 429 0180 013D     		subs	r5, r5, #1
 430              	.LVL27:
 274:Generated_Source\PSoC5/cyfitter_cfg.c **** 		CyDelayCycles(10u * 48u); /* Delay 10us based on 48MHz clock */
 431              		.loc 1 274 0
 432 0182 04F00304 		and	r4, r4, #3
 433              	.LVL28:
 272:Generated_Source\PSoC5/cyfitter_cfg.c **** 	{ 
 434              		.loc 1 272 0
 435 0186 3CD0     		beq	.L12
 436              	.LVL29:
ARM GAS  C:\Users\jon\AppData\Local\Temp\cc8tJXAg.s 			page 18


 437 0188 032C     		cmp	r4, #3
 438 018a F0D1     		bne	.L13
 284:Generated_Source\PSoC5/cyfitter_cfg.c **** 	CY_SET_XTND_REG8((void CYFAR *)(CYREG_CLKDIST_MSTR0), 0x07u);
 439              		.loc 1 284 0
 440 018c 364A     		ldr	r2, .L22+100
 441 018e 4FF48073 		mov	r3, #256
 442 0192 1380     		strh	r3, [r2]	@ movhi
 286:Generated_Source\PSoC5/cyfitter_cfg.c **** 	CY_SET_XTND_REG8((void CYFAR *)(CYREG_CLKDIST_BCFG2), 0x48u);
 443              		.loc 1 286 0
 444 0194 3549     		ldr	r1, .L22+104
 285:Generated_Source\PSoC5/cyfitter_cfg.c **** 	CY_SET_XTND_REG8((void CYFAR *)(CYREG_CLKDIST_BCFG0), 0x00u);
 445              		.loc 1 285 0
 446 0196 0723     		movs	r3, #7
 447 0198 1370     		strb	r3, [r2]
 287:Generated_Source\PSoC5/cyfitter_cfg.c **** 	CY_SET_XTND_REG8((void CYFAR *)(CYREG_CLKDIST_MSTR0), 0x00u);
 448              		.loc 1 287 0
 449 019a 4820     		movs	r0, #72
 286:Generated_Source\PSoC5/cyfitter_cfg.c **** 	CY_SET_XTND_REG8((void CYFAR *)(CYREG_CLKDIST_BCFG2), 0x48u);
 450              		.loc 1 286 0
 451 019c 0023     		movs	r3, #0
 452 019e 0B70     		strb	r3, [r1]
 287:Generated_Source\PSoC5/cyfitter_cfg.c **** 	CY_SET_XTND_REG8((void CYFAR *)(CYREG_CLKDIST_MSTR0), 0x00u);
 453              		.loc 1 287 0
 454 01a0 8870     		strb	r0, [r1, #2]
 288:Generated_Source\PSoC5/cyfitter_cfg.c **** 
 455              		.loc 1 288 0
 456 01a2 1370     		strb	r3, [r2]
 291:Generated_Source\PSoC5/cyfitter_cfg.c **** 	CY_SET_XTND_REG8((void CYFAR *)(CYREG_CLKDIST_LD), 0x02u);
 457              		.loc 1 291 0
 458 01a4 5371     		strb	r3, [r2, #5]
 292:Generated_Source\PSoC5/cyfitter_cfg.c **** 
 459              		.loc 1 292 0
 460 01a6 324B     		ldr	r3, .L22+108
 461 01a8 0222     		movs	r2, #2
 462 01aa 1A70     		strb	r2, [r3]
 294:Generated_Source\PSoC5/cyfitter_cfg.c **** }
 463              		.loc 1 294 0
 464 01ac 93F8A123 		ldrb	r2, [r3, #929]	@ zero_extendqisi2
 465 01b0 FF22     		movs	r2, #255
 466 01b2 83F8A123 		strb	r2, [r3, #929]
 467              	.LVL30:
 468              	.LBE81:
 469              	.LBE101:
 472:Generated_Source\PSoC5/cyfitter_cfg.c **** 	/* Setup clocks based on selections from Clock DWR */
 473:Generated_Source\PSoC5/cyfitter_cfg.c **** 	ClockSetup();
 474:Generated_Source\PSoC5/cyfitter_cfg.c **** 	/* Set Flash Cycles based on newly configured 48.00MHz Bus Clock. */
 475:Generated_Source\PSoC5/cyfitter_cfg.c **** 	CY_SET_XTND_REG8((void CYFAR *)(CYREG_CACHE_CC_CTL), (((CYDEV_INSTRUCT_CACHE_ENABLED) != 0) ? 0xC1
 470              		.loc 1 475 0
 471 01b6 C122     		movs	r2, #193
 472 01b8 83F8FF27 		strb	r2, [r3, #2047]
 476:Generated_Source\PSoC5/cyfitter_cfg.c **** 	CY_SET_XTND_REG8((void CYFAR *)(CYREG_PANTHER_WAITPIPE), 0x01u);
 473              		.loc 1 476 0
 474 01bc 03F5F823 		add	r3, r3, #507904
 475 01c0 0122     		movs	r2, #1
 476 01c2 0333     		adds	r3, r3, #3
 477 01c4 1A70     		strb	r2, [r3]
 478              	.LBB102:
ARM GAS  C:\Users\jon\AppData\Local\Temp\cc8tJXAg.s 			page 19


 479              	.LBB103:
 319:Generated_Source\PSoC5/cyfitter_cfg.c **** 	CY_SET_XTND_REG8((void CYFAR *)(CYREG_BG_DFT0), (bg_xover_inl_trim & 0x07u));
 480              		.loc 1 319 0
 481 01c6 2B4B     		ldr	r3, .L22+112
 320:Generated_Source\PSoC5/cyfitter_cfg.c **** 	CY_SET_XTND_REG8((void CYFAR *)(CYREG_BG_DFT1), ((bg_xover_inl_trim >> 4) & 0x0Fu));
 482              		.loc 1 320 0
 483 01c8 2B4A     		ldr	r2, .L22+116
 319:Generated_Source\PSoC5/cyfitter_cfg.c **** 	CY_SET_XTND_REG8((void CYFAR *)(CYREG_BG_DFT0), (bg_xover_inl_trim & 0x07u));
 484              		.loc 1 319 0
 485 01ca 1B78     		ldrb	r3, [r3]	@ zero_extendqisi2
 486              	.LBE103:
 487              	.LBE102:
 488              	.LBB105:
 489              	.LBB106:
  86:Generated_Source\PSoC5/cyfitter_cfg.c **** }
 490              		.loc 1 86 0
 491 01cc 2B4C     		ldr	r4, .L22+120
 492              	.LBE106:
 493              	.LBE105:
 494              	.LBB108:
 495              	.LBB104:
 319:Generated_Source\PSoC5/cyfitter_cfg.c **** 	CY_SET_XTND_REG8((void CYFAR *)(CYREG_BG_DFT0), (bg_xover_inl_trim & 0x07u));
 496              		.loc 1 319 0
 497 01ce DBB2     		uxtb	r3, r3
 498              	.LVL31:
 320:Generated_Source\PSoC5/cyfitter_cfg.c **** 	CY_SET_XTND_REG8((void CYFAR *)(CYREG_BG_DFT1), ((bg_xover_inl_trim >> 4) & 0x0Fu));
 499              		.loc 1 320 0
 500 01d0 03F00701 		and	r1, r3, #7
 321:Generated_Source\PSoC5/cyfitter_cfg.c **** 	CY_SET_XTND_REG8((void CYFAR *)CYREG_PRT12_AG, 0x08u);
 501              		.loc 1 321 0
 502 01d4 1B09     		lsrs	r3, r3, #4
 503              	.LVL32:
 320:Generated_Source\PSoC5/cyfitter_cfg.c **** 	CY_SET_XTND_REG8((void CYFAR *)(CYREG_BG_DFT1), ((bg_xover_inl_trim >> 4) & 0x0Fu));
 504              		.loc 1 320 0
 505 01d6 1170     		strb	r1, [r2]
 321:Generated_Source\PSoC5/cyfitter_cfg.c **** 	CY_SET_XTND_REG8((void CYFAR *)CYREG_PRT12_AG, 0x08u);
 506              		.loc 1 321 0
 507 01d8 5370     		strb	r3, [r2, #1]
 322:Generated_Source\PSoC5/cyfitter_cfg.c **** 	CY_SET_XTND_REG8((void CYFAR *)CYREG_DAC2_SW0, 0x20u);
 508              		.loc 1 322 0
 509 01da 294B     		ldr	r3, .L22+124
 510 01dc 0822     		movs	r2, #8
 511 01de 1A70     		strb	r2, [r3]
 323:Generated_Source\PSoC5/cyfitter_cfg.c **** 	CY_SET_XTND_REG8((void CYFAR *)CYREG_DAC3_SW0, 0x20u);
 512              		.loc 1 323 0
 513 01e0 284A     		ldr	r2, .L22+128
 514 01e2 2023     		movs	r3, #32
 515 01e4 1370     		strb	r3, [r2]
 324:Generated_Source\PSoC5/cyfitter_cfg.c **** 	CY_SET_XTND_REG16((void CYFAR *)CYREG_OPAMP3_MX, 0x0102u);
 516              		.loc 1 324 0
 517 01e6 1372     		strb	r3, [r2, #8]
 325:Generated_Source\PSoC5/cyfitter_cfg.c **** 	CY_SET_XTND_REG8((void CYFAR *)CYREG_PUMP_CR0, 0x44u);
 518              		.loc 1 325 0
 519 01e8 274B     		ldr	r3, .L22+132
 520 01ea 4FF48172 		mov	r2, #258
 521 01ee 1A80     		strh	r2, [r3]	@ movhi
 326:Generated_Source\PSoC5/cyfitter_cfg.c **** }
ARM GAS  C:\Users\jon\AppData\Local\Temp\cc8tJXAg.s 			page 20


 522              		.loc 1 326 0
 523 01f0 4422     		movs	r2, #68
 524 01f2 A3F53473 		sub	r3, r3, #720
 525 01f6 1A70     		strb	r2, [r3]
 526              	.LVL33:
 527              	.LBE104:
 528              	.LBE108:
 529              	.LBB109:
 530              	.LBB107:
  86:Generated_Source\PSoC5/cyfitter_cfg.c **** }
 531              		.loc 1 86 0
 532 01f8 96E80F00 		ldmia	r6, {r0, r1, r2, r3}
 533 01fc 07C4     		stmia	r4!, {r0, r1, r2}
 534 01fe 2380     		strh	r3, [r4]	@ movhi
 535              	.LVL34:
 536 0200 F8BD     		pop	{r3, r4, r5, r6, r7, pc}
 537              	.LVL35:
 538              	.L12:
 539 0202 FEE7     		b	.L12
 540              	.L23:
 541              		.align	2
 542              	.L22:
 543 0204 E8460040 		.word	1073759976
 544 0208 00000000 		.word	.LANCHOR0
 545 020c B8100048 		.word	1207963832
 546 0210 80080140 		.word	1073809536
 547 0214 A0000048 		.word	1207959712
 548 0218 FCFFFF47 		.word	1207959548
 549 021c 58040140 		.word	1073808472
 550 0220 04040484 		.word	-2080111612
 551 0224 A0430040 		.word	1073759136
 552 0228 03500140 		.word	1073827843
 553 022c 20510040 		.word	1073762592
 554 0230 25420040 		.word	1073758757
 555 0234 38110048 		.word	1207963960
 556 0238 00510040 		.word	1073762560
 557 023c 44110048 		.word	1207963972
 558 0240 50110048 		.word	1207963984
 559 0244 F2510040 		.word	1073762802
 560 0248 58110048 		.word	1207963992
 561 024c 32510040 		.word	1073762610
 562 0250 00480040 		.word	1073760256
 563 0254 86400040 		.word	1073758342
 564 0258 9C400040 		.word	1073758364
 565 025c 0F010049 		.word	1224737039
 566 0260 A1460040 		.word	1073759905
 567 0264 22420040 		.word	1073758754
 568 0268 04400040 		.word	1073758212
 569 026c 06400040 		.word	1073758214
 570 0270 01400040 		.word	1073758209
 571 0274 CF010049 		.word	1224737231
 572 0278 6E580040 		.word	1073764462
 573 027c B0430040 		.word	1073759152
 574 0280 CD510040 		.word	1073762765
 575 0284 905A0040 		.word	1073765008
 576 0288 465B0040 		.word	1073765190
 577              	.LBE107:
ARM GAS  C:\Users\jon\AppData\Local\Temp\cc8tJXAg.s 			page 21


 578              	.LBE109:
 579              		.cfi_endproc
 580              	.LFE8:
 581              		.size	cyfitter_cfg, .-cyfitter_cfg
 582              		.section	.rodata
 583              		.set	.LANCHOR0,. + 0
 584              		.type	cfg_memset_list.5018, %object
 585              		.size	cfg_memset_list.5018, 48
 586              	cfg_memset_list.5018:
 587 0000 004F0040 		.4byte	1073762048
 588 0004 1800     		.2byte	24
 589 0006 40510040 		.4byte	1073762624
 590 000a 3000     		.2byte	48
 591 000c 00000140 		.4byte	1073807360
 592 0010 8008     		.2byte	2176
 593 0012 00090140 		.4byte	1073809664
 594 0016 0007     		.2byte	1792
 595 0018 00140140 		.4byte	1073812480
 596 001c 0008     		.2byte	2048
 597 001e 00400140 		.4byte	1073823744
 598 0022 000A     		.2byte	2560
 599 0024 004C0140 		.4byte	1073826816
 600 0028 0002     		.2byte	512
 601 002a 00500140 		.4byte	1073827840
 602 002e 2000     		.2byte	32
 603              		.text
 604              	.Letext0:
 605              		.file 2 "c:\\program files (x86)\\cypress\\psoc creator\\4.2\\psoc creator\\import\\gnu\\arm\\5.4.
 606              		.file 3 "Generated_Source\\PSoC5\\cytypes.h"
 607              		.file 4 "Generated_Source\\PSoC5\\CyLib.h"