ARM GAS  C:\Users\jon\AppData\Local\Temp\ccE2Rnla.s 			page 1


   1              		.syntax unified
   2              		.cpu cortex-m3
   3              		.fpu softvfp
   4              		.eabi_attribute 20, 1
   5              		.eabi_attribute 21, 1
   6              		.eabi_attribute 23, 3
   7              		.eabi_attribute 24, 1
   8              		.eabi_attribute 25, 1
   9              		.eabi_attribute 26, 1
  10              		.eabi_attribute 30, 4
  11              		.eabi_attribute 34, 1
  12              		.eabi_attribute 18, 4
  13              		.thumb
  14              		.syntax unified
  15              		.file	"SBUS_UART.c"
  16              		.text
  17              	.Ltext0:
  18              		.cfi_sections	.debug_frame
  19              		.section	.text.SBUS_UART_Init,"ax",%progbits
  20              		.align	1
  21              		.global	SBUS_UART_Init
  22              		.thumb
  23              		.thumb_func
  24              		.type	SBUS_UART_Init, %function
  25              	SBUS_UART_Init:
  26              	.LFB1:
  27              		.file 1 "Generated_Source\\PSoC5\\SBUS_UART.c"
   1:Generated_Source\PSoC5/SBUS_UART.c **** /*******************************************************************************
   2:Generated_Source\PSoC5/SBUS_UART.c **** * File Name: SBUS_UART.c
   3:Generated_Source\PSoC5/SBUS_UART.c **** * Version 2.50
   4:Generated_Source\PSoC5/SBUS_UART.c **** *
   5:Generated_Source\PSoC5/SBUS_UART.c **** * Description:
   6:Generated_Source\PSoC5/SBUS_UART.c **** *  This file provides all API functionality of the UART component
   7:Generated_Source\PSoC5/SBUS_UART.c **** *
   8:Generated_Source\PSoC5/SBUS_UART.c **** * Note:
   9:Generated_Source\PSoC5/SBUS_UART.c **** *
  10:Generated_Source\PSoC5/SBUS_UART.c **** ********************************************************************************
  11:Generated_Source\PSoC5/SBUS_UART.c **** * Copyright 2008-2015, Cypress Semiconductor Corporation.  All rights reserved.
  12:Generated_Source\PSoC5/SBUS_UART.c **** * You may use this file only in accordance with the license, terms, conditions,
  13:Generated_Source\PSoC5/SBUS_UART.c **** * disclaimers, and limitations in the end user license agreement accompanying
  14:Generated_Source\PSoC5/SBUS_UART.c **** * the software package with which this file was provided.
  15:Generated_Source\PSoC5/SBUS_UART.c **** *******************************************************************************/
  16:Generated_Source\PSoC5/SBUS_UART.c **** 
  17:Generated_Source\PSoC5/SBUS_UART.c **** #include "SBUS_UART.h"
  18:Generated_Source\PSoC5/SBUS_UART.c **** #if (SBUS_UART_INTERNAL_CLOCK_USED)
  19:Generated_Source\PSoC5/SBUS_UART.c ****     #include "SBUS_UART_IntClock.h"
  20:Generated_Source\PSoC5/SBUS_UART.c **** #endif /* End SBUS_UART_INTERNAL_CLOCK_USED */
  21:Generated_Source\PSoC5/SBUS_UART.c **** 
  22:Generated_Source\PSoC5/SBUS_UART.c **** 
  23:Generated_Source\PSoC5/SBUS_UART.c **** /***************************************
  24:Generated_Source\PSoC5/SBUS_UART.c **** * Global data allocation
  25:Generated_Source\PSoC5/SBUS_UART.c **** ***************************************/
  26:Generated_Source\PSoC5/SBUS_UART.c **** 
  27:Generated_Source\PSoC5/SBUS_UART.c **** uint8 SBUS_UART_initVar = 0u;
  28:Generated_Source\PSoC5/SBUS_UART.c **** 
  29:Generated_Source\PSoC5/SBUS_UART.c **** #if (SBUS_UART_TX_INTERRUPT_ENABLED && SBUS_UART_TX_ENABLED)
  30:Generated_Source\PSoC5/SBUS_UART.c ****     volatile uint8 SBUS_UART_txBuffer[SBUS_UART_TX_BUFFER_SIZE];
ARM GAS  C:\Users\jon\AppData\Local\Temp\ccE2Rnla.s 			page 2


  31:Generated_Source\PSoC5/SBUS_UART.c ****     volatile uint8 SBUS_UART_txBufferRead = 0u;
  32:Generated_Source\PSoC5/SBUS_UART.c ****     uint8 SBUS_UART_txBufferWrite = 0u;
  33:Generated_Source\PSoC5/SBUS_UART.c **** #endif /* (SBUS_UART_TX_INTERRUPT_ENABLED && SBUS_UART_TX_ENABLED) */
  34:Generated_Source\PSoC5/SBUS_UART.c **** 
  35:Generated_Source\PSoC5/SBUS_UART.c **** #if (SBUS_UART_RX_INTERRUPT_ENABLED && (SBUS_UART_RX_ENABLED || SBUS_UART_HD_ENABLED))
  36:Generated_Source\PSoC5/SBUS_UART.c ****     uint8 SBUS_UART_errorStatus = 0u;
  37:Generated_Source\PSoC5/SBUS_UART.c ****     volatile uint8 SBUS_UART_rxBuffer[SBUS_UART_RX_BUFFER_SIZE];
  38:Generated_Source\PSoC5/SBUS_UART.c ****     volatile uint8 SBUS_UART_rxBufferRead  = 0u;
  39:Generated_Source\PSoC5/SBUS_UART.c ****     volatile uint8 SBUS_UART_rxBufferWrite = 0u;
  40:Generated_Source\PSoC5/SBUS_UART.c ****     volatile uint8 SBUS_UART_rxBufferLoopDetect = 0u;
  41:Generated_Source\PSoC5/SBUS_UART.c ****     volatile uint8 SBUS_UART_rxBufferOverflow   = 0u;
  42:Generated_Source\PSoC5/SBUS_UART.c ****     #if (SBUS_UART_RXHW_ADDRESS_ENABLED)
  43:Generated_Source\PSoC5/SBUS_UART.c ****         volatile uint8 SBUS_UART_rxAddressMode = SBUS_UART_RX_ADDRESS_MODE;
  44:Generated_Source\PSoC5/SBUS_UART.c ****         volatile uint8 SBUS_UART_rxAddressDetected = 0u;
  45:Generated_Source\PSoC5/SBUS_UART.c ****     #endif /* (SBUS_UART_RXHW_ADDRESS_ENABLED) */
  46:Generated_Source\PSoC5/SBUS_UART.c **** #endif /* (SBUS_UART_RX_INTERRUPT_ENABLED && (SBUS_UART_RX_ENABLED || SBUS_UART_HD_ENABLED)) */
  47:Generated_Source\PSoC5/SBUS_UART.c **** 
  48:Generated_Source\PSoC5/SBUS_UART.c **** 
  49:Generated_Source\PSoC5/SBUS_UART.c **** /*******************************************************************************
  50:Generated_Source\PSoC5/SBUS_UART.c **** * Function Name: SBUS_UART_Start
  51:Generated_Source\PSoC5/SBUS_UART.c **** ********************************************************************************
  52:Generated_Source\PSoC5/SBUS_UART.c **** *
  53:Generated_Source\PSoC5/SBUS_UART.c **** * Summary:
  54:Generated_Source\PSoC5/SBUS_UART.c **** *  This is the preferred method to begin component operation.
  55:Generated_Source\PSoC5/SBUS_UART.c **** *  SBUS_UART_Start() sets the initVar variable, calls the
  56:Generated_Source\PSoC5/SBUS_UART.c **** *  SBUS_UART_Init() function, and then calls the
  57:Generated_Source\PSoC5/SBUS_UART.c **** *  SBUS_UART_Enable() function.
  58:Generated_Source\PSoC5/SBUS_UART.c **** *
  59:Generated_Source\PSoC5/SBUS_UART.c **** * Parameters:
  60:Generated_Source\PSoC5/SBUS_UART.c **** *  None.
  61:Generated_Source\PSoC5/SBUS_UART.c **** *
  62:Generated_Source\PSoC5/SBUS_UART.c **** * Return:
  63:Generated_Source\PSoC5/SBUS_UART.c **** *  None.
  64:Generated_Source\PSoC5/SBUS_UART.c **** *
  65:Generated_Source\PSoC5/SBUS_UART.c **** * Global variables:
  66:Generated_Source\PSoC5/SBUS_UART.c **** *  The SBUS_UART_intiVar variable is used to indicate initial
  67:Generated_Source\PSoC5/SBUS_UART.c **** *  configuration of this component. The variable is initialized to zero (0u)
  68:Generated_Source\PSoC5/SBUS_UART.c **** *  and set to one (1u) the first time SBUS_UART_Start() is called. This
  69:Generated_Source\PSoC5/SBUS_UART.c **** *  allows for component initialization without re-initialization in all
  70:Generated_Source\PSoC5/SBUS_UART.c **** *  subsequent calls to the SBUS_UART_Start() routine.
  71:Generated_Source\PSoC5/SBUS_UART.c **** *
  72:Generated_Source\PSoC5/SBUS_UART.c **** * Reentrant:
  73:Generated_Source\PSoC5/SBUS_UART.c **** *  No.
  74:Generated_Source\PSoC5/SBUS_UART.c **** *
  75:Generated_Source\PSoC5/SBUS_UART.c **** *******************************************************************************/
  76:Generated_Source\PSoC5/SBUS_UART.c **** void SBUS_UART_Start(void) 
  77:Generated_Source\PSoC5/SBUS_UART.c **** {
  78:Generated_Source\PSoC5/SBUS_UART.c ****     /* If not initialized then initialize all required hardware and software */
  79:Generated_Source\PSoC5/SBUS_UART.c ****     if(SBUS_UART_initVar == 0u)
  80:Generated_Source\PSoC5/SBUS_UART.c ****     {
  81:Generated_Source\PSoC5/SBUS_UART.c ****         SBUS_UART_Init();
  82:Generated_Source\PSoC5/SBUS_UART.c ****         SBUS_UART_initVar = 1u;
  83:Generated_Source\PSoC5/SBUS_UART.c ****     }
  84:Generated_Source\PSoC5/SBUS_UART.c **** 
  85:Generated_Source\PSoC5/SBUS_UART.c ****     SBUS_UART_Enable();
  86:Generated_Source\PSoC5/SBUS_UART.c **** }
  87:Generated_Source\PSoC5/SBUS_UART.c **** 
ARM GAS  C:\Users\jon\AppData\Local\Temp\ccE2Rnla.s 			page 3


  88:Generated_Source\PSoC5/SBUS_UART.c **** 
  89:Generated_Source\PSoC5/SBUS_UART.c **** /*******************************************************************************
  90:Generated_Source\PSoC5/SBUS_UART.c **** * Function Name: SBUS_UART_Init
  91:Generated_Source\PSoC5/SBUS_UART.c **** ********************************************************************************
  92:Generated_Source\PSoC5/SBUS_UART.c **** *
  93:Generated_Source\PSoC5/SBUS_UART.c **** * Summary:
  94:Generated_Source\PSoC5/SBUS_UART.c **** *  Initializes or restores the component according to the customizer Configure
  95:Generated_Source\PSoC5/SBUS_UART.c **** *  dialog settings. It is not necessary to call SBUS_UART_Init() because
  96:Generated_Source\PSoC5/SBUS_UART.c **** *  the SBUS_UART_Start() API calls this function and is the preferred
  97:Generated_Source\PSoC5/SBUS_UART.c **** *  method to begin component operation.
  98:Generated_Source\PSoC5/SBUS_UART.c **** *
  99:Generated_Source\PSoC5/SBUS_UART.c **** * Parameters:
 100:Generated_Source\PSoC5/SBUS_UART.c **** *  None.
 101:Generated_Source\PSoC5/SBUS_UART.c **** *
 102:Generated_Source\PSoC5/SBUS_UART.c **** * Return:
 103:Generated_Source\PSoC5/SBUS_UART.c **** *  None.
 104:Generated_Source\PSoC5/SBUS_UART.c **** *
 105:Generated_Source\PSoC5/SBUS_UART.c **** *******************************************************************************/
 106:Generated_Source\PSoC5/SBUS_UART.c **** void SBUS_UART_Init(void) 
 107:Generated_Source\PSoC5/SBUS_UART.c **** {
  28              		.loc 1 107 0
  29              		.cfi_startproc
  30              		@ args = 0, pretend = 0, frame = 0
  31              		@ frame_needed = 0, uses_anonymous_args = 0
  32              		@ link register save eliminated.
 108:Generated_Source\PSoC5/SBUS_UART.c ****     #if(SBUS_UART_RX_ENABLED || SBUS_UART_HD_ENABLED)
 109:Generated_Source\PSoC5/SBUS_UART.c **** 
 110:Generated_Source\PSoC5/SBUS_UART.c ****         #if (SBUS_UART_RX_INTERRUPT_ENABLED)
 111:Generated_Source\PSoC5/SBUS_UART.c ****             /* Set RX interrupt vector and priority */
 112:Generated_Source\PSoC5/SBUS_UART.c ****             (void) CyIntSetVector(SBUS_UART_RX_VECT_NUM, &SBUS_UART_RXISR);
 113:Generated_Source\PSoC5/SBUS_UART.c ****             CyIntSetPriority(SBUS_UART_RX_VECT_NUM, SBUS_UART_RX_PRIOR_NUM);
 114:Generated_Source\PSoC5/SBUS_UART.c ****             SBUS_UART_errorStatus = 0u;
 115:Generated_Source\PSoC5/SBUS_UART.c ****         #endif /* (SBUS_UART_RX_INTERRUPT_ENABLED) */
 116:Generated_Source\PSoC5/SBUS_UART.c **** 
 117:Generated_Source\PSoC5/SBUS_UART.c ****         #if (SBUS_UART_RXHW_ADDRESS_ENABLED)
 118:Generated_Source\PSoC5/SBUS_UART.c ****             SBUS_UART_SetRxAddressMode(SBUS_UART_RX_ADDRESS_MODE);
 119:Generated_Source\PSoC5/SBUS_UART.c ****             SBUS_UART_SetRxAddress1(SBUS_UART_RX_HW_ADDRESS1);
 120:Generated_Source\PSoC5/SBUS_UART.c ****             SBUS_UART_SetRxAddress2(SBUS_UART_RX_HW_ADDRESS2);
 121:Generated_Source\PSoC5/SBUS_UART.c ****         #endif /* End SBUS_UART_RXHW_ADDRESS_ENABLED */
 122:Generated_Source\PSoC5/SBUS_UART.c **** 
 123:Generated_Source\PSoC5/SBUS_UART.c ****         /* Init Count7 period */
 124:Generated_Source\PSoC5/SBUS_UART.c ****         SBUS_UART_RXBITCTR_PERIOD_REG = SBUS_UART_RXBITCTR_INIT;
  33              		.loc 1 124 0
  34 0000 034B     		ldr	r3, .L2
  35 0002 7222     		movs	r2, #114
  36 0004 1A70     		strb	r2, [r3]
 125:Generated_Source\PSoC5/SBUS_UART.c ****         /* Configure the Initial RX interrupt mask */
 126:Generated_Source\PSoC5/SBUS_UART.c ****         SBUS_UART_RXSTATUS_MASK_REG  = SBUS_UART_INIT_RX_INTERRUPTS_MASK;
  37              		.loc 1 126 0
  38 0006 2022     		movs	r2, #32
  39 0008 03F8062C 		strb	r2, [r3, #-6]
  40 000c 7047     		bx	lr
  41              	.L3:
  42 000e 00BF     		.align	2
  43              	.L2:
  44 0010 8A650040 		.word	1073767818
  45              		.cfi_endproc
ARM GAS  C:\Users\jon\AppData\Local\Temp\ccE2Rnla.s 			page 4


  46              	.LFE1:
  47              		.size	SBUS_UART_Init, .-SBUS_UART_Init
  48              		.section	.text.SBUS_UART_Enable,"ax",%progbits
  49              		.align	1
  50              		.global	SBUS_UART_Enable
  51              		.thumb
  52              		.thumb_func
  53              		.type	SBUS_UART_Enable, %function
  54              	SBUS_UART_Enable:
  55              	.LFB2:
 127:Generated_Source\PSoC5/SBUS_UART.c ****     #endif /* End SBUS_UART_RX_ENABLED || SBUS_UART_HD_ENABLED*/
 128:Generated_Source\PSoC5/SBUS_UART.c **** 
 129:Generated_Source\PSoC5/SBUS_UART.c ****     #if(SBUS_UART_TX_ENABLED)
 130:Generated_Source\PSoC5/SBUS_UART.c ****         #if (SBUS_UART_TX_INTERRUPT_ENABLED)
 131:Generated_Source\PSoC5/SBUS_UART.c ****             /* Set TX interrupt vector and priority */
 132:Generated_Source\PSoC5/SBUS_UART.c ****             (void) CyIntSetVector(SBUS_UART_TX_VECT_NUM, &SBUS_UART_TXISR);
 133:Generated_Source\PSoC5/SBUS_UART.c ****             CyIntSetPriority(SBUS_UART_TX_VECT_NUM, SBUS_UART_TX_PRIOR_NUM);
 134:Generated_Source\PSoC5/SBUS_UART.c ****         #endif /* (SBUS_UART_TX_INTERRUPT_ENABLED) */
 135:Generated_Source\PSoC5/SBUS_UART.c **** 
 136:Generated_Source\PSoC5/SBUS_UART.c ****         /* Write Counter Value for TX Bit Clk Generator*/
 137:Generated_Source\PSoC5/SBUS_UART.c ****         #if (SBUS_UART_TXCLKGEN_DP)
 138:Generated_Source\PSoC5/SBUS_UART.c ****             SBUS_UART_TXBITCLKGEN_CTR_REG = SBUS_UART_BIT_CENTER;
 139:Generated_Source\PSoC5/SBUS_UART.c ****             SBUS_UART_TXBITCLKTX_COMPLETE_REG = ((SBUS_UART_NUMBER_OF_DATA_BITS +
 140:Generated_Source\PSoC5/SBUS_UART.c ****                         SBUS_UART_NUMBER_OF_START_BIT) * SBUS_UART_OVER_SAMPLE_COUNT) - 1u;
 141:Generated_Source\PSoC5/SBUS_UART.c ****         #else
 142:Generated_Source\PSoC5/SBUS_UART.c ****             SBUS_UART_TXBITCTR_PERIOD_REG = ((SBUS_UART_NUMBER_OF_DATA_BITS +
 143:Generated_Source\PSoC5/SBUS_UART.c ****                         SBUS_UART_NUMBER_OF_START_BIT) * SBUS_UART_OVER_SAMPLE_8) - 1u;
 144:Generated_Source\PSoC5/SBUS_UART.c ****         #endif /* End SBUS_UART_TXCLKGEN_DP */
 145:Generated_Source\PSoC5/SBUS_UART.c **** 
 146:Generated_Source\PSoC5/SBUS_UART.c ****         /* Configure the Initial TX interrupt mask */
 147:Generated_Source\PSoC5/SBUS_UART.c ****         #if (SBUS_UART_TX_INTERRUPT_ENABLED)
 148:Generated_Source\PSoC5/SBUS_UART.c ****             SBUS_UART_TXSTATUS_MASK_REG = SBUS_UART_TX_STS_FIFO_EMPTY;
 149:Generated_Source\PSoC5/SBUS_UART.c ****         #else
 150:Generated_Source\PSoC5/SBUS_UART.c ****             SBUS_UART_TXSTATUS_MASK_REG = SBUS_UART_INIT_TX_INTERRUPTS_MASK;
 151:Generated_Source\PSoC5/SBUS_UART.c ****         #endif /*End SBUS_UART_TX_INTERRUPT_ENABLED*/
 152:Generated_Source\PSoC5/SBUS_UART.c **** 
 153:Generated_Source\PSoC5/SBUS_UART.c ****     #endif /* End SBUS_UART_TX_ENABLED */
 154:Generated_Source\PSoC5/SBUS_UART.c **** 
 155:Generated_Source\PSoC5/SBUS_UART.c ****     #if(SBUS_UART_PARITY_TYPE_SW)  /* Write Parity to Control Register */
 156:Generated_Source\PSoC5/SBUS_UART.c ****         SBUS_UART_WriteControlRegister( \
 157:Generated_Source\PSoC5/SBUS_UART.c ****             (SBUS_UART_ReadControlRegister() & (uint8)~SBUS_UART_CTRL_PARITY_TYPE_MASK) | \
 158:Generated_Source\PSoC5/SBUS_UART.c ****             (uint8)(SBUS_UART_PARITY_TYPE << SBUS_UART_CTRL_PARITY_TYPE0_SHIFT) );
 159:Generated_Source\PSoC5/SBUS_UART.c ****     #endif /* End SBUS_UART_PARITY_TYPE_SW */
 160:Generated_Source\PSoC5/SBUS_UART.c **** }
 161:Generated_Source\PSoC5/SBUS_UART.c **** 
 162:Generated_Source\PSoC5/SBUS_UART.c **** 
 163:Generated_Source\PSoC5/SBUS_UART.c **** /*******************************************************************************
 164:Generated_Source\PSoC5/SBUS_UART.c **** * Function Name: SBUS_UART_Enable
 165:Generated_Source\PSoC5/SBUS_UART.c **** ********************************************************************************
 166:Generated_Source\PSoC5/SBUS_UART.c **** *
 167:Generated_Source\PSoC5/SBUS_UART.c **** * Summary:
 168:Generated_Source\PSoC5/SBUS_UART.c **** *  Activates the hardware and begins component operation. It is not necessary
 169:Generated_Source\PSoC5/SBUS_UART.c **** *  to call SBUS_UART_Enable() because the SBUS_UART_Start() API
 170:Generated_Source\PSoC5/SBUS_UART.c **** *  calls this function, which is the preferred method to begin component
 171:Generated_Source\PSoC5/SBUS_UART.c **** *  operation.
 172:Generated_Source\PSoC5/SBUS_UART.c **** 
 173:Generated_Source\PSoC5/SBUS_UART.c **** * Parameters:
ARM GAS  C:\Users\jon\AppData\Local\Temp\ccE2Rnla.s 			page 5


 174:Generated_Source\PSoC5/SBUS_UART.c **** *  None.
 175:Generated_Source\PSoC5/SBUS_UART.c **** *
 176:Generated_Source\PSoC5/SBUS_UART.c **** * Return:
 177:Generated_Source\PSoC5/SBUS_UART.c **** *  None.
 178:Generated_Source\PSoC5/SBUS_UART.c **** *
 179:Generated_Source\PSoC5/SBUS_UART.c **** * Global Variables:
 180:Generated_Source\PSoC5/SBUS_UART.c **** *  SBUS_UART_rxAddressDetected - set to initial state (0).
 181:Generated_Source\PSoC5/SBUS_UART.c **** *
 182:Generated_Source\PSoC5/SBUS_UART.c **** *******************************************************************************/
 183:Generated_Source\PSoC5/SBUS_UART.c **** void SBUS_UART_Enable(void) 
 184:Generated_Source\PSoC5/SBUS_UART.c **** {
  56              		.loc 1 184 0
  57              		.cfi_startproc
  58              		@ args = 0, pretend = 0, frame = 0
  59              		@ frame_needed = 0, uses_anonymous_args = 0
  60 0000 08B5     		push	{r3, lr}
  61              		.cfi_def_cfa_offset 8
  62              		.cfi_offset 3, -8
  63              		.cfi_offset 14, -4
 185:Generated_Source\PSoC5/SBUS_UART.c ****     uint8 enableInterrupts;
 186:Generated_Source\PSoC5/SBUS_UART.c ****     enableInterrupts = CyEnterCriticalSection();
  64              		.loc 1 186 0
  65 0002 FFF7FEFF 		bl	CyEnterCriticalSection
  66              	.LVL0:
 187:Generated_Source\PSoC5/SBUS_UART.c **** 
 188:Generated_Source\PSoC5/SBUS_UART.c ****     #if (SBUS_UART_RX_ENABLED || SBUS_UART_HD_ENABLED)
 189:Generated_Source\PSoC5/SBUS_UART.c ****         /* RX Counter (Count7) Enable */
 190:Generated_Source\PSoC5/SBUS_UART.c ****         SBUS_UART_RXBITCTR_CONTROL_REG |= SBUS_UART_CNTR_ENABLE;
  67              		.loc 1 190 0
  68 0006 074A     		ldr	r2, .L5
  69 0008 1378     		ldrb	r3, [r2]	@ zero_extendqisi2
  70 000a 43F02003 		orr	r3, r3, #32
  71 000e 1370     		strb	r3, [r2]
 191:Generated_Source\PSoC5/SBUS_UART.c **** 
 192:Generated_Source\PSoC5/SBUS_UART.c ****         /* Enable the RX Interrupt */
 193:Generated_Source\PSoC5/SBUS_UART.c ****         SBUS_UART_RXSTATUS_ACTL_REG  |= SBUS_UART_INT_ENABLE;
  72              		.loc 1 193 0
  73 0010 12F8063C 		ldrb	r3, [r2, #-6]	@ zero_extendqisi2
  74 0014 43F01003 		orr	r3, r3, #16
  75 0018 02F8063C 		strb	r3, [r2, #-6]
 194:Generated_Source\PSoC5/SBUS_UART.c **** 
 195:Generated_Source\PSoC5/SBUS_UART.c ****         #if (SBUS_UART_RX_INTERRUPT_ENABLED)
 196:Generated_Source\PSoC5/SBUS_UART.c ****             SBUS_UART_EnableRxInt();
 197:Generated_Source\PSoC5/SBUS_UART.c **** 
 198:Generated_Source\PSoC5/SBUS_UART.c ****             #if (SBUS_UART_RXHW_ADDRESS_ENABLED)
 199:Generated_Source\PSoC5/SBUS_UART.c ****                 SBUS_UART_rxAddressDetected = 0u;
 200:Generated_Source\PSoC5/SBUS_UART.c ****             #endif /* (SBUS_UART_RXHW_ADDRESS_ENABLED) */
 201:Generated_Source\PSoC5/SBUS_UART.c ****         #endif /* (SBUS_UART_RX_INTERRUPT_ENABLED) */
 202:Generated_Source\PSoC5/SBUS_UART.c ****     #endif /* (SBUS_UART_RX_ENABLED || SBUS_UART_HD_ENABLED) */
 203:Generated_Source\PSoC5/SBUS_UART.c **** 
 204:Generated_Source\PSoC5/SBUS_UART.c ****     #if(SBUS_UART_TX_ENABLED)
 205:Generated_Source\PSoC5/SBUS_UART.c ****         /* TX Counter (DP/Count7) Enable */
 206:Generated_Source\PSoC5/SBUS_UART.c ****         #if(!SBUS_UART_TXCLKGEN_DP)
 207:Generated_Source\PSoC5/SBUS_UART.c ****             SBUS_UART_TXBITCTR_CONTROL_REG |= SBUS_UART_CNTR_ENABLE;
 208:Generated_Source\PSoC5/SBUS_UART.c ****         #endif /* End SBUS_UART_TXCLKGEN_DP */
 209:Generated_Source\PSoC5/SBUS_UART.c **** 
 210:Generated_Source\PSoC5/SBUS_UART.c ****         /* Enable the TX Interrupt */
ARM GAS  C:\Users\jon\AppData\Local\Temp\ccE2Rnla.s 			page 6


 211:Generated_Source\PSoC5/SBUS_UART.c ****         SBUS_UART_TXSTATUS_ACTL_REG |= SBUS_UART_INT_ENABLE;
 212:Generated_Source\PSoC5/SBUS_UART.c ****         #if (SBUS_UART_TX_INTERRUPT_ENABLED)
 213:Generated_Source\PSoC5/SBUS_UART.c ****             SBUS_UART_ClearPendingTxInt(); /* Clear history of TX_NOT_EMPTY */
 214:Generated_Source\PSoC5/SBUS_UART.c ****             SBUS_UART_EnableTxInt();
 215:Generated_Source\PSoC5/SBUS_UART.c ****         #endif /* (SBUS_UART_TX_INTERRUPT_ENABLED) */
 216:Generated_Source\PSoC5/SBUS_UART.c ****      #endif /* (SBUS_UART_TX_INTERRUPT_ENABLED) */
 217:Generated_Source\PSoC5/SBUS_UART.c **** 
 218:Generated_Source\PSoC5/SBUS_UART.c ****     #if (SBUS_UART_INTERNAL_CLOCK_USED)
 219:Generated_Source\PSoC5/SBUS_UART.c ****         SBUS_UART_IntClock_Start();  /* Enable the clock */
 220:Generated_Source\PSoC5/SBUS_UART.c ****     #endif /* (SBUS_UART_INTERNAL_CLOCK_USED) */
 221:Generated_Source\PSoC5/SBUS_UART.c **** 
 222:Generated_Source\PSoC5/SBUS_UART.c ****     CyExitCriticalSection(enableInterrupts);
 223:Generated_Source\PSoC5/SBUS_UART.c **** }
  76              		.loc 1 223 0
  77 001c BDE80840 		pop	{r3, lr}
  78              		.cfi_restore 14
  79              		.cfi_restore 3
  80              		.cfi_def_cfa_offset 0
 222:Generated_Source\PSoC5/SBUS_UART.c **** }
  81              		.loc 1 222 0
  82 0020 FFF7FEBF 		b	CyExitCriticalSection
  83              	.LVL1:
  84              	.L6:
  85              		.align	2
  86              	.L5:
  87 0024 9A650040 		.word	1073767834
  88              		.cfi_endproc
  89              	.LFE2:
  90              		.size	SBUS_UART_Enable, .-SBUS_UART_Enable
  91              		.section	.text.SBUS_UART_Start,"ax",%progbits
  92              		.align	1
  93              		.global	SBUS_UART_Start
  94              		.thumb
  95              		.thumb_func
  96              		.type	SBUS_UART_Start, %function
  97              	SBUS_UART_Start:
  98              	.LFB0:
  77:Generated_Source\PSoC5/SBUS_UART.c ****     /* If not initialized then initialize all required hardware and software */
  99              		.loc 1 77 0
 100              		.cfi_startproc
 101              		@ args = 0, pretend = 0, frame = 0
 102              		@ frame_needed = 0, uses_anonymous_args = 0
 103 0000 08B5     		push	{r3, lr}
 104              		.cfi_def_cfa_offset 8
 105              		.cfi_offset 3, -8
 106              		.cfi_offset 14, -4
  79:Generated_Source\PSoC5/SBUS_UART.c ****     {
 107              		.loc 1 79 0
 108 0002 0549     		ldr	r1, .L10
 109 0004 0B78     		ldrb	r3, [r1]	@ zero_extendqisi2
 110 0006 1BB9     		cbnz	r3, .L8
  81:Generated_Source\PSoC5/SBUS_UART.c ****         SBUS_UART_initVar = 1u;
 111              		.loc 1 81 0
 112 0008 FFF7FEFF 		bl	SBUS_UART_Init
 113              	.LVL2:
  82:Generated_Source\PSoC5/SBUS_UART.c ****     }
 114              		.loc 1 82 0
ARM GAS  C:\Users\jon\AppData\Local\Temp\ccE2Rnla.s 			page 7


 115 000c 0123     		movs	r3, #1
 116 000e 0B70     		strb	r3, [r1]
 117              	.L8:
  86:Generated_Source\PSoC5/SBUS_UART.c **** 
 118              		.loc 1 86 0
 119 0010 BDE80840 		pop	{r3, lr}
 120              		.cfi_restore 14
 121              		.cfi_restore 3
 122              		.cfi_def_cfa_offset 0
  85:Generated_Source\PSoC5/SBUS_UART.c **** }
 123              		.loc 1 85 0
 124 0014 FFF7FEBF 		b	SBUS_UART_Enable
 125              	.LVL3:
 126              	.L11:
 127              		.align	2
 128              	.L10:
 129 0018 00000000 		.word	.LANCHOR0
 130              		.cfi_endproc
 131              	.LFE0:
 132              		.size	SBUS_UART_Start, .-SBUS_UART_Start
 133              		.section	.text.SBUS_UART_Stop,"ax",%progbits
 134              		.align	1
 135              		.global	SBUS_UART_Stop
 136              		.thumb
 137              		.thumb_func
 138              		.type	SBUS_UART_Stop, %function
 139              	SBUS_UART_Stop:
 140              	.LFB3:
 224:Generated_Source\PSoC5/SBUS_UART.c **** 
 225:Generated_Source\PSoC5/SBUS_UART.c **** 
 226:Generated_Source\PSoC5/SBUS_UART.c **** /*******************************************************************************
 227:Generated_Source\PSoC5/SBUS_UART.c **** * Function Name: SBUS_UART_Stop
 228:Generated_Source\PSoC5/SBUS_UART.c **** ********************************************************************************
 229:Generated_Source\PSoC5/SBUS_UART.c **** *
 230:Generated_Source\PSoC5/SBUS_UART.c **** * Summary:
 231:Generated_Source\PSoC5/SBUS_UART.c **** *  Disables the UART operation.
 232:Generated_Source\PSoC5/SBUS_UART.c **** *
 233:Generated_Source\PSoC5/SBUS_UART.c **** * Parameters:
 234:Generated_Source\PSoC5/SBUS_UART.c **** *  None.
 235:Generated_Source\PSoC5/SBUS_UART.c **** *
 236:Generated_Source\PSoC5/SBUS_UART.c **** * Return:
 237:Generated_Source\PSoC5/SBUS_UART.c **** *  None.
 238:Generated_Source\PSoC5/SBUS_UART.c **** *
 239:Generated_Source\PSoC5/SBUS_UART.c **** *******************************************************************************/
 240:Generated_Source\PSoC5/SBUS_UART.c **** void SBUS_UART_Stop(void) 
 241:Generated_Source\PSoC5/SBUS_UART.c **** {
 141              		.loc 1 241 0
 142              		.cfi_startproc
 143              		@ args = 0, pretend = 0, frame = 0
 144              		@ frame_needed = 0, uses_anonymous_args = 0
 145 0000 08B5     		push	{r3, lr}
 146              		.cfi_def_cfa_offset 8
 147              		.cfi_offset 3, -8
 148              		.cfi_offset 14, -4
 242:Generated_Source\PSoC5/SBUS_UART.c ****     uint8 enableInterrupts;
 243:Generated_Source\PSoC5/SBUS_UART.c ****     enableInterrupts = CyEnterCriticalSection();
 149              		.loc 1 243 0
ARM GAS  C:\Users\jon\AppData\Local\Temp\ccE2Rnla.s 			page 8


 150 0002 FFF7FEFF 		bl	CyEnterCriticalSection
 151              	.LVL4:
 244:Generated_Source\PSoC5/SBUS_UART.c **** 
 245:Generated_Source\PSoC5/SBUS_UART.c ****     /* Write Bit Counter Disable */
 246:Generated_Source\PSoC5/SBUS_UART.c ****     #if (SBUS_UART_RX_ENABLED || SBUS_UART_HD_ENABLED)
 247:Generated_Source\PSoC5/SBUS_UART.c ****         SBUS_UART_RXBITCTR_CONTROL_REG &= (uint8) ~SBUS_UART_CNTR_ENABLE;
 152              		.loc 1 247 0
 153 0006 074A     		ldr	r2, .L13
 154 0008 1378     		ldrb	r3, [r2]	@ zero_extendqisi2
 155 000a 03F0DF03 		and	r3, r3, #223
 156 000e 1370     		strb	r3, [r2]
 248:Generated_Source\PSoC5/SBUS_UART.c ****     #endif /* (SBUS_UART_RX_ENABLED || SBUS_UART_HD_ENABLED) */
 249:Generated_Source\PSoC5/SBUS_UART.c **** 
 250:Generated_Source\PSoC5/SBUS_UART.c ****     #if (SBUS_UART_TX_ENABLED)
 251:Generated_Source\PSoC5/SBUS_UART.c ****         #if(!SBUS_UART_TXCLKGEN_DP)
 252:Generated_Source\PSoC5/SBUS_UART.c ****             SBUS_UART_TXBITCTR_CONTROL_REG &= (uint8) ~SBUS_UART_CNTR_ENABLE;
 253:Generated_Source\PSoC5/SBUS_UART.c ****         #endif /* (!SBUS_UART_TXCLKGEN_DP) */
 254:Generated_Source\PSoC5/SBUS_UART.c ****     #endif /* (SBUS_UART_TX_ENABLED) */
 255:Generated_Source\PSoC5/SBUS_UART.c **** 
 256:Generated_Source\PSoC5/SBUS_UART.c ****     #if (SBUS_UART_INTERNAL_CLOCK_USED)
 257:Generated_Source\PSoC5/SBUS_UART.c ****         SBUS_UART_IntClock_Stop();   /* Disable the clock */
 258:Generated_Source\PSoC5/SBUS_UART.c ****     #endif /* (SBUS_UART_INTERNAL_CLOCK_USED) */
 259:Generated_Source\PSoC5/SBUS_UART.c **** 
 260:Generated_Source\PSoC5/SBUS_UART.c ****     /* Disable internal interrupt component */
 261:Generated_Source\PSoC5/SBUS_UART.c ****     #if (SBUS_UART_RX_ENABLED || SBUS_UART_HD_ENABLED)
 262:Generated_Source\PSoC5/SBUS_UART.c ****         SBUS_UART_RXSTATUS_ACTL_REG  &= (uint8) ~SBUS_UART_INT_ENABLE;
 157              		.loc 1 262 0
 158 0010 12F8063C 		ldrb	r3, [r2, #-6]	@ zero_extendqisi2
 159 0014 03F0EF03 		and	r3, r3, #239
 160 0018 02F8063C 		strb	r3, [r2, #-6]
 263:Generated_Source\PSoC5/SBUS_UART.c **** 
 264:Generated_Source\PSoC5/SBUS_UART.c ****         #if (SBUS_UART_RX_INTERRUPT_ENABLED)
 265:Generated_Source\PSoC5/SBUS_UART.c ****             SBUS_UART_DisableRxInt();
 266:Generated_Source\PSoC5/SBUS_UART.c ****         #endif /* (SBUS_UART_RX_INTERRUPT_ENABLED) */
 267:Generated_Source\PSoC5/SBUS_UART.c ****     #endif /* (SBUS_UART_RX_ENABLED || SBUS_UART_HD_ENABLED) */
 268:Generated_Source\PSoC5/SBUS_UART.c **** 
 269:Generated_Source\PSoC5/SBUS_UART.c ****     #if (SBUS_UART_TX_ENABLED)
 270:Generated_Source\PSoC5/SBUS_UART.c ****         SBUS_UART_TXSTATUS_ACTL_REG &= (uint8) ~SBUS_UART_INT_ENABLE;
 271:Generated_Source\PSoC5/SBUS_UART.c **** 
 272:Generated_Source\PSoC5/SBUS_UART.c ****         #if (SBUS_UART_TX_INTERRUPT_ENABLED)
 273:Generated_Source\PSoC5/SBUS_UART.c ****             SBUS_UART_DisableTxInt();
 274:Generated_Source\PSoC5/SBUS_UART.c ****         #endif /* (SBUS_UART_TX_INTERRUPT_ENABLED) */
 275:Generated_Source\PSoC5/SBUS_UART.c ****     #endif /* (SBUS_UART_TX_ENABLED) */
 276:Generated_Source\PSoC5/SBUS_UART.c **** 
 277:Generated_Source\PSoC5/SBUS_UART.c ****     CyExitCriticalSection(enableInterrupts);
 278:Generated_Source\PSoC5/SBUS_UART.c **** }
 161              		.loc 1 278 0
 162 001c BDE80840 		pop	{r3, lr}
 163              		.cfi_restore 14
 164              		.cfi_restore 3
 165              		.cfi_def_cfa_offset 0
 277:Generated_Source\PSoC5/SBUS_UART.c **** }
 166              		.loc 1 277 0
 167 0020 FFF7FEBF 		b	CyExitCriticalSection
 168              	.LVL5:
 169              	.L14:
 170              		.align	2
ARM GAS  C:\Users\jon\AppData\Local\Temp\ccE2Rnla.s 			page 9


 171              	.L13:
 172 0024 9A650040 		.word	1073767834
 173              		.cfi_endproc
 174              	.LFE3:
 175              		.size	SBUS_UART_Stop, .-SBUS_UART_Stop
 176              		.section	.text.SBUS_UART_ReadControlRegister,"ax",%progbits
 177              		.align	1
 178              		.global	SBUS_UART_ReadControlRegister
 179              		.thumb
 180              		.thumb_func
 181              		.type	SBUS_UART_ReadControlRegister, %function
 182              	SBUS_UART_ReadControlRegister:
 183              	.LFB4:
 279:Generated_Source\PSoC5/SBUS_UART.c **** 
 280:Generated_Source\PSoC5/SBUS_UART.c **** 
 281:Generated_Source\PSoC5/SBUS_UART.c **** /*******************************************************************************
 282:Generated_Source\PSoC5/SBUS_UART.c **** * Function Name: SBUS_UART_ReadControlRegister
 283:Generated_Source\PSoC5/SBUS_UART.c **** ********************************************************************************
 284:Generated_Source\PSoC5/SBUS_UART.c **** *
 285:Generated_Source\PSoC5/SBUS_UART.c **** * Summary:
 286:Generated_Source\PSoC5/SBUS_UART.c **** *  Returns the current value of the control register.
 287:Generated_Source\PSoC5/SBUS_UART.c **** *
 288:Generated_Source\PSoC5/SBUS_UART.c **** * Parameters:
 289:Generated_Source\PSoC5/SBUS_UART.c **** *  None.
 290:Generated_Source\PSoC5/SBUS_UART.c **** *
 291:Generated_Source\PSoC5/SBUS_UART.c **** * Return:
 292:Generated_Source\PSoC5/SBUS_UART.c **** *  Contents of the control register.
 293:Generated_Source\PSoC5/SBUS_UART.c **** *
 294:Generated_Source\PSoC5/SBUS_UART.c **** *******************************************************************************/
 295:Generated_Source\PSoC5/SBUS_UART.c **** uint8 SBUS_UART_ReadControlRegister(void) 
 296:Generated_Source\PSoC5/SBUS_UART.c **** {
 184              		.loc 1 296 0
 185              		.cfi_startproc
 186              		@ args = 0, pretend = 0, frame = 0
 187              		@ frame_needed = 0, uses_anonymous_args = 0
 188              		@ link register save eliminated.
 297:Generated_Source\PSoC5/SBUS_UART.c ****     #if (SBUS_UART_CONTROL_REG_REMOVED)
 298:Generated_Source\PSoC5/SBUS_UART.c ****         return(0u);
 299:Generated_Source\PSoC5/SBUS_UART.c ****     #else
 300:Generated_Source\PSoC5/SBUS_UART.c ****         return(SBUS_UART_CONTROL_REG);
 301:Generated_Source\PSoC5/SBUS_UART.c ****     #endif /* (SBUS_UART_CONTROL_REG_REMOVED) */
 302:Generated_Source\PSoC5/SBUS_UART.c **** }
 189              		.loc 1 302 0
 190 0000 0020     		movs	r0, #0
 191 0002 7047     		bx	lr
 192              		.cfi_endproc
 193              	.LFE4:
 194              		.size	SBUS_UART_ReadControlRegister, .-SBUS_UART_ReadControlRegister
 195              		.section	.text.SBUS_UART_WriteControlRegister,"ax",%progbits
 196              		.align	1
 197              		.global	SBUS_UART_WriteControlRegister
 198              		.thumb
 199              		.thumb_func
 200              		.type	SBUS_UART_WriteControlRegister, %function
 201              	SBUS_UART_WriteControlRegister:
 202              	.LFB17:
 203              		.cfi_startproc
ARM GAS  C:\Users\jon\AppData\Local\Temp\ccE2Rnla.s 			page 10


 204              		@ args = 0, pretend = 0, frame = 0
 205              		@ frame_needed = 0, uses_anonymous_args = 0
 206              		@ link register save eliminated.
 207 0000 7047     		bx	lr
 208              		.cfi_endproc
 209              	.LFE17:
 210              		.size	SBUS_UART_WriteControlRegister, .-SBUS_UART_WriteControlRegister
 211              		.section	.text.SBUS_UART_SetRxInterruptMode,"ax",%progbits
 212              		.align	1
 213              		.global	SBUS_UART_SetRxInterruptMode
 214              		.thumb
 215              		.thumb_func
 216              		.type	SBUS_UART_SetRxInterruptMode, %function
 217              	SBUS_UART_SetRxInterruptMode:
 218              	.LFB6:
 303:Generated_Source\PSoC5/SBUS_UART.c **** 
 304:Generated_Source\PSoC5/SBUS_UART.c **** 
 305:Generated_Source\PSoC5/SBUS_UART.c **** /*******************************************************************************
 306:Generated_Source\PSoC5/SBUS_UART.c **** * Function Name: SBUS_UART_WriteControlRegister
 307:Generated_Source\PSoC5/SBUS_UART.c **** ********************************************************************************
 308:Generated_Source\PSoC5/SBUS_UART.c **** *
 309:Generated_Source\PSoC5/SBUS_UART.c **** * Summary:
 310:Generated_Source\PSoC5/SBUS_UART.c **** *  Writes an 8-bit value into the control register
 311:Generated_Source\PSoC5/SBUS_UART.c **** *
 312:Generated_Source\PSoC5/SBUS_UART.c **** * Parameters:
 313:Generated_Source\PSoC5/SBUS_UART.c **** *  control:  control register value
 314:Generated_Source\PSoC5/SBUS_UART.c **** *
 315:Generated_Source\PSoC5/SBUS_UART.c **** * Return:
 316:Generated_Source\PSoC5/SBUS_UART.c **** *  None.
 317:Generated_Source\PSoC5/SBUS_UART.c **** *
 318:Generated_Source\PSoC5/SBUS_UART.c **** *******************************************************************************/
 319:Generated_Source\PSoC5/SBUS_UART.c **** void  SBUS_UART_WriteControlRegister(uint8 control) 
 320:Generated_Source\PSoC5/SBUS_UART.c **** {
 321:Generated_Source\PSoC5/SBUS_UART.c ****     #if (SBUS_UART_CONTROL_REG_REMOVED)
 322:Generated_Source\PSoC5/SBUS_UART.c ****         if(0u != control)
 323:Generated_Source\PSoC5/SBUS_UART.c ****         {
 324:Generated_Source\PSoC5/SBUS_UART.c ****             /* Suppress compiler warning */
 325:Generated_Source\PSoC5/SBUS_UART.c ****         }
 326:Generated_Source\PSoC5/SBUS_UART.c ****     #else
 327:Generated_Source\PSoC5/SBUS_UART.c ****        SBUS_UART_CONTROL_REG = control;
 328:Generated_Source\PSoC5/SBUS_UART.c ****     #endif /* (SBUS_UART_CONTROL_REG_REMOVED) */
 329:Generated_Source\PSoC5/SBUS_UART.c **** }
 330:Generated_Source\PSoC5/SBUS_UART.c **** 
 331:Generated_Source\PSoC5/SBUS_UART.c **** 
 332:Generated_Source\PSoC5/SBUS_UART.c **** #if(SBUS_UART_RX_ENABLED || SBUS_UART_HD_ENABLED)
 333:Generated_Source\PSoC5/SBUS_UART.c ****     /*******************************************************************************
 334:Generated_Source\PSoC5/SBUS_UART.c ****     * Function Name: SBUS_UART_SetRxInterruptMode
 335:Generated_Source\PSoC5/SBUS_UART.c ****     ********************************************************************************
 336:Generated_Source\PSoC5/SBUS_UART.c ****     *
 337:Generated_Source\PSoC5/SBUS_UART.c ****     * Summary:
 338:Generated_Source\PSoC5/SBUS_UART.c ****     *  Configures the RX interrupt sources enabled.
 339:Generated_Source\PSoC5/SBUS_UART.c ****     *
 340:Generated_Source\PSoC5/SBUS_UART.c ****     * Parameters:
 341:Generated_Source\PSoC5/SBUS_UART.c ****     *  IntSrc:  Bit field containing the RX interrupts to enable. Based on the 
 342:Generated_Source\PSoC5/SBUS_UART.c ****     *  bit-field arrangement of the status register. This value must be a 
 343:Generated_Source\PSoC5/SBUS_UART.c ****     *  combination of status register bit-masks shown below:
 344:Generated_Source\PSoC5/SBUS_UART.c ****     *      SBUS_UART_RX_STS_FIFO_NOTEMPTY    Interrupt on byte received.
ARM GAS  C:\Users\jon\AppData\Local\Temp\ccE2Rnla.s 			page 11


 345:Generated_Source\PSoC5/SBUS_UART.c ****     *      SBUS_UART_RX_STS_PAR_ERROR        Interrupt on parity error.
 346:Generated_Source\PSoC5/SBUS_UART.c ****     *      SBUS_UART_RX_STS_STOP_ERROR       Interrupt on stop error.
 347:Generated_Source\PSoC5/SBUS_UART.c ****     *      SBUS_UART_RX_STS_BREAK            Interrupt on break.
 348:Generated_Source\PSoC5/SBUS_UART.c ****     *      SBUS_UART_RX_STS_OVERRUN          Interrupt on overrun error.
 349:Generated_Source\PSoC5/SBUS_UART.c ****     *      SBUS_UART_RX_STS_ADDR_MATCH       Interrupt on address match.
 350:Generated_Source\PSoC5/SBUS_UART.c ****     *      SBUS_UART_RX_STS_MRKSPC           Interrupt on address detect.
 351:Generated_Source\PSoC5/SBUS_UART.c ****     *
 352:Generated_Source\PSoC5/SBUS_UART.c ****     * Return:
 353:Generated_Source\PSoC5/SBUS_UART.c ****     *  None.
 354:Generated_Source\PSoC5/SBUS_UART.c ****     *
 355:Generated_Source\PSoC5/SBUS_UART.c ****     * Theory:
 356:Generated_Source\PSoC5/SBUS_UART.c ****     *  Enables the output of specific status bits to the interrupt controller
 357:Generated_Source\PSoC5/SBUS_UART.c ****     *
 358:Generated_Source\PSoC5/SBUS_UART.c ****     *******************************************************************************/
 359:Generated_Source\PSoC5/SBUS_UART.c ****     void SBUS_UART_SetRxInterruptMode(uint8 intSrc) 
 360:Generated_Source\PSoC5/SBUS_UART.c ****     {
 219              		.loc 1 360 0
 220              		.cfi_startproc
 221              		@ args = 0, pretend = 0, frame = 0
 222              		@ frame_needed = 0, uses_anonymous_args = 0
 223              		@ link register save eliminated.
 224              	.LVL6:
 361:Generated_Source\PSoC5/SBUS_UART.c ****         SBUS_UART_RXSTATUS_MASK_REG  = intSrc;
 225              		.loc 1 361 0
 226 0000 014B     		ldr	r3, .L18
 227 0002 1870     		strb	r0, [r3]
 228 0004 7047     		bx	lr
 229              	.L19:
 230 0006 00BF     		.align	2
 231              	.L18:
 232 0008 84650040 		.word	1073767812
 233              		.cfi_endproc
 234              	.LFE6:
 235              		.size	SBUS_UART_SetRxInterruptMode, .-SBUS_UART_SetRxInterruptMode
 236              		.section	.text.SBUS_UART_ReadRxData,"ax",%progbits
 237              		.align	1
 238              		.global	SBUS_UART_ReadRxData
 239              		.thumb
 240              		.thumb_func
 241              		.type	SBUS_UART_ReadRxData, %function
 242              	SBUS_UART_ReadRxData:
 243              	.LFB7:
 362:Generated_Source\PSoC5/SBUS_UART.c ****     }
 363:Generated_Source\PSoC5/SBUS_UART.c **** 
 364:Generated_Source\PSoC5/SBUS_UART.c **** 
 365:Generated_Source\PSoC5/SBUS_UART.c ****     /*******************************************************************************
 366:Generated_Source\PSoC5/SBUS_UART.c ****     * Function Name: SBUS_UART_ReadRxData
 367:Generated_Source\PSoC5/SBUS_UART.c ****     ********************************************************************************
 368:Generated_Source\PSoC5/SBUS_UART.c ****     *
 369:Generated_Source\PSoC5/SBUS_UART.c ****     * Summary:
 370:Generated_Source\PSoC5/SBUS_UART.c ****     *  Returns the next byte of received data. This function returns data without
 371:Generated_Source\PSoC5/SBUS_UART.c ****     *  checking the status. You must check the status separately.
 372:Generated_Source\PSoC5/SBUS_UART.c ****     *
 373:Generated_Source\PSoC5/SBUS_UART.c ****     * Parameters:
 374:Generated_Source\PSoC5/SBUS_UART.c ****     *  None.
 375:Generated_Source\PSoC5/SBUS_UART.c ****     *
 376:Generated_Source\PSoC5/SBUS_UART.c ****     * Return:
ARM GAS  C:\Users\jon\AppData\Local\Temp\ccE2Rnla.s 			page 12


 377:Generated_Source\PSoC5/SBUS_UART.c ****     *  Received data from RX register
 378:Generated_Source\PSoC5/SBUS_UART.c ****     *
 379:Generated_Source\PSoC5/SBUS_UART.c ****     * Global Variables:
 380:Generated_Source\PSoC5/SBUS_UART.c ****     *  SBUS_UART_rxBuffer - RAM buffer pointer for save received data.
 381:Generated_Source\PSoC5/SBUS_UART.c ****     *  SBUS_UART_rxBufferWrite - cyclic index for write to rxBuffer,
 382:Generated_Source\PSoC5/SBUS_UART.c ****     *     checked to identify new data.
 383:Generated_Source\PSoC5/SBUS_UART.c ****     *  SBUS_UART_rxBufferRead - cyclic index for read from rxBuffer,
 384:Generated_Source\PSoC5/SBUS_UART.c ****     *     incremented after each byte has been read from buffer.
 385:Generated_Source\PSoC5/SBUS_UART.c ****     *  SBUS_UART_rxBufferLoopDetect - cleared if loop condition was detected
 386:Generated_Source\PSoC5/SBUS_UART.c ****     *     in RX ISR.
 387:Generated_Source\PSoC5/SBUS_UART.c ****     *
 388:Generated_Source\PSoC5/SBUS_UART.c ****     * Reentrant:
 389:Generated_Source\PSoC5/SBUS_UART.c ****     *  No.
 390:Generated_Source\PSoC5/SBUS_UART.c ****     *
 391:Generated_Source\PSoC5/SBUS_UART.c ****     *******************************************************************************/
 392:Generated_Source\PSoC5/SBUS_UART.c ****     uint8 SBUS_UART_ReadRxData(void) 
 393:Generated_Source\PSoC5/SBUS_UART.c ****     {
 244              		.loc 1 393 0
 245              		.cfi_startproc
 246              		@ args = 0, pretend = 0, frame = 0
 247              		@ frame_needed = 0, uses_anonymous_args = 0
 248              		@ link register save eliminated.
 394:Generated_Source\PSoC5/SBUS_UART.c ****         uint8 rxData;
 395:Generated_Source\PSoC5/SBUS_UART.c **** 
 396:Generated_Source\PSoC5/SBUS_UART.c ****     #if (SBUS_UART_RX_INTERRUPT_ENABLED)
 397:Generated_Source\PSoC5/SBUS_UART.c **** 
 398:Generated_Source\PSoC5/SBUS_UART.c ****         uint8 locRxBufferRead;
 399:Generated_Source\PSoC5/SBUS_UART.c ****         uint8 locRxBufferWrite;
 400:Generated_Source\PSoC5/SBUS_UART.c **** 
 401:Generated_Source\PSoC5/SBUS_UART.c ****         /* Protect variables that could change on interrupt */
 402:Generated_Source\PSoC5/SBUS_UART.c ****         SBUS_UART_DisableRxInt();
 403:Generated_Source\PSoC5/SBUS_UART.c **** 
 404:Generated_Source\PSoC5/SBUS_UART.c ****         locRxBufferRead  = SBUS_UART_rxBufferRead;
 405:Generated_Source\PSoC5/SBUS_UART.c ****         locRxBufferWrite = SBUS_UART_rxBufferWrite;
 406:Generated_Source\PSoC5/SBUS_UART.c **** 
 407:Generated_Source\PSoC5/SBUS_UART.c ****         if( (SBUS_UART_rxBufferLoopDetect != 0u) || (locRxBufferRead != locRxBufferWrite) )
 408:Generated_Source\PSoC5/SBUS_UART.c ****         {
 409:Generated_Source\PSoC5/SBUS_UART.c ****             rxData = SBUS_UART_rxBuffer[locRxBufferRead];
 410:Generated_Source\PSoC5/SBUS_UART.c ****             locRxBufferRead++;
 411:Generated_Source\PSoC5/SBUS_UART.c **** 
 412:Generated_Source\PSoC5/SBUS_UART.c ****             if(locRxBufferRead >= SBUS_UART_RX_BUFFER_SIZE)
 413:Generated_Source\PSoC5/SBUS_UART.c ****             {
 414:Generated_Source\PSoC5/SBUS_UART.c ****                 locRxBufferRead = 0u;
 415:Generated_Source\PSoC5/SBUS_UART.c ****             }
 416:Generated_Source\PSoC5/SBUS_UART.c ****             /* Update the real pointer */
 417:Generated_Source\PSoC5/SBUS_UART.c ****             SBUS_UART_rxBufferRead = locRxBufferRead;
 418:Generated_Source\PSoC5/SBUS_UART.c **** 
 419:Generated_Source\PSoC5/SBUS_UART.c ****             if(SBUS_UART_rxBufferLoopDetect != 0u)
 420:Generated_Source\PSoC5/SBUS_UART.c ****             {
 421:Generated_Source\PSoC5/SBUS_UART.c ****                 SBUS_UART_rxBufferLoopDetect = 0u;
 422:Generated_Source\PSoC5/SBUS_UART.c ****                 #if ((SBUS_UART_RX_INTERRUPT_ENABLED) && (SBUS_UART_FLOW_CONTROL != 0u))
 423:Generated_Source\PSoC5/SBUS_UART.c ****                     /* When Hardware Flow Control selected - return RX mask */
 424:Generated_Source\PSoC5/SBUS_UART.c ****                     #if( SBUS_UART_HD_ENABLED )
 425:Generated_Source\PSoC5/SBUS_UART.c ****                         if((SBUS_UART_CONTROL_REG & SBUS_UART_CTRL_HD_SEND) == 0u)
 426:Generated_Source\PSoC5/SBUS_UART.c ****                         {   /* In Half duplex mode return RX mask only in RX
 427:Generated_Source\PSoC5/SBUS_UART.c ****                             *  configuration set, otherwise
 428:Generated_Source\PSoC5/SBUS_UART.c ****                             *  mask will be returned in LoadRxConfig() API.
ARM GAS  C:\Users\jon\AppData\Local\Temp\ccE2Rnla.s 			page 13


 429:Generated_Source\PSoC5/SBUS_UART.c ****                             */
 430:Generated_Source\PSoC5/SBUS_UART.c ****                             SBUS_UART_RXSTATUS_MASK_REG  |= SBUS_UART_RX_STS_FIFO_NOTEMPTY;
 431:Generated_Source\PSoC5/SBUS_UART.c ****                         }
 432:Generated_Source\PSoC5/SBUS_UART.c ****                     #else
 433:Generated_Source\PSoC5/SBUS_UART.c ****                         SBUS_UART_RXSTATUS_MASK_REG  |= SBUS_UART_RX_STS_FIFO_NOTEMPTY;
 434:Generated_Source\PSoC5/SBUS_UART.c ****                     #endif /* end SBUS_UART_HD_ENABLED */
 435:Generated_Source\PSoC5/SBUS_UART.c ****                 #endif /* ((SBUS_UART_RX_INTERRUPT_ENABLED) && (SBUS_UART_FLOW_CONTROL != 0u)) */
 436:Generated_Source\PSoC5/SBUS_UART.c ****             }
 437:Generated_Source\PSoC5/SBUS_UART.c ****         }
 438:Generated_Source\PSoC5/SBUS_UART.c ****         else
 439:Generated_Source\PSoC5/SBUS_UART.c ****         {   /* Needs to check status for RX_STS_FIFO_NOTEMPTY bit */
 440:Generated_Source\PSoC5/SBUS_UART.c ****             rxData = SBUS_UART_RXDATA_REG;
 441:Generated_Source\PSoC5/SBUS_UART.c ****         }
 442:Generated_Source\PSoC5/SBUS_UART.c **** 
 443:Generated_Source\PSoC5/SBUS_UART.c ****         SBUS_UART_EnableRxInt();
 444:Generated_Source\PSoC5/SBUS_UART.c **** 
 445:Generated_Source\PSoC5/SBUS_UART.c ****     #else
 446:Generated_Source\PSoC5/SBUS_UART.c **** 
 447:Generated_Source\PSoC5/SBUS_UART.c ****         /* Needs to check status for RX_STS_FIFO_NOTEMPTY bit */
 448:Generated_Source\PSoC5/SBUS_UART.c ****         rxData = SBUS_UART_RXDATA_REG;
 249              		.loc 1 448 0
 250 0000 014B     		ldr	r3, .L21
 251 0002 1878     		ldrb	r0, [r3]	@ zero_extendqisi2
 252              	.LVL7:
 449:Generated_Source\PSoC5/SBUS_UART.c **** 
 450:Generated_Source\PSoC5/SBUS_UART.c ****     #endif /* (SBUS_UART_RX_INTERRUPT_ENABLED) */
 451:Generated_Source\PSoC5/SBUS_UART.c **** 
 452:Generated_Source\PSoC5/SBUS_UART.c ****         return(rxData);
 453:Generated_Source\PSoC5/SBUS_UART.c ****     }
 253              		.loc 1 453 0
 254 0004 7047     		bx	lr
 255              	.L22:
 256 0006 00BF     		.align	2
 257              	.L21:
 258 0008 44650040 		.word	1073767748
 259              		.cfi_endproc
 260              	.LFE7:
 261              		.size	SBUS_UART_ReadRxData, .-SBUS_UART_ReadRxData
 262              		.section	.text.SBUS_UART_ReadRxStatus,"ax",%progbits
 263              		.align	1
 264              		.global	SBUS_UART_ReadRxStatus
 265              		.thumb
 266              		.thumb_func
 267              		.type	SBUS_UART_ReadRxStatus, %function
 268              	SBUS_UART_ReadRxStatus:
 269              	.LFB8:
 454:Generated_Source\PSoC5/SBUS_UART.c **** 
 455:Generated_Source\PSoC5/SBUS_UART.c **** 
 456:Generated_Source\PSoC5/SBUS_UART.c ****     /*******************************************************************************
 457:Generated_Source\PSoC5/SBUS_UART.c ****     * Function Name: SBUS_UART_ReadRxStatus
 458:Generated_Source\PSoC5/SBUS_UART.c ****     ********************************************************************************
 459:Generated_Source\PSoC5/SBUS_UART.c ****     *
 460:Generated_Source\PSoC5/SBUS_UART.c ****     * Summary:
 461:Generated_Source\PSoC5/SBUS_UART.c ****     *  Returns the current state of the receiver status register and the software
 462:Generated_Source\PSoC5/SBUS_UART.c ****     *  buffer overflow status.
 463:Generated_Source\PSoC5/SBUS_UART.c ****     *
 464:Generated_Source\PSoC5/SBUS_UART.c ****     * Parameters:
ARM GAS  C:\Users\jon\AppData\Local\Temp\ccE2Rnla.s 			page 14


 465:Generated_Source\PSoC5/SBUS_UART.c ****     *  None.
 466:Generated_Source\PSoC5/SBUS_UART.c ****     *
 467:Generated_Source\PSoC5/SBUS_UART.c ****     * Return:
 468:Generated_Source\PSoC5/SBUS_UART.c ****     *  Current state of the status register.
 469:Generated_Source\PSoC5/SBUS_UART.c ****     *
 470:Generated_Source\PSoC5/SBUS_UART.c ****     * Side Effect:
 471:Generated_Source\PSoC5/SBUS_UART.c ****     *  All status register bits are clear-on-read except
 472:Generated_Source\PSoC5/SBUS_UART.c ****     *  SBUS_UART_RX_STS_FIFO_NOTEMPTY.
 473:Generated_Source\PSoC5/SBUS_UART.c ****     *  SBUS_UART_RX_STS_FIFO_NOTEMPTY clears immediately after RX data
 474:Generated_Source\PSoC5/SBUS_UART.c ****     *  register read.
 475:Generated_Source\PSoC5/SBUS_UART.c ****     *
 476:Generated_Source\PSoC5/SBUS_UART.c ****     * Global Variables:
 477:Generated_Source\PSoC5/SBUS_UART.c ****     *  SBUS_UART_rxBufferOverflow - used to indicate overload condition.
 478:Generated_Source\PSoC5/SBUS_UART.c ****     *   It set to one in RX interrupt when there isn't free space in
 479:Generated_Source\PSoC5/SBUS_UART.c ****     *   SBUS_UART_rxBufferRead to write new data. This condition returned
 480:Generated_Source\PSoC5/SBUS_UART.c ****     *   and cleared to zero by this API as an
 481:Generated_Source\PSoC5/SBUS_UART.c ****     *   SBUS_UART_RX_STS_SOFT_BUFF_OVER bit along with RX Status register
 482:Generated_Source\PSoC5/SBUS_UART.c ****     *   bits.
 483:Generated_Source\PSoC5/SBUS_UART.c ****     *
 484:Generated_Source\PSoC5/SBUS_UART.c ****     *******************************************************************************/
 485:Generated_Source\PSoC5/SBUS_UART.c ****     uint8 SBUS_UART_ReadRxStatus(void) 
 486:Generated_Source\PSoC5/SBUS_UART.c ****     {
 270              		.loc 1 486 0
 271              		.cfi_startproc
 272              		@ args = 0, pretend = 0, frame = 0
 273              		@ frame_needed = 0, uses_anonymous_args = 0
 274              		@ link register save eliminated.
 487:Generated_Source\PSoC5/SBUS_UART.c ****         uint8 status;
 488:Generated_Source\PSoC5/SBUS_UART.c **** 
 489:Generated_Source\PSoC5/SBUS_UART.c ****         status = SBUS_UART_RXSTATUS_REG & SBUS_UART_RX_HW_MASK;
 275              		.loc 1 489 0
 276 0000 024B     		ldr	r3, .L24
 277 0002 1878     		ldrb	r0, [r3]	@ zero_extendqisi2
 278              	.LVL8:
 490:Generated_Source\PSoC5/SBUS_UART.c **** 
 491:Generated_Source\PSoC5/SBUS_UART.c ****     #if (SBUS_UART_RX_INTERRUPT_ENABLED)
 492:Generated_Source\PSoC5/SBUS_UART.c ****         if(SBUS_UART_rxBufferOverflow != 0u)
 493:Generated_Source\PSoC5/SBUS_UART.c ****         {
 494:Generated_Source\PSoC5/SBUS_UART.c ****             status |= SBUS_UART_RX_STS_SOFT_BUFF_OVER;
 495:Generated_Source\PSoC5/SBUS_UART.c ****             SBUS_UART_rxBufferOverflow = 0u;
 496:Generated_Source\PSoC5/SBUS_UART.c ****         }
 497:Generated_Source\PSoC5/SBUS_UART.c ****     #endif /* (SBUS_UART_RX_INTERRUPT_ENABLED) */
 498:Generated_Source\PSoC5/SBUS_UART.c **** 
 499:Generated_Source\PSoC5/SBUS_UART.c ****         return(status);
 500:Generated_Source\PSoC5/SBUS_UART.c ****     }
 279              		.loc 1 500 0
 280 0004 00F07F00 		and	r0, r0, #127
 281              	.LVL9:
 282 0008 7047     		bx	lr
 283              	.L25:
 284 000a 00BF     		.align	2
 285              	.L24:
 286 000c 64650040 		.word	1073767780
 287              		.cfi_endproc
 288              	.LFE8:
 289              		.size	SBUS_UART_ReadRxStatus, .-SBUS_UART_ReadRxStatus
 290              		.section	.text.SBUS_UART_GetChar,"ax",%progbits
ARM GAS  C:\Users\jon\AppData\Local\Temp\ccE2Rnla.s 			page 15


 291              		.align	1
 292              		.global	SBUS_UART_GetChar
 293              		.thumb
 294              		.thumb_func
 295              		.type	SBUS_UART_GetChar, %function
 296              	SBUS_UART_GetChar:
 297              	.LFB9:
 501:Generated_Source\PSoC5/SBUS_UART.c **** 
 502:Generated_Source\PSoC5/SBUS_UART.c **** 
 503:Generated_Source\PSoC5/SBUS_UART.c ****     /*******************************************************************************
 504:Generated_Source\PSoC5/SBUS_UART.c ****     * Function Name: SBUS_UART_GetChar
 505:Generated_Source\PSoC5/SBUS_UART.c ****     ********************************************************************************
 506:Generated_Source\PSoC5/SBUS_UART.c ****     *
 507:Generated_Source\PSoC5/SBUS_UART.c ****     * Summary:
 508:Generated_Source\PSoC5/SBUS_UART.c ****     *  Returns the last received byte of data. SBUS_UART_GetChar() is
 509:Generated_Source\PSoC5/SBUS_UART.c ****     *  designed for ASCII characters and returns a uint8 where 1 to 255 are values
 510:Generated_Source\PSoC5/SBUS_UART.c ****     *  for valid characters and 0 indicates an error occurred or no data is present.
 511:Generated_Source\PSoC5/SBUS_UART.c ****     *
 512:Generated_Source\PSoC5/SBUS_UART.c ****     * Parameters:
 513:Generated_Source\PSoC5/SBUS_UART.c ****     *  None.
 514:Generated_Source\PSoC5/SBUS_UART.c ****     *
 515:Generated_Source\PSoC5/SBUS_UART.c ****     * Return:
 516:Generated_Source\PSoC5/SBUS_UART.c ****     *  Character read from UART RX buffer. ASCII characters from 1 to 255 are valid.
 517:Generated_Source\PSoC5/SBUS_UART.c ****     *  A returned zero signifies an error condition or no data available.
 518:Generated_Source\PSoC5/SBUS_UART.c ****     *
 519:Generated_Source\PSoC5/SBUS_UART.c ****     * Global Variables:
 520:Generated_Source\PSoC5/SBUS_UART.c ****     *  SBUS_UART_rxBuffer - RAM buffer pointer for save received data.
 521:Generated_Source\PSoC5/SBUS_UART.c ****     *  SBUS_UART_rxBufferWrite - cyclic index for write to rxBuffer,
 522:Generated_Source\PSoC5/SBUS_UART.c ****     *     checked to identify new data.
 523:Generated_Source\PSoC5/SBUS_UART.c ****     *  SBUS_UART_rxBufferRead - cyclic index for read from rxBuffer,
 524:Generated_Source\PSoC5/SBUS_UART.c ****     *     incremented after each byte has been read from buffer.
 525:Generated_Source\PSoC5/SBUS_UART.c ****     *  SBUS_UART_rxBufferLoopDetect - cleared if loop condition was detected
 526:Generated_Source\PSoC5/SBUS_UART.c ****     *     in RX ISR.
 527:Generated_Source\PSoC5/SBUS_UART.c ****     *
 528:Generated_Source\PSoC5/SBUS_UART.c ****     * Reentrant:
 529:Generated_Source\PSoC5/SBUS_UART.c ****     *  No.
 530:Generated_Source\PSoC5/SBUS_UART.c ****     *
 531:Generated_Source\PSoC5/SBUS_UART.c ****     *******************************************************************************/
 532:Generated_Source\PSoC5/SBUS_UART.c ****     uint8 SBUS_UART_GetChar(void) 
 533:Generated_Source\PSoC5/SBUS_UART.c ****     {
 298              		.loc 1 533 0
 299              		.cfi_startproc
 300              		@ args = 0, pretend = 0, frame = 0
 301              		@ frame_needed = 0, uses_anonymous_args = 0
 302              		@ link register save eliminated.
 303              	.LVL10:
 534:Generated_Source\PSoC5/SBUS_UART.c ****         uint8 rxData = 0u;
 535:Generated_Source\PSoC5/SBUS_UART.c ****         uint8 rxStatus;
 536:Generated_Source\PSoC5/SBUS_UART.c **** 
 537:Generated_Source\PSoC5/SBUS_UART.c ****     #if (SBUS_UART_RX_INTERRUPT_ENABLED)
 538:Generated_Source\PSoC5/SBUS_UART.c ****         uint8 locRxBufferRead;
 539:Generated_Source\PSoC5/SBUS_UART.c ****         uint8 locRxBufferWrite;
 540:Generated_Source\PSoC5/SBUS_UART.c **** 
 541:Generated_Source\PSoC5/SBUS_UART.c ****         /* Protect variables that could change on interrupt */
 542:Generated_Source\PSoC5/SBUS_UART.c ****         SBUS_UART_DisableRxInt();
 543:Generated_Source\PSoC5/SBUS_UART.c **** 
 544:Generated_Source\PSoC5/SBUS_UART.c ****         locRxBufferRead  = SBUS_UART_rxBufferRead;
ARM GAS  C:\Users\jon\AppData\Local\Temp\ccE2Rnla.s 			page 16


 545:Generated_Source\PSoC5/SBUS_UART.c ****         locRxBufferWrite = SBUS_UART_rxBufferWrite;
 546:Generated_Source\PSoC5/SBUS_UART.c **** 
 547:Generated_Source\PSoC5/SBUS_UART.c ****         if( (SBUS_UART_rxBufferLoopDetect != 0u) || (locRxBufferRead != locRxBufferWrite) )
 548:Generated_Source\PSoC5/SBUS_UART.c ****         {
 549:Generated_Source\PSoC5/SBUS_UART.c ****             rxData = SBUS_UART_rxBuffer[locRxBufferRead];
 550:Generated_Source\PSoC5/SBUS_UART.c ****             locRxBufferRead++;
 551:Generated_Source\PSoC5/SBUS_UART.c ****             if(locRxBufferRead >= SBUS_UART_RX_BUFFER_SIZE)
 552:Generated_Source\PSoC5/SBUS_UART.c ****             {
 553:Generated_Source\PSoC5/SBUS_UART.c ****                 locRxBufferRead = 0u;
 554:Generated_Source\PSoC5/SBUS_UART.c ****             }
 555:Generated_Source\PSoC5/SBUS_UART.c ****             /* Update the real pointer */
 556:Generated_Source\PSoC5/SBUS_UART.c ****             SBUS_UART_rxBufferRead = locRxBufferRead;
 557:Generated_Source\PSoC5/SBUS_UART.c **** 
 558:Generated_Source\PSoC5/SBUS_UART.c ****             if(SBUS_UART_rxBufferLoopDetect != 0u)
 559:Generated_Source\PSoC5/SBUS_UART.c ****             {
 560:Generated_Source\PSoC5/SBUS_UART.c ****                 SBUS_UART_rxBufferLoopDetect = 0u;
 561:Generated_Source\PSoC5/SBUS_UART.c ****                 #if( (SBUS_UART_RX_INTERRUPT_ENABLED) && (SBUS_UART_FLOW_CONTROL != 0u) )
 562:Generated_Source\PSoC5/SBUS_UART.c ****                     /* When Hardware Flow Control selected - return RX mask */
 563:Generated_Source\PSoC5/SBUS_UART.c ****                     #if( SBUS_UART_HD_ENABLED )
 564:Generated_Source\PSoC5/SBUS_UART.c ****                         if((SBUS_UART_CONTROL_REG & SBUS_UART_CTRL_HD_SEND) == 0u)
 565:Generated_Source\PSoC5/SBUS_UART.c ****                         {   /* In Half duplex mode return RX mask only if
 566:Generated_Source\PSoC5/SBUS_UART.c ****                             *  RX configuration set, otherwise
 567:Generated_Source\PSoC5/SBUS_UART.c ****                             *  mask will be returned in LoadRxConfig() API.
 568:Generated_Source\PSoC5/SBUS_UART.c ****                             */
 569:Generated_Source\PSoC5/SBUS_UART.c ****                             SBUS_UART_RXSTATUS_MASK_REG |= SBUS_UART_RX_STS_FIFO_NOTEMPTY;
 570:Generated_Source\PSoC5/SBUS_UART.c ****                         }
 571:Generated_Source\PSoC5/SBUS_UART.c ****                     #else
 572:Generated_Source\PSoC5/SBUS_UART.c ****                         SBUS_UART_RXSTATUS_MASK_REG |= SBUS_UART_RX_STS_FIFO_NOTEMPTY;
 573:Generated_Source\PSoC5/SBUS_UART.c ****                     #endif /* end SBUS_UART_HD_ENABLED */
 574:Generated_Source\PSoC5/SBUS_UART.c ****                 #endif /* SBUS_UART_RX_INTERRUPT_ENABLED and Hardware flow control*/
 575:Generated_Source\PSoC5/SBUS_UART.c ****             }
 576:Generated_Source\PSoC5/SBUS_UART.c **** 
 577:Generated_Source\PSoC5/SBUS_UART.c ****         }
 578:Generated_Source\PSoC5/SBUS_UART.c ****         else
 579:Generated_Source\PSoC5/SBUS_UART.c ****         {   rxStatus = SBUS_UART_RXSTATUS_REG;
 580:Generated_Source\PSoC5/SBUS_UART.c ****             if((rxStatus & SBUS_UART_RX_STS_FIFO_NOTEMPTY) != 0u)
 581:Generated_Source\PSoC5/SBUS_UART.c ****             {   /* Read received data from FIFO */
 582:Generated_Source\PSoC5/SBUS_UART.c ****                 rxData = SBUS_UART_RXDATA_REG;
 583:Generated_Source\PSoC5/SBUS_UART.c ****                 /*Check status on error*/
 584:Generated_Source\PSoC5/SBUS_UART.c ****                 if((rxStatus & (SBUS_UART_RX_STS_BREAK | SBUS_UART_RX_STS_PAR_ERROR |
 585:Generated_Source\PSoC5/SBUS_UART.c ****                                 SBUS_UART_RX_STS_STOP_ERROR | SBUS_UART_RX_STS_OVERRUN)) != 0u)
 586:Generated_Source\PSoC5/SBUS_UART.c ****                 {
 587:Generated_Source\PSoC5/SBUS_UART.c ****                     rxData = 0u;
 588:Generated_Source\PSoC5/SBUS_UART.c ****                 }
 589:Generated_Source\PSoC5/SBUS_UART.c ****             }
 590:Generated_Source\PSoC5/SBUS_UART.c ****         }
 591:Generated_Source\PSoC5/SBUS_UART.c **** 
 592:Generated_Source\PSoC5/SBUS_UART.c ****         SBUS_UART_EnableRxInt();
 593:Generated_Source\PSoC5/SBUS_UART.c **** 
 594:Generated_Source\PSoC5/SBUS_UART.c ****     #else
 595:Generated_Source\PSoC5/SBUS_UART.c **** 
 596:Generated_Source\PSoC5/SBUS_UART.c ****         rxStatus =SBUS_UART_RXSTATUS_REG;
 304              		.loc 1 596 0
 305 0000 074B     		ldr	r3, .L30
 306 0002 1B78     		ldrb	r3, [r3]	@ zero_extendqisi2
 307 0004 DBB2     		uxtb	r3, r3
 308              	.LVL11:
ARM GAS  C:\Users\jon\AppData\Local\Temp\ccE2Rnla.s 			page 17


 597:Generated_Source\PSoC5/SBUS_UART.c ****         if((rxStatus & SBUS_UART_RX_STS_FIFO_NOTEMPTY) != 0u)
 309              		.loc 1 597 0
 310 0006 03F02002 		and	r2, r3, #32
 311 000a 02F0FF00 		and	r0, r2, #255
 312 000e 2AB1     		cbz	r2, .L27
 598:Generated_Source\PSoC5/SBUS_UART.c ****         {
 599:Generated_Source\PSoC5/SBUS_UART.c ****             /* Read received data from FIFO */
 600:Generated_Source\PSoC5/SBUS_UART.c ****             rxData = SBUS_UART_RXDATA_REG;
 313              		.loc 1 600 0
 314 0010 044A     		ldr	r2, .L30+4
 601:Generated_Source\PSoC5/SBUS_UART.c **** 
 602:Generated_Source\PSoC5/SBUS_UART.c ****             /*Check status on error*/
 603:Generated_Source\PSoC5/SBUS_UART.c ****             if((rxStatus & (SBUS_UART_RX_STS_BREAK | SBUS_UART_RX_STS_PAR_ERROR |
 315              		.loc 1 603 0
 316 0012 13F01E0F 		tst	r3, #30
 600:Generated_Source\PSoC5/SBUS_UART.c **** 
 317              		.loc 1 600 0
 318 0016 1078     		ldrb	r0, [r2]	@ zero_extendqisi2
 319              	.LVL12:
 604:Generated_Source\PSoC5/SBUS_UART.c ****                             SBUS_UART_RX_STS_STOP_ERROR | SBUS_UART_RX_STS_OVERRUN)) != 0u)
 605:Generated_Source\PSoC5/SBUS_UART.c ****             {
 606:Generated_Source\PSoC5/SBUS_UART.c ****                 rxData = 0u;
 320              		.loc 1 606 0
 321 0018 18BF     		it	ne
 322 001a 0020     		movne	r0, #0
 323              	.LVL13:
 324              	.L27:
 607:Generated_Source\PSoC5/SBUS_UART.c ****             }
 608:Generated_Source\PSoC5/SBUS_UART.c ****         }
 609:Generated_Source\PSoC5/SBUS_UART.c ****     #endif /* (SBUS_UART_RX_INTERRUPT_ENABLED) */
 610:Generated_Source\PSoC5/SBUS_UART.c **** 
 611:Generated_Source\PSoC5/SBUS_UART.c ****         return(rxData);
 612:Generated_Source\PSoC5/SBUS_UART.c ****     }
 325              		.loc 1 612 0
 326 001c 7047     		bx	lr
 327              	.L31:
 328 001e 00BF     		.align	2
 329              	.L30:
 330 0020 64650040 		.word	1073767780
 331 0024 44650040 		.word	1073767748
 332              		.cfi_endproc
 333              	.LFE9:
 334              		.size	SBUS_UART_GetChar, .-SBUS_UART_GetChar
 335              		.section	.text.SBUS_UART_GetByte,"ax",%progbits
 336              		.align	1
 337              		.global	SBUS_UART_GetByte
 338              		.thumb
 339              		.thumb_func
 340              		.type	SBUS_UART_GetByte, %function
 341              	SBUS_UART_GetByte:
 342              	.LFB10:
 613:Generated_Source\PSoC5/SBUS_UART.c **** 
 614:Generated_Source\PSoC5/SBUS_UART.c **** 
 615:Generated_Source\PSoC5/SBUS_UART.c ****     /*******************************************************************************
 616:Generated_Source\PSoC5/SBUS_UART.c ****     * Function Name: SBUS_UART_GetByte
 617:Generated_Source\PSoC5/SBUS_UART.c ****     ********************************************************************************
 618:Generated_Source\PSoC5/SBUS_UART.c ****     *
ARM GAS  C:\Users\jon\AppData\Local\Temp\ccE2Rnla.s 			page 18


 619:Generated_Source\PSoC5/SBUS_UART.c ****     * Summary:
 620:Generated_Source\PSoC5/SBUS_UART.c ****     *  Reads UART RX buffer immediately, returns received character and error
 621:Generated_Source\PSoC5/SBUS_UART.c ****     *  condition.
 622:Generated_Source\PSoC5/SBUS_UART.c ****     *
 623:Generated_Source\PSoC5/SBUS_UART.c ****     * Parameters:
 624:Generated_Source\PSoC5/SBUS_UART.c ****     *  None.
 625:Generated_Source\PSoC5/SBUS_UART.c ****     *
 626:Generated_Source\PSoC5/SBUS_UART.c ****     * Return:
 627:Generated_Source\PSoC5/SBUS_UART.c ****     *  MSB contains status and LSB contains UART RX data. If the MSB is nonzero,
 628:Generated_Source\PSoC5/SBUS_UART.c ****     *  an error has occurred.
 629:Generated_Source\PSoC5/SBUS_UART.c ****     *
 630:Generated_Source\PSoC5/SBUS_UART.c ****     * Reentrant:
 631:Generated_Source\PSoC5/SBUS_UART.c ****     *  No.
 632:Generated_Source\PSoC5/SBUS_UART.c ****     *
 633:Generated_Source\PSoC5/SBUS_UART.c ****     *******************************************************************************/
 634:Generated_Source\PSoC5/SBUS_UART.c ****     uint16 SBUS_UART_GetByte(void) 
 635:Generated_Source\PSoC5/SBUS_UART.c ****     {
 343              		.loc 1 635 0
 344              		.cfi_startproc
 345              		@ args = 0, pretend = 0, frame = 0
 346              		@ frame_needed = 0, uses_anonymous_args = 0
 347              		@ link register save eliminated.
 348              	.LBB6:
 349              	.LBB7:
 489:Generated_Source\PSoC5/SBUS_UART.c **** 
 350              		.loc 1 489 0
 351 0000 044B     		ldr	r3, .L33
 352              	.LBE7:
 353              	.LBE6:
 354              	.LBB9:
 355              	.LBB10:
 448:Generated_Source\PSoC5/SBUS_UART.c **** 
 356              		.loc 1 448 0
 357 0002 054A     		ldr	r2, .L33+4
 358              	.LBE10:
 359              	.LBE9:
 360              	.LBB12:
 361              	.LBB8:
 489:Generated_Source\PSoC5/SBUS_UART.c **** 
 362              		.loc 1 489 0
 363 0004 1B78     		ldrb	r3, [r3]	@ zero_extendqisi2
 364              	.LBE8:
 365              	.LBE12:
 366              	.LBB13:
 367              	.LBB11:
 448:Generated_Source\PSoC5/SBUS_UART.c **** 
 368              		.loc 1 448 0
 369 0006 1078     		ldrb	r0, [r2]	@ zero_extendqisi2
 370              	.LBE11:
 371              	.LBE13:
 636:Generated_Source\PSoC5/SBUS_UART.c ****         
 637:Generated_Source\PSoC5/SBUS_UART.c ****     #if (SBUS_UART_RX_INTERRUPT_ENABLED)
 638:Generated_Source\PSoC5/SBUS_UART.c ****         uint16 locErrorStatus;
 639:Generated_Source\PSoC5/SBUS_UART.c ****         /* Protect variables that could change on interrupt */
 640:Generated_Source\PSoC5/SBUS_UART.c ****         SBUS_UART_DisableRxInt();
 641:Generated_Source\PSoC5/SBUS_UART.c ****         locErrorStatus = (uint16)SBUS_UART_errorStatus;
 642:Generated_Source\PSoC5/SBUS_UART.c ****         SBUS_UART_errorStatus = 0u;
ARM GAS  C:\Users\jon\AppData\Local\Temp\ccE2Rnla.s 			page 19


 643:Generated_Source\PSoC5/SBUS_UART.c ****         SBUS_UART_EnableRxInt();
 644:Generated_Source\PSoC5/SBUS_UART.c ****         return ( (uint16)(locErrorStatus << 8u) | SBUS_UART_ReadRxData() );
 645:Generated_Source\PSoC5/SBUS_UART.c ****     #else
 646:Generated_Source\PSoC5/SBUS_UART.c ****         return ( ((uint16)SBUS_UART_ReadRxStatus() << 8u) | SBUS_UART_ReadRxData() );
 372              		.loc 1 646 0
 373 0008 03F07F03 		and	r3, r3, #127
 647:Generated_Source\PSoC5/SBUS_UART.c ****     #endif /* SBUS_UART_RX_INTERRUPT_ENABLED */
 648:Generated_Source\PSoC5/SBUS_UART.c ****         
 649:Generated_Source\PSoC5/SBUS_UART.c ****     }
 374              		.loc 1 649 0
 375 000c 40EA0320 		orr	r0, r0, r3, lsl #8
 376 0010 7047     		bx	lr
 377              	.L34:
 378 0012 00BF     		.align	2
 379              	.L33:
 380 0014 64650040 		.word	1073767780
 381 0018 44650040 		.word	1073767748
 382              		.cfi_endproc
 383              	.LFE10:
 384              		.size	SBUS_UART_GetByte, .-SBUS_UART_GetByte
 385              		.section	.text.SBUS_UART_GetRxBufferSize,"ax",%progbits
 386              		.align	1
 387              		.global	SBUS_UART_GetRxBufferSize
 388              		.thumb
 389              		.thumb_func
 390              		.type	SBUS_UART_GetRxBufferSize, %function
 391              	SBUS_UART_GetRxBufferSize:
 392              	.LFB11:
 650:Generated_Source\PSoC5/SBUS_UART.c **** 
 651:Generated_Source\PSoC5/SBUS_UART.c **** 
 652:Generated_Source\PSoC5/SBUS_UART.c ****     /*******************************************************************************
 653:Generated_Source\PSoC5/SBUS_UART.c ****     * Function Name: SBUS_UART_GetRxBufferSize
 654:Generated_Source\PSoC5/SBUS_UART.c ****     ********************************************************************************
 655:Generated_Source\PSoC5/SBUS_UART.c ****     *
 656:Generated_Source\PSoC5/SBUS_UART.c ****     * Summary:
 657:Generated_Source\PSoC5/SBUS_UART.c ****     *  Returns the number of received bytes available in the RX buffer.
 658:Generated_Source\PSoC5/SBUS_UART.c ****     *  * RX software buffer is disabled (RX Buffer Size parameter is equal to 4): 
 659:Generated_Source\PSoC5/SBUS_UART.c ****     *    returns 0 for empty RX FIFO or 1 for not empty RX FIFO.
 660:Generated_Source\PSoC5/SBUS_UART.c ****     *  * RX software buffer is enabled: returns the number of bytes available in 
 661:Generated_Source\PSoC5/SBUS_UART.c ****     *    the RX software buffer. Bytes available in the RX FIFO do not take to 
 662:Generated_Source\PSoC5/SBUS_UART.c ****     *    account.
 663:Generated_Source\PSoC5/SBUS_UART.c ****     *
 664:Generated_Source\PSoC5/SBUS_UART.c ****     * Parameters:
 665:Generated_Source\PSoC5/SBUS_UART.c ****     *  None.
 666:Generated_Source\PSoC5/SBUS_UART.c ****     *
 667:Generated_Source\PSoC5/SBUS_UART.c ****     * Return:
 668:Generated_Source\PSoC5/SBUS_UART.c ****     *  uint8: Number of bytes in the RX buffer. 
 669:Generated_Source\PSoC5/SBUS_UART.c ****     *    Return value type depends on RX Buffer Size parameter.
 670:Generated_Source\PSoC5/SBUS_UART.c ****     *
 671:Generated_Source\PSoC5/SBUS_UART.c ****     * Global Variables:
 672:Generated_Source\PSoC5/SBUS_UART.c ****     *  SBUS_UART_rxBufferWrite - used to calculate left bytes.
 673:Generated_Source\PSoC5/SBUS_UART.c ****     *  SBUS_UART_rxBufferRead - used to calculate left bytes.
 674:Generated_Source\PSoC5/SBUS_UART.c ****     *  SBUS_UART_rxBufferLoopDetect - checked to decide left bytes amount.
 675:Generated_Source\PSoC5/SBUS_UART.c ****     *
 676:Generated_Source\PSoC5/SBUS_UART.c ****     * Reentrant:
 677:Generated_Source\PSoC5/SBUS_UART.c ****     *  No.
 678:Generated_Source\PSoC5/SBUS_UART.c ****     *
ARM GAS  C:\Users\jon\AppData\Local\Temp\ccE2Rnla.s 			page 20


 679:Generated_Source\PSoC5/SBUS_UART.c ****     * Theory:
 680:Generated_Source\PSoC5/SBUS_UART.c ****     *  Allows the user to find out how full the RX Buffer is.
 681:Generated_Source\PSoC5/SBUS_UART.c ****     *
 682:Generated_Source\PSoC5/SBUS_UART.c ****     *******************************************************************************/
 683:Generated_Source\PSoC5/SBUS_UART.c ****     uint8 SBUS_UART_GetRxBufferSize(void)
 684:Generated_Source\PSoC5/SBUS_UART.c ****                                                             
 685:Generated_Source\PSoC5/SBUS_UART.c ****     {
 393              		.loc 1 685 0
 394              		.cfi_startproc
 395              		@ args = 0, pretend = 0, frame = 0
 396              		@ frame_needed = 0, uses_anonymous_args = 0
 397              		@ link register save eliminated.
 686:Generated_Source\PSoC5/SBUS_UART.c ****         uint8 size;
 687:Generated_Source\PSoC5/SBUS_UART.c **** 
 688:Generated_Source\PSoC5/SBUS_UART.c ****     #if (SBUS_UART_RX_INTERRUPT_ENABLED)
 689:Generated_Source\PSoC5/SBUS_UART.c **** 
 690:Generated_Source\PSoC5/SBUS_UART.c ****         /* Protect variables that could change on interrupt */
 691:Generated_Source\PSoC5/SBUS_UART.c ****         SBUS_UART_DisableRxInt();
 692:Generated_Source\PSoC5/SBUS_UART.c **** 
 693:Generated_Source\PSoC5/SBUS_UART.c ****         if(SBUS_UART_rxBufferRead == SBUS_UART_rxBufferWrite)
 694:Generated_Source\PSoC5/SBUS_UART.c ****         {
 695:Generated_Source\PSoC5/SBUS_UART.c ****             if(SBUS_UART_rxBufferLoopDetect != 0u)
 696:Generated_Source\PSoC5/SBUS_UART.c ****             {
 697:Generated_Source\PSoC5/SBUS_UART.c ****                 size = SBUS_UART_RX_BUFFER_SIZE;
 698:Generated_Source\PSoC5/SBUS_UART.c ****             }
 699:Generated_Source\PSoC5/SBUS_UART.c ****             else
 700:Generated_Source\PSoC5/SBUS_UART.c ****             {
 701:Generated_Source\PSoC5/SBUS_UART.c ****                 size = 0u;
 702:Generated_Source\PSoC5/SBUS_UART.c ****             }
 703:Generated_Source\PSoC5/SBUS_UART.c ****         }
 704:Generated_Source\PSoC5/SBUS_UART.c ****         else if(SBUS_UART_rxBufferRead < SBUS_UART_rxBufferWrite)
 705:Generated_Source\PSoC5/SBUS_UART.c ****         {
 706:Generated_Source\PSoC5/SBUS_UART.c ****             size = (SBUS_UART_rxBufferWrite - SBUS_UART_rxBufferRead);
 707:Generated_Source\PSoC5/SBUS_UART.c ****         }
 708:Generated_Source\PSoC5/SBUS_UART.c ****         else
 709:Generated_Source\PSoC5/SBUS_UART.c ****         {
 710:Generated_Source\PSoC5/SBUS_UART.c ****             size = (SBUS_UART_RX_BUFFER_SIZE - SBUS_UART_rxBufferRead) + SBUS_UART_rxBufferWrite;
 711:Generated_Source\PSoC5/SBUS_UART.c ****         }
 712:Generated_Source\PSoC5/SBUS_UART.c **** 
 713:Generated_Source\PSoC5/SBUS_UART.c ****         SBUS_UART_EnableRxInt();
 714:Generated_Source\PSoC5/SBUS_UART.c **** 
 715:Generated_Source\PSoC5/SBUS_UART.c ****     #else
 716:Generated_Source\PSoC5/SBUS_UART.c **** 
 717:Generated_Source\PSoC5/SBUS_UART.c ****         /* We can only know if there is data in the fifo. */
 718:Generated_Source\PSoC5/SBUS_UART.c ****         size = ((SBUS_UART_RXSTATUS_REG & SBUS_UART_RX_STS_FIFO_NOTEMPTY) != 0u) ? 1u : 0u;
 398              		.loc 1 718 0
 399 0000 024B     		ldr	r3, .L36
 400 0002 1878     		ldrb	r0, [r3]	@ zero_extendqisi2
 401              	.LVL14:
 719:Generated_Source\PSoC5/SBUS_UART.c **** 
 720:Generated_Source\PSoC5/SBUS_UART.c ****     #endif /* (SBUS_UART_RX_INTERRUPT_ENABLED) */
 721:Generated_Source\PSoC5/SBUS_UART.c **** 
 722:Generated_Source\PSoC5/SBUS_UART.c ****         return(size);
 723:Generated_Source\PSoC5/SBUS_UART.c ****     }
 402              		.loc 1 723 0
 403 0004 C0F34010 		ubfx	r0, r0, #5, #1
 404              	.LVL15:
ARM GAS  C:\Users\jon\AppData\Local\Temp\ccE2Rnla.s 			page 21


 405 0008 7047     		bx	lr
 406              	.L37:
 407 000a 00BF     		.align	2
 408              	.L36:
 409 000c 64650040 		.word	1073767780
 410              		.cfi_endproc
 411              	.LFE11:
 412              		.size	SBUS_UART_GetRxBufferSize, .-SBUS_UART_GetRxBufferSize
 413              		.section	.text.SBUS_UART_ClearRxBuffer,"ax",%progbits
 414              		.align	1
 415              		.global	SBUS_UART_ClearRxBuffer
 416              		.thumb
 417              		.thumb_func
 418              		.type	SBUS_UART_ClearRxBuffer, %function
 419              	SBUS_UART_ClearRxBuffer:
 420              	.LFB12:
 724:Generated_Source\PSoC5/SBUS_UART.c **** 
 725:Generated_Source\PSoC5/SBUS_UART.c **** 
 726:Generated_Source\PSoC5/SBUS_UART.c ****     /*******************************************************************************
 727:Generated_Source\PSoC5/SBUS_UART.c ****     * Function Name: SBUS_UART_ClearRxBuffer
 728:Generated_Source\PSoC5/SBUS_UART.c ****     ********************************************************************************
 729:Generated_Source\PSoC5/SBUS_UART.c ****     *
 730:Generated_Source\PSoC5/SBUS_UART.c ****     * Summary:
 731:Generated_Source\PSoC5/SBUS_UART.c ****     *  Clears the receiver memory buffer and hardware RX FIFO of all received data.
 732:Generated_Source\PSoC5/SBUS_UART.c ****     *
 733:Generated_Source\PSoC5/SBUS_UART.c ****     * Parameters:
 734:Generated_Source\PSoC5/SBUS_UART.c ****     *  None.
 735:Generated_Source\PSoC5/SBUS_UART.c ****     *
 736:Generated_Source\PSoC5/SBUS_UART.c ****     * Return:
 737:Generated_Source\PSoC5/SBUS_UART.c ****     *  None.
 738:Generated_Source\PSoC5/SBUS_UART.c ****     *
 739:Generated_Source\PSoC5/SBUS_UART.c ****     * Global Variables:
 740:Generated_Source\PSoC5/SBUS_UART.c ****     *  SBUS_UART_rxBufferWrite - cleared to zero.
 741:Generated_Source\PSoC5/SBUS_UART.c ****     *  SBUS_UART_rxBufferRead - cleared to zero.
 742:Generated_Source\PSoC5/SBUS_UART.c ****     *  SBUS_UART_rxBufferLoopDetect - cleared to zero.
 743:Generated_Source\PSoC5/SBUS_UART.c ****     *  SBUS_UART_rxBufferOverflow - cleared to zero.
 744:Generated_Source\PSoC5/SBUS_UART.c ****     *
 745:Generated_Source\PSoC5/SBUS_UART.c ****     * Reentrant:
 746:Generated_Source\PSoC5/SBUS_UART.c ****     *  No.
 747:Generated_Source\PSoC5/SBUS_UART.c ****     *
 748:Generated_Source\PSoC5/SBUS_UART.c ****     * Theory:
 749:Generated_Source\PSoC5/SBUS_UART.c ****     *  Setting the pointers to zero makes the system believe there is no data to
 750:Generated_Source\PSoC5/SBUS_UART.c ****     *  read and writing will resume at address 0 overwriting any data that may
 751:Generated_Source\PSoC5/SBUS_UART.c ****     *  have remained in the RAM.
 752:Generated_Source\PSoC5/SBUS_UART.c ****     *
 753:Generated_Source\PSoC5/SBUS_UART.c ****     * Side Effects:
 754:Generated_Source\PSoC5/SBUS_UART.c ****     *  Any received data not read from the RAM or FIFO buffer will be lost.
 755:Generated_Source\PSoC5/SBUS_UART.c ****     *
 756:Generated_Source\PSoC5/SBUS_UART.c ****     *******************************************************************************/
 757:Generated_Source\PSoC5/SBUS_UART.c ****     void SBUS_UART_ClearRxBuffer(void) 
 758:Generated_Source\PSoC5/SBUS_UART.c ****     {
 421              		.loc 1 758 0
 422              		.cfi_startproc
 423              		@ args = 0, pretend = 0, frame = 0
 424              		@ frame_needed = 0, uses_anonymous_args = 0
 425 0000 08B5     		push	{r3, lr}
 426              		.cfi_def_cfa_offset 8
ARM GAS  C:\Users\jon\AppData\Local\Temp\ccE2Rnla.s 			page 22


 427              		.cfi_offset 3, -8
 428              		.cfi_offset 14, -4
 759:Generated_Source\PSoC5/SBUS_UART.c ****         uint8 enableInterrupts;
 760:Generated_Source\PSoC5/SBUS_UART.c **** 
 761:Generated_Source\PSoC5/SBUS_UART.c ****         /* Clear the HW FIFO */
 762:Generated_Source\PSoC5/SBUS_UART.c ****         enableInterrupts = CyEnterCriticalSection();
 429              		.loc 1 762 0
 430 0002 FFF7FEFF 		bl	CyEnterCriticalSection
 431              	.LVL16:
 763:Generated_Source\PSoC5/SBUS_UART.c ****         SBUS_UART_RXDATA_AUX_CTL_REG |= (uint8)  SBUS_UART_RX_FIFO_CLR;
 432              		.loc 1 763 0
 433 0006 064B     		ldr	r3, .L39
 434 0008 1A78     		ldrb	r2, [r3]	@ zero_extendqisi2
 435 000a 42F00102 		orr	r2, r2, #1
 436 000e 1A70     		strb	r2, [r3]
 764:Generated_Source\PSoC5/SBUS_UART.c ****         SBUS_UART_RXDATA_AUX_CTL_REG &= (uint8) ~SBUS_UART_RX_FIFO_CLR;
 437              		.loc 1 764 0
 438 0010 1A78     		ldrb	r2, [r3]	@ zero_extendqisi2
 439 0012 02F0FE02 		and	r2, r2, #254
 440 0016 1A70     		strb	r2, [r3]
 765:Generated_Source\PSoC5/SBUS_UART.c ****         CyExitCriticalSection(enableInterrupts);
 766:Generated_Source\PSoC5/SBUS_UART.c **** 
 767:Generated_Source\PSoC5/SBUS_UART.c ****     #if (SBUS_UART_RX_INTERRUPT_ENABLED)
 768:Generated_Source\PSoC5/SBUS_UART.c **** 
 769:Generated_Source\PSoC5/SBUS_UART.c ****         /* Protect variables that could change on interrupt. */
 770:Generated_Source\PSoC5/SBUS_UART.c ****         SBUS_UART_DisableRxInt();
 771:Generated_Source\PSoC5/SBUS_UART.c **** 
 772:Generated_Source\PSoC5/SBUS_UART.c ****         SBUS_UART_rxBufferRead = 0u;
 773:Generated_Source\PSoC5/SBUS_UART.c ****         SBUS_UART_rxBufferWrite = 0u;
 774:Generated_Source\PSoC5/SBUS_UART.c ****         SBUS_UART_rxBufferLoopDetect = 0u;
 775:Generated_Source\PSoC5/SBUS_UART.c ****         SBUS_UART_rxBufferOverflow = 0u;
 776:Generated_Source\PSoC5/SBUS_UART.c **** 
 777:Generated_Source\PSoC5/SBUS_UART.c ****         SBUS_UART_EnableRxInt();
 778:Generated_Source\PSoC5/SBUS_UART.c **** 
 779:Generated_Source\PSoC5/SBUS_UART.c ****     #endif /* (SBUS_UART_RX_INTERRUPT_ENABLED) */
 780:Generated_Source\PSoC5/SBUS_UART.c **** 
 781:Generated_Source\PSoC5/SBUS_UART.c ****     }
 441              		.loc 1 781 0
 442 0018 BDE80840 		pop	{r3, lr}
 443              		.cfi_restore 14
 444              		.cfi_restore 3
 445              		.cfi_def_cfa_offset 0
 765:Generated_Source\PSoC5/SBUS_UART.c ****         CyExitCriticalSection(enableInterrupts);
 446              		.loc 1 765 0
 447 001c FFF7FEBF 		b	CyExitCriticalSection
 448              	.LVL17:
 449              	.L40:
 450              		.align	2
 451              	.L39:
 452 0020 94650040 		.word	1073767828
 453              		.cfi_endproc
 454              	.LFE12:
 455              		.size	SBUS_UART_ClearRxBuffer, .-SBUS_UART_ClearRxBuffer
 456              		.section	.text.SBUS_UART_SetRxAddressMode,"ax",%progbits
 457              		.align	1
 458              		.global	SBUS_UART_SetRxAddressMode
 459              		.thumb
ARM GAS  C:\Users\jon\AppData\Local\Temp\ccE2Rnla.s 			page 23


 460              		.thumb_func
 461              		.type	SBUS_UART_SetRxAddressMode, %function
 462              	SBUS_UART_SetRxAddressMode:
 463              	.LFB13:
 782:Generated_Source\PSoC5/SBUS_UART.c **** 
 783:Generated_Source\PSoC5/SBUS_UART.c **** 
 784:Generated_Source\PSoC5/SBUS_UART.c ****     /*******************************************************************************
 785:Generated_Source\PSoC5/SBUS_UART.c ****     * Function Name: SBUS_UART_SetRxAddressMode
 786:Generated_Source\PSoC5/SBUS_UART.c ****     ********************************************************************************
 787:Generated_Source\PSoC5/SBUS_UART.c ****     *
 788:Generated_Source\PSoC5/SBUS_UART.c ****     * Summary:
 789:Generated_Source\PSoC5/SBUS_UART.c ****     *  Sets the software controlled Addressing mode used by the RX portion of the
 790:Generated_Source\PSoC5/SBUS_UART.c ****     *  UART.
 791:Generated_Source\PSoC5/SBUS_UART.c ****     *
 792:Generated_Source\PSoC5/SBUS_UART.c ****     * Parameters:
 793:Generated_Source\PSoC5/SBUS_UART.c ****     *  addressMode: Enumerated value indicating the mode of RX addressing
 794:Generated_Source\PSoC5/SBUS_UART.c ****     *  SBUS_UART__B_UART__AM_SW_BYTE_BYTE -  Software Byte-by-Byte address
 795:Generated_Source\PSoC5/SBUS_UART.c ****     *                                               detection
 796:Generated_Source\PSoC5/SBUS_UART.c ****     *  SBUS_UART__B_UART__AM_SW_DETECT_TO_BUFFER - Software Detect to Buffer
 797:Generated_Source\PSoC5/SBUS_UART.c ****     *                                               address detection
 798:Generated_Source\PSoC5/SBUS_UART.c ****     *  SBUS_UART__B_UART__AM_HW_BYTE_BY_BYTE - Hardware Byte-by-Byte address
 799:Generated_Source\PSoC5/SBUS_UART.c ****     *                                               detection
 800:Generated_Source\PSoC5/SBUS_UART.c ****     *  SBUS_UART__B_UART__AM_HW_DETECT_TO_BUFFER - Hardware Detect to Buffer
 801:Generated_Source\PSoC5/SBUS_UART.c ****     *                                               address detection
 802:Generated_Source\PSoC5/SBUS_UART.c ****     *  SBUS_UART__B_UART__AM_NONE - No address detection
 803:Generated_Source\PSoC5/SBUS_UART.c ****     *
 804:Generated_Source\PSoC5/SBUS_UART.c ****     * Return:
 805:Generated_Source\PSoC5/SBUS_UART.c ****     *  None.
 806:Generated_Source\PSoC5/SBUS_UART.c ****     *
 807:Generated_Source\PSoC5/SBUS_UART.c ****     * Global Variables:
 808:Generated_Source\PSoC5/SBUS_UART.c ****     *  SBUS_UART_rxAddressMode - the parameter stored in this variable for
 809:Generated_Source\PSoC5/SBUS_UART.c ****     *   the farther usage in RX ISR.
 810:Generated_Source\PSoC5/SBUS_UART.c ****     *  SBUS_UART_rxAddressDetected - set to initial state (0).
 811:Generated_Source\PSoC5/SBUS_UART.c ****     *
 812:Generated_Source\PSoC5/SBUS_UART.c ****     *******************************************************************************/
 813:Generated_Source\PSoC5/SBUS_UART.c ****     void SBUS_UART_SetRxAddressMode(uint8 addressMode)
 814:Generated_Source\PSoC5/SBUS_UART.c ****                                                         
 815:Generated_Source\PSoC5/SBUS_UART.c ****     {
 464              		.loc 1 815 0
 465              		.cfi_startproc
 466              		@ args = 0, pretend = 0, frame = 0
 467              		@ frame_needed = 0, uses_anonymous_args = 0
 468              		@ link register save eliminated.
 469              	.LVL18:
 470 0000 7047     		bx	lr
 471              		.cfi_endproc
 472              	.LFE13:
 473              		.size	SBUS_UART_SetRxAddressMode, .-SBUS_UART_SetRxAddressMode
 474              		.section	.text.SBUS_UART_SetRxAddress1,"ax",%progbits
 475              		.align	1
 476              		.global	SBUS_UART_SetRxAddress1
 477              		.thumb
 478              		.thumb_func
 479              		.type	SBUS_UART_SetRxAddress1, %function
 480              	SBUS_UART_SetRxAddress1:
 481              	.LFB14:
 816:Generated_Source\PSoC5/SBUS_UART.c ****         #if(SBUS_UART_RXHW_ADDRESS_ENABLED)
ARM GAS  C:\Users\jon\AppData\Local\Temp\ccE2Rnla.s 			page 24


 817:Generated_Source\PSoC5/SBUS_UART.c ****             #if(SBUS_UART_CONTROL_REG_REMOVED)
 818:Generated_Source\PSoC5/SBUS_UART.c ****                 if(0u != addressMode)
 819:Generated_Source\PSoC5/SBUS_UART.c ****                 {
 820:Generated_Source\PSoC5/SBUS_UART.c ****                     /* Suppress compiler warning */
 821:Generated_Source\PSoC5/SBUS_UART.c ****                 }
 822:Generated_Source\PSoC5/SBUS_UART.c ****             #else /* SBUS_UART_CONTROL_REG_REMOVED */
 823:Generated_Source\PSoC5/SBUS_UART.c ****                 uint8 tmpCtrl;
 824:Generated_Source\PSoC5/SBUS_UART.c ****                 tmpCtrl = SBUS_UART_CONTROL_REG & (uint8)~SBUS_UART_CTRL_RXADDR_MODE_MASK;
 825:Generated_Source\PSoC5/SBUS_UART.c ****                 tmpCtrl |= (uint8)(addressMode << SBUS_UART_CTRL_RXADDR_MODE0_SHIFT);
 826:Generated_Source\PSoC5/SBUS_UART.c ****                 SBUS_UART_CONTROL_REG = tmpCtrl;
 827:Generated_Source\PSoC5/SBUS_UART.c **** 
 828:Generated_Source\PSoC5/SBUS_UART.c ****                 #if(SBUS_UART_RX_INTERRUPT_ENABLED && \
 829:Generated_Source\PSoC5/SBUS_UART.c ****                    (SBUS_UART_RXBUFFERSIZE > SBUS_UART_FIFO_LENGTH) )
 830:Generated_Source\PSoC5/SBUS_UART.c ****                     SBUS_UART_rxAddressMode = addressMode;
 831:Generated_Source\PSoC5/SBUS_UART.c ****                     SBUS_UART_rxAddressDetected = 0u;
 832:Generated_Source\PSoC5/SBUS_UART.c ****                 #endif /* End SBUS_UART_RXBUFFERSIZE > SBUS_UART_FIFO_LENGTH*/
 833:Generated_Source\PSoC5/SBUS_UART.c ****             #endif /* End SBUS_UART_CONTROL_REG_REMOVED */
 834:Generated_Source\PSoC5/SBUS_UART.c ****         #else /* SBUS_UART_RXHW_ADDRESS_ENABLED */
 835:Generated_Source\PSoC5/SBUS_UART.c ****             if(0u != addressMode)
 836:Generated_Source\PSoC5/SBUS_UART.c ****             {
 837:Generated_Source\PSoC5/SBUS_UART.c ****                 /* Suppress compiler warning */
 838:Generated_Source\PSoC5/SBUS_UART.c ****             }
 839:Generated_Source\PSoC5/SBUS_UART.c ****         #endif /* End SBUS_UART_RXHW_ADDRESS_ENABLED */
 840:Generated_Source\PSoC5/SBUS_UART.c ****     }
 841:Generated_Source\PSoC5/SBUS_UART.c **** 
 842:Generated_Source\PSoC5/SBUS_UART.c **** 
 843:Generated_Source\PSoC5/SBUS_UART.c ****     /*******************************************************************************
 844:Generated_Source\PSoC5/SBUS_UART.c ****     * Function Name: SBUS_UART_SetRxAddress1
 845:Generated_Source\PSoC5/SBUS_UART.c ****     ********************************************************************************
 846:Generated_Source\PSoC5/SBUS_UART.c ****     *
 847:Generated_Source\PSoC5/SBUS_UART.c ****     * Summary:
 848:Generated_Source\PSoC5/SBUS_UART.c ****     *  Sets the first of two hardware-detectable receiver addresses.
 849:Generated_Source\PSoC5/SBUS_UART.c ****     *
 850:Generated_Source\PSoC5/SBUS_UART.c ****     * Parameters:
 851:Generated_Source\PSoC5/SBUS_UART.c ****     *  address: Address #1 for hardware address detection.
 852:Generated_Source\PSoC5/SBUS_UART.c ****     *
 853:Generated_Source\PSoC5/SBUS_UART.c ****     * Return:
 854:Generated_Source\PSoC5/SBUS_UART.c ****     *  None.
 855:Generated_Source\PSoC5/SBUS_UART.c ****     *
 856:Generated_Source\PSoC5/SBUS_UART.c ****     *******************************************************************************/
 857:Generated_Source\PSoC5/SBUS_UART.c ****     void SBUS_UART_SetRxAddress1(uint8 address) 
 858:Generated_Source\PSoC5/SBUS_UART.c ****     {
 482              		.loc 1 858 0
 483              		.cfi_startproc
 484              		@ args = 0, pretend = 0, frame = 0
 485              		@ frame_needed = 0, uses_anonymous_args = 0
 486              		@ link register save eliminated.
 487              	.LVL19:
 859:Generated_Source\PSoC5/SBUS_UART.c ****         SBUS_UART_RXADDRESS1_REG = address;
 488              		.loc 1 859 0
 489 0000 014B     		ldr	r3, .L43
 490 0002 1870     		strb	r0, [r3]
 491 0004 7047     		bx	lr
 492              	.L44:
 493 0006 00BF     		.align	2
 494              	.L43:
 495 0008 24650040 		.word	1073767716
ARM GAS  C:\Users\jon\AppData\Local\Temp\ccE2Rnla.s 			page 25


 496              		.cfi_endproc
 497              	.LFE14:
 498              		.size	SBUS_UART_SetRxAddress1, .-SBUS_UART_SetRxAddress1
 499              		.section	.text.SBUS_UART_SetRxAddress2,"ax",%progbits
 500              		.align	1
 501              		.global	SBUS_UART_SetRxAddress2
 502              		.thumb
 503              		.thumb_func
 504              		.type	SBUS_UART_SetRxAddress2, %function
 505              	SBUS_UART_SetRxAddress2:
 506              	.LFB15:
 860:Generated_Source\PSoC5/SBUS_UART.c ****     }
 861:Generated_Source\PSoC5/SBUS_UART.c **** 
 862:Generated_Source\PSoC5/SBUS_UART.c **** 
 863:Generated_Source\PSoC5/SBUS_UART.c ****     /*******************************************************************************
 864:Generated_Source\PSoC5/SBUS_UART.c ****     * Function Name: SBUS_UART_SetRxAddress2
 865:Generated_Source\PSoC5/SBUS_UART.c ****     ********************************************************************************
 866:Generated_Source\PSoC5/SBUS_UART.c ****     *
 867:Generated_Source\PSoC5/SBUS_UART.c ****     * Summary:
 868:Generated_Source\PSoC5/SBUS_UART.c ****     *  Sets the second of two hardware-detectable receiver addresses.
 869:Generated_Source\PSoC5/SBUS_UART.c ****     *
 870:Generated_Source\PSoC5/SBUS_UART.c ****     * Parameters:
 871:Generated_Source\PSoC5/SBUS_UART.c ****     *  address: Address #2 for hardware address detection.
 872:Generated_Source\PSoC5/SBUS_UART.c ****     *
 873:Generated_Source\PSoC5/SBUS_UART.c ****     * Return:
 874:Generated_Source\PSoC5/SBUS_UART.c ****     *  None.
 875:Generated_Source\PSoC5/SBUS_UART.c ****     *
 876:Generated_Source\PSoC5/SBUS_UART.c ****     *******************************************************************************/
 877:Generated_Source\PSoC5/SBUS_UART.c ****     void SBUS_UART_SetRxAddress2(uint8 address) 
 878:Generated_Source\PSoC5/SBUS_UART.c ****     {
 507              		.loc 1 878 0
 508              		.cfi_startproc
 509              		@ args = 0, pretend = 0, frame = 0
 510              		@ frame_needed = 0, uses_anonymous_args = 0
 511              		@ link register save eliminated.
 512              	.LVL20:
 879:Generated_Source\PSoC5/SBUS_UART.c ****         SBUS_UART_RXADDRESS2_REG = address;
 513              		.loc 1 879 0
 514 0000 014B     		ldr	r3, .L46
 515 0002 1870     		strb	r0, [r3]
 516 0004 7047     		bx	lr
 517              	.L47:
 518 0006 00BF     		.align	2
 519              	.L46:
 520 0008 34650040 		.word	1073767732
 521              		.cfi_endproc
 522              	.LFE15:
 523              		.size	SBUS_UART_SetRxAddress2, .-SBUS_UART_SetRxAddress2
 524              		.global	SBUS_UART_initVar
 525              		.bss
 526              		.set	.LANCHOR0,. + 0
 527              		.type	SBUS_UART_initVar, %object
 528              		.size	SBUS_UART_initVar, 1
 529              	SBUS_UART_initVar:
 530 0000 00       		.space	1
 531              		.text
 532              	.Letext0:
ARM GAS  C:\Users\jon\AppData\Local\Temp\ccE2Rnla.s 			page 26


 533              		.file 2 "Generated_Source\\PSoC5\\cytypes.h"
 534              		.file 3 "Generated_Source\\PSoC5\\CyLib.h"