ARM GAS  C:\Users\jebush2\AppData\Local\Temp\ccLyWgjB.s 			page 1


   1              		.syntax unified
   2              		.cpu cortex-m3
   3              		.fpu softvfp
   4              		.eabi_attribute 20, 1
   5              		.eabi_attribute 21, 1
   6              		.eabi_attribute 23, 3
   7              		.eabi_attribute 24, 1
   8              		.eabi_attribute 25, 1
   9              		.eabi_attribute 26, 1
  10              		.eabi_attribute 30, 1
  11              		.eabi_attribute 34, 1
  12              		.eabi_attribute 18, 4
  13              		.thumb
  14              		.syntax unified
  15              		.file	"cyfitter_cfg.c"
  16              		.text
  17              	.Ltext0:
  18              		.cfi_sections	.debug_frame
  19              		.section	.text.CyClockStartupError,"ax",%progbits
  20              		.align	2
  21              		.thumb
  22              		.thumb_func
  23              		.type	CyClockStartupError, %function
  24              	CyClockStartupError:
  25              	.LFB3:
  26              		.file 1 "Generated_Source\\PSoC5\\cyfitter_cfg.c"
   1:Generated_Source\PSoC5/cyfitter_cfg.c **** 
   2:Generated_Source\PSoC5/cyfitter_cfg.c **** /*******************************************************************************
   3:Generated_Source\PSoC5/cyfitter_cfg.c **** * File Name: cyfitter_cfg.c
   4:Generated_Source\PSoC5/cyfitter_cfg.c **** * 
   5:Generated_Source\PSoC5/cyfitter_cfg.c **** * PSoC Creator  4.2
   6:Generated_Source\PSoC5/cyfitter_cfg.c **** *
   7:Generated_Source\PSoC5/cyfitter_cfg.c **** * Description:
   8:Generated_Source\PSoC5/cyfitter_cfg.c **** * This file contains device initialization code.
   9:Generated_Source\PSoC5/cyfitter_cfg.c **** * Except for the user defined sections in CyClockStartupError(), this file should not be modified.
  10:Generated_Source\PSoC5/cyfitter_cfg.c **** * This file is automatically generated by PSoC Creator.
  11:Generated_Source\PSoC5/cyfitter_cfg.c **** *
  12:Generated_Source\PSoC5/cyfitter_cfg.c **** ********************************************************************************
  13:Generated_Source\PSoC5/cyfitter_cfg.c **** * Copyright (c) 2007-2018 Cypress Semiconductor.  All rights reserved.
  14:Generated_Source\PSoC5/cyfitter_cfg.c **** * You may use this file only in accordance with the license, terms, conditions, 
  15:Generated_Source\PSoC5/cyfitter_cfg.c **** * disclaimers, and limitations in the end user license agreement accompanying 
  16:Generated_Source\PSoC5/cyfitter_cfg.c **** * the software package with which this file was provided.
  17:Generated_Source\PSoC5/cyfitter_cfg.c **** ********************************************************************************/
  18:Generated_Source\PSoC5/cyfitter_cfg.c **** 
  19:Generated_Source\PSoC5/cyfitter_cfg.c **** #include <string.h>
  20:Generated_Source\PSoC5/cyfitter_cfg.c **** #include "cytypes.h"
  21:Generated_Source\PSoC5/cyfitter_cfg.c **** #include "cydevice_trm.h"
  22:Generated_Source\PSoC5/cyfitter_cfg.c **** #include "cyfitter.h"
  23:Generated_Source\PSoC5/cyfitter_cfg.c **** #include "CyLib.h"
  24:Generated_Source\PSoC5/cyfitter_cfg.c **** #include "cyfitter_cfg.h"
  25:Generated_Source\PSoC5/cyfitter_cfg.c **** #include "cyapicallbacks.h"
  26:Generated_Source\PSoC5/cyfitter_cfg.c **** 
  27:Generated_Source\PSoC5/cyfitter_cfg.c **** #define CY_NEED_CYCLOCKSTARTUPERROR 1
  28:Generated_Source\PSoC5/cyfitter_cfg.c **** 
  29:Generated_Source\PSoC5/cyfitter_cfg.c **** 
  30:Generated_Source\PSoC5/cyfitter_cfg.c **** #if defined(__GNUC__) || defined(__ARMCC_VERSION)
  31:Generated_Source\PSoC5/cyfitter_cfg.c ****     #define CYPACKED 
ARM GAS  C:\Users\jebush2\AppData\Local\Temp\ccLyWgjB.s 			page 2


  32:Generated_Source\PSoC5/cyfitter_cfg.c ****     #define CYPACKED_ATTR __attribute__ ((packed))
  33:Generated_Source\PSoC5/cyfitter_cfg.c ****     #define CYALIGNED __attribute__ ((aligned))
  34:Generated_Source\PSoC5/cyfitter_cfg.c ****     #define CY_CFG_UNUSED __attribute__ ((unused))
  35:Generated_Source\PSoC5/cyfitter_cfg.c ****     #ifndef CY_CFG_SECTION
  36:Generated_Source\PSoC5/cyfitter_cfg.c ****         #define CY_CFG_SECTION __attribute__ ((section(".psocinit")))
  37:Generated_Source\PSoC5/cyfitter_cfg.c ****     #endif
  38:Generated_Source\PSoC5/cyfitter_cfg.c ****     
  39:Generated_Source\PSoC5/cyfitter_cfg.c ****     #if defined(__ARMCC_VERSION)
  40:Generated_Source\PSoC5/cyfitter_cfg.c ****         #define CY_CFG_MEMORY_BARRIER() __memory_changed()
  41:Generated_Source\PSoC5/cyfitter_cfg.c ****     #else
  42:Generated_Source\PSoC5/cyfitter_cfg.c ****         #define CY_CFG_MEMORY_BARRIER() __sync_synchronize()
  43:Generated_Source\PSoC5/cyfitter_cfg.c ****     #endif
  44:Generated_Source\PSoC5/cyfitter_cfg.c ****     
  45:Generated_Source\PSoC5/cyfitter_cfg.c **** #elif defined(__ICCARM__)
  46:Generated_Source\PSoC5/cyfitter_cfg.c ****     #include <intrinsics.h>
  47:Generated_Source\PSoC5/cyfitter_cfg.c **** 
  48:Generated_Source\PSoC5/cyfitter_cfg.c ****     #define CYPACKED __packed
  49:Generated_Source\PSoC5/cyfitter_cfg.c ****     #define CYPACKED_ATTR 
  50:Generated_Source\PSoC5/cyfitter_cfg.c ****     #define CYALIGNED _Pragma("data_alignment=4")
  51:Generated_Source\PSoC5/cyfitter_cfg.c ****     #define CY_CFG_UNUSED _Pragma("diag_suppress=Pe177")
  52:Generated_Source\PSoC5/cyfitter_cfg.c ****     #define CY_CFG_SECTION _Pragma("location=\".psocinit\"")
  53:Generated_Source\PSoC5/cyfitter_cfg.c ****     
  54:Generated_Source\PSoC5/cyfitter_cfg.c ****     #define CY_CFG_MEMORY_BARRIER() __DMB()
  55:Generated_Source\PSoC5/cyfitter_cfg.c ****     
  56:Generated_Source\PSoC5/cyfitter_cfg.c **** #else
  57:Generated_Source\PSoC5/cyfitter_cfg.c ****     #error Unsupported toolchain
  58:Generated_Source\PSoC5/cyfitter_cfg.c **** #endif
  59:Generated_Source\PSoC5/cyfitter_cfg.c **** 
  60:Generated_Source\PSoC5/cyfitter_cfg.c **** #ifndef CYCODE
  61:Generated_Source\PSoC5/cyfitter_cfg.c ****     #define CYCODE
  62:Generated_Source\PSoC5/cyfitter_cfg.c **** #endif
  63:Generated_Source\PSoC5/cyfitter_cfg.c **** #ifndef CYDATA
  64:Generated_Source\PSoC5/cyfitter_cfg.c ****     #define CYDATA
  65:Generated_Source\PSoC5/cyfitter_cfg.c **** #endif
  66:Generated_Source\PSoC5/cyfitter_cfg.c **** #ifndef CYFAR
  67:Generated_Source\PSoC5/cyfitter_cfg.c ****     #define CYFAR
  68:Generated_Source\PSoC5/cyfitter_cfg.c **** #endif
  69:Generated_Source\PSoC5/cyfitter_cfg.c **** #ifndef CYXDATA
  70:Generated_Source\PSoC5/cyfitter_cfg.c ****     #define CYXDATA
  71:Generated_Source\PSoC5/cyfitter_cfg.c **** #endif
  72:Generated_Source\PSoC5/cyfitter_cfg.c **** 
  73:Generated_Source\PSoC5/cyfitter_cfg.c **** 
  74:Generated_Source\PSoC5/cyfitter_cfg.c **** CY_CFG_UNUSED
  75:Generated_Source\PSoC5/cyfitter_cfg.c **** static void CYMEMZERO(void *s, size_t n);
  76:Generated_Source\PSoC5/cyfitter_cfg.c **** CY_CFG_UNUSED
  77:Generated_Source\PSoC5/cyfitter_cfg.c **** static void CYMEMZERO(void *s, size_t n)
  78:Generated_Source\PSoC5/cyfitter_cfg.c **** {
  79:Generated_Source\PSoC5/cyfitter_cfg.c **** 	(void)memset(s, 0, n);
  80:Generated_Source\PSoC5/cyfitter_cfg.c **** }
  81:Generated_Source\PSoC5/cyfitter_cfg.c **** CY_CFG_UNUSED
  82:Generated_Source\PSoC5/cyfitter_cfg.c **** static void CYCONFIGCPY(void *dest, const void *src, size_t n);
  83:Generated_Source\PSoC5/cyfitter_cfg.c **** CY_CFG_UNUSED
  84:Generated_Source\PSoC5/cyfitter_cfg.c **** static void CYCONFIGCPY(void *dest, const void *src, size_t n)
  85:Generated_Source\PSoC5/cyfitter_cfg.c **** {
  86:Generated_Source\PSoC5/cyfitter_cfg.c **** 	(void)memcpy(dest, src, n);
  87:Generated_Source\PSoC5/cyfitter_cfg.c **** }
  88:Generated_Source\PSoC5/cyfitter_cfg.c **** CY_CFG_UNUSED
ARM GAS  C:\Users\jebush2\AppData\Local\Temp\ccLyWgjB.s 			page 3


  89:Generated_Source\PSoC5/cyfitter_cfg.c **** static void CYCONFIGCPYCODE(void *dest, const void *src, size_t n);
  90:Generated_Source\PSoC5/cyfitter_cfg.c **** CY_CFG_UNUSED
  91:Generated_Source\PSoC5/cyfitter_cfg.c **** static void CYCONFIGCPYCODE(void *dest, const void *src, size_t n)
  92:Generated_Source\PSoC5/cyfitter_cfg.c **** {
  93:Generated_Source\PSoC5/cyfitter_cfg.c **** 	(void)memcpy(dest, src, n);
  94:Generated_Source\PSoC5/cyfitter_cfg.c **** }
  95:Generated_Source\PSoC5/cyfitter_cfg.c **** 
  96:Generated_Source\PSoC5/cyfitter_cfg.c **** 
  97:Generated_Source\PSoC5/cyfitter_cfg.c **** 
  98:Generated_Source\PSoC5/cyfitter_cfg.c **** 
  99:Generated_Source\PSoC5/cyfitter_cfg.c **** /* Clock startup error codes                                                   */
 100:Generated_Source\PSoC5/cyfitter_cfg.c **** #define CYCLOCKSTART_NO_ERROR    0u
 101:Generated_Source\PSoC5/cyfitter_cfg.c **** #define CYCLOCKSTART_XTAL_ERROR  1u
 102:Generated_Source\PSoC5/cyfitter_cfg.c **** #define CYCLOCKSTART_32KHZ_ERROR 2u
 103:Generated_Source\PSoC5/cyfitter_cfg.c **** #define CYCLOCKSTART_PLL_ERROR   3u
 104:Generated_Source\PSoC5/cyfitter_cfg.c **** #define CYCLOCKSTART_FLL_ERROR   4u
 105:Generated_Source\PSoC5/cyfitter_cfg.c **** #define CYCLOCKSTART_WCO_ERROR   5u
 106:Generated_Source\PSoC5/cyfitter_cfg.c **** 
 107:Generated_Source\PSoC5/cyfitter_cfg.c **** 
 108:Generated_Source\PSoC5/cyfitter_cfg.c **** #ifdef CY_NEED_CYCLOCKSTARTUPERROR
 109:Generated_Source\PSoC5/cyfitter_cfg.c **** /*******************************************************************************
 110:Generated_Source\PSoC5/cyfitter_cfg.c **** * Function Name: CyClockStartupError
 111:Generated_Source\PSoC5/cyfitter_cfg.c **** ********************************************************************************
 112:Generated_Source\PSoC5/cyfitter_cfg.c **** * Summary:
 113:Generated_Source\PSoC5/cyfitter_cfg.c **** *  If an error is encountered during clock configuration (crystal startup error,
 114:Generated_Source\PSoC5/cyfitter_cfg.c **** *  PLL lock error, etc.), the system will end up here.  Unless reimplemented by
 115:Generated_Source\PSoC5/cyfitter_cfg.c **** *  the customer, this function will stop in an infinite loop.
 116:Generated_Source\PSoC5/cyfitter_cfg.c **** *
 117:Generated_Source\PSoC5/cyfitter_cfg.c **** * Parameters:
 118:Generated_Source\PSoC5/cyfitter_cfg.c **** *   void
 119:Generated_Source\PSoC5/cyfitter_cfg.c **** *
 120:Generated_Source\PSoC5/cyfitter_cfg.c **** * Return:
 121:Generated_Source\PSoC5/cyfitter_cfg.c **** *   void
 122:Generated_Source\PSoC5/cyfitter_cfg.c **** *
 123:Generated_Source\PSoC5/cyfitter_cfg.c **** *******************************************************************************/
 124:Generated_Source\PSoC5/cyfitter_cfg.c **** CY_CFG_UNUSED
 125:Generated_Source\PSoC5/cyfitter_cfg.c **** static void CyClockStartupError(uint8 errorCode);
 126:Generated_Source\PSoC5/cyfitter_cfg.c **** CY_CFG_UNUSED
 127:Generated_Source\PSoC5/cyfitter_cfg.c **** static void CyClockStartupError(uint8 errorCode)
 128:Generated_Source\PSoC5/cyfitter_cfg.c **** {
  27              		.loc 1 128 0
  28              		.cfi_startproc
  29              		@ Volatile: function does not return.
  30              		@ args = 0, pretend = 0, frame = 0
  31              		@ frame_needed = 0, uses_anonymous_args = 0
  32              		@ link register save eliminated.
  33              	.LVL0:
  34              	.L2:
  35 0000 FEE7     		b	.L2
  36              		.cfi_endproc
  37              	.LFE3:
  38              		.size	CyClockStartupError, .-CyClockStartupError
  39 0002 00BF     		.section	.text.cfg_write_bytes32,"ax",%progbits
  40              		.align	2
  41              		.thumb
  42              		.thumb_func
  43              		.type	cfg_write_bytes32, %function
ARM GAS  C:\Users\jebush2\AppData\Local\Temp\ccLyWgjB.s 			page 4


  44              	cfg_write_bytes32:
  45              	.LFB4:
 129:Generated_Source\PSoC5/cyfitter_cfg.c ****     /* To remove the compiler warning if errorCode not used.                */
 130:Generated_Source\PSoC5/cyfitter_cfg.c ****     errorCode = errorCode;
 131:Generated_Source\PSoC5/cyfitter_cfg.c **** 
 132:Generated_Source\PSoC5/cyfitter_cfg.c ****     /* If we have a clock startup error (bad MHz crystal, PLL lock, etc.),  */
 133:Generated_Source\PSoC5/cyfitter_cfg.c ****     /* we will end up here to allow the customer to implement something to  */
 134:Generated_Source\PSoC5/cyfitter_cfg.c ****     /* deal with the clock condition.                                       */
 135:Generated_Source\PSoC5/cyfitter_cfg.c **** 
 136:Generated_Source\PSoC5/cyfitter_cfg.c **** #ifdef CY_CFG_CLOCK_STARTUP_ERROR_CALLBACK
 137:Generated_Source\PSoC5/cyfitter_cfg.c ****     CY_CFG_Clock_Startup_ErrorCallback();
 138:Generated_Source\PSoC5/cyfitter_cfg.c **** #else
 139:Generated_Source\PSoC5/cyfitter_cfg.c ****     /*  If not using CY_CFG_CLOCK_STARTUP_ERROR_CALLBACK, place your clock startup code here. */
 140:Generated_Source\PSoC5/cyfitter_cfg.c ****     /* `#START CyClockStartupError` */
 141:Generated_Source\PSoC5/cyfitter_cfg.c **** 
 142:Generated_Source\PSoC5/cyfitter_cfg.c **** 
 143:Generated_Source\PSoC5/cyfitter_cfg.c **** 
 144:Generated_Source\PSoC5/cyfitter_cfg.c ****     /* `#END` */
 145:Generated_Source\PSoC5/cyfitter_cfg.c **** 
 146:Generated_Source\PSoC5/cyfitter_cfg.c ****     while(1) {}
 147:Generated_Source\PSoC5/cyfitter_cfg.c **** #endif /* CY_CFG_CLOCK_STARTUP_ERROR_CALLBACK */
 148:Generated_Source\PSoC5/cyfitter_cfg.c **** }
 149:Generated_Source\PSoC5/cyfitter_cfg.c **** #endif
 150:Generated_Source\PSoC5/cyfitter_cfg.c **** 
 151:Generated_Source\PSoC5/cyfitter_cfg.c **** #define CY_CFG_BASE_ADDR_COUNT 23u
 152:Generated_Source\PSoC5/cyfitter_cfg.c **** CYPACKED typedef struct
 153:Generated_Source\PSoC5/cyfitter_cfg.c **** {
 154:Generated_Source\PSoC5/cyfitter_cfg.c **** 	uint8 offset;
 155:Generated_Source\PSoC5/cyfitter_cfg.c **** 	uint8 value;
 156:Generated_Source\PSoC5/cyfitter_cfg.c **** } CYPACKED_ATTR cy_cfg_addrvalue_t;
 157:Generated_Source\PSoC5/cyfitter_cfg.c **** 
 158:Generated_Source\PSoC5/cyfitter_cfg.c **** #define cy_cfg_addr_table ((const uint32 CYFAR *)0x48000000u)
 159:Generated_Source\PSoC5/cyfitter_cfg.c **** #define cy_cfg_data_table ((const cy_cfg_addrvalue_t CYFAR *)0x4800005Cu)
 160:Generated_Source\PSoC5/cyfitter_cfg.c **** 
 161:Generated_Source\PSoC5/cyfitter_cfg.c **** /* IOPINS0_0 Address: CYREG_PRT0_DM0 Size (bytes): 8 */
 162:Generated_Source\PSoC5/cyfitter_cfg.c **** #define BS_IOPINS0_0_VAL ((const uint8 CYFAR *)0x480000FCu)
 163:Generated_Source\PSoC5/cyfitter_cfg.c **** 
 164:Generated_Source\PSoC5/cyfitter_cfg.c **** /* IOPINS0_8 Address: CYREG_PRT15_DR Size (bytes): 10 */
 165:Generated_Source\PSoC5/cyfitter_cfg.c **** #define BS_IOPINS0_8_VAL ((const uint8 CYFAR *)0x48000104u)
 166:Generated_Source\PSoC5/cyfitter_cfg.c **** 
 167:Generated_Source\PSoC5/cyfitter_cfg.c **** /* IOPINS0_1 Address: CYREG_PRT1_DM0 Size (bytes): 8 */
 168:Generated_Source\PSoC5/cyfitter_cfg.c **** #define BS_IOPINS0_1_VAL ((const uint8 CYFAR *)0x48000110u)
 169:Generated_Source\PSoC5/cyfitter_cfg.c **** 
 170:Generated_Source\PSoC5/cyfitter_cfg.c **** /* CYDEV_CLKDIST_ACFG0_CFG0 Address: CYREG_CLKDIST_ACFG0_CFG0 Size (bytes): 4 */
 171:Generated_Source\PSoC5/cyfitter_cfg.c **** #define BS_CYDEV_CLKDIST_ACFG0_CFG0_VAL ((const uint8 CYFAR *)0x48000118u)
 172:Generated_Source\PSoC5/cyfitter_cfg.c **** 
 173:Generated_Source\PSoC5/cyfitter_cfg.c **** 
 174:Generated_Source\PSoC5/cyfitter_cfg.c **** /*******************************************************************************
 175:Generated_Source\PSoC5/cyfitter_cfg.c **** * Function Name: cfg_write_bytes32
 176:Generated_Source\PSoC5/cyfitter_cfg.c **** ********************************************************************************
 177:Generated_Source\PSoC5/cyfitter_cfg.c **** * Summary:
 178:Generated_Source\PSoC5/cyfitter_cfg.c **** *  This function is used for setting up the chip configuration areas that
 179:Generated_Source\PSoC5/cyfitter_cfg.c **** *  contain relatively sparse data.
 180:Generated_Source\PSoC5/cyfitter_cfg.c **** *
 181:Generated_Source\PSoC5/cyfitter_cfg.c **** * Parameters:
 182:Generated_Source\PSoC5/cyfitter_cfg.c **** *   void
 183:Generated_Source\PSoC5/cyfitter_cfg.c **** *
ARM GAS  C:\Users\jebush2\AppData\Local\Temp\ccLyWgjB.s 			page 5


 184:Generated_Source\PSoC5/cyfitter_cfg.c **** * Return:
 185:Generated_Source\PSoC5/cyfitter_cfg.c **** *   void
 186:Generated_Source\PSoC5/cyfitter_cfg.c **** *
 187:Generated_Source\PSoC5/cyfitter_cfg.c **** *******************************************************************************/
 188:Generated_Source\PSoC5/cyfitter_cfg.c **** static void cfg_write_bytes32(const uint32 addr_table[], const cy_cfg_addrvalue_t data_table[]);
 189:Generated_Source\PSoC5/cyfitter_cfg.c **** static void cfg_write_bytes32(const uint32 addr_table[], const cy_cfg_addrvalue_t data_table[])
 190:Generated_Source\PSoC5/cyfitter_cfg.c **** {
  46              		.loc 1 190 0
  47              		.cfi_startproc
  48              		@ args = 0, pretend = 0, frame = 0
  49              		@ frame_needed = 0, uses_anonymous_args = 0
  50              		@ link register save eliminated.
  51              	.LVL1:
  52              		.loc 1 190 0
  53 0000 F0B4     		push	{r4, r5, r6, r7}
  54              		.cfi_def_cfa_offset 16
  55              		.cfi_offset 4, -16
  56              		.cfi_offset 5, -12
  57              		.cfi_offset 6, -8
  58              		.cfi_offset 7, -4
  59              	.LVL2:
 191:Generated_Source\PSoC5/cyfitter_cfg.c **** 	/* For 32-bit little-endian architectures */
 192:Generated_Source\PSoC5/cyfitter_cfg.c **** 	uint32 i, j = 0u;
  60              		.loc 1 192 0
  61 0002 0022     		movs	r2, #0
 193:Generated_Source\PSoC5/cyfitter_cfg.c **** 	for (i = 0u; i < CY_CFG_BASE_ADDR_COUNT; i++)
  62              		.loc 1 193 0
  63 0004 1746     		mov	r7, r2
  64 0006 11E0     		b	.L4
  65              	.LVL3:
  66              	.L7:
  67              	.LBB2:
 194:Generated_Source\PSoC5/cyfitter_cfg.c **** 	{
 195:Generated_Source\PSoC5/cyfitter_cfg.c **** 		uint32 baseAddr = addr_table[i];
  68              		.loc 1 195 0
  69 0008 50F82760 		ldr	r6, [r0, r7, lsl #2]
  70              	.LVL4:
 196:Generated_Source\PSoC5/cyfitter_cfg.c **** 		uint8 count = (uint8)baseAddr;
  71              		.loc 1 196 0
  72 000c F3B2     		uxtb	r3, r6
  73              	.LVL5:
 197:Generated_Source\PSoC5/cyfitter_cfg.c **** 		baseAddr &= 0xFFFFFF00u;
  74              		.loc 1 197 0
  75 000e 26F0FF06 		bic	r6, r6, #255
  76              	.LVL6:
 198:Generated_Source\PSoC5/cyfitter_cfg.c **** 		while (count != 0u)
  77              		.loc 1 198 0
  78 0012 08E0     		b	.L5
  79              	.L6:
 199:Generated_Source\PSoC5/cyfitter_cfg.c **** 		{
 200:Generated_Source\PSoC5/cyfitter_cfg.c **** 			CY_SET_REG8((void *)(baseAddr + data_table[j].offset), data_table[j].value);
  80              		.loc 1 200 0
  81 0014 01EB4205 		add	r5, r1, r2, lsl #1
  82 0018 11F81240 		ldrb	r4, [r1, r2, lsl #1]	@ zero_extendqisi2
  83 001c 6D78     		ldrb	r5, [r5, #1]	@ zero_extendqisi2
  84 001e A555     		strb	r5, [r4, r6]
 201:Generated_Source\PSoC5/cyfitter_cfg.c **** 			j++;
ARM GAS  C:\Users\jebush2\AppData\Local\Temp\ccLyWgjB.s 			page 6


  85              		.loc 1 201 0
  86 0020 0132     		adds	r2, r2, #1
  87              	.LVL7:
 202:Generated_Source\PSoC5/cyfitter_cfg.c **** 			count--;
  88              		.loc 1 202 0
  89 0022 013B     		subs	r3, r3, #1
  90              	.LVL8:
  91 0024 DBB2     		uxtb	r3, r3
  92              	.LVL9:
  93              	.L5:
 198:Generated_Source\PSoC5/cyfitter_cfg.c **** 		{
  94              		.loc 1 198 0
  95 0026 002B     		cmp	r3, #0
  96 0028 F4D1     		bne	.L6
  97              	.LBE2:
 193:Generated_Source\PSoC5/cyfitter_cfg.c **** 	{
  98              		.loc 1 193 0 discriminator 2
  99 002a 0137     		adds	r7, r7, #1
 100              	.LVL10:
 101              	.L4:
 193:Generated_Source\PSoC5/cyfitter_cfg.c **** 	{
 102              		.loc 1 193 0 is_stmt 0 discriminator 1
 103 002c 162F     		cmp	r7, #22
 104 002e EBD9     		bls	.L7
 203:Generated_Source\PSoC5/cyfitter_cfg.c **** 		}
 204:Generated_Source\PSoC5/cyfitter_cfg.c **** 	}
 205:Generated_Source\PSoC5/cyfitter_cfg.c **** }
 105              		.loc 1 205 0 is_stmt 1
 106 0030 F0BC     		pop	{r4, r5, r6, r7}
 107              		.cfi_restore 7
 108              		.cfi_restore 6
 109              		.cfi_restore 5
 110              		.cfi_restore 4
 111              		.cfi_def_cfa_offset 0
 112              	.LVL11:
 113 0032 7047     		bx	lr
 114              		.cfi_endproc
 115              	.LFE4:
 116              		.size	cfg_write_bytes32, .-cfg_write_bytes32
 117              		.section	.text.CYMEMZERO,"ax",%progbits
 118              		.align	2
 119              		.thumb
 120              		.thumb_func
 121              		.type	CYMEMZERO, %function
 122              	CYMEMZERO:
 123              	.LFB0:
  78:Generated_Source\PSoC5/cyfitter_cfg.c **** 	(void)memset(s, 0, n);
 124              		.loc 1 78 0
 125              		.cfi_startproc
 126              		@ args = 0, pretend = 0, frame = 0
 127              		@ frame_needed = 0, uses_anonymous_args = 0
 128              	.LVL12:
 129 0000 08B5     		push	{r3, lr}
 130              		.cfi_def_cfa_offset 8
 131              		.cfi_offset 3, -8
 132              		.cfi_offset 14, -4
  79:Generated_Source\PSoC5/cyfitter_cfg.c **** }
ARM GAS  C:\Users\jebush2\AppData\Local\Temp\ccLyWgjB.s 			page 7


 133              		.loc 1 79 0
 134 0002 0A46     		mov	r2, r1
 135 0004 0021     		movs	r1, #0
 136              	.LVL13:
 137 0006 FFF7FEFF 		bl	memset
 138              	.LVL14:
 139 000a 08BD     		pop	{r3, pc}
 140              		.cfi_endproc
 141              	.LFE0:
 142              		.size	CYMEMZERO, .-CYMEMZERO
 143              		.section	.text.AnalogSetDefault,"ax",%progbits
 144              		.align	2
 145              		.thumb
 146              		.thumb_func
 147              		.type	AnalogSetDefault, %function
 148              	AnalogSetDefault:
 149              	.LFB6:
 206:Generated_Source\PSoC5/cyfitter_cfg.c **** 
 207:Generated_Source\PSoC5/cyfitter_cfg.c **** /*******************************************************************************
 208:Generated_Source\PSoC5/cyfitter_cfg.c **** * Function Name: ClockSetup
 209:Generated_Source\PSoC5/cyfitter_cfg.c **** ********************************************************************************
 210:Generated_Source\PSoC5/cyfitter_cfg.c **** *
 211:Generated_Source\PSoC5/cyfitter_cfg.c **** * Summary:
 212:Generated_Source\PSoC5/cyfitter_cfg.c **** *  Performs the initialization of all of the clocks in the device based on the
 213:Generated_Source\PSoC5/cyfitter_cfg.c **** *  settings in the Clock tab of the DWR.  This includes enabling the requested
 214:Generated_Source\PSoC5/cyfitter_cfg.c **** *  clocks and setting the necessary dividers to produce the desired frequency. 
 215:Generated_Source\PSoC5/cyfitter_cfg.c **** *
 216:Generated_Source\PSoC5/cyfitter_cfg.c **** * Parameters:
 217:Generated_Source\PSoC5/cyfitter_cfg.c **** *  void
 218:Generated_Source\PSoC5/cyfitter_cfg.c **** *
 219:Generated_Source\PSoC5/cyfitter_cfg.c **** * Return:
 220:Generated_Source\PSoC5/cyfitter_cfg.c **** *  void
 221:Generated_Source\PSoC5/cyfitter_cfg.c **** *
 222:Generated_Source\PSoC5/cyfitter_cfg.c **** *******************************************************************************/
 223:Generated_Source\PSoC5/cyfitter_cfg.c **** static void ClockSetup(void);
 224:Generated_Source\PSoC5/cyfitter_cfg.c **** static void ClockSetup(void)
 225:Generated_Source\PSoC5/cyfitter_cfg.c **** {
 226:Generated_Source\PSoC5/cyfitter_cfg.c **** 	uint32 timeout;
 227:Generated_Source\PSoC5/cyfitter_cfg.c **** 	uint8 pllLock;
 228:Generated_Source\PSoC5/cyfitter_cfg.c **** 
 229:Generated_Source\PSoC5/cyfitter_cfg.c **** 
 230:Generated_Source\PSoC5/cyfitter_cfg.c **** 	/* Configure Digital Clocks based on settings from Clock DWR */
 231:Generated_Source\PSoC5/cyfitter_cfg.c **** 	CY_SET_XTND_REG16((void CYFAR *)(CYREG_CLKDIST_DCFG0_CFG0), 0x0001u);
 232:Generated_Source\PSoC5/cyfitter_cfg.c **** 	CY_SET_XTND_REG8((void CYFAR *)(CYREG_CLKDIST_DCFG0_CFG0 + 0x2u), 0x18u);
 233:Generated_Source\PSoC5/cyfitter_cfg.c **** 	CY_SET_XTND_REG16((void CYFAR *)(CYREG_CLKDIST_DCFG1_CFG0), 0x5DBFu);
 234:Generated_Source\PSoC5/cyfitter_cfg.c **** 	CY_SET_XTND_REG8((void CYFAR *)(CYREG_CLKDIST_DCFG1_CFG0 + 0x2u), 0x18u);
 235:Generated_Source\PSoC5/cyfitter_cfg.c **** 
 236:Generated_Source\PSoC5/cyfitter_cfg.c **** 	/* Configure Analog Clocks based on settings from Clock DWR */
 237:Generated_Source\PSoC5/cyfitter_cfg.c **** 	CYCONFIGCPY((void CYFAR *)(CYREG_CLKDIST_ACFG0_CFG0), (const void CYFAR *)(BS_CYDEV_CLKDIST_ACFG0_
 238:Generated_Source\PSoC5/cyfitter_cfg.c **** 
 239:Generated_Source\PSoC5/cyfitter_cfg.c **** 	/* Configure ILO based on settings from Clock DWR */
 240:Generated_Source\PSoC5/cyfitter_cfg.c **** 	CY_SET_XTND_REG8((void CYFAR *)(CYREG_SLOWCLK_ILO_CR0), 0x06u);
 241:Generated_Source\PSoC5/cyfitter_cfg.c **** 
 242:Generated_Source\PSoC5/cyfitter_cfg.c **** 	/* Configure IMO based on settings from Clock DWR */
 243:Generated_Source\PSoC5/cyfitter_cfg.c **** 	CY_SET_XTND_REG8((void CYFAR *)(CYREG_FASTCLK_IMO_CR), 0x52u);
 244:Generated_Source\PSoC5/cyfitter_cfg.c **** 	CY_SET_XTND_REG8((void CYFAR *)(CYREG_IMO_TR1), (CY_GET_XTND_REG8((void CYFAR *)CYREG_FLSHID_CUST_
 245:Generated_Source\PSoC5/cyfitter_cfg.c **** 
ARM GAS  C:\Users\jebush2\AppData\Local\Temp\ccLyWgjB.s 			page 8


 246:Generated_Source\PSoC5/cyfitter_cfg.c **** 	/* Configure PLL based on settings from Clock DWR */
 247:Generated_Source\PSoC5/cyfitter_cfg.c **** 	CY_SET_XTND_REG16((void CYFAR *)(CYREG_FASTCLK_PLL_P), 0x0708u);
 248:Generated_Source\PSoC5/cyfitter_cfg.c **** 	CY_SET_XTND_REG16((void CYFAR *)(CYREG_FASTCLK_PLL_CFG0), 0x1251u);
 249:Generated_Source\PSoC5/cyfitter_cfg.c **** 	/* Wait up to 250us for the PLL to lock */
 250:Generated_Source\PSoC5/cyfitter_cfg.c **** 	pllLock = 0u;
 251:Generated_Source\PSoC5/cyfitter_cfg.c **** 	for (timeout = 250u / 10u; (timeout > 0u) && (pllLock != 0x03u); timeout--)
 252:Generated_Source\PSoC5/cyfitter_cfg.c **** 	{ 
 253:Generated_Source\PSoC5/cyfitter_cfg.c **** 		pllLock = 0x03u & ((uint8)((uint8)pllLock << 1) | ((CY_GET_XTND_REG8((void CYFAR *)CYREG_FASTCLK_
 254:Generated_Source\PSoC5/cyfitter_cfg.c **** 		CyDelayCycles(10u * 48u); /* Delay 10us based on 48MHz clock */
 255:Generated_Source\PSoC5/cyfitter_cfg.c **** 	}
 256:Generated_Source\PSoC5/cyfitter_cfg.c **** 	/* If we ran out of time the PLL didn't lock so go to the error function */
 257:Generated_Source\PSoC5/cyfitter_cfg.c **** 	if (timeout == 0u)
 258:Generated_Source\PSoC5/cyfitter_cfg.c **** 	{
 259:Generated_Source\PSoC5/cyfitter_cfg.c **** 		CyClockStartupError(CYCLOCKSTART_PLL_ERROR);
 260:Generated_Source\PSoC5/cyfitter_cfg.c **** 	}
 261:Generated_Source\PSoC5/cyfitter_cfg.c **** 
 262:Generated_Source\PSoC5/cyfitter_cfg.c **** 	/* Configure Bus/Master Clock based on settings from Clock DWR */
 263:Generated_Source\PSoC5/cyfitter_cfg.c **** 	CY_SET_XTND_REG16((void CYFAR *)(CYREG_CLKDIST_MSTR0), 0x0100u);
 264:Generated_Source\PSoC5/cyfitter_cfg.c **** 	CY_SET_XTND_REG8((void CYFAR *)(CYREG_CLKDIST_MSTR0), 0x07u);
 265:Generated_Source\PSoC5/cyfitter_cfg.c **** 	CY_SET_XTND_REG8((void CYFAR *)(CYREG_CLKDIST_BCFG0), 0x00u);
 266:Generated_Source\PSoC5/cyfitter_cfg.c **** 	CY_SET_XTND_REG8((void CYFAR *)(CYREG_CLKDIST_BCFG2), 0x48u);
 267:Generated_Source\PSoC5/cyfitter_cfg.c **** 	CY_SET_XTND_REG8((void CYFAR *)(CYREG_CLKDIST_MSTR0), 0x00u);
 268:Generated_Source\PSoC5/cyfitter_cfg.c **** 
 269:Generated_Source\PSoC5/cyfitter_cfg.c **** 	/* Configure USB Clock based on settings from Clock DWR */
 270:Generated_Source\PSoC5/cyfitter_cfg.c **** 	CY_SET_XTND_REG8((void CYFAR *)(CYREG_CLKDIST_UCFG), 0x00u);
 271:Generated_Source\PSoC5/cyfitter_cfg.c **** 	CY_SET_XTND_REG8((void CYFAR *)(CYREG_CLKDIST_LD), 0x02u);
 272:Generated_Source\PSoC5/cyfitter_cfg.c **** 	CY_SET_XTND_REG8((void CYFAR *)(CYREG_CLKDIST_DLY1), 0x04u);
 273:Generated_Source\PSoC5/cyfitter_cfg.c **** 
 274:Generated_Source\PSoC5/cyfitter_cfg.c **** 	CY_SET_XTND_REG8((void CYFAR *)(CYREG_PM_ACT_CFG2), ((CY_GET_XTND_REG8((void CYFAR *)CYREG_PM_ACT_
 275:Generated_Source\PSoC5/cyfitter_cfg.c **** 	CY_SET_XTND_REG8((void CYFAR *)(CYREG_PM_ACT_CFG1), ((CY_GET_XTND_REG8((void CYFAR *)CYREG_PM_ACT_
 276:Generated_Source\PSoC5/cyfitter_cfg.c **** 	CY_SET_XTND_REG8((void CYFAR *)(CYREG_PM_ACT_CFG0), ((CY_GET_XTND_REG8((void CYFAR *)CYREG_PM_ACT_
 277:Generated_Source\PSoC5/cyfitter_cfg.c **** }
 278:Generated_Source\PSoC5/cyfitter_cfg.c **** 
 279:Generated_Source\PSoC5/cyfitter_cfg.c **** 
 280:Generated_Source\PSoC5/cyfitter_cfg.c **** /* Analog API Functions */
 281:Generated_Source\PSoC5/cyfitter_cfg.c **** 
 282:Generated_Source\PSoC5/cyfitter_cfg.c **** 
 283:Generated_Source\PSoC5/cyfitter_cfg.c **** /*******************************************************************************
 284:Generated_Source\PSoC5/cyfitter_cfg.c **** * Function Name: AnalogSetDefault
 285:Generated_Source\PSoC5/cyfitter_cfg.c **** ********************************************************************************
 286:Generated_Source\PSoC5/cyfitter_cfg.c **** *
 287:Generated_Source\PSoC5/cyfitter_cfg.c **** * Summary:
 288:Generated_Source\PSoC5/cyfitter_cfg.c **** *  Sets up the analog portions of the chip to default values based on chip
 289:Generated_Source\PSoC5/cyfitter_cfg.c **** *  configuration options from the project.
 290:Generated_Source\PSoC5/cyfitter_cfg.c **** *
 291:Generated_Source\PSoC5/cyfitter_cfg.c **** * Parameters:
 292:Generated_Source\PSoC5/cyfitter_cfg.c **** *  void
 293:Generated_Source\PSoC5/cyfitter_cfg.c **** *
 294:Generated_Source\PSoC5/cyfitter_cfg.c **** * Return:
 295:Generated_Source\PSoC5/cyfitter_cfg.c **** *  void
 296:Generated_Source\PSoC5/cyfitter_cfg.c **** *
 297:Generated_Source\PSoC5/cyfitter_cfg.c **** *******************************************************************************/
 298:Generated_Source\PSoC5/cyfitter_cfg.c **** static void AnalogSetDefault(void);
 299:Generated_Source\PSoC5/cyfitter_cfg.c **** static void AnalogSetDefault(void)
 300:Generated_Source\PSoC5/cyfitter_cfg.c **** {
 150              		.loc 1 300 0
 151              		.cfi_startproc
ARM GAS  C:\Users\jebush2\AppData\Local\Temp\ccLyWgjB.s 			page 9


 152              		@ args = 0, pretend = 0, frame = 0
 153              		@ frame_needed = 0, uses_anonymous_args = 0
 154 0000 F8B5     		push	{r3, r4, r5, r6, r7, lr}
 155              		.cfi_def_cfa_offset 24
 156              		.cfi_offset 3, -24
 157              		.cfi_offset 4, -20
 158              		.cfi_offset 5, -16
 159              		.cfi_offset 6, -12
 160              		.cfi_offset 7, -8
 161              		.cfi_offset 14, -4
 301:Generated_Source\PSoC5/cyfitter_cfg.c **** 	uint8 bg_xover_inl_trim = CY_GET_XTND_REG8((void CYFAR *)(CYREG_FLSHID_MFG_CFG_BG_XOVER_INL_TRIM +
 162              		.loc 1 301 0
 163 0002 164B     		ldr	r3, .L13
 164 0004 1B78     		ldrb	r3, [r3]	@ zero_extendqisi2
 165 0006 DBB2     		uxtb	r3, r3
 166              	.LVL15:
 302:Generated_Source\PSoC5/cyfitter_cfg.c **** 	uint8 cr4 = CY_GET_XTND_REG8((void CYFAR *)(CYREG_RESET_CR4));
 167              		.loc 1 302 0
 168 0008 154E     		ldr	r6, .L13+4
 169 000a 3478     		ldrb	r4, [r6]	@ zero_extendqisi2
 170 000c E4B2     		uxtb	r4, r4
 171              	.LVL16:
 303:Generated_Source\PSoC5/cyfitter_cfg.c **** 	uint8 cr5 = CY_GET_XTND_REG8((void CYFAR *)(CYREG_RESET_CR5));
 172              		.loc 1 303 0
 173 000e 154F     		ldr	r7, .L13+8
 174 0010 3D78     		ldrb	r5, [r7]	@ zero_extendqisi2
 175 0012 EDB2     		uxtb	r5, r5
 176              	.LVL17:
 304:Generated_Source\PSoC5/cyfitter_cfg.c **** 	CY_SET_XTND_REG8((void CYFAR *)(CYREG_BG_DFT0), (bg_xover_inl_trim & 0x07u));
 177              		.loc 1 304 0
 178 0014 03F00701 		and	r1, r3, #7
 179 0018 134A     		ldr	r2, .L13+12
 180 001a 1170     		strb	r1, [r2]
 305:Generated_Source\PSoC5/cyfitter_cfg.c **** 	CY_SET_XTND_REG8((void CYFAR *)(CYREG_BG_DFT1), ((bg_xover_inl_trim >> 4) & 0x0Fu));
 181              		.loc 1 305 0
 182 001c 1B09     		lsrs	r3, r3, #4
 183              	.LVL18:
 184 001e 0132     		adds	r2, r2, #1
 185 0020 1370     		strb	r3, [r2]
 306:Generated_Source\PSoC5/cyfitter_cfg.c **** 	/* Disable PRES while setting up SAR voltage reference */
 307:Generated_Source\PSoC5/cyfitter_cfg.c **** 	CY_SET_XTND_REG8((void CYFAR *)(CYREG_RESET_CR4), (cr4 | 0x03u));
 186              		.loc 1 307 0
 187 0022 44F00303 		orr	r3, r4, #3
 188 0026 3370     		strb	r3, [r6]
 308:Generated_Source\PSoC5/cyfitter_cfg.c **** 	CY_SET_XTND_REG8((void CYFAR *)(CYREG_RESET_CR5), (cr5 | 0x03u));
 189              		.loc 1 308 0
 190 0028 45F00303 		orr	r3, r5, #3
 191 002c 3B70     		strb	r3, [r7]
 309:Generated_Source\PSoC5/cyfitter_cfg.c **** 	CY_SET_XTND_REG8((void CYFAR *)CYREG_PRT0_AG, 0x04u);
 192              		.loc 1 309 0
 193 002e 0422     		movs	r2, #4
 194 0030 0E4B     		ldr	r3, .L13+16
 195 0032 1A70     		strb	r2, [r3]
 310:Generated_Source\PSoC5/cyfitter_cfg.c **** 	CY_SET_XTND_REG8((void CYFAR *)CYREG_SAR0_CSR1, 0x80u);
 196              		.loc 1 310 0
 197 0034 8022     		movs	r2, #128
 198 0036 03F2F473 		addw	r3, r3, #2036
ARM GAS  C:\Users\jebush2\AppData\Local\Temp\ccLyWgjB.s 			page 10


 199 003a 1A70     		strb	r2, [r3]
 311:Generated_Source\PSoC5/cyfitter_cfg.c **** 	CY_SET_XTND_REG8((void CYFAR *)CYREG_SAR0_SW0, 0x40u);
 200              		.loc 1 311 0
 201 003c 4022     		movs	r2, #64
 202 003e 03F21F23 		addw	r3, r3, #543
 203 0042 1A70     		strb	r2, [r3]
 312:Generated_Source\PSoC5/cyfitter_cfg.c **** 	CY_SET_XTND_REG8((void CYFAR *)CYREG_SAR0_SW3, 0x20u);
 204              		.loc 1 312 0
 205 0044 2022     		movs	r2, #32
 206 0046 0333     		adds	r3, r3, #3
 207 0048 1A70     		strb	r2, [r3]
 313:Generated_Source\PSoC5/cyfitter_cfg.c **** 	CyDelayUs(10u); /* Allow vref to settle before re-enabling PRES */
 208              		.loc 1 313 0
 209 004a 0A20     		movs	r0, #10
 210 004c FFF7FEFF 		bl	CyDelayUs
 211              	.LVL19:
 314:Generated_Source\PSoC5/cyfitter_cfg.c **** 	CY_SET_XTND_REG8((void CYFAR *)(CYREG_RESET_CR5), (cr5));
 212              		.loc 1 314 0
 213 0050 3D70     		strb	r5, [r7]
 315:Generated_Source\PSoC5/cyfitter_cfg.c **** 	CY_SET_XTND_REG8((void CYFAR *)(CYREG_RESET_CR4), (cr4));
 214              		.loc 1 315 0
 215 0052 3470     		strb	r4, [r6]
 316:Generated_Source\PSoC5/cyfitter_cfg.c **** 	CY_SET_XTND_REG8((void CYFAR *)CYREG_PUMP_CR0, 0x44u);
 216              		.loc 1 316 0
 217 0054 4422     		movs	r2, #68
 218 0056 064B     		ldr	r3, .L13+20
 219 0058 1A70     		strb	r2, [r3]
 220 005a F8BD     		pop	{r3, r4, r5, r6, r7, pc}
 221              	.LVL20:
 222              	.L14:
 223              		.align	2
 224              	.L13:
 225 005c CF010049 		.word	1224737231
 226 0060 F8460040 		.word	1073759992
 227 0064 F9460040 		.word	1073759993
 228 0068 6E580040 		.word	1073764462
 229 006c 0D510040 		.word	1073762573
 230 0070 76580040 		.word	1073764470
 231              		.cfi_endproc
 232              	.LFE6:
 233              		.size	AnalogSetDefault, .-AnalogSetDefault
 234              		.section	.text.CYCONFIGCPY,"ax",%progbits
 235              		.align	2
 236              		.thumb
 237              		.thumb_func
 238              		.type	CYCONFIGCPY, %function
 239              	CYCONFIGCPY:
 240              	.LFB1:
  85:Generated_Source\PSoC5/cyfitter_cfg.c **** 	(void)memcpy(dest, src, n);
 241              		.loc 1 85 0
 242              		.cfi_startproc
 243              		@ args = 0, pretend = 0, frame = 0
 244              		@ frame_needed = 0, uses_anonymous_args = 0
 245              	.LVL21:
 246 0000 08B5     		push	{r3, lr}
 247              		.cfi_def_cfa_offset 8
 248              		.cfi_offset 3, -8
ARM GAS  C:\Users\jebush2\AppData\Local\Temp\ccLyWgjB.s 			page 11


 249              		.cfi_offset 14, -4
  86:Generated_Source\PSoC5/cyfitter_cfg.c **** }
 250              		.loc 1 86 0
 251 0002 FFF7FEFF 		bl	memcpy
 252              	.LVL22:
 253 0006 08BD     		pop	{r3, pc}
 254              		.cfi_endproc
 255              	.LFE1:
 256              		.size	CYCONFIGCPY, .-CYCONFIGCPY
 257              		.section	.text.ClockSetup,"ax",%progbits
 258              		.align	2
 259              		.thumb
 260              		.thumb_func
 261              		.type	ClockSetup, %function
 262              	ClockSetup:
 263              	.LFB5:
 225:Generated_Source\PSoC5/cyfitter_cfg.c **** 	uint32 timeout;
 264              		.loc 1 225 0
 265              		.cfi_startproc
 266              		@ args = 0, pretend = 0, frame = 0
 267              		@ frame_needed = 0, uses_anonymous_args = 0
 268 0000 38B5     		push	{r3, r4, r5, lr}
 269              		.cfi_def_cfa_offset 16
 270              		.cfi_offset 3, -16
 271              		.cfi_offset 4, -12
 272              		.cfi_offset 5, -8
 273              		.cfi_offset 14, -4
 231:Generated_Source\PSoC5/cyfitter_cfg.c **** 	CY_SET_XTND_REG8((void CYFAR *)(CYREG_CLKDIST_DCFG0_CFG0 + 0x2u), 0x18u);
 274              		.loc 1 231 0
 275 0002 0122     		movs	r2, #1
 276 0004 2F4B     		ldr	r3, .L23
 277 0006 1A80     		strh	r2, [r3]	@ movhi
 232:Generated_Source\PSoC5/cyfitter_cfg.c **** 	CY_SET_XTND_REG16((void CYFAR *)(CYREG_CLKDIST_DCFG1_CFG0), 0x5DBFu);
 278              		.loc 1 232 0
 279 0008 1823     		movs	r3, #24
 280 000a 2F4A     		ldr	r2, .L23+4
 281 000c 1370     		strb	r3, [r2]
 233:Generated_Source\PSoC5/cyfitter_cfg.c **** 	CY_SET_XTND_REG8((void CYFAR *)(CYREG_CLKDIST_DCFG1_CFG0 + 0x2u), 0x18u);
 282              		.loc 1 233 0
 283 000e 45F6BF51 		movw	r1, #23999
 284 0012 0232     		adds	r2, r2, #2
 285 0014 1180     		strh	r1, [r2]	@ movhi
 234:Generated_Source\PSoC5/cyfitter_cfg.c **** 
 286              		.loc 1 234 0
 287 0016 0232     		adds	r2, r2, #2
 288 0018 1370     		strb	r3, [r2]
 237:Generated_Source\PSoC5/cyfitter_cfg.c **** 
 289              		.loc 1 237 0
 290 001a 0422     		movs	r2, #4
 291 001c 2B49     		ldr	r1, .L23+8
 292 001e 2C48     		ldr	r0, .L23+12
 293 0020 FFF7FEFF 		bl	CYCONFIGCPY
 294              	.LVL23:
 240:Generated_Source\PSoC5/cyfitter_cfg.c **** 
 295              		.loc 1 240 0
 296 0024 0622     		movs	r2, #6
 297 0026 2B4B     		ldr	r3, .L23+16
ARM GAS  C:\Users\jebush2\AppData\Local\Temp\ccLyWgjB.s 			page 12


 298 0028 1A70     		strb	r2, [r3]
 243:Generated_Source\PSoC5/cyfitter_cfg.c **** 	CY_SET_XTND_REG8((void CYFAR *)(CYREG_IMO_TR1), (CY_GET_XTND_REG8((void CYFAR *)CYREG_FLSHID_CUST_
 299              		.loc 1 243 0
 300 002a 5222     		movs	r2, #82
 301 002c A3F58073 		sub	r3, r3, #256
 302 0030 1A70     		strb	r2, [r3]
 244:Generated_Source\PSoC5/cyfitter_cfg.c **** 
 303              		.loc 1 244 0
 304 0032 294B     		ldr	r3, .L23+20
 305 0034 1B78     		ldrb	r3, [r3]	@ zero_extendqisi2
 306 0036 DBB2     		uxtb	r3, r3
 307 0038 284A     		ldr	r2, .L23+24
 308 003a 1370     		strb	r3, [r2]
 247:Generated_Source\PSoC5/cyfitter_cfg.c **** 	CY_SET_XTND_REG16((void CYFAR *)(CYREG_FASTCLK_PLL_CFG0), 0x1251u);
 309              		.loc 1 247 0
 310 003c 4FF4E162 		mov	r2, #1800
 311 0040 274B     		ldr	r3, .L23+28
 312 0042 1A80     		strh	r2, [r3]	@ movhi
 248:Generated_Source\PSoC5/cyfitter_cfg.c **** 	/* Wait up to 250us for the PLL to lock */
 313              		.loc 1 248 0
 314 0044 41F25122 		movw	r2, #4689
 315 0048 023B     		subs	r3, r3, #2
 316 004a 1A80     		strh	r2, [r3]	@ movhi
 317              	.LVL24:
 250:Generated_Source\PSoC5/cyfitter_cfg.c **** 	for (timeout = 250u / 10u; (timeout > 0u) && (pllLock != 0x03u); timeout--)
 318              		.loc 1 250 0
 319 004c 0024     		movs	r4, #0
 251:Generated_Source\PSoC5/cyfitter_cfg.c **** 	{ 
 320              		.loc 1 251 0
 321 004e 1925     		movs	r5, #25
 322 0050 0CE0     		b	.L18
 323              	.LVL25:
 324              	.L20:
 253:Generated_Source\PSoC5/cyfitter_cfg.c **** 		CyDelayCycles(10u * 48u); /* Delay 10us based on 48MHz clock */
 325              		.loc 1 253 0 discriminator 4
 326 0052 244B     		ldr	r3, .L23+32
 327 0054 1B78     		ldrb	r3, [r3]	@ zero_extendqisi2
 328 0056 03F00103 		and	r3, r3, #1
 329 005a 43EA4404 		orr	r4, r3, r4, lsl #1
 330              	.LVL26:
 331 005e 04F00304 		and	r4, r4, #3
 332              	.LVL27:
 254:Generated_Source\PSoC5/cyfitter_cfg.c **** 	}
 333              		.loc 1 254 0 discriminator 4
 334 0062 4FF4F070 		mov	r0, #480
 335 0066 FFF7FEFF 		bl	CyDelayCycles
 336              	.LVL28:
 251:Generated_Source\PSoC5/cyfitter_cfg.c **** 	{ 
 337              		.loc 1 251 0 discriminator 4
 338 006a 013D     		subs	r5, r5, #1
 339              	.LVL29:
 340              	.L18:
 251:Generated_Source\PSoC5/cyfitter_cfg.c **** 	{ 
 341              		.loc 1 251 0 is_stmt 0 discriminator 1
 342 006c 0DB1     		cbz	r5, .L19
 251:Generated_Source\PSoC5/cyfitter_cfg.c **** 	{ 
 343              		.loc 1 251 0 discriminator 3
ARM GAS  C:\Users\jebush2\AppData\Local\Temp\ccLyWgjB.s 			page 13


 344 006e 032C     		cmp	r4, #3
 345 0070 EFD1     		bne	.L20
 346              	.L19:
 257:Generated_Source\PSoC5/cyfitter_cfg.c **** 	{
 347              		.loc 1 257 0 is_stmt 1
 348 0072 15B9     		cbnz	r5, .L21
 259:Generated_Source\PSoC5/cyfitter_cfg.c **** 	}
 349              		.loc 1 259 0
 350 0074 0320     		movs	r0, #3
 351 0076 FFF7FEFF 		bl	CyClockStartupError
 352              	.LVL30:
 353              	.L21:
 263:Generated_Source\PSoC5/cyfitter_cfg.c **** 	CY_SET_XTND_REG8((void CYFAR *)(CYREG_CLKDIST_MSTR0), 0x07u);
 354              		.loc 1 263 0
 355 007a 1B4A     		ldr	r2, .L23+36
 356 007c 4FF48073 		mov	r3, #256
 357 0080 1380     		strh	r3, [r2]	@ movhi
 264:Generated_Source\PSoC5/cyfitter_cfg.c **** 	CY_SET_XTND_REG8((void CYFAR *)(CYREG_CLKDIST_BCFG0), 0x00u);
 358              		.loc 1 264 0
 359 0082 0723     		movs	r3, #7
 360 0084 1370     		strb	r3, [r2]
 265:Generated_Source\PSoC5/cyfitter_cfg.c **** 	CY_SET_XTND_REG8((void CYFAR *)(CYREG_CLKDIST_BCFG2), 0x48u);
 361              		.loc 1 265 0
 362 0086 0023     		movs	r3, #0
 363 0088 1849     		ldr	r1, .L23+40
 364 008a 0B70     		strb	r3, [r1]
 266:Generated_Source\PSoC5/cyfitter_cfg.c **** 	CY_SET_XTND_REG8((void CYFAR *)(CYREG_CLKDIST_MSTR0), 0x00u);
 365              		.loc 1 266 0
 366 008c 4820     		movs	r0, #72
 367 008e 0231     		adds	r1, r1, #2
 368 0090 0870     		strb	r0, [r1]
 267:Generated_Source\PSoC5/cyfitter_cfg.c **** 
 369              		.loc 1 267 0
 370 0092 1370     		strb	r3, [r2]
 270:Generated_Source\PSoC5/cyfitter_cfg.c **** 	CY_SET_XTND_REG8((void CYFAR *)(CYREG_CLKDIST_LD), 0x02u);
 371              		.loc 1 270 0
 372 0094 0532     		adds	r2, r2, #5
 373 0096 1370     		strb	r3, [r2]
 271:Generated_Source\PSoC5/cyfitter_cfg.c **** 	CY_SET_XTND_REG8((void CYFAR *)(CYREG_CLKDIST_DLY1), 0x04u);
 374              		.loc 1 271 0
 375 0098 0222     		movs	r2, #2
 376 009a 154B     		ldr	r3, .L23+44
 377 009c 1A70     		strb	r2, [r3]
 272:Generated_Source\PSoC5/cyfitter_cfg.c **** 
 378              		.loc 1 272 0
 379 009e 0422     		movs	r2, #4
 380 00a0 0A33     		adds	r3, r3, #10
 381 00a2 1A70     		strb	r2, [r3]
 274:Generated_Source\PSoC5/cyfitter_cfg.c **** 	CY_SET_XTND_REG8((void CYFAR *)(CYREG_PM_ACT_CFG1), ((CY_GET_XTND_REG8((void CYFAR *)CYREG_PM_ACT_
 382              		.loc 1 274 0
 383 00a4 134A     		ldr	r2, .L23+48
 384 00a6 1378     		ldrb	r3, [r2]	@ zero_extendqisi2
 385 00a8 43F00303 		orr	r3, r3, #3
 386 00ac 1370     		strb	r3, [r2]
 275:Generated_Source\PSoC5/cyfitter_cfg.c **** 	CY_SET_XTND_REG8((void CYFAR *)(CYREG_PM_ACT_CFG0), ((CY_GET_XTND_REG8((void CYFAR *)CYREG_PM_ACT_
 387              		.loc 1 275 0
 388 00ae 013A     		subs	r2, r2, #1
ARM GAS  C:\Users\jebush2\AppData\Local\Temp\ccLyWgjB.s 			page 14


 389 00b0 1378     		ldrb	r3, [r2]	@ zero_extendqisi2
 390 00b2 43F00103 		orr	r3, r3, #1
 391 00b6 1370     		strb	r3, [r2]
 276:Generated_Source\PSoC5/cyfitter_cfg.c **** }
 392              		.loc 1 276 0
 393 00b8 013A     		subs	r2, r2, #1
 394 00ba 1378     		ldrb	r3, [r2]	@ zero_extendqisi2
 395 00bc 43F08003 		orr	r3, r3, #128
 396 00c0 1370     		strb	r3, [r2]
 397 00c2 38BD     		pop	{r3, r4, r5, pc}
 398              	.LVL31:
 399              	.L24:
 400              		.align	2
 401              	.L23:
 402 00c4 80400040 		.word	1073758336
 403 00c8 82400040 		.word	1073758338
 404 00cc 18010048 		.word	1207959832
 405 00d0 00410040 		.word	1073758464
 406 00d4 00430040 		.word	1073758976
 407 00d8 0F010049 		.word	1224737039
 408 00dc A1460040 		.word	1073759905
 409 00e0 22420040 		.word	1073758754
 410 00e4 25420040 		.word	1073758757
 411 00e8 04400040 		.word	1073758212
 412 00ec 06400040 		.word	1073758214
 413 00f0 01400040 		.word	1073758209
 414 00f4 A2430040 		.word	1073759138
 415              		.cfi_endproc
 416              	.LFE5:
 417              		.size	ClockSetup, .-ClockSetup
 418              		.section	.text.SetAnalogRoutingPumps,"ax",%progbits
 419              		.align	2
 420              		.global	SetAnalogRoutingPumps
 421              		.thumb
 422              		.thumb_func
 423              		.type	SetAnalogRoutingPumps, %function
 424              	SetAnalogRoutingPumps:
 425              	.LFB7:
 317:Generated_Source\PSoC5/cyfitter_cfg.c **** }
 318:Generated_Source\PSoC5/cyfitter_cfg.c **** 
 319:Generated_Source\PSoC5/cyfitter_cfg.c **** 
 320:Generated_Source\PSoC5/cyfitter_cfg.c **** /*******************************************************************************
 321:Generated_Source\PSoC5/cyfitter_cfg.c **** * Function Name: SetAnalogRoutingPumps
 322:Generated_Source\PSoC5/cyfitter_cfg.c **** ********************************************************************************
 323:Generated_Source\PSoC5/cyfitter_cfg.c **** *
 324:Generated_Source\PSoC5/cyfitter_cfg.c **** * Summary:
 325:Generated_Source\PSoC5/cyfitter_cfg.c **** * Enables or disables the analog pumps feeding analog routing switches.
 326:Generated_Source\PSoC5/cyfitter_cfg.c **** * Intended to be called at startup, based on the Vdda system configuration;
 327:Generated_Source\PSoC5/cyfitter_cfg.c **** * may be called during operation when the user informs us that the Vdda voltage
 328:Generated_Source\PSoC5/cyfitter_cfg.c **** * crossed the pump threshold.
 329:Generated_Source\PSoC5/cyfitter_cfg.c **** *
 330:Generated_Source\PSoC5/cyfitter_cfg.c **** * Parameters:
 331:Generated_Source\PSoC5/cyfitter_cfg.c **** *  enabled - 1 to enable the pumps, 0 to disable the pumps
 332:Generated_Source\PSoC5/cyfitter_cfg.c **** *
 333:Generated_Source\PSoC5/cyfitter_cfg.c **** * Return:
 334:Generated_Source\PSoC5/cyfitter_cfg.c **** *  void
 335:Generated_Source\PSoC5/cyfitter_cfg.c **** *
ARM GAS  C:\Users\jebush2\AppData\Local\Temp\ccLyWgjB.s 			page 15


 336:Generated_Source\PSoC5/cyfitter_cfg.c **** *******************************************************************************/
 337:Generated_Source\PSoC5/cyfitter_cfg.c **** void SetAnalogRoutingPumps(uint8 enabled)
 338:Generated_Source\PSoC5/cyfitter_cfg.c **** {
 426              		.loc 1 338 0
 427              		.cfi_startproc
 428              		@ args = 0, pretend = 0, frame = 0
 429              		@ frame_needed = 0, uses_anonymous_args = 0
 430              		@ link register save eliminated.
 431              	.LVL32:
 339:Generated_Source\PSoC5/cyfitter_cfg.c **** 	uint8 regValue = CY_GET_XTND_REG8((void CYFAR *)CYREG_PUMP_CR0);
 432              		.loc 1 339 0
 433 0000 054B     		ldr	r3, .L28
 434 0002 1B78     		ldrb	r3, [r3]	@ zero_extendqisi2
 435 0004 DBB2     		uxtb	r3, r3
 436              	.LVL33:
 340:Generated_Source\PSoC5/cyfitter_cfg.c **** 	if (enabled != 0u)
 437              		.loc 1 340 0
 438 0006 10B1     		cbz	r0, .L26
 341:Generated_Source\PSoC5/cyfitter_cfg.c **** 	{
 342:Generated_Source\PSoC5/cyfitter_cfg.c **** 		regValue |= 0x22u;
 439              		.loc 1 342 0
 440 0008 43F02203 		orr	r3, r3, #34
 441              	.LVL34:
 442 000c 01E0     		b	.L27
 443              	.L26:
 343:Generated_Source\PSoC5/cyfitter_cfg.c **** 	}
 344:Generated_Source\PSoC5/cyfitter_cfg.c **** 	else
 345:Generated_Source\PSoC5/cyfitter_cfg.c **** 	{
 346:Generated_Source\PSoC5/cyfitter_cfg.c **** 		regValue &= (uint8)~0x22u;
 444              		.loc 1 346 0
 445 000e 03F0DD03 		and	r3, r3, #221
 446              	.LVL35:
 447              	.L27:
 347:Generated_Source\PSoC5/cyfitter_cfg.c **** 	}
 348:Generated_Source\PSoC5/cyfitter_cfg.c **** 	CY_SET_XTND_REG8((void CYFAR *)CYREG_PUMP_CR0, regValue);
 448              		.loc 1 348 0
 449 0012 014A     		ldr	r2, .L28
 450 0014 1370     		strb	r3, [r2]
 451 0016 7047     		bx	lr
 452              	.L29:
 453              		.align	2
 454              	.L28:
 455 0018 76580040 		.word	1073764470
 456              		.cfi_endproc
 457              	.LFE7:
 458              		.size	SetAnalogRoutingPumps, .-SetAnalogRoutingPumps
 459              		.section	.text.AMuxSeq_1_DisconnectAll,"ax",%progbits
 460              		.align	2
 461              		.global	AMuxSeq_1_DisconnectAll
 462              		.thumb
 463              		.thumb_func
 464              		.type	AMuxSeq_1_DisconnectAll, %function
 465              	AMuxSeq_1_DisconnectAll:
 466              	.LFB8:
 349:Generated_Source\PSoC5/cyfitter_cfg.c **** }
 350:Generated_Source\PSoC5/cyfitter_cfg.c **** 
 351:Generated_Source\PSoC5/cyfitter_cfg.c **** 
ARM GAS  C:\Users\jebush2\AppData\Local\Temp\ccLyWgjB.s 			page 16


 352:Generated_Source\PSoC5/cyfitter_cfg.c **** #define CY_AMUX_UNUSED CYREG_BOOST_SR
 353:Generated_Source\PSoC5/cyfitter_cfg.c **** int8 AMuxSeq_1_curChannel = -1;
 354:Generated_Source\PSoC5/cyfitter_cfg.c **** 
 355:Generated_Source\PSoC5/cyfitter_cfg.c **** void AMuxSeq_1_DisconnectAll(void)
 356:Generated_Source\PSoC5/cyfitter_cfg.c **** {
 467              		.loc 1 356 0
 468              		.cfi_startproc
 469              		@ args = 0, pretend = 0, frame = 0
 470              		@ frame_needed = 0, uses_anonymous_args = 0
 471              		@ link register save eliminated.
 357:Generated_Source\PSoC5/cyfitter_cfg.c **** 	AMuxSeq_1_curChannel = -1;
 472              		.loc 1 357 0
 473 0000 FF22     		movs	r2, #255
 474 0002 014B     		ldr	r3, .L31
 475 0004 1A70     		strb	r2, [r3]
 476 0006 7047     		bx	lr
 477              	.L32:
 478              		.align	2
 479              	.L31:
 480 0008 00000000 		.word	.LANCHOR0
 481              		.cfi_endproc
 482              	.LFE8:
 483              		.size	AMuxSeq_1_DisconnectAll, .-AMuxSeq_1_DisconnectAll
 484              		.section	.text.AMuxSeq_1_Next,"ax",%progbits
 485              		.align	2
 486              		.global	AMuxSeq_1_Next
 487              		.thumb
 488              		.thumb_func
 489              		.type	AMuxSeq_1_Next, %function
 490              	AMuxSeq_1_Next:
 491              	.LFB9:
 358:Generated_Source\PSoC5/cyfitter_cfg.c **** }
 359:Generated_Source\PSoC5/cyfitter_cfg.c **** 
 360:Generated_Source\PSoC5/cyfitter_cfg.c **** #if defined(__C51__) || defined(__CX51__)
 361:Generated_Source\PSoC5/cyfitter_cfg.c ****     #pragma OT(5, SPEED)
 362:Generated_Source\PSoC5/cyfitter_cfg.c **** #endif
 363:Generated_Source\PSoC5/cyfitter_cfg.c **** void AMuxSeq_1_Next(void)
 364:Generated_Source\PSoC5/cyfitter_cfg.c **** {
 492              		.loc 1 364 0
 493              		.cfi_startproc
 494              		@ args = 0, pretend = 0, frame = 0
 495              		@ frame_needed = 0, uses_anonymous_args = 0
 496              		@ link register save eliminated.
 365:Generated_Source\PSoC5/cyfitter_cfg.c **** 	AMuxSeq_1_curChannel++;
 497              		.loc 1 365 0
 498 0000 054A     		ldr	r2, .L36
 499 0002 1378     		ldrb	r3, [r2]	@ zero_extendqisi2
 500 0004 0133     		adds	r3, r3, #1
 501 0006 5BB2     		sxtb	r3, r3
 502 0008 1370     		strb	r3, [r2]
 366:Generated_Source\PSoC5/cyfitter_cfg.c **** 	switch (AMuxSeq_1_curChannel)
 503              		.loc 1 366 0
 504 000a 092B     		cmp	r3, #9
 505 000c 02D9     		bls	.L33
 367:Generated_Source\PSoC5/cyfitter_cfg.c **** 	{
 368:Generated_Source\PSoC5/cyfitter_cfg.c **** 	case 10:
 369:Generated_Source\PSoC5/cyfitter_cfg.c **** 	default:
ARM GAS  C:\Users\jebush2\AppData\Local\Temp\ccLyWgjB.s 			page 17


 370:Generated_Source\PSoC5/cyfitter_cfg.c **** 		AMuxSeq_1_curChannel = 0;
 506              		.loc 1 370 0
 507 000e 0022     		movs	r2, #0
 508 0010 014B     		ldr	r3, .L36
 509 0012 1A70     		strb	r2, [r3]
 510              	.L33:
 511 0014 7047     		bx	lr
 512              	.L37:
 513 0016 00BF     		.align	2
 514              	.L36:
 515 0018 00000000 		.word	.LANCHOR0
 516              		.cfi_endproc
 517              	.LFE9:
 518              		.size	AMuxSeq_1_Next, .-AMuxSeq_1_Next
 519              		.section	.text.AMuxSeq_2_DisconnectAll,"ax",%progbits
 520              		.align	2
 521              		.global	AMuxSeq_2_DisconnectAll
 522              		.thumb
 523              		.thumb_func
 524              		.type	AMuxSeq_2_DisconnectAll, %function
 525              	AMuxSeq_2_DisconnectAll:
 526              	.LFB10:
 371:Generated_Source\PSoC5/cyfitter_cfg.c **** 	case 0:
 372:Generated_Source\PSoC5/cyfitter_cfg.c **** 		break;
 373:Generated_Source\PSoC5/cyfitter_cfg.c **** 	case 1:
 374:Generated_Source\PSoC5/cyfitter_cfg.c **** 		break;
 375:Generated_Source\PSoC5/cyfitter_cfg.c **** 	case 2:
 376:Generated_Source\PSoC5/cyfitter_cfg.c **** 		break;
 377:Generated_Source\PSoC5/cyfitter_cfg.c **** 	case 3:
 378:Generated_Source\PSoC5/cyfitter_cfg.c **** 		break;
 379:Generated_Source\PSoC5/cyfitter_cfg.c **** 	case 4:
 380:Generated_Source\PSoC5/cyfitter_cfg.c **** 		break;
 381:Generated_Source\PSoC5/cyfitter_cfg.c **** 	case 5:
 382:Generated_Source\PSoC5/cyfitter_cfg.c **** 		break;
 383:Generated_Source\PSoC5/cyfitter_cfg.c **** 	case 6:
 384:Generated_Source\PSoC5/cyfitter_cfg.c **** 		break;
 385:Generated_Source\PSoC5/cyfitter_cfg.c **** 	case 7:
 386:Generated_Source\PSoC5/cyfitter_cfg.c **** 		break;
 387:Generated_Source\PSoC5/cyfitter_cfg.c **** 	case 8:
 388:Generated_Source\PSoC5/cyfitter_cfg.c **** 		break;
 389:Generated_Source\PSoC5/cyfitter_cfg.c **** 	case 9:
 390:Generated_Source\PSoC5/cyfitter_cfg.c **** 		break;
 391:Generated_Source\PSoC5/cyfitter_cfg.c **** 	}
 392:Generated_Source\PSoC5/cyfitter_cfg.c **** }
 393:Generated_Source\PSoC5/cyfitter_cfg.c **** 
 394:Generated_Source\PSoC5/cyfitter_cfg.c **** int8 AMuxSeq_2_curChannel = -1;
 395:Generated_Source\PSoC5/cyfitter_cfg.c **** 
 396:Generated_Source\PSoC5/cyfitter_cfg.c **** void AMuxSeq_2_DisconnectAll(void)
 397:Generated_Source\PSoC5/cyfitter_cfg.c **** {
 527              		.loc 1 397 0
 528              		.cfi_startproc
 529              		@ args = 0, pretend = 0, frame = 0
 530              		@ frame_needed = 0, uses_anonymous_args = 0
 531              		@ link register save eliminated.
 398:Generated_Source\PSoC5/cyfitter_cfg.c **** 	AMuxSeq_2_curChannel = -1;
 532              		.loc 1 398 0
 533 0000 FF22     		movs	r2, #255
ARM GAS  C:\Users\jebush2\AppData\Local\Temp\ccLyWgjB.s 			page 18


 534 0002 014B     		ldr	r3, .L39
 535 0004 5A70     		strb	r2, [r3, #1]
 536 0006 7047     		bx	lr
 537              	.L40:
 538              		.align	2
 539              	.L39:
 540 0008 00000000 		.word	.LANCHOR0
 541              		.cfi_endproc
 542              	.LFE10:
 543              		.size	AMuxSeq_2_DisconnectAll, .-AMuxSeq_2_DisconnectAll
 544              		.section	.text.AMuxSeq_2_Next,"ax",%progbits
 545              		.align	2
 546              		.global	AMuxSeq_2_Next
 547              		.thumb
 548              		.thumb_func
 549              		.type	AMuxSeq_2_Next, %function
 550              	AMuxSeq_2_Next:
 551              	.LFB11:
 399:Generated_Source\PSoC5/cyfitter_cfg.c **** }
 400:Generated_Source\PSoC5/cyfitter_cfg.c **** 
 401:Generated_Source\PSoC5/cyfitter_cfg.c **** #if defined(__C51__) || defined(__CX51__)
 402:Generated_Source\PSoC5/cyfitter_cfg.c ****     #pragma OT(5, SPEED)
 403:Generated_Source\PSoC5/cyfitter_cfg.c **** #endif
 404:Generated_Source\PSoC5/cyfitter_cfg.c **** void AMuxSeq_2_Next(void)
 405:Generated_Source\PSoC5/cyfitter_cfg.c **** {
 552              		.loc 1 405 0
 553              		.cfi_startproc
 554              		@ args = 0, pretend = 0, frame = 0
 555              		@ frame_needed = 0, uses_anonymous_args = 0
 556              		@ link register save eliminated.
 406:Generated_Source\PSoC5/cyfitter_cfg.c **** 	AMuxSeq_2_curChannel++;
 557              		.loc 1 406 0
 558 0000 054A     		ldr	r2, .L44
 559 0002 5378     		ldrb	r3, [r2, #1]	@ zero_extendqisi2
 560 0004 0133     		adds	r3, r3, #1
 561 0006 5BB2     		sxtb	r3, r3
 562 0008 5370     		strb	r3, [r2, #1]
 407:Generated_Source\PSoC5/cyfitter_cfg.c **** 	switch (AMuxSeq_2_curChannel)
 563              		.loc 1 407 0
 564 000a 0F2B     		cmp	r3, #15
 565 000c 02D9     		bls	.L41
 408:Generated_Source\PSoC5/cyfitter_cfg.c **** 	{
 409:Generated_Source\PSoC5/cyfitter_cfg.c **** 	case 16:
 410:Generated_Source\PSoC5/cyfitter_cfg.c **** 	default:
 411:Generated_Source\PSoC5/cyfitter_cfg.c **** 		AMuxSeq_2_curChannel = 0;
 566              		.loc 1 411 0
 567 000e 0022     		movs	r2, #0
 568 0010 014B     		ldr	r3, .L44
 569 0012 5A70     		strb	r2, [r3, #1]
 570              	.L41:
 571 0014 7047     		bx	lr
 572              	.L45:
 573 0016 00BF     		.align	2
 574              	.L44:
 575 0018 00000000 		.word	.LANCHOR0
 576              		.cfi_endproc
 577              	.LFE11:
ARM GAS  C:\Users\jebush2\AppData\Local\Temp\ccLyWgjB.s 			page 19


 578              		.size	AMuxSeq_2_Next, .-AMuxSeq_2_Next
 579              		.section	.text.cyfitter_cfg,"ax",%progbits
 580              		.align	2
 581              		.global	cyfitter_cfg
 582              		.thumb
 583              		.thumb_func
 584              		.type	cyfitter_cfg, %function
 585              	cyfitter_cfg:
 586              	.LFB12:
 412:Generated_Source\PSoC5/cyfitter_cfg.c **** 	case 0:
 413:Generated_Source\PSoC5/cyfitter_cfg.c **** 		break;
 414:Generated_Source\PSoC5/cyfitter_cfg.c **** 	case 1:
 415:Generated_Source\PSoC5/cyfitter_cfg.c **** 		break;
 416:Generated_Source\PSoC5/cyfitter_cfg.c **** 	case 2:
 417:Generated_Source\PSoC5/cyfitter_cfg.c **** 		break;
 418:Generated_Source\PSoC5/cyfitter_cfg.c **** 	case 3:
 419:Generated_Source\PSoC5/cyfitter_cfg.c **** 		break;
 420:Generated_Source\PSoC5/cyfitter_cfg.c **** 	case 4:
 421:Generated_Source\PSoC5/cyfitter_cfg.c **** 		break;
 422:Generated_Source\PSoC5/cyfitter_cfg.c **** 	case 5:
 423:Generated_Source\PSoC5/cyfitter_cfg.c **** 		break;
 424:Generated_Source\PSoC5/cyfitter_cfg.c **** 	case 6:
 425:Generated_Source\PSoC5/cyfitter_cfg.c **** 		break;
 426:Generated_Source\PSoC5/cyfitter_cfg.c **** 	case 7:
 427:Generated_Source\PSoC5/cyfitter_cfg.c **** 		break;
 428:Generated_Source\PSoC5/cyfitter_cfg.c **** 	case 8:
 429:Generated_Source\PSoC5/cyfitter_cfg.c **** 		break;
 430:Generated_Source\PSoC5/cyfitter_cfg.c **** 	case 9:
 431:Generated_Source\PSoC5/cyfitter_cfg.c **** 		break;
 432:Generated_Source\PSoC5/cyfitter_cfg.c **** 	case 10:
 433:Generated_Source\PSoC5/cyfitter_cfg.c **** 		break;
 434:Generated_Source\PSoC5/cyfitter_cfg.c **** 	case 11:
 435:Generated_Source\PSoC5/cyfitter_cfg.c **** 		break;
 436:Generated_Source\PSoC5/cyfitter_cfg.c **** 	case 12:
 437:Generated_Source\PSoC5/cyfitter_cfg.c **** 		break;
 438:Generated_Source\PSoC5/cyfitter_cfg.c **** 	case 13:
 439:Generated_Source\PSoC5/cyfitter_cfg.c **** 		break;
 440:Generated_Source\PSoC5/cyfitter_cfg.c **** 	case 14:
 441:Generated_Source\PSoC5/cyfitter_cfg.c **** 		break;
 442:Generated_Source\PSoC5/cyfitter_cfg.c **** 	case 15:
 443:Generated_Source\PSoC5/cyfitter_cfg.c **** 		break;
 444:Generated_Source\PSoC5/cyfitter_cfg.c **** 	}
 445:Generated_Source\PSoC5/cyfitter_cfg.c **** }
 446:Generated_Source\PSoC5/cyfitter_cfg.c **** 
 447:Generated_Source\PSoC5/cyfitter_cfg.c **** 
 448:Generated_Source\PSoC5/cyfitter_cfg.c **** 
 449:Generated_Source\PSoC5/cyfitter_cfg.c **** /*******************************************************************************
 450:Generated_Source\PSoC5/cyfitter_cfg.c **** * Function Name: cyfitter_cfg
 451:Generated_Source\PSoC5/cyfitter_cfg.c **** ********************************************************************************
 452:Generated_Source\PSoC5/cyfitter_cfg.c **** * Summary:
 453:Generated_Source\PSoC5/cyfitter_cfg.c **** *  This function is called by the start-up code for the selected device. It
 454:Generated_Source\PSoC5/cyfitter_cfg.c **** *  performs all of the necessary device configuration based on the design
 455:Generated_Source\PSoC5/cyfitter_cfg.c **** *  settings.  This includes settings from the Design Wide Resources (DWR) such
 456:Generated_Source\PSoC5/cyfitter_cfg.c **** *  as Clocks and Pins as well as any component configuration that is necessary.
 457:Generated_Source\PSoC5/cyfitter_cfg.c **** *
 458:Generated_Source\PSoC5/cyfitter_cfg.c **** * Parameters:
 459:Generated_Source\PSoC5/cyfitter_cfg.c **** *   void
ARM GAS  C:\Users\jebush2\AppData\Local\Temp\ccLyWgjB.s 			page 20


 460:Generated_Source\PSoC5/cyfitter_cfg.c **** *
 461:Generated_Source\PSoC5/cyfitter_cfg.c **** * Return:
 462:Generated_Source\PSoC5/cyfitter_cfg.c **** *   void
 463:Generated_Source\PSoC5/cyfitter_cfg.c **** *
 464:Generated_Source\PSoC5/cyfitter_cfg.c **** *******************************************************************************/
 465:Generated_Source\PSoC5/cyfitter_cfg.c **** 
 466:Generated_Source\PSoC5/cyfitter_cfg.c **** void cyfitter_cfg(void)
 467:Generated_Source\PSoC5/cyfitter_cfg.c **** {
 587              		.loc 1 467 0
 588              		.cfi_startproc
 589              		@ args = 0, pretend = 0, frame = 0
 590              		@ frame_needed = 0, uses_anonymous_args = 0
 591 0000 38B5     		push	{r3, r4, r5, lr}
 592              		.cfi_def_cfa_offset 16
 593              		.cfi_offset 3, -16
 594              		.cfi_offset 4, -12
 595              		.cfi_offset 5, -8
 596              		.cfi_offset 14, -4
 468:Generated_Source\PSoC5/cyfitter_cfg.c **** #ifdef CYGlobalIntDisable
 469:Generated_Source\PSoC5/cyfitter_cfg.c **** 	/* Disable interrupts by default. Let user enable if/when they want. */
 470:Generated_Source\PSoC5/cyfitter_cfg.c **** 	CYGlobalIntDisable
 597              		.loc 1 470 0
 598              		.syntax unified
 599              	@ 470 "Generated_Source\PSoC5\cyfitter_cfg.c" 1
 600 0002 72B6     		CPSID   i
 601              	@ 0 "" 2
 471:Generated_Source\PSoC5/cyfitter_cfg.c **** #endif
 472:Generated_Source\PSoC5/cyfitter_cfg.c **** 
 473:Generated_Source\PSoC5/cyfitter_cfg.c **** 	/* Enable/Disable Debug functionality based on settings from System DWR */
 474:Generated_Source\PSoC5/cyfitter_cfg.c **** 	CY_SET_XTND_REG8((void CYFAR *)CYREG_MLOGIC_DEBUG, (CY_GET_XTND_REG8((void CYFAR *)CYREG_MLOGIC_DE
 602              		.loc 1 474 0
 603              		.thumb
 604              		.syntax unified
 605 0004 294A     		ldr	r2, .L50
 606 0006 1378     		ldrb	r3, [r2]	@ zero_extendqisi2
 607 0008 43F00403 		orr	r3, r3, #4
 608 000c 1370     		strb	r3, [r2]
 609              	.LVL36:
 610              	.LBB3:
 475:Generated_Source\PSoC5/cyfitter_cfg.c **** 
 476:Generated_Source\PSoC5/cyfitter_cfg.c **** 	{
 477:Generated_Source\PSoC5/cyfitter_cfg.c **** 
 478:Generated_Source\PSoC5/cyfitter_cfg.c **** 		CYPACKED typedef struct {
 479:Generated_Source\PSoC5/cyfitter_cfg.c **** 			void CYFAR *address;
 480:Generated_Source\PSoC5/cyfitter_cfg.c **** 			uint16 size;
 481:Generated_Source\PSoC5/cyfitter_cfg.c **** 		} CYPACKED_ATTR cfg_memset_t;
 482:Generated_Source\PSoC5/cyfitter_cfg.c **** 
 483:Generated_Source\PSoC5/cyfitter_cfg.c **** 		static const cfg_memset_t CYCODE cfg_memset_list[] = {
 484:Generated_Source\PSoC5/cyfitter_cfg.c **** 			/* address, size */
 485:Generated_Source\PSoC5/cyfitter_cfg.c **** 			{(void CYFAR *)(CYREG_TMR0_CFG0), 12u},
 486:Generated_Source\PSoC5/cyfitter_cfg.c **** 			{(void CYFAR *)(CYREG_PRT2_DR), 80u},
 487:Generated_Source\PSoC5/cyfitter_cfg.c **** 			{(void CYFAR *)(CYREG_PRT12_DR), 16u},
 488:Generated_Source\PSoC5/cyfitter_cfg.c **** 			{(void CYFAR *)(CYDEV_UCFG_B0_P0_U0_BASE), 4096u},
 489:Generated_Source\PSoC5/cyfitter_cfg.c **** 			{(void CYFAR *)(CYDEV_UCFG_B1_P2_U0_BASE), 2048u},
 490:Generated_Source\PSoC5/cyfitter_cfg.c **** 			{(void CYFAR *)(CYDEV_UCFG_DSI0_BASE), 2560u},
 491:Generated_Source\PSoC5/cyfitter_cfg.c **** 			{(void CYFAR *)(CYDEV_UCFG_DSI12_BASE), 512u},
 492:Generated_Source\PSoC5/cyfitter_cfg.c **** 			{(void CYFAR *)(CYREG_BCTL0_MDCLK_EN), 32u},
ARM GAS  C:\Users\jebush2\AppData\Local\Temp\ccLyWgjB.s 			page 21


 493:Generated_Source\PSoC5/cyfitter_cfg.c **** 		};
 494:Generated_Source\PSoC5/cyfitter_cfg.c **** 
 495:Generated_Source\PSoC5/cyfitter_cfg.c **** 		uint8 CYDATA i;
 496:Generated_Source\PSoC5/cyfitter_cfg.c **** 
 497:Generated_Source\PSoC5/cyfitter_cfg.c **** 		/* Zero out critical memory blocks before beginning configuration */
 498:Generated_Source\PSoC5/cyfitter_cfg.c **** 		for (i = 0u; i < (sizeof(cfg_memset_list)/sizeof(cfg_memset_list[0])); i++)
 611              		.loc 1 498 0
 612 000e 0024     		movs	r4, #0
 613 0010 0CE0     		b	.L47
 614              	.LVL37:
 615              	.L48:
 616              	.LBB4:
 499:Generated_Source\PSoC5/cyfitter_cfg.c **** 		{
 500:Generated_Source\PSoC5/cyfitter_cfg.c **** 			const cfg_memset_t CYCODE * CYDATA ms = &cfg_memset_list[i];
 501:Generated_Source\PSoC5/cyfitter_cfg.c **** 			CYMEMZERO(ms->address, (size_t)(uint32)(ms->size));
 617              		.loc 1 501 0 discriminator 3
 618 0012 274D     		ldr	r5, .L50+4
 619 0014 6300     		lsls	r3, r4, #1
 620 0016 1919     		adds	r1, r3, r4
 621 0018 4A00     		lsls	r2, r1, #1
 622 001a 1146     		mov	r1, r2
 623 001c 2A44     		add	r2, r2, r5
 624 001e 0846     		mov	r0, r1
 625 0020 9188     		ldrh	r1, [r2, #4]
 626 0022 2858     		ldr	r0, [r5, r0]	@ unaligned
 627 0024 FFF7FEFF 		bl	CYMEMZERO
 628              	.LVL38:
 629              	.LBE4:
 498:Generated_Source\PSoC5/cyfitter_cfg.c **** 		{
 630              		.loc 1 498 0 discriminator 3
 631 0028 0134     		adds	r4, r4, #1
 632              	.LVL39:
 633 002a E4B2     		uxtb	r4, r4
 634              	.LVL40:
 635              	.L47:
 498:Generated_Source\PSoC5/cyfitter_cfg.c **** 		{
 636              		.loc 1 498 0 is_stmt 0 discriminator 1
 637 002c 072C     		cmp	r4, #7
 638 002e F0D9     		bls	.L48
 502:Generated_Source\PSoC5/cyfitter_cfg.c **** 		}
 503:Generated_Source\PSoC5/cyfitter_cfg.c **** 
 504:Generated_Source\PSoC5/cyfitter_cfg.c **** 		cfg_write_bytes32(cy_cfg_addr_table, cy_cfg_data_table);
 639              		.loc 1 504 0 is_stmt 1
 640 0030 2049     		ldr	r1, .L50+8
 641 0032 4FF09040 		mov	r0, #1207959552
 642 0036 FFF7FEFF 		bl	cfg_write_bytes32
 643              	.LVL41:
 505:Generated_Source\PSoC5/cyfitter_cfg.c **** 
 506:Generated_Source\PSoC5/cyfitter_cfg.c **** 		/* Enable digital routing */
 507:Generated_Source\PSoC5/cyfitter_cfg.c **** 		CY_SET_XTND_REG8((void CYFAR *)CYREG_BCTL0_BANK_CTL, CY_GET_XTND_REG8((void CYFAR *)CYREG_BCTL0_B
 644              		.loc 1 507 0
 645 003a 1F4A     		ldr	r2, .L50+12
 646 003c 1378     		ldrb	r3, [r2]	@ zero_extendqisi2
 647 003e 43F00203 		orr	r3, r3, #2
 648 0042 1370     		strb	r3, [r2]
 508:Generated_Source\PSoC5/cyfitter_cfg.c **** 		CY_SET_XTND_REG8((void CYFAR *)CYREG_BCTL1_BANK_CTL, CY_GET_XTND_REG8((void CYFAR *)CYREG_BCTL1_B
 649              		.loc 1 508 0
ARM GAS  C:\Users\jebush2\AppData\Local\Temp\ccLyWgjB.s 			page 22


 650 0044 1032     		adds	r2, r2, #16
 651 0046 1378     		ldrb	r3, [r2]	@ zero_extendqisi2
 652 0048 43F00203 		orr	r3, r3, #2
 653 004c 1370     		strb	r3, [r2]
 509:Generated_Source\PSoC5/cyfitter_cfg.c **** 
 510:Generated_Source\PSoC5/cyfitter_cfg.c **** 		/* Enable UDB array */
 511:Generated_Source\PSoC5/cyfitter_cfg.c **** 		CY_SET_XTND_REG8((void CYFAR *)CYREG_PM_ACT_CFG0, CY_GET_XTND_REG8((void CYFAR *)CYREG_PM_ACT_CFG
 654              		.loc 1 511 0
 655 004e 1B4C     		ldr	r4, .L50+16
 656              	.LVL42:
 657 0050 2378     		ldrb	r3, [r4]	@ zero_extendqisi2
 658 0052 43F04003 		orr	r3, r3, #64
 659 0056 2370     		strb	r3, [r4]
 512:Generated_Source\PSoC5/cyfitter_cfg.c **** 		CY_SET_XTND_REG8((void CYFAR *)CYREG_PM_AVAIL_CR2, CY_GET_XTND_REG8((void CYFAR *)CYREG_PM_AVAIL_
 660              		.loc 1 512 0
 661 0058 A2F58632 		sub	r2, r2, #68608
 662 005c 513A     		subs	r2, r2, #81
 663 005e 1378     		ldrb	r3, [r2]	@ zero_extendqisi2
 664 0060 43F01003 		orr	r3, r3, #16
 665 0064 1370     		strb	r3, [r2]
 666              	.LBE3:
 513:Generated_Source\PSoC5/cyfitter_cfg.c **** 	}
 514:Generated_Source\PSoC5/cyfitter_cfg.c **** 
 515:Generated_Source\PSoC5/cyfitter_cfg.c **** 
 516:Generated_Source\PSoC5/cyfitter_cfg.c **** 	/* Perform second pass device configuration. These items must be configured in specific order afte
 517:Generated_Source\PSoC5/cyfitter_cfg.c **** 	CYCONFIGCPY((void CYFAR *)(CYREG_PRT0_DM0), (const void CYFAR *)(BS_IOPINS0_0_VAL), 8u);
 667              		.loc 1 517 0
 668 0066 0822     		movs	r2, #8
 669 0068 1549     		ldr	r1, .L50+20
 670 006a 1648     		ldr	r0, .L50+24
 671 006c FFF7FEFF 		bl	CYCONFIGCPY
 672              	.LVL43:
 518:Generated_Source\PSoC5/cyfitter_cfg.c **** 	CYCONFIGCPY((void CYFAR *)(CYREG_PRT15_DR), (const void CYFAR *)(BS_IOPINS0_8_VAL), 10u);
 673              		.loc 1 518 0
 674 0070 0A22     		movs	r2, #10
 675 0072 1549     		ldr	r1, .L50+28
 676 0074 1548     		ldr	r0, .L50+32
 677 0076 FFF7FEFF 		bl	CYCONFIGCPY
 678              	.LVL44:
 519:Generated_Source\PSoC5/cyfitter_cfg.c **** 	CYCONFIGCPY((void CYFAR *)(CYREG_PRT1_DM0), (const void CYFAR *)(BS_IOPINS0_1_VAL), 8u);
 679              		.loc 1 519 0
 680 007a 0822     		movs	r2, #8
 681 007c 1449     		ldr	r1, .L50+36
 682 007e 1548     		ldr	r0, .L50+40
 683 0080 FFF7FEFF 		bl	CYCONFIGCPY
 684              	.LVL45:
 520:Generated_Source\PSoC5/cyfitter_cfg.c **** 	/* Switch Boost to the precision bandgap reference from its internal reference */
 521:Generated_Source\PSoC5/cyfitter_cfg.c **** 	CY_SET_REG8((void CYXDATA *)CYREG_BOOST_CR2, (CY_GET_REG8((void CYXDATA *)CYREG_BOOST_CR2) | 0x08u
 685              		.loc 1 521 0
 686 0084 144A     		ldr	r2, .L50+44
 687 0086 1378     		ldrb	r3, [r2]	@ zero_extendqisi2
 688 0088 43F00803 		orr	r3, r3, #8
 689 008c 1370     		strb	r3, [r2]
 522:Generated_Source\PSoC5/cyfitter_cfg.c **** 
 523:Generated_Source\PSoC5/cyfitter_cfg.c **** 	/* Set Flash Cycles based on max possible frequency in case a glitch occurs during ClockSetup(). *
 524:Generated_Source\PSoC5/cyfitter_cfg.c **** 	CY_SET_XTND_REG8((void CYFAR *)(CYREG_CACHE_CC_CTL), (((CYDEV_INSTRUCT_CACHE_ENABLED) != 0) ? 0x61
 690              		.loc 1 524 0
ARM GAS  C:\Users\jebush2\AppData\Local\Temp\ccLyWgjB.s 			page 23


 691 008e 134D     		ldr	r5, .L50+48
 692 0090 6123     		movs	r3, #97
 693 0092 2B70     		strb	r3, [r5]
 525:Generated_Source\PSoC5/cyfitter_cfg.c **** 	/* Setup clocks based on selections from Clock DWR */
 526:Generated_Source\PSoC5/cyfitter_cfg.c **** 	ClockSetup();
 694              		.loc 1 526 0
 695 0094 FFF7FEFF 		bl	ClockSetup
 696              	.LVL46:
 527:Generated_Source\PSoC5/cyfitter_cfg.c **** 	/* Set Flash Cycles based on newly configured 24.00MHz Bus Clock. */
 528:Generated_Source\PSoC5/cyfitter_cfg.c **** 	CY_SET_XTND_REG8((void CYFAR *)(CYREG_CACHE_CC_CTL), (((CYDEV_INSTRUCT_CACHE_ENABLED) != 0) ? 0x81
 697              		.loc 1 528 0
 698 0098 8123     		movs	r3, #129
 699 009a 2B70     		strb	r3, [r5]
 529:Generated_Source\PSoC5/cyfitter_cfg.c **** 
 530:Generated_Source\PSoC5/cyfitter_cfg.c **** 	/* Perform basic analog initialization to defaults */
 531:Generated_Source\PSoC5/cyfitter_cfg.c **** 	AnalogSetDefault();
 700              		.loc 1 531 0
 701 009c FFF7FEFF 		bl	AnalogSetDefault
 702              	.LVL47:
 532:Generated_Source\PSoC5/cyfitter_cfg.c **** 
 533:Generated_Source\PSoC5/cyfitter_cfg.c **** 	/* Configure alternate active mode */
 534:Generated_Source\PSoC5/cyfitter_cfg.c **** 	CYCONFIGCPY((void CYFAR *)CYDEV_PM_STBY_BASE, (const void CYFAR *)CYDEV_PM_ACT_BASE, 14u);
 703              		.loc 1 534 0
 704 00a0 0E22     		movs	r2, #14
 705 00a2 2146     		mov	r1, r4
 706 00a4 0E48     		ldr	r0, .L50+52
 707 00a6 FFF7FEFF 		bl	CYCONFIGCPY
 708              	.LVL48:
 709 00aa 38BD     		pop	{r3, r4, r5, pc}
 710              	.L51:
 711              		.align	2
 712              	.L50:
 713 00ac E8460040 		.word	1073759976
 714 00b0 00000000 		.word	.LANCHOR1
 715 00b4 5C000048 		.word	1207959644
 716 00b8 03500140 		.word	1073827843
 717 00bc A0430040 		.word	1073759136
 718 00c0 FC000048 		.word	1207959804
 719 00c4 02510040 		.word	1073762562
 720 00c8 04010048 		.word	1207959812
 721 00cc F0510040 		.word	1073762800
 722 00d0 10010048 		.word	1207959824
 723 00d4 12510040 		.word	1073762578
 724 00d8 22430040 		.word	1073759010
 725 00dc 00480040 		.word	1073760256
 726 00e0 B0430040 		.word	1073759152
 727              		.cfi_endproc
 728              	.LFE12:
 729              		.size	cyfitter_cfg, .-cyfitter_cfg
 730              		.global	AMuxSeq_2_curChannel
 731              		.global	AMuxSeq_1_curChannel
 732              		.section	.rodata
 733              		.align	2
 734              		.set	.LANCHOR1,. + 0
 735              		.type	cfg_memset_list.5071, %object
 736              		.size	cfg_memset_list.5071, 48
 737              	cfg_memset_list.5071:
ARM GAS  C:\Users\jebush2\AppData\Local\Temp\ccLyWgjB.s 			page 24


 738 0000 004F0040 		.word	1073762048
 739 0004 0C00     		.short	12
 740 0006 20510040 		.4byte	1073762592
 741 000a 5000     		.short	80
 742 000c C0510040 		.word	1073762752
 743 0010 1000     		.short	16
 744 0012 00000140 		.4byte	1073807360
 745 0016 0010     		.short	4096
 746 0018 00140140 		.word	1073812480
 747 001c 0008     		.short	2048
 748 001e 00400140 		.4byte	1073823744
 749 0022 000A     		.short	2560
 750 0024 004C0140 		.word	1073826816
 751 0028 0002     		.short	512
 752 002a 00500140 		.4byte	1073827840
 753 002e 2000     		.short	32
 754              		.data
 755              		.set	.LANCHOR0,. + 0
 756              		.type	AMuxSeq_1_curChannel, %object
 757              		.size	AMuxSeq_1_curChannel, 1
 758              	AMuxSeq_1_curChannel:
 759 0000 FF       		.byte	-1
 760              		.type	AMuxSeq_2_curChannel, %object
 761              		.size	AMuxSeq_2_curChannel, 1
 762              	AMuxSeq_2_curChannel:
 763 0001 FF       		.byte	-1
 764              		.text
 765              	.Letext0:
 766              		.file 2 "c:\\program files (x86)\\cypress\\psoc creator\\4.2\\psoc creator\\import\\gnu\\arm\\5.4.
 767              		.file 3 "Generated_Source\\PSoC5\\cytypes.h"
 768              		.file 4 "Generated_Source\\PSoC5\\CyLib.h"