ARM GAS  C:\Users\jebush2\AppData\Local\Temp\ccArctYL.s 			page 1


   1              		.syntax unified
   2              		.cpu cortex-m3
   3              		.fpu softvfp
   4              		.eabi_attribute 20, 1
   5              		.eabi_attribute 21, 1
   6              		.eabi_attribute 23, 3
   7              		.eabi_attribute 24, 1
   8              		.eabi_attribute 25, 1
   9              		.eabi_attribute 26, 1
  10              		.eabi_attribute 30, 1
  11              		.eabi_attribute 34, 1
  12              		.eabi_attribute 18, 4
  13              		.thumb
  14              		.syntax unified
  15              		.file	"main.c"
  16              		.text
  17              	.Ltext0:
  18              		.cfi_sections	.debug_frame
  19              		.section	.text.rear_hall_isr,"ax",%progbits
  20              		.align	2
  21              		.global	rear_hall_isr
  22              		.thumb
  23              		.thumb_func
  24              		.type	rear_hall_isr, %function
  25              	rear_hall_isr:
  26              	.LFB65:
  27              		.file 1 "main.c"
   1:main.c        **** /* ========================================
   2:main.c        ****  *
   3:main.c        ****  * Copyright YOUR COMPANY, THE YEAR
   4:main.c        ****  * All Rights Reserved
   5:main.c        ****  * UNPUBLISHED, LICENSED SOFTWARE.
   6:main.c        ****  *
   7:main.c        ****  * CONFIDENTIAL AND PROPRIETARY INFORMATION
   8:main.c        ****  * WHICH IS THE PROPERTY OF your company.
   9:main.c        ****  *
  10:main.c        ****  * ========================================
  11:main.c        **** */
  12:main.c        **** #include "project.h"
  13:main.c        **** #include <string.h>
  14:main.c        **** #include <stdio.h>
  15:main.c        **** 
  16:main.c        **** #define STARTBYTE ((uint8)0xAA)
  17:main.c        **** #define REAR_SPEED_IDENT        ((uint8)0x01)
  18:main.c        **** #define FRONT_SPEED_IDENT       ((uint8)0x02)
  19:main.c        **** #define HAND_THROTTLE_IDENT     ((uint8)0x03)
  20:main.c        **** #define REMOTE_THROTTLE_IDENT   ((uint8)0x04)
  21:main.c        **** #define REMOTE_STEERING_IDENT   ((uint8)0x05)
  22:main.c        **** #define REMOTE_BRAKE_IDENT      ((uint8)0x06)
  23:main.c        **** #define PEDAL_HALL_IDENT        ((uint8)0x07)
  24:main.c        **** #define STEERING_ANGLE_IDENT    ((uint8)0x08)
  25:main.c        **** 
  26:main.c        **** CY_ISR_PROTO(rear_hall_isr);
  27:main.c        **** 
  28:main.c        **** uint16 speed;  // speed in m/s * 4096
  29:main.c        **** uint16 time;
  30:main.c        **** 
ARM GAS  C:\Users\jebush2\AppData\Local\Temp\ccArctYL.s 			page 2


  31:main.c        **** int main(void)
  32:main.c        **** {
  33:main.c        ****     CyGlobalIntEnable; /* Enable global interrupts. */
  34:main.c        ****     char sendStr[50];
  35:main.c        ****     
  36:main.c        ****     speed = 0;
  37:main.c        **** 
  38:main.c        ****     USBUART_1_Start(0, USBUART_1_5V_OPERATION); // Start the USB UART
  39:main.c        ****     while(!USBUART_1_bGetConfiguration());
  40:main.c        ****     USBUART_1_CDC_Init();
  41:main.c        ****     
  42:main.c        ****     Timer_Start();
  43:main.c        ****     Hall_Interrupt_StartEx(rear_hall_isr);
  44:main.c        ****     
  45:main.c        ****     for(;;)
  46:main.c        ****     {
  47:main.c        ****         CyDelay(100);
  48:main.c        ****         const uint32 multiplier = 8497971; // (C)(1000)(4096), C=2.0747m
  49:main.c        ****         speed = (uint16)(multiplier / (uint32)time);
  50:main.c        ****         USBUART_1_PutChar(STARTBYTE);
  51:main.c        ****         USBUART_1_PutChar(REAR_SPEED_IDENT);
  52:main.c        ****         USBUART_1_PutData((uint8 *)&speed, 2);
  53:main.c        ****         //sprintf(sendStr, "%d\n\r", speed);
  54:main.c        ****         //USBUART_1_PutString(sendStr);
  55:main.c        ****         
  56:main.c        ****         /* Place your application code here. */
  57:main.c        ****     }
  58:main.c        **** }
  59:main.c        **** 
  60:main.c        **** CY_ISR(rear_hall_isr) {
  28              		.loc 1 60 0
  29              		.cfi_startproc
  30              		@ args = 0, pretend = 0, frame = 0
  31              		@ frame_needed = 0, uses_anonymous_args = 0
  32 0000 08B5     		push	{r3, lr}
  33              		.cfi_def_cfa_offset 8
  34              		.cfi_offset 3, -8
  35              		.cfi_offset 14, -4
  61:main.c        ****     time = Timer_ReadCounter(); // time in ms since last
  36              		.loc 1 61 0
  37 0002 FFF7FEFF 		bl	Timer_ReadCounter
  38              	.LVL0:
  39 0006 034B     		ldr	r3, .L3
  40 0008 1880     		strh	r0, [r3]	@ movhi
  62:main.c        ****     Timer_WriteCounter(0);  // Clear the counter
  41              		.loc 1 62 0
  42 000a 0020     		movs	r0, #0
  43 000c FFF7FEFF 		bl	Timer_WriteCounter
  44              	.LVL1:
  45 0010 08BD     		pop	{r3, pc}
  46              	.L4:
  47 0012 00BF     		.align	2
  48              	.L3:
  49 0014 00000000 		.word	time
  50              		.cfi_endproc
  51              	.LFE65:
  52              		.size	rear_hall_isr, .-rear_hall_isr
ARM GAS  C:\Users\jebush2\AppData\Local\Temp\ccArctYL.s 			page 3


  53              		.section	.text.main,"ax",%progbits
  54              		.align	2
  55              		.global	main
  56              		.thumb
  57              		.thumb_func
  58              		.type	main, %function
  59              	main:
  60              	.LFB64:
  32:main.c        ****     CyGlobalIntEnable; /* Enable global interrupts. */
  61              		.loc 1 32 0
  62              		.cfi_startproc
  63              		@ args = 0, pretend = 0, frame = 0
  64              		@ frame_needed = 0, uses_anonymous_args = 0
  65 0000 10B5     		push	{r4, lr}
  66              		.cfi_def_cfa_offset 8
  67              		.cfi_offset 4, -8
  68              		.cfi_offset 14, -4
  33:main.c        ****     char sendStr[50];
  69              		.loc 1 33 0
  70              		.syntax unified
  71              	@ 33 "main.c" 1
  72 0002 62B6     		CPSIE   i
  73              	@ 0 "" 2
  36:main.c        **** 
  74              		.loc 1 36 0
  75              		.thumb
  76              		.syntax unified
  77 0004 0020     		movs	r0, #0
  78 0006 124B     		ldr	r3, .L9
  79 0008 1880     		strh	r0, [r3]	@ movhi
  38:main.c        ****     while(!USBUART_1_bGetConfiguration());
  80              		.loc 1 38 0
  81 000a 0121     		movs	r1, #1
  82 000c FFF7FEFF 		bl	USBUART_1_Start
  83              	.LVL2:
  84              	.L6:
  39:main.c        ****     USBUART_1_CDC_Init();
  85              		.loc 1 39 0 discriminator 1
  86 0010 FFF7FEFF 		bl	USBUART_1_GetConfiguration
  87              	.LVL3:
  88 0014 0028     		cmp	r0, #0
  89 0016 FBD0     		beq	.L6
  40:main.c        ****     
  90              		.loc 1 40 0
  91 0018 FFF7FEFF 		bl	USBUART_1_CDC_Init
  92              	.LVL4:
  42:main.c        ****     Hall_Interrupt_StartEx(rear_hall_isr);
  93              		.loc 1 42 0
  94 001c FFF7FEFF 		bl	Timer_Start
  95              	.LVL5:
  43:main.c        ****     
  96              		.loc 1 43 0
  97 0020 0C48     		ldr	r0, .L9+4
  98 0022 FFF7FEFF 		bl	Hall_Interrupt_StartEx
  99              	.LVL6:
 100              	.L7:
 101              	.LBB2:
ARM GAS  C:\Users\jebush2\AppData\Local\Temp\ccArctYL.s 			page 4


  47:main.c        ****         const uint32 multiplier = 8497971; // (C)(1000)(4096), C=2.0747m
 102              		.loc 1 47 0 discriminator 1
 103 0026 6420     		movs	r0, #100
 104 0028 FFF7FEFF 		bl	CyDelay
 105              	.LVL7:
  49:main.c        ****         USBUART_1_PutChar(STARTBYTE);
 106              		.loc 1 49 0 discriminator 1
 107 002c 0A4B     		ldr	r3, .L9+8
 108 002e 1A88     		ldrh	r2, [r3]
 109 0030 0A4B     		ldr	r3, .L9+12
 110 0032 B3FBF2F3 		udiv	r3, r3, r2
 111 0036 064C     		ldr	r4, .L9
 112 0038 2380     		strh	r3, [r4]	@ movhi
  50:main.c        ****         USBUART_1_PutChar(REAR_SPEED_IDENT);
 113              		.loc 1 50 0 discriminator 1
 114 003a AA20     		movs	r0, #170
 115 003c FFF7FEFF 		bl	USBUART_1_PutChar
 116              	.LVL8:
  51:main.c        ****         USBUART_1_PutData((uint8 *)&speed, 2);
 117              		.loc 1 51 0 discriminator 1
 118 0040 0120     		movs	r0, #1
 119 0042 FFF7FEFF 		bl	USBUART_1_PutChar
 120              	.LVL9:
  52:main.c        ****         //sprintf(sendStr, "%d\n\r", speed);
 121              		.loc 1 52 0 discriminator 1
 122 0046 0221     		movs	r1, #2
 123 0048 2046     		mov	r0, r4
 124 004a FFF7FEFF 		bl	USBUART_1_PutData
 125              	.LVL10:
 126 004e EAE7     		b	.L7
 127              	.L10:
 128              		.align	2
 129              	.L9:
 130 0050 00000000 		.word	speed
 131 0054 00000000 		.word	rear_hall_isr
 132 0058 00000000 		.word	time
 133 005c 33AB8100 		.word	8497971
 134              	.LBE2:
 135              		.cfi_endproc
 136              	.LFE64:
 137              		.size	main, .-main
 138              		.comm	time,2,2
 139              		.comm	speed,2,2
 140              		.text
 141              	.Letext0:
 142              		.file 2 "c:\\program files (x86)\\cypress\\psoc creator\\4.2\\psoc creator\\import\\gnu\\arm\\5.4.
 143              		.file 3 "c:\\program files (x86)\\cypress\\psoc creator\\4.2\\psoc creator\\import\\gnu\\arm\\5.4.
 144              		.file 4 "Generated_Source\\PSoC5/cytypes.h"
 145              		.file 5 "Generated_Source\\PSoC5/core_cm3.h"
 146              		.file 6 "Generated_Source\\PSoC5/Timer.h"
 147              		.file 7 "Generated_Source\\PSoC5/CyLib.h"
 148              		.file 8 "Generated_Source\\PSoC5/USBUART_1_cdc.h"
 149              		.file 9 "Generated_Source\\PSoC5/USBUART_1.h"
 150              		.file 10 "Generated_Source\\PSoC5/Hall_Interrupt.h"