ARM GAS  C:\Users\jebush2\AppData\Local\Temp\ccMIKRqc.s 			page 1


   1              		.syntax unified
   2              		.cpu cortex-m3
   3              		.fpu softvfp
   4              		.eabi_attribute 20, 1
   5              		.eabi_attribute 21, 1
   6              		.eabi_attribute 23, 3
   7              		.eabi_attribute 24, 1
   8              		.eabi_attribute 25, 1
   9              		.eabi_attribute 26, 1
  10              		.eabi_attribute 30, 1
  11              		.eabi_attribute 34, 1
  12              		.eabi_attribute 18, 4
  13              		.thumb
  14              		.syntax unified
  15              		.file	"main.c"
  16              		.text
  17              	.Ltext0:
  18              		.cfi_sections	.debug_frame
  19              		.global	__aeabi_i2d
  20              		.global	__aeabi_dmul
  21              		.global	__aeabi_i2f
  22              		.global	__aeabi_f2d
  23              		.global	__aeabi_ddiv
  24              		.global	__aeabi_d2f
  25              		.section	.text.timer_isr,"ax",%progbits
  26              		.align	2
  27              		.global	timer_isr
  28              		.thumb
  29              		.thumb_func
  30              		.type	timer_isr, %function
  31              	timer_isr:
  32              	.LFB66:
  33              		.file 1 "main.c"
   1:main.c        **** /* ========================================
   2:main.c        ****  *
   3:main.c        ****  * Copyright YOUR COMPANY, THE YEAR
   4:main.c        ****  * All Rights Reserved
   5:main.c        ****  * UNPUBLISHED, LICENSED SOFTWARE.
   6:main.c        ****  *
   7:main.c        ****  * CONFIDENTIAL AND PROPRIETARY INFORMATION
   8:main.c        ****  * WHICH IS THE PROPERTY OF your company.
   9:main.c        ****  *
  10:main.c        ****  * ========================================
  11:main.c        **** */
  12:main.c        **** 
  13:main.c        **** /*
  14:main.c        ****  * Notes: Gimbal encoder is 980 cpr
  15:main.c        ****  * Accounting for 18:24 gear ratio, each gimbal revolution is 1306.67 counts
  16:main.c        ****  *
  17:main.c        ****  */
  18:main.c        **** 
  19:main.c        **** #include <stdio.h>
  20:main.c        **** #include <string.h>
  21:main.c        **** #include <stdlib.h>
  22:main.c        **** #include <math.h>
  23:main.c        **** #include "project.h"
  24:main.c        **** 
ARM GAS  C:\Users\jebush2\AppData\Local\Temp\ccMIKRqc.s 			page 2


  25:main.c        **** #define GIMBAL_MAX_COMPARE (2200)
  26:main.c        **** #define GIMBAL_MOTOR_CUTOFF  (20)
  27:main.c        **** 
  28:main.c        **** #define STEERING_MAX_COMPARE (2200)
  29:main.c        **** #define STEERING_MOTOR_CUTOFF  (260)
  30:main.c        **** 
  31:main.c        **** #define signum(X) ((X > 0) ? 1 : ((X < 0) ? -1 : 0))
  32:main.c        **** 
  33:main.c        **** CY_ISR_PROTO(gimbal_control_loop);
  34:main.c        **** CY_ISR_PROTO(steering_control_loop);
  35:main.c        **** CY_ISR_PROTO(rpi_tx_isr);
  36:main.c        **** CY_ISR_PROTO(timer_isr);
  37:main.c        **** 
  38:main.c        **** const uint16 gimbal_pwm_low = 100;
  39:main.c        **** const uint16 gimbal_pwm_high = 200;
  40:main.c        **** const uint16 gimbal_pwm_target = 132;//132; //143; //120
  41:main.c        **** 
  42:main.c        **** const int16 gimbal_max = 180;
  43:main.c        **** const int16 gimbal_min = -180;
  44:main.c        **** 
  45:main.c        **** volatile int steeringTarget;    // steering setpoint in encoder counts
  46:main.c        **** volatile float phi_w;           // gimbal angular position
  47:main.c        **** volatile float phi_w_dot;       // gimbal angular velocity in rad/s
  48:main.c        **** volatile float phi_b;
  49:main.c        **** volatile float phi_b_dot;
  50:main.c        **** volatile float speed_reading;   // measured gimbal angular velocity in rad/s
  51:main.c        **** 
  52:main.c        **** const int gimbal_enc_min = -217;
  53:main.c        **** const int gimbal_enc_max = 217;
  54:main.c        **** 
  55:main.c        **** const float phi_w_dot_max = 11.5;
  56:main.c        **** 
  57:main.c        **** float alpha();  /* the gimbal angle */
  58:main.c        **** float cmg_pid();
  59:main.c        **** 
  60:main.c        **** int main(void)
  61:main.c        **** {
  62:main.c        ****     CyGlobalIntEnable; /* Enable global interrupts. */
  63:main.c        **** 
  64:main.c        ****     PWM_CMG_Start();
  65:main.c        ****     PWM_CMG_WriteCompare1(gimbal_pwm_low);
  66:main.c        ****     
  67:main.c        ****     LED1_Write(0);
  68:main.c        ****     
  69:main.c        ****     phi_w_dot = 0;  // set gimbal angular velocity to 0
  70:main.c        **** 
  71:main.c        ****     Gimbal_Encoder_Start();
  72:main.c        ****     Gimbal_Encoder_SetCounter(0);
  73:main.c        ****     
  74:main.c        ****     steeringTarget = 0;
  75:main.c        ****     Handle_Encoder_Start();
  76:main.c        ****     Handle_Encoder_SetCounter(0);
  77:main.c        ****     PWM_Steer_Start();
  78:main.c        ****     
  79:main.c        ****     Gimbal_Control_Loop_Interrupt_StartEx(gimbal_control_loop);
  80:main.c        ****     Steering_Control_Loop_Interrupt_StartEx(steering_control_loop);
  81:main.c        ****     Rpi_Tx_Interrupt_StartEx(rpi_tx_isr);
ARM GAS  C:\Users\jebush2\AppData\Local\Temp\ccMIKRqc.s 			page 3


  82:main.c        ****     Timer_Interrupt_StartEx(timer_isr); // start the timer interrupt for gimbal speed measurement
  83:main.c        ****     
  84:main.c        ****     Gimbal_Timer_Start();   // timers control the control loop frequencies
  85:main.c        ****     Steering_Timer_Start();
  86:main.c        ****     UART_Start();
  87:main.c        ****     
  88:main.c        ****     for(;;)
  89:main.c        ****     {
  90:main.c        ****         LED1_Write(0);
  91:main.c        ****         while (SW1_Read()) {
  92:main.c        ****             phi_w_dot = -0.2 * signum(alpha()) / fabs(cos(alpha()));
  93:main.c        ****         }
  94:main.c        ****         CyDelay(500);
  95:main.c        ****         //while (!SW1_Read());
  96:main.c        ****         
  97:main.c        **** #define FLYWHEEL_ENABLE        
  98:main.c        **** #ifdef FLYWHEEL_ENABLE
  99:main.c        ****         for (uint16 comp = gimbal_pwm_low + 10; comp <= gimbal_pwm_target; ++comp) {
 100:main.c        ****             PWM_CMG_WriteCompare1(comp);
 101:main.c        ****             LED1_Write(1);
 102:main.c        ****             CyDelay(500);
 103:main.c        ****             LED1_Write(0);
 104:main.c        ****             CyDelay(500);
 105:main.c        ****             if (SW1_Read()) {
 106:main.c        ****                 break;
 107:main.c        ****             }
 108:main.c        ****         }
 109:main.c        ****         CyDelay(10000);
 110:main.c        **** #endif
 111:main.c        ****         LED1_Write(1);
 112:main.c        ****         
 113:main.c        ****         char reset_flag = 0;
 114:main.c        **** 
 115:main.c        **** #define BALANCE_PID
 116:main.c        ****  
 117:main.c        ****         /* Sliding Mode control for CMG balancing */
 118:main.c        **** #ifndef BALANCE_PID
 119:main.c        ****         while (!SW1_Read()) {
 120:main.c        ****             //phi_w_dot = M_PI;
 121:main.c        ****             //float phi_w_dot_temp = fabs(12.65 * phi_b + 5.56 * phi_b_dot) * signum(3.0 * phi_b + 
 122:main.c        ****             
 123:main.c        ****             if (phi_b < 0.02 && phi_b > -0.02) {
 124:main.c        ****                 phi_w_dot = -0.07 * signum(alpha()) / fabs(cos(alpha()));
 125:main.c        ****                 reset_flag = 0;
 126:main.c        ****             } else if (reset_flag || Gimbal_Encoder_GetCounter() > gimbal_max || Gimbal_Encoder_Get
 127:main.c        ****                 phi_w_dot = -0.2 * signum(alpha()) / fabs(cos(alpha()));
 128:main.c        ****                 reset_flag = (fabs(alpha()) > 0.02);
 129:main.c        ****             } else {
 130:main.c        ****                 float phi_w_dot_temp = -fabs(21.0 * phi_b + 4.0 * phi_b_dot) * signum(3.0 * phi_b +
 131:main.c        ****                 
 132:main.c        ****                 if (fabs(phi_w_dot_temp) > phi_w_dot_max) {
 133:main.c        ****                     phi_w_dot_temp = phi_w_dot_max * signum(phi_w_dot_temp);
 134:main.c        ****                 }
 135:main.c        ****                 phi_w_dot = phi_w_dot_temp;
 136:main.c        ****             }
 137:main.c        ****         }
 138:main.c        **** #endif
ARM GAS  C:\Users\jebush2\AppData\Local\Temp\ccMIKRqc.s 			page 4


 139:main.c        **** 
 140:main.c        ****         /* PID control for CMG balancing */
 141:main.c        **** #ifdef BALANCE_PID
 142:main.c        ****         
 143:main.c        ****         while (!SW1_Read()) {
 144:main.c        ****             phi_w_dot = cmg_pid();
 145:main.c        ****             CyDelay(10);
 146:main.c        ****         }
 147:main.c        **** #endif
 148:main.c        ****         phi_w_dot = 0;
 149:main.c        **** 
 150:main.c        ****         PWM_CMG_WriteCompare1(gimbal_pwm_low);
 151:main.c        ****         
 152:main.c        ****         LED1_Write(0);
 153:main.c        ****         //UART_Stop();
 154:main.c        **** 
 155:main.c        ****         //while (!SW1_Read());
 156:main.c        ****         CyDelay(1000);
 157:main.c        ****         
 158:main.c        ****     }
 159:main.c        ****     
 160:main.c        **** }
 161:main.c        **** 
 162:main.c        **** float cmg_pid()
 163:main.c        **** {
 164:main.c        ****     static const float Kp = 20;
 165:main.c        ****     static const float Ki = 0.0;
 166:main.c        ****     static const float Kd = 2.2;
 167:main.c        ****     static const float dt = 0.01;
 168:main.c        **** 
 169:main.c        ****     //static float previous_error = 0;
 170:main.c        ****     static float integral = 0;
 171:main.c        ****     static float derivative = 0;
 172:main.c        ****     
 173:main.c        ****     float error = 0 - phi_b;
 174:main.c        ****     integral += error * dt;
 175:main.c        ****     derivative = phi_b_dot;
 176:main.c        ****     float output = (Kp*error + Ki*integral + Kd*derivative);
 177:main.c        ****     //previous_error = error;
 178:main.c        ****     
 179:main.c        ****     return output;
 180:main.c        ****     
 181:main.c        **** }
 182:main.c        **** 
 183:main.c        **** /* 10 kHz */
 184:main.c        **** CY_ISR(timer_isr) {
  34              		.loc 1 184 0
  35              		.cfi_startproc
  36              		@ args = 0, pretend = 0, frame = 0
  37              		@ frame_needed = 0, uses_anonymous_args = 0
  38 0000 F8B5     		push	{r3, r4, r5, r6, r7, lr}
  39              		.cfi_def_cfa_offset 24
  40              		.cfi_offset 3, -24
  41              		.cfi_offset 4, -20
  42              		.cfi_offset 5, -16
  43              		.cfi_offset 6, -12
  44              		.cfi_offset 7, -8
ARM GAS  C:\Users\jebush2\AppData\Local\Temp\ccMIKRqc.s 			page 5


  45              		.cfi_offset 14, -4
 185:main.c        ****     static int time_since_change = 0;
 186:main.c        ****     static int last_encoder = 0;
 187:main.c        ****     int new_encoder;
 188:main.c        ****     ++time_since_change;
  46              		.loc 1 188 0
  47 0002 1B4C     		ldr	r4, .L5+8
  48 0004 2368     		ldr	r3, [r4]
  49 0006 0133     		adds	r3, r3, #1
  50 0008 2360     		str	r3, [r4]
 189:main.c        ****     new_encoder = Gimbal_Encoder_GetCounter();
  51              		.loc 1 189 0
  52 000a FFF7FEFF 		bl	Gimbal_Encoder_GetCounter
  53              	.LVL0:
  54 000e 0546     		mov	r5, r0
  55              	.LVL1:
 190:main.c        ****     if (new_encoder != last_encoder) {
  56              		.loc 1 190 0
  57 0010 6068     		ldr	r0, [r4, #4]
  58              	.LVL2:
  59 0012 8542     		cmp	r5, r0
  60 0014 1CD0     		beq	.L2
 191:main.c        ****         speed_reading = (last_encoder - new_encoder) * 38.45 / (float)time_since_change;    //48.07
  61              		.loc 1 191 0
  62 0016 401B     		subs	r0, r0, r5
  63 0018 FFF7FEFF 		bl	__aeabi_i2d
  64              	.LVL3:
  65 001c 12A3     		adr	r3, .L5
  66 001e D3E90023 		ldrd	r2, [r3]
  67 0022 FFF7FEFF 		bl	__aeabi_dmul
  68              	.LVL4:
  69 0026 0646     		mov	r6, r0
  70 0028 0F46     		mov	r7, r1
  71 002a 2068     		ldr	r0, [r4]
  72 002c FFF7FEFF 		bl	__aeabi_i2f
  73              	.LVL5:
  74 0030 FFF7FEFF 		bl	__aeabi_f2d
  75              	.LVL6:
  76 0034 0246     		mov	r2, r0
  77 0036 0B46     		mov	r3, r1
  78 0038 3046     		mov	r0, r6
  79 003a 3946     		mov	r1, r7
  80 003c FFF7FEFF 		bl	__aeabi_ddiv
  81              	.LVL7:
  82 0040 FFF7FEFF 		bl	__aeabi_d2f
  83              	.LVL8:
  84 0044 0B4B     		ldr	r3, .L5+12
  85 0046 1860     		str	r0, [r3]	@ float
 192:main.c        ****         last_encoder = new_encoder;
  86              		.loc 1 192 0
  87 0048 6560     		str	r5, [r4, #4]
 193:main.c        ****         time_since_change = 0;
  88              		.loc 1 193 0
  89 004a 0023     		movs	r3, #0
  90 004c 2360     		str	r3, [r4]
  91 004e F8BD     		pop	{r3, r4, r5, r6, r7, pc}
  92              	.LVL9:
ARM GAS  C:\Users\jebush2\AppData\Local\Temp\ccMIKRqc.s 			page 6


  93              	.L2:
 194:main.c        ****     } else if (time_since_change > 4000) {
  94              		.loc 1 194 0
  95 0050 074B     		ldr	r3, .L5+8
  96 0052 1B68     		ldr	r3, [r3]
  97 0054 B3F57A6F 		cmp	r3, #4000
  98 0058 05DD     		ble	.L1
 195:main.c        ****         speed_reading = 0;
  99              		.loc 1 195 0
 100 005a 0022     		movs	r2, #0
 101 005c 054B     		ldr	r3, .L5+12
 102 005e 1A60     		str	r2, [r3]	@ float
 196:main.c        ****         time_since_change = 0;
 103              		.loc 1 196 0
 104 0060 0022     		movs	r2, #0
 105 0062 034B     		ldr	r3, .L5+8
 106 0064 1A60     		str	r2, [r3]
 107              	.L1:
 108 0066 F8BD     		pop	{r3, r4, r5, r6, r7, pc}
 109              	.LVL10:
 110              	.L6:
 111              		.align	3
 112              	.L5:
 113 0068 9A999999 		.word	-1717986918
 114 006c 99394340 		.word	1078147481
 115 0070 00000000 		.word	.LANCHOR0
 116 0074 00000000 		.word	speed_reading
 117              		.cfi_endproc
 118              	.LFE66:
 119              		.size	timer_isr, .-timer_isr
 120              		.global	__aeabi_fsub
 121              		.global	__aeabi_fmul
 122              		.global	__aeabi_fadd
 123              		.global	__aeabi_fdiv
 124              		.global	__aeabi_fcmplt
 125              		.global	__aeabi_fcmpgt
 126              		.global	__aeabi_d2iz
 127              		.section	.text.gimbal_control_loop,"ax",%progbits
 128              		.align	2
 129              		.global	gimbal_control_loop
 130              		.thumb
 131              		.thumb_func
 132              		.type	gimbal_control_loop, %function
 133              	gimbal_control_loop:
 134              	.LFB67:
 197:main.c        ****     }
 198:main.c        **** }
 199:main.c        **** 
 200:main.c        **** /* velocity PID control loop for gimbal control, 1000Hz */
 201:main.c        **** CY_ISR(gimbal_control_loop)
 202:main.c        **** {
 135              		.loc 1 202 0
 136              		.cfi_startproc
 137              		@ args = 0, pretend = 0, frame = 0
 138              		@ frame_needed = 0, uses_anonymous_args = 0
 139 0000 2DE9F041 		push	{r4, r5, r6, r7, r8, lr}
 140              		.cfi_def_cfa_offset 24
ARM GAS  C:\Users\jebush2\AppData\Local\Temp\ccMIKRqc.s 			page 7


 141              		.cfi_offset 4, -24
 142              		.cfi_offset 5, -20
 143              		.cfi_offset 6, -16
 144              		.cfi_offset 7, -12
 145              		.cfi_offset 8, -8
 146              		.cfi_offset 14, -4
 203:main.c        ****     static const float Kp = .8;
 204:main.c        ****     static const float Ki = 0.02;
 205:main.c        ****     static const float Kd = 0.002;
 206:main.c        ****     static const float dt = 0.002;
 207:main.c        **** 
 208:main.c        ****     static float previous_error = 0;
 209:main.c        ****     static float integral = 0;
 210:main.c        ****     static float derivative = 0;
 211:main.c        ****     
 212:main.c        ****     static float speedValue = 0;
 213:main.c        ****     
 214:main.c        ****     Gimbal_Timer_ReadStatusRegister();
 147              		.loc 1 214 0
 148 0004 FFF7FEFF 		bl	Gimbal_Timer_ReadStatusRegister
 149              	.LVL11:
 215:main.c        **** 
 216:main.c        ****     float speedTarget = phi_w_dot;
 150              		.loc 1 216 0
 151 0008 454B     		ldr	r3, .L21+8
 152 000a 1868     		ldr	r0, [r3]	@ float
 153              	.LVL12:
 217:main.c        ****     float error = (speedTarget - speed_reading) * dt;
 154              		.loc 1 217 0
 155 000c 454B     		ldr	r3, .L21+12
 156 000e 1968     		ldr	r1, [r3]	@ float
 157 0010 FFF7FEFF 		bl	__aeabi_fsub
 158              	.LVL13:
 159 0014 4449     		ldr	r1, .L21+16
 160 0016 FFF7FEFF 		bl	__aeabi_fmul
 161              	.LVL14:
 162 001a 0546     		mov	r5, r0
 163              	.LVL15:
 218:main.c        ****     integral += error * dt;
 164              		.loc 1 218 0
 165 001c 4249     		ldr	r1, .L21+16
 166 001e FFF7FEFF 		bl	__aeabi_fmul
 167              	.LVL16:
 168 0022 424C     		ldr	r4, .L21+20
 169 0024 A168     		ldr	r1, [r4, #8]	@ float
 170 0026 FFF7FEFF 		bl	__aeabi_fadd
 171              	.LVL17:
 172 002a 0646     		mov	r6, r0
 173 002c A060     		str	r0, [r4, #8]	@ float
 219:main.c        ****     derivative = (error - previous_error) / dt;
 174              		.loc 1 219 0
 175 002e E168     		ldr	r1, [r4, #12]	@ float
 176 0030 2846     		mov	r0, r5
 177 0032 FFF7FEFF 		bl	__aeabi_fsub
 178              	.LVL18:
 179 0036 3C49     		ldr	r1, .L21+16
 180 0038 FFF7FEFF 		bl	__aeabi_fdiv
ARM GAS  C:\Users\jebush2\AppData\Local\Temp\ccMIKRqc.s 			page 8


 181              	.LVL19:
 182 003c 0746     		mov	r7, r0
 220:main.c        ****     float output = (Kp * error + Ki * integral + Kd*derivative);
 183              		.loc 1 220 0
 184 003e 3C49     		ldr	r1, .L21+24
 185 0040 2846     		mov	r0, r5
 186 0042 FFF7FEFF 		bl	__aeabi_fmul
 187              	.LVL20:
 188 0046 8046     		mov	r8, r0
 189 0048 3A49     		ldr	r1, .L21+28
 190 004a 3046     		mov	r0, r6
 191 004c FFF7FEFF 		bl	__aeabi_fmul
 192              	.LVL21:
 193 0050 0146     		mov	r1, r0
 194 0052 4046     		mov	r0, r8
 195 0054 FFF7FEFF 		bl	__aeabi_fadd
 196              	.LVL22:
 197 0058 0646     		mov	r6, r0
 198 005a 3349     		ldr	r1, .L21+16
 199 005c 3846     		mov	r0, r7
 200 005e FFF7FEFF 		bl	__aeabi_fmul
 201              	.LVL23:
 202 0062 0146     		mov	r1, r0
 203 0064 3046     		mov	r0, r6
 204 0066 FFF7FEFF 		bl	__aeabi_fadd
 205              	.LVL24:
 221:main.c        ****     previous_error = error;
 206              		.loc 1 221 0
 207 006a E560     		str	r5, [r4, #12]	@ float
 222:main.c        ****     float temp = speedValue + output;
 208              		.loc 1 222 0
 209 006c 2169     		ldr	r1, [r4, #16]	@ float
 210 006e FFF7FEFF 		bl	__aeabi_fadd
 211              	.LVL25:
 212 0072 0446     		mov	r4, r0
 213              	.LVL26:
 223:main.c        ****     if (temp < -1.0) {
 214              		.loc 1 223 0
 215 0074 3049     		ldr	r1, .L21+32
 216 0076 FFF7FEFF 		bl	__aeabi_fcmplt
 217              	.LVL27:
 218 007a 30B9     		cbnz	r0, .L15
 224:main.c        ****         temp = -1.0;
 225:main.c        ****     } else if (temp > 1.0) {
 219              		.loc 1 225 0
 220 007c 4FF07E51 		mov	r1, #1065353216
 221 0080 2046     		mov	r0, r4
 222 0082 FFF7FEFF 		bl	__aeabi_fcmpgt
 223              	.LVL28:
 224 0086 10B9     		cbnz	r0, .L16
 225 0088 03E0     		b	.L8
 226              	.L15:
 224:main.c        ****         temp = -1.0;
 227              		.loc 1 224 0
 228 008a 2B4C     		ldr	r4, .L21+32
 229              	.LVL29:
 230 008c 01E0     		b	.L8
ARM GAS  C:\Users\jebush2\AppData\Local\Temp\ccMIKRqc.s 			page 9


 231              	.LVL30:
 232              	.L16:
 226:main.c        ****         temp = 1.0;
 233              		.loc 1 226 0
 234 008e 4FF07E54 		mov	r4, #1065353216
 235              	.LVL31:
 236              	.L8:
 227:main.c        ****     }
 228:main.c        ****     speedValue = temp;
 237              		.loc 1 228 0
 238 0092 264B     		ldr	r3, .L21+20
 239 0094 1C61     		str	r4, [r3, #16]	@ float
 229:main.c        ****     
 230:main.c        ****     gimbal_direction_Write(speedValue < 0);
 240              		.loc 1 230 0
 241 0096 4FF00105 		mov	r5, #1
 242              	.LVL32:
 243 009a 0021     		movs	r1, #0
 244 009c 2046     		mov	r0, r4
 245 009e FFF7FEFF 		bl	__aeabi_fcmplt
 246              	.LVL33:
 247 00a2 08B9     		cbnz	r0, .L9
 248 00a4 4FF00005 		mov	r5, #0
 249              	.L9:
 250 00a8 05F00100 		and	r0, r5, #1
 251 00ac FFF7FEFF 		bl	gimbal_direction_Write
 252              	.LVL34:
 231:main.c        ****     
 232:main.c        ****     int gimbal_motor_compare = (int)((float)GIMBAL_MAX_COMPARE * fabs(speedValue));
 253              		.loc 1 232 0
 254 00b0 1E4B     		ldr	r3, .L21+20
 255 00b2 1D69     		ldr	r5, [r3, #16]	@ float
 256 00b4 25F00040 		bic	r0, r5, #-2147483648
 257 00b8 FFF7FEFF 		bl	__aeabi_f2d
 258              	.LVL35:
 259 00bc 16A3     		adr	r3, .L21
 260 00be D3E90023 		ldrd	r2, [r3]
 261 00c2 FFF7FEFF 		bl	__aeabi_dmul
 262              	.LVL36:
 263 00c6 FFF7FEFF 		bl	__aeabi_d2iz
 264              	.LVL37:
 265 00ca 0446     		mov	r4, r0
 266              	.LVL38:
 233:main.c        ****     
 234:main.c        ****     if (gimbal_motor_compare < GIMBAL_MOTOR_CUTOFF) gimbal_motor_compare = 0;
 267              		.loc 1 234 0
 268 00cc 1328     		cmp	r0, #19
 269 00ce 00DC     		bgt	.L10
 270 00d0 0024     		movs	r4, #0
 271              	.L10:
 272              	.LVL39:
 235:main.c        ****     
 236:main.c        ****     /* limit gimbal motion */
 237:main.c        **** #ifdef BALANCE_PID
 238:main.c        ****     if (speedValue > 0 && Gimbal_Encoder_GetCounter() < gimbal_min) {
 273              		.loc 1 238 0
 274 00d2 0021     		movs	r1, #0
ARM GAS  C:\Users\jebush2\AppData\Local\Temp\ccMIKRqc.s 			page 10


 275 00d4 2846     		mov	r0, r5
 276 00d6 FFF7FEFF 		bl	__aeabi_fcmpgt
 277              	.LVL40:
 278 00da 48B1     		cbz	r0, .L11
 279              		.loc 1 238 0 is_stmt 0 discriminator 1
 280 00dc FFF7FEFF 		bl	Gimbal_Encoder_GetCounter
 281              	.LVL41:
 282 00e0 10F1B40F 		cmn	r0, #180
 283 00e4 04DA     		bge	.L11
 284              	.LVL42:
 239:main.c        ****         gimbal_motor_compare = 0;
 240:main.c        ****         integral = 0;
 285              		.loc 1 240 0 is_stmt 1
 286 00e6 0022     		movs	r2, #0
 287 00e8 104B     		ldr	r3, .L21+20
 288 00ea 9A60     		str	r2, [r3, #8]	@ float
 239:main.c        ****         gimbal_motor_compare = 0;
 289              		.loc 1 239 0
 290 00ec 0024     		movs	r4, #0
 291              		.loc 1 240 0
 292 00ee 0DE0     		b	.L13
 293              	.LVL43:
 294              	.L11:
 241:main.c        ****     } else if (speedValue < 0 && Gimbal_Encoder_GetCounter() > gimbal_max) {
 295              		.loc 1 241 0
 296 00f0 0021     		movs	r1, #0
 297 00f2 0E4B     		ldr	r3, .L21+20
 298 00f4 1869     		ldr	r0, [r3, #16]	@ float
 299 00f6 FFF7FEFF 		bl	__aeabi_fcmplt
 300              	.LVL44:
 301 00fa 38B1     		cbz	r0, .L13
 302              		.loc 1 241 0 is_stmt 0 discriminator 1
 303 00fc FFF7FEFF 		bl	Gimbal_Encoder_GetCounter
 304              	.LVL45:
 305 0100 B428     		cmp	r0, #180
 306 0102 03DD     		ble	.L13
 307              	.LVL46:
 242:main.c        ****         gimbal_motor_compare = 0;
 243:main.c        ****         integral = 0;
 308              		.loc 1 243 0 is_stmt 1
 309 0104 0022     		movs	r2, #0
 310 0106 094B     		ldr	r3, .L21+20
 311 0108 9A60     		str	r2, [r3, #8]	@ float
 242:main.c        ****         gimbal_motor_compare = 0;
 312              		.loc 1 242 0
 313 010a 0024     		movs	r4, #0
 314              	.LVL47:
 315              	.L13:
 244:main.c        ****     }
 245:main.c        **** #endif
 246:main.c        **** 
 247:main.c        ****     PWM_CMG_WriteCompare2(gimbal_motor_compare);
 316              		.loc 1 247 0
 317 010c A0B2     		uxth	r0, r4
 318 010e FFF7FEFF 		bl	PWM_CMG_WriteCompare2
 319              	.LVL48:
 320 0112 BDE8F081 		pop	{r4, r5, r6, r7, r8, pc}
ARM GAS  C:\Users\jebush2\AppData\Local\Temp\ccMIKRqc.s 			page 11


 321              	.LVL49:
 322              	.L22:
 323 0116 00BF     		.align	3
 324              	.L21:
 325 0118 00000000 		.word	0
 326 011c 0030A140 		.word	1084305408
 327 0120 00000000 		.word	phi_w_dot
 328 0124 00000000 		.word	speed_reading
 329 0128 6F12033B 		.word	990057071
 330 012c 00000000 		.word	.LANCHOR0
 331 0130 CDCC4C3F 		.word	1061997773
 332 0134 0AD7A33C 		.word	1017370378
 333 0138 000080BF 		.word	-1082130432
 334              		.cfi_endproc
 335              	.LFE67:
 336              		.size	gimbal_control_loop, .-gimbal_control_loop
 337              		.global	__aeabi_f2iz
 338              		.section	.text.steering_control_loop,"ax",%progbits
 339              		.align	2
 340              		.global	steering_control_loop
 341              		.thumb
 342              		.thumb_func
 343              		.type	steering_control_loop, %function
 344              	steering_control_loop:
 345              	.LFB68:
 248:main.c        ****    
 249:main.c        **** }
 250:main.c        **** 
 251:main.c        **** CY_ISR(steering_control_loop)
 252:main.c        **** {
 346              		.loc 1 252 0
 347              		.cfi_startproc
 348              		@ args = 0, pretend = 0, frame = 0
 349              		@ frame_needed = 0, uses_anonymous_args = 0
 350 0000 2DE9F041 		push	{r4, r5, r6, r7, r8, lr}
 351              		.cfi_def_cfa_offset 24
 352              		.cfi_offset 4, -24
 353              		.cfi_offset 5, -20
 354              		.cfi_offset 6, -16
 355              		.cfi_offset 7, -12
 356              		.cfi_offset 8, -8
 357              		.cfi_offset 14, -4
 253:main.c        ****     static const float Kp = 10.0;
 254:main.c        ****     static const float Ki = 4.0;
 255:main.c        ****     static const float Kd = 0.5;
 256:main.c        ****     static const float dt = 0.01;
 257:main.c        **** 
 258:main.c        ****     static int previous_error = 0;
 259:main.c        ****     //static int previous_encoder = 0;
 260:main.c        ****     static float integral = 0;
 261:main.c        ****     static float derivative = 0;
 262:main.c        ****     
 263:main.c        ****     Steering_Timer_ReadStatusRegister();
 358              		.loc 1 263 0
 359 0004 FFF7FEFF 		bl	Steering_Timer_ReadStatusRegister
 360              	.LVL50:
 264:main.c        ****     
ARM GAS  C:\Users\jebush2\AppData\Local\Temp\ccMIKRqc.s 			page 12


 265:main.c        ****     int error = steeringTarget - Handle_Encoder_GetCounter();
 361              		.loc 1 265 0
 362 0008 264B     		ldr	r3, .L27
 363 000a 1C68     		ldr	r4, [r3]
 364 000c FFF7FEFF 		bl	Handle_Encoder_GetCounter
 365              	.LVL51:
 366 0010 241A     		subs	r4, r4, r0
 367              	.LVL52:
 266:main.c        ****     integral += error * dt;
 368              		.loc 1 266 0
 369 0012 2046     		mov	r0, r4
 370 0014 FFF7FEFF 		bl	__aeabi_i2f
 371              	.LVL53:
 372 0018 8046     		mov	r8, r0
 373 001a 2349     		ldr	r1, .L27+4
 374 001c FFF7FEFF 		bl	__aeabi_fmul
 375              	.LVL54:
 376 0020 224D     		ldr	r5, .L27+8
 377 0022 6969     		ldr	r1, [r5, #20]	@ float
 378 0024 FFF7FEFF 		bl	__aeabi_fadd
 379              	.LVL55:
 380 0028 0646     		mov	r6, r0
 381 002a 6861     		str	r0, [r5, #20]	@ float
 267:main.c        ****     derivative = (error - previous_error) / dt;
 382              		.loc 1 267 0
 383 002c A869     		ldr	r0, [r5, #24]
 384 002e 201A     		subs	r0, r4, r0
 385 0030 FFF7FEFF 		bl	__aeabi_i2f
 386              	.LVL56:
 387 0034 1C49     		ldr	r1, .L27+4
 388 0036 FFF7FEFF 		bl	__aeabi_fdiv
 389              	.LVL57:
 390 003a 0746     		mov	r7, r0
 268:main.c        ****     int output = (int)(Kp*error + Ki*integral + Kd*derivative);
 391              		.loc 1 268 0
 392 003c 1C49     		ldr	r1, .L27+12
 393 003e 4046     		mov	r0, r8
 394 0040 FFF7FEFF 		bl	__aeabi_fmul
 395              	.LVL58:
 396 0044 8046     		mov	r8, r0
 397 0046 4FF08141 		mov	r1, #1082130432
 398 004a 3046     		mov	r0, r6
 399 004c FFF7FEFF 		bl	__aeabi_fmul
 400              	.LVL59:
 401 0050 0146     		mov	r1, r0
 402 0052 4046     		mov	r0, r8
 403 0054 FFF7FEFF 		bl	__aeabi_fadd
 404              	.LVL60:
 405 0058 0646     		mov	r6, r0
 406 005a 4FF07C51 		mov	r1, #1056964608
 407 005e 3846     		mov	r0, r7
 408 0060 FFF7FEFF 		bl	__aeabi_fmul
 409              	.LVL61:
 410 0064 0146     		mov	r1, r0
 411 0066 3046     		mov	r0, r6
 412 0068 FFF7FEFF 		bl	__aeabi_fadd
 413              	.LVL62:
ARM GAS  C:\Users\jebush2\AppData\Local\Temp\ccMIKRqc.s 			page 13


 414 006c FFF7FEFF 		bl	__aeabi_f2iz
 415              	.LVL63:
 269:main.c        ****     previous_error = error;
 416              		.loc 1 269 0
 417 0070 AC61     		str	r4, [r5, #24]
 270:main.c        ****     
 271:main.c        ****     Steering_Dir_Write(output > 0);
 418              		.loc 1 271 0
 419 0072 0446     		mov	r4, r0
 420              	.LVL64:
 421 0074 0028     		cmp	r0, #0
 422 0076 D4BF     		ite	le
 423 0078 0020     		movle	r0, #0
 424              	.LVL65:
 425 007a 0120     		movgt	r0, #1
 426 007c FFF7FEFF 		bl	Steering_Dir_Write
 427              	.LVL66:
 272:main.c        ****     output = (abs(output) > STEERING_MAX_COMPARE) ? STEERING_MAX_COMPARE : abs(output);
 428              		.loc 1 272 0
 429 0080 84EAE470 		eor	r0, r4, r4, asr #31
 430 0084 A0EBE470 		sub	r0, r0, r4, asr #31
 431 0088 40F69803 		movw	r3, #2200
 432 008c 9842     		cmp	r0, r3
 433 008e A8BF     		it	ge
 434 0090 1846     		movge	r0, r3
 435              	.LVL67:
 273:main.c        ****     if (output < STEERING_MOTOR_CUTOFF) output = 0;
 436              		.loc 1 273 0
 437 0092 B0F5827F 		cmp	r0, #260
 438 0096 00DA     		bge	.L24
 439 0098 0020     		movs	r0, #0
 440              	.LVL68:
 441              	.L24:
 274:main.c        **** //    if ((output > MOTOR_MAX_COMPARE - 10 && abs(Handle_Encoder_GetCounter() - previous_encoder) <
 275:main.c        **** //        output = 0;
 276:main.c        **** //        integral = 0;
 277:main.c        **** //    }
 278:main.c        ****     PWM_Steer_WriteCompare(output);
 442              		.loc 1 278 0
 443 009a 80B2     		uxth	r0, r0
 444              	.LVL69:
 445 009c FFF7FEFF 		bl	PWM_Steer_WriteCompare
 446              	.LVL70:
 447 00a0 BDE8F081 		pop	{r4, r5, r6, r7, r8, pc}
 448              	.L28:
 449              		.align	2
 450              	.L27:
 451 00a4 00000000 		.word	steeringTarget
 452 00a8 0AD7233C 		.word	1008981770
 453 00ac 00000000 		.word	.LANCHOR0
 454 00b0 00002041 		.word	1092616192
 455              		.cfi_endproc
 456              	.LFE68:
 457              		.size	steering_control_loop, .-steering_control_loop
 458              		.section	.text.rpi_tx_isr,"ax",%progbits
 459              		.align	2
 460              		.global	rpi_tx_isr
ARM GAS  C:\Users\jebush2\AppData\Local\Temp\ccMIKRqc.s 			page 14


 461              		.thumb
 462              		.thumb_func
 463              		.type	rpi_tx_isr, %function
 464              	rpi_tx_isr:
 465              	.LFB69:
 279:main.c        ****     //previous_encoder = Handle_Encoder_GetCounter();
 280:main.c        ****    
 281:main.c        **** }
 282:main.c        **** 
 283:main.c        **** 
 284:main.c        **** 
 285:main.c        **** CY_ISR(rpi_tx_isr) {
 466              		.loc 1 285 0
 467              		.cfi_startproc
 468              		@ args = 0, pretend = 0, frame = 0
 469              		@ frame_needed = 0, uses_anonymous_args = 0
 470 0000 10B5     		push	{r4, lr}
 471              		.cfi_def_cfa_offset 8
 472              		.cfi_offset 4, -8
 473              		.cfi_offset 14, -4
 286:main.c        ****     static char receiving = 0;
 287:main.c        ****     static unsigned char buffer[4];
 288:main.c        ****     
 289:main.c        ****     char received = UART_GetChar();
 474              		.loc 1 289 0
 475 0002 FFF7FEFF 		bl	UART_GetChar
 476              	.LVL71:
 290:main.c        ****     
 291:main.c        ****     if (receiving == 0 && received == 0xFF) {   // start byte
 477              		.loc 1 291 0
 478 0006 194B     		ldr	r3, .L33
 479 0008 1B7F     		ldrb	r3, [r3, #28]	@ zero_extendqisi2
 480 000a 2BB9     		cbnz	r3, .L30
 481              		.loc 1 291 0 is_stmt 0 discriminator 1
 482 000c FF28     		cmp	r0, #255
 483 000e 03D1     		bne	.L30
 292:main.c        ****         receiving = 1;
 484              		.loc 1 292 0 is_stmt 1
 485 0010 0122     		movs	r2, #1
 486 0012 164B     		ldr	r3, .L33
 487 0014 1A77     		strb	r2, [r3, #28]
 488 0016 10BD     		pop	{r4, pc}
 489              	.L30:
 293:main.c        ****     } else {
 294:main.c        ****         buffer[receiving - 1] = received;
 490              		.loc 1 294 0
 491 0018 5A1E     		subs	r2, r3, #1
 492 001a 1449     		ldr	r1, .L33
 493 001c 0A44     		add	r2, r2, r1
 494 001e 82F82000 		strb	r0, [r2, #32]
 295:main.c        ****         ++receiving;
 495              		.loc 1 295 0
 496 0022 0133     		adds	r3, r3, #1
 497 0024 DBB2     		uxtb	r3, r3
 498 0026 0B77     		strb	r3, [r1, #28]
 296:main.c        ****         if (receiving > 4) {
 499              		.loc 1 296 0
ARM GAS  C:\Users\jebush2\AppData\Local\Temp\ccMIKRqc.s 			page 15


 500 0028 042B     		cmp	r3, #4
 501 002a 1ED9     		bls	.L29
 502              	.LBB2:
 297:main.c        ****             receiving = 0;
 503              		.loc 1 297 0
 504 002c 0023     		movs	r3, #0
 505 002e 0B77     		strb	r3, [r1, #28]
 298:main.c        ****             int16 phi_b_i = (int16)(((uint16)buffer[0]) << 8) | (uint16)buffer[1];
 506              		.loc 1 298 0
 507 0030 91F82030 		ldrb	r3, [r1, #32]	@ zero_extendqisi2
 508 0034 1B02     		lsls	r3, r3, #8
 509 0036 1BB2     		sxth	r3, r3
 510 0038 91F82100 		ldrb	r0, [r1, #33]	@ zero_extendqisi2
 511              	.LVL72:
 299:main.c        ****             int16 phi_b_dot_i = (int16)(((uint16)buffer[2]) << 8) | (uint16)buffer[3];
 512              		.loc 1 299 0
 513 003c 91F82220 		ldrb	r2, [r1, #34]	@ zero_extendqisi2
 514              	.LVL73:
 515 0040 1202     		lsls	r2, r2, #8
 516 0042 12B2     		sxth	r2, r2
 517 0044 91F82340 		ldrb	r4, [r1, #35]	@ zero_extendqisi2
 518 0048 1443     		orrs	r4, r4, r2
 519              	.LVL74:
 300:main.c        ****             phi_b = (float)phi_b_i / 1000.;// - 0.02;
 520              		.loc 1 300 0
 521 004a 1843     		orrs	r0, r0, r3
 522              	.LVL75:
 523 004c FFF7FEFF 		bl	__aeabi_i2f
 524              	.LVL76:
 525 0050 0749     		ldr	r1, .L33+4
 526 0052 FFF7FEFF 		bl	__aeabi_fdiv
 527              	.LVL77:
 528 0056 074B     		ldr	r3, .L33+8
 529 0058 1860     		str	r0, [r3]	@ float
 301:main.c        ****             phi_b_dot = (float)phi_b_dot_i / 1000.;
 530              		.loc 1 301 0
 531 005a 2046     		mov	r0, r4
 532 005c FFF7FEFF 		bl	__aeabi_i2f
 533              	.LVL78:
 534 0060 0349     		ldr	r1, .L33+4
 535 0062 FFF7FEFF 		bl	__aeabi_fdiv
 536              	.LVL79:
 537 0066 044B     		ldr	r3, .L33+12
 538 0068 1860     		str	r0, [r3]	@ float
 539              	.LVL80:
 540              	.L29:
 541 006a 10BD     		pop	{r4, pc}
 542              	.L34:
 543              		.align	2
 544              	.L33:
 545 006c 00000000 		.word	.LANCHOR0
 546 0070 00007A44 		.word	1148846080
 547 0074 00000000 		.word	phi_b
 548 0078 00000000 		.word	phi_b_dot
 549              	.LBE2:
 550              		.cfi_endproc
 551              	.LFE69:
ARM GAS  C:\Users\jebush2\AppData\Local\Temp\ccMIKRqc.s 			page 16


 552              		.size	rpi_tx_isr, .-rpi_tx_isr
 553              		.section	.text.cmg_pid,"ax",%progbits
 554              		.align	2
 555              		.global	cmg_pid
 556              		.thumb
 557              		.thumb_func
 558              		.type	cmg_pid, %function
 559              	cmg_pid:
 560              	.LFB65:
 163:main.c        ****     static const float Kp = 20;
 561              		.loc 1 163 0
 562              		.cfi_startproc
 563              		@ args = 0, pretend = 0, frame = 0
 564              		@ frame_needed = 0, uses_anonymous_args = 0
 565 0000 70B5     		push	{r4, r5, r6, lr}
 566              		.cfi_def_cfa_offset 16
 567              		.cfi_offset 4, -16
 568              		.cfi_offset 5, -12
 569              		.cfi_offset 6, -8
 570              		.cfi_offset 14, -4
 173:main.c        ****     integral += error * dt;
 571              		.loc 1 173 0
 572 0002 144B     		ldr	r3, .L37
 573 0004 1968     		ldr	r1, [r3]	@ float
 574 0006 0020     		movs	r0, #0
 575 0008 FFF7FEFF 		bl	__aeabi_fsub
 576              	.LVL81:
 577 000c 0646     		mov	r6, r0
 578              	.LVL82:
 174:main.c        ****     derivative = phi_b_dot;
 579              		.loc 1 174 0
 580 000e 1249     		ldr	r1, .L37+4
 581 0010 FFF7FEFF 		bl	__aeabi_fmul
 582              	.LVL83:
 583 0014 114D     		ldr	r5, .L37+8
 584 0016 696A     		ldr	r1, [r5, #36]	@ float
 585 0018 FFF7FEFF 		bl	__aeabi_fadd
 586              	.LVL84:
 587 001c 0446     		mov	r4, r0
 588 001e 6862     		str	r0, [r5, #36]	@ float
 175:main.c        ****     float output = (Kp*error + Ki*integral + Kd*derivative);
 589              		.loc 1 175 0
 590 0020 0F4B     		ldr	r3, .L37+12
 591 0022 1D68     		ldr	r5, [r3]	@ float
 176:main.c        ****     //previous_error = error;
 592              		.loc 1 176 0
 593 0024 0F49     		ldr	r1, .L37+16
 594 0026 3046     		mov	r0, r6
 595 0028 FFF7FEFF 		bl	__aeabi_fmul
 596              	.LVL85:
 597 002c 0646     		mov	r6, r0
 598              	.LVL86:
 599 002e 0021     		movs	r1, #0
 600 0030 2046     		mov	r0, r4
 601 0032 FFF7FEFF 		bl	__aeabi_fmul
 602              	.LVL87:
 603 0036 0146     		mov	r1, r0
ARM GAS  C:\Users\jebush2\AppData\Local\Temp\ccMIKRqc.s 			page 17


 604 0038 3046     		mov	r0, r6
 605 003a FFF7FEFF 		bl	__aeabi_fadd
 606              	.LVL88:
 607 003e 0446     		mov	r4, r0
 608 0040 0949     		ldr	r1, .L37+20
 609 0042 2846     		mov	r0, r5
 610 0044 FFF7FEFF 		bl	__aeabi_fmul
 611              	.LVL89:
 612 0048 0146     		mov	r1, r0
 613 004a 2046     		mov	r0, r4
 614 004c FFF7FEFF 		bl	__aeabi_fadd
 615              	.LVL90:
 181:main.c        **** 
 616              		.loc 1 181 0
 617 0050 70BD     		pop	{r4, r5, r6, pc}
 618              	.L38:
 619 0052 00BF     		.align	2
 620              	.L37:
 621 0054 00000000 		.word	phi_b
 622 0058 0AD7233C 		.word	1008981770
 623 005c 00000000 		.word	.LANCHOR0
 624 0060 00000000 		.word	phi_b_dot
 625 0064 0000A041 		.word	1101004800
 626 0068 CDCC0C40 		.word	1074580685
 627              		.cfi_endproc
 628              	.LFE65:
 629              		.size	cmg_pid, .-cmg_pid
 630              		.section	.text.alpha,"ax",%progbits
 631              		.align	2
 632              		.global	alpha
 633              		.thumb
 634              		.thumb_func
 635              		.type	alpha, %function
 636              	alpha:
 637              	.LFB70:
 302:main.c        ****         }
 303:main.c        ****     } 
 304:main.c        **** }
 305:main.c        **** 
 306:main.c        **** float alpha()
 307:main.c        **** {
 638              		.loc 1 307 0
 639              		.cfi_startproc
 640              		@ args = 0, pretend = 0, frame = 0
 641              		@ frame_needed = 0, uses_anonymous_args = 0
 642 0000 08B5     		push	{r3, lr}
 643              		.cfi_def_cfa_offset 8
 644              		.cfi_offset 3, -8
 645              		.cfi_offset 14, -4
 308:main.c        ****     return -(float)Gimbal_Encoder_GetCounter() * 0.004807; // M_PI * 2 / 1307
 646              		.loc 1 308 0
 647 0002 FFF7FEFF 		bl	Gimbal_Encoder_GetCounter
 648              	.LVL91:
 649 0006 FFF7FEFF 		bl	__aeabi_i2f
 650              	.LVL92:
 651 000a 00F10040 		add	r0, r0, #-2147483648
 652 000e FFF7FEFF 		bl	__aeabi_f2d
ARM GAS  C:\Users\jebush2\AppData\Local\Temp\ccMIKRqc.s 			page 18


 653              	.LVL93:
 654 0012 05A3     		adr	r3, .L41
 655 0014 D3E90023 		ldrd	r2, [r3]
 656 0018 FFF7FEFF 		bl	__aeabi_dmul
 657              	.LVL94:
 658 001c FFF7FEFF 		bl	__aeabi_d2f
 659              	.LVL95:
 309:main.c        **** }
 660              		.loc 1 309 0
 661 0020 08BD     		pop	{r3, pc}
 662              	.L42:
 663 0022 00BFAFF3 		.align	3
 663      0080
 664              	.L41:
 665 0028 F981AB3C 		.word	1017872889
 666 002c 81B0733F 		.word	1064546433
 667              		.cfi_endproc
 668              	.LFE70:
 669              		.size	alpha, .-alpha
 670              		.section	.text.main,"ax",%progbits
 671              		.align	2
 672              		.global	main
 673              		.thumb
 674              		.thumb_func
 675              		.type	main, %function
 676              	main:
 677              	.LFB64:
  61:main.c        ****     CyGlobalIntEnable; /* Enable global interrupts. */
 678              		.loc 1 61 0
 679              		.cfi_startproc
 680              		@ args = 0, pretend = 0, frame = 0
 681              		@ frame_needed = 0, uses_anonymous_args = 0
 682 0000 38B5     		push	{r3, r4, r5, lr}
 683              		.cfi_def_cfa_offset 16
 684              		.cfi_offset 3, -16
 685              		.cfi_offset 4, -12
 686              		.cfi_offset 5, -8
 687              		.cfi_offset 14, -4
  62:main.c        **** 
 688              		.loc 1 62 0
 689              		.syntax unified
 690              	@ 62 "main.c" 1
 691 0002 62B6     		CPSIE   i
 692              	@ 0 "" 2
  64:main.c        ****     PWM_CMG_WriteCompare1(gimbal_pwm_low);
 693              		.loc 1 64 0
 694              		.thumb
 695              		.syntax unified
 696 0004 FFF7FEFF 		bl	PWM_CMG_Start
 697              	.LVL96:
  65:main.c        ****     
 698              		.loc 1 65 0
 699 0008 6420     		movs	r0, #100
 700 000a FFF7FEFF 		bl	PWM_CMG_WriteCompare1
 701              	.LVL97:
  67:main.c        ****     
 702              		.loc 1 67 0
ARM GAS  C:\Users\jebush2\AppData\Local\Temp\ccMIKRqc.s 			page 19


 703 000e 0020     		movs	r0, #0
 704 0010 FFF7FEFF 		bl	LED1_Write
 705              	.LVL98:
  69:main.c        **** 
 706              		.loc 1 69 0
 707 0014 0022     		movs	r2, #0
 708 0016 4E4B     		ldr	r3, .L59+16
 709 0018 1A60     		str	r2, [r3]	@ float
  71:main.c        ****     Gimbal_Encoder_SetCounter(0);
 710              		.loc 1 71 0
 711 001a FFF7FEFF 		bl	Gimbal_Encoder_Start
 712              	.LVL99:
  72:main.c        ****     
 713              		.loc 1 72 0
 714 001e 0020     		movs	r0, #0
 715 0020 FFF7FEFF 		bl	Gimbal_Encoder_SetCounter
 716              	.LVL100:
  74:main.c        ****     Handle_Encoder_Start();
 717              		.loc 1 74 0
 718 0024 0024     		movs	r4, #0
 719 0026 4B4B     		ldr	r3, .L59+20
 720 0028 1C60     		str	r4, [r3]
  75:main.c        ****     Handle_Encoder_SetCounter(0);
 721              		.loc 1 75 0
 722 002a FFF7FEFF 		bl	Handle_Encoder_Start
 723              	.LVL101:
  76:main.c        ****     PWM_Steer_Start();
 724              		.loc 1 76 0
 725 002e 2046     		mov	r0, r4
 726 0030 FFF7FEFF 		bl	Handle_Encoder_SetCounter
 727              	.LVL102:
  77:main.c        ****     
 728              		.loc 1 77 0
 729 0034 FFF7FEFF 		bl	PWM_Steer_Start
 730              	.LVL103:
  79:main.c        ****     Steering_Control_Loop_Interrupt_StartEx(steering_control_loop);
 731              		.loc 1 79 0
 732 0038 4748     		ldr	r0, .L59+24
 733 003a FFF7FEFF 		bl	Gimbal_Control_Loop_Interrupt_StartEx
 734              	.LVL104:
  80:main.c        ****     Rpi_Tx_Interrupt_StartEx(rpi_tx_isr);
 735              		.loc 1 80 0
 736 003e 4748     		ldr	r0, .L59+28
 737 0040 FFF7FEFF 		bl	Steering_Control_Loop_Interrupt_StartEx
 738              	.LVL105:
  81:main.c        ****     Timer_Interrupt_StartEx(timer_isr); // start the timer interrupt for gimbal speed measurement
 739              		.loc 1 81 0
 740 0044 4648     		ldr	r0, .L59+32
 741 0046 FFF7FEFF 		bl	Rpi_Tx_Interrupt_StartEx
 742              	.LVL106:
  82:main.c        ****     
 743              		.loc 1 82 0
 744 004a 4648     		ldr	r0, .L59+36
 745 004c FFF7FEFF 		bl	Timer_Interrupt_StartEx
 746              	.LVL107:
  84:main.c        ****     Steering_Timer_Start();
 747              		.loc 1 84 0
ARM GAS  C:\Users\jebush2\AppData\Local\Temp\ccMIKRqc.s 			page 20


 748 0050 FFF7FEFF 		bl	Gimbal_Timer_Start
 749              	.LVL108:
  85:main.c        ****     UART_Start();
 750              		.loc 1 85 0
 751 0054 FFF7FEFF 		bl	Steering_Timer_Start
 752              	.LVL109:
  86:main.c        ****     
 753              		.loc 1 86 0
 754 0058 FFF7FEFF 		bl	UART_Start
 755              	.LVL110:
 756              	.L53:
 757              	.LBB3:
  90:main.c        ****         while (SW1_Read()) {
 758              		.loc 1 90 0
 759 005c 0020     		movs	r0, #0
 760 005e FFF7FEFF 		bl	LED1_Write
 761              	.LVL111:
  91:main.c        ****             phi_w_dot = -0.2 * signum(alpha()) / fabs(cos(alpha()));
 762              		.loc 1 91 0
 763 0062 27E0     		b	.L44
 764              	.L47:
  92:main.c        ****         }
 765              		.loc 1 92 0
 766 0064 FFF7FEFF 		bl	alpha
 767              	.LVL112:
 768 0068 0021     		movs	r1, #0
 769 006a FFF7FEFF 		bl	__aeabi_fcmpgt
 770              	.LVL113:
 771 006e 48B9     		cbnz	r0, .L54
  92:main.c        ****         }
 772              		.loc 1 92 0 is_stmt 0 discriminator 2
 773 0070 FFF7FEFF 		bl	alpha
 774              	.LVL114:
 775 0074 0021     		movs	r1, #0
 776 0076 FFF7FEFF 		bl	__aeabi_fcmplt
 777              	.LVL115:
 778 007a 38B1     		cbz	r0, .L57
  92:main.c        ****         }
 779              		.loc 1 92 0
 780 007c 30A5     		adr	r5, .L59
 781 007e D5E90045 		ldrd	r4, [r5]
 782 0082 06E0     		b	.L45
 783              	.L54:
 784 0084 30A5     		adr	r5, .L59+8
 785 0086 D5E90045 		ldrd	r4, [r5]
 786 008a 02E0     		b	.L45
 787              	.L57:
 788 008c 0024     		movs	r4, #0
 789 008e 4FF00045 		mov	r5, #-2147483648
 790              	.L45:
  92:main.c        ****         }
 791              		.loc 1 92 0 discriminator 8
 792 0092 FFF7FEFF 		bl	alpha
 793              	.LVL116:
 794 0096 FFF7FEFF 		bl	__aeabi_f2d
 795              	.LVL117:
 796 009a FFF7FEFF 		bl	cos
ARM GAS  C:\Users\jebush2\AppData\Local\Temp\ccMIKRqc.s 			page 21


 797              	.LVL118:
 798 009e 0246     		mov	r2, r0
 799 00a0 21F00043 		bic	r3, r1, #-2147483648
 800 00a4 2046     		mov	r0, r4
 801 00a6 2946     		mov	r1, r5
 802 00a8 FFF7FEFF 		bl	__aeabi_ddiv
 803              	.LVL119:
 804 00ac FFF7FEFF 		bl	__aeabi_d2f
 805              	.LVL120:
 806 00b0 274B     		ldr	r3, .L59+16
 807 00b2 1860     		str	r0, [r3]	@ float
 808              	.L44:
  91:main.c        ****             phi_w_dot = -0.2 * signum(alpha()) / fabs(cos(alpha()));
 809              		.loc 1 91 0 is_stmt 1
 810 00b4 FFF7FEFF 		bl	SW1_Read
 811              	.LVL121:
 812 00b8 0028     		cmp	r0, #0
 813 00ba D3D1     		bne	.L47
  94:main.c        ****         //while (!SW1_Read());
 814              		.loc 1 94 0
 815 00bc 4FF4FA70 		mov	r0, #500
 816 00c0 FFF7FEFF 		bl	CyDelay
 817              	.LVL122:
 818              	.LBB4:
  99:main.c        ****             PWM_CMG_WriteCompare1(comp);
 819              		.loc 1 99 0
 820 00c4 6E24     		movs	r4, #110
 821 00c6 15E0     		b	.L48
 822              	.LVL123:
 823              	.L50:
 100:main.c        ****             LED1_Write(1);
 824              		.loc 1 100 0
 825 00c8 2046     		mov	r0, r4
 826 00ca FFF7FEFF 		bl	PWM_CMG_WriteCompare1
 827              	.LVL124:
 101:main.c        ****             CyDelay(500);
 828              		.loc 1 101 0
 829 00ce 0120     		movs	r0, #1
 830 00d0 FFF7FEFF 		bl	LED1_Write
 831              	.LVL125:
 102:main.c        ****             LED1_Write(0);
 832              		.loc 1 102 0
 833 00d4 4FF4FA70 		mov	r0, #500
 834 00d8 FFF7FEFF 		bl	CyDelay
 835              	.LVL126:
 103:main.c        ****             CyDelay(500);
 836              		.loc 1 103 0
 837 00dc 0020     		movs	r0, #0
 838 00de FFF7FEFF 		bl	LED1_Write
 839              	.LVL127:
 104:main.c        ****             if (SW1_Read()) {
 840              		.loc 1 104 0
 841 00e2 4FF4FA70 		mov	r0, #500
 842 00e6 FFF7FEFF 		bl	CyDelay
 843              	.LVL128:
 105:main.c        ****                 break;
 844              		.loc 1 105 0
ARM GAS  C:\Users\jebush2\AppData\Local\Temp\ccMIKRqc.s 			page 22


 845 00ea FFF7FEFF 		bl	SW1_Read
 846              	.LVL129:
 847 00ee 18B9     		cbnz	r0, .L49
  99:main.c        ****             PWM_CMG_WriteCompare1(comp);
 848              		.loc 1 99 0 discriminator 2
 849 00f0 0134     		adds	r4, r4, #1
 850              	.LVL130:
 851 00f2 A4B2     		uxth	r4, r4
 852              	.LVL131:
 853              	.L48:
  99:main.c        ****             PWM_CMG_WriteCompare1(comp);
 854              		.loc 1 99 0 is_stmt 0 discriminator 1
 855 00f4 842C     		cmp	r4, #132
 856 00f6 E7D9     		bls	.L50
 857              	.L49:
 858              	.LBE4:
 109:main.c        **** #endif
 859              		.loc 1 109 0 is_stmt 1
 860 00f8 42F21070 		movw	r0, #10000
 861 00fc FFF7FEFF 		bl	CyDelay
 862              	.LVL132:
 111:main.c        ****         
 863              		.loc 1 111 0
 864 0100 0120     		movs	r0, #1
 865 0102 FFF7FEFF 		bl	LED1_Write
 866              	.LVL133:
 143:main.c        ****             phi_w_dot = cmg_pid();
 867              		.loc 1 143 0
 868 0106 06E0     		b	.L51
 869              	.L52:
 144:main.c        ****             CyDelay(10);
 870              		.loc 1 144 0
 871 0108 FFF7FEFF 		bl	cmg_pid
 872              	.LVL134:
 873 010c 104B     		ldr	r3, .L59+16
 874 010e 1860     		str	r0, [r3]	@ float
 145:main.c        ****         }
 875              		.loc 1 145 0
 876 0110 0A20     		movs	r0, #10
 877 0112 FFF7FEFF 		bl	CyDelay
 878              	.LVL135:
 879              	.L51:
 143:main.c        ****             phi_w_dot = cmg_pid();
 880              		.loc 1 143 0
 881 0116 FFF7FEFF 		bl	SW1_Read
 882              	.LVL136:
 883 011a 0028     		cmp	r0, #0
 884 011c F4D0     		beq	.L52
 148:main.c        **** 
 885              		.loc 1 148 0
 886 011e 0022     		movs	r2, #0
 887 0120 0B4B     		ldr	r3, .L59+16
 888 0122 1A60     		str	r2, [r3]	@ float
 150:main.c        ****         
 889              		.loc 1 150 0
 890 0124 6420     		movs	r0, #100
 891 0126 FFF7FEFF 		bl	PWM_CMG_WriteCompare1
ARM GAS  C:\Users\jebush2\AppData\Local\Temp\ccMIKRqc.s 			page 23


 892              	.LVL137:
 152:main.c        ****         //UART_Stop();
 893              		.loc 1 152 0
 894 012a 0020     		movs	r0, #0
 895 012c FFF7FEFF 		bl	LED1_Write
 896              	.LVL138:
 156:main.c        ****         
 897              		.loc 1 156 0
 898 0130 4FF47A70 		mov	r0, #1000
 899 0134 FFF7FEFF 		bl	CyDelay
 900              	.LVL139:
 901              	.LBE3:
 158:main.c        ****     
 902              		.loc 1 158 0
 903 0138 90E7     		b	.L53
 904              	.L60:
 905 013a 00BFAFF3 		.align	3
 905      0080
 906              	.L59:
 907 0140 9A999999 		.word	-1717986918
 908 0144 9999C93F 		.word	1070176665
 909 0148 9A999999 		.word	-1717986918
 910 014c 9999C9BF 		.word	-1077306983
 911 0150 00000000 		.word	phi_w_dot
 912 0154 00000000 		.word	steeringTarget
 913 0158 00000000 		.word	gimbal_control_loop
 914 015c 00000000 		.word	steering_control_loop
 915 0160 00000000 		.word	rpi_tx_isr
 916 0164 00000000 		.word	timer_isr
 917              		.cfi_endproc
 918              	.LFE64:
 919              		.size	main, .-main
 920              		.global	phi_w_dot_max
 921              		.global	gimbal_enc_max
 922              		.global	gimbal_enc_min
 923              		.comm	speed_reading,4,4
 924              		.comm	phi_b_dot,4,4
 925              		.comm	phi_b,4,4
 926              		.comm	phi_w_dot,4,4
 927              		.comm	phi_w,4,4
 928              		.comm	steeringTarget,4,4
 929              		.global	gimbal_min
 930              		.global	gimbal_max
 931              		.global	gimbal_pwm_target
 932              		.global	gimbal_pwm_high
 933              		.global	gimbal_pwm_low
 934              		.section	.rodata
 935              		.align	2
 936              		.type	phi_w_dot_max, %object
 937              		.size	phi_w_dot_max, 4
 938              	phi_w_dot_max:
 939 0000 00003841 		.word	1094189056
 940              		.type	gimbal_enc_max, %object
 941              		.size	gimbal_enc_max, 4
 942              	gimbal_enc_max:
 943 0004 D9000000 		.word	217
 944              		.type	gimbal_enc_min, %object
ARM GAS  C:\Users\jebush2\AppData\Local\Temp\ccMIKRqc.s 			page 24


 945              		.size	gimbal_enc_min, 4
 946              	gimbal_enc_min:
 947 0008 27FFFFFF 		.word	-217
 948              		.type	gimbal_min, %object
 949              		.size	gimbal_min, 2
 950              	gimbal_min:
 951 000c 4CFF     		.short	-180
 952              		.type	gimbal_max, %object
 953              		.size	gimbal_max, 2
 954              	gimbal_max:
 955 000e B400     		.short	180
 956              		.type	gimbal_pwm_target, %object
 957              		.size	gimbal_pwm_target, 2
 958              	gimbal_pwm_target:
 959 0010 8400     		.short	132
 960              		.type	gimbal_pwm_high, %object
 961              		.size	gimbal_pwm_high, 2
 962              	gimbal_pwm_high:
 963 0012 C800     		.short	200
 964              		.type	gimbal_pwm_low, %object
 965              		.size	gimbal_pwm_low, 2
 966              	gimbal_pwm_low:
 967 0014 6400     		.short	100
 968              		.bss
 969              		.align	2
 970              		.set	.LANCHOR0,. + 0
 971              		.type	time_since_change.8102, %object
 972              		.size	time_since_change.8102, 4
 973              	time_since_change.8102:
 974 0000 00000000 		.space	4
 975              		.type	last_encoder.8103, %object
 976              		.size	last_encoder.8103, 4
 977              	last_encoder.8103:
 978 0004 00000000 		.space	4
 979              		.type	integral.8113, %object
 980              		.size	integral.8113, 4
 981              	integral.8113:
 982 0008 00000000 		.space	4
 983              		.type	previous_error.8112, %object
 984              		.size	previous_error.8112, 4
 985              	previous_error.8112:
 986 000c 00000000 		.space	4
 987              		.type	speedValue.8115, %object
 988              		.size	speedValue.8115, 4
 989              	speedValue.8115:
 990 0010 00000000 		.space	4
 991              		.type	integral.8129, %object
 992              		.size	integral.8129, 4
 993              	integral.8129:
 994 0014 00000000 		.space	4
 995              		.type	previous_error.8128, %object
 996              		.size	previous_error.8128, 4
 997              	previous_error.8128:
 998 0018 00000000 		.space	4
 999              		.type	receiving.8136, %object
 1000              		.size	receiving.8136, 1
 1001              	receiving.8136:
ARM GAS  C:\Users\jebush2\AppData\Local\Temp\ccMIKRqc.s 			page 25


 1002 001c 00       		.space	1
 1003 001d 000000   		.space	3
 1004              		.type	buffer.8137, %object
 1005              		.size	buffer.8137, 4
 1006              	buffer.8137:
 1007 0020 00000000 		.space	4
 1008              		.type	integral.8095, %object
 1009              		.size	integral.8095, 4
 1010              	integral.8095:
 1011 0024 00000000 		.space	4
 1012              		.text
 1013              	.Letext0:
 1014              		.file 2 "c:\\program files (x86)\\cypress\\psoc creator\\4.2\\psoc creator\\import\\gnu\\arm\\5.4.
 1015              		.file 3 "c:\\program files (x86)\\cypress\\psoc creator\\4.2\\psoc creator\\import\\gnu\\arm\\5.4.
 1016              		.file 4 "Generated_Source\\PSoC5/cytypes.h"
 1017              		.file 5 "Generated_Source\\PSoC5/core_cm3.h"
 1018              		.file 6 "Generated_Source\\PSoC5/Gimbal_Encoder.h"
 1019              		.file 7 "Generated_Source\\PSoC5/Gimbal_Timer.h"
 1020              		.file 8 "Generated_Source\\PSoC5/gimbal_direction.h"
 1021              		.file 9 "Generated_Source\\PSoC5/PWM_CMG.h"
 1022              		.file 10 "Generated_Source\\PSoC5/Steering_Timer.h"
 1023              		.file 11 "Generated_Source\\PSoC5/Handle_Encoder.h"
 1024              		.file 12 "Generated_Source\\PSoC5/Steering_Dir.h"
 1025              		.file 13 "Generated_Source\\PSoC5/PWM_Steer.h"
 1026              		.file 14 "Generated_Source\\PSoC5/UART.h"
 1027              		.file 15 "Generated_Source\\PSoC5/LED1.h"
 1028              		.file 16 "Generated_Source\\PSoC5/CyLib.h"
 1029              		.file 17 "Generated_Source\\PSoC5/SW1.h"
 1030              		.file 18 "Generated_Source\\PSoC5/Gimbal_Control_Loop_Interrupt.h"
 1031              		.file 19 "Generated_Source\\PSoC5/Steering_Control_Loop_Interrupt.h"
 1032              		.file 20 "Generated_Source\\PSoC5/Rpi_Tx_Interrupt.h"
 1033              		.file 21 "Generated_Source\\PSoC5/Timer_Interrupt.h"
 1034              		.file 22 "c:\\program files (x86)\\cypress\\psoc creator\\4.2\\psoc creator\\import\\gnu\\arm\\5.4