ARM GAS  C:\Users\jebush2\AppData\Local\Temp\ccl4YIpn.s 			page 1


   1              		.syntax unified
   2              		.cpu cortex-m3
   3              		.fpu softvfp
   4              		.eabi_attribute 20, 1
   5              		.eabi_attribute 21, 1
   6              		.eabi_attribute 23, 3
   7              		.eabi_attribute 24, 1
   8              		.eabi_attribute 25, 1
   9              		.eabi_attribute 26, 1
  10              		.eabi_attribute 30, 1
  11              		.eabi_attribute 34, 1
  12              		.eabi_attribute 18, 4
  13              		.thumb
  14              		.syntax unified
  15              		.file	"bno055.c"
  16              		.text
  17              	.Ltext0:
  18              		.cfi_sections	.debug_frame
  19              		.section	.text.bno_write,"ax",%progbits
  20              		.align	2
  21              		.global	bno_write
  22              		.thumb
  23              		.thumb_func
  24              		.type	bno_write, %function
  25              	bno_write:
  26              	.LFB64:
  27              		.file 1 "bno055.c"
   1:bno055.c      **** /*
   2:bno055.c      ****  * Driver for BNO055
   3:bno055.c      ****  *
   4:bno055.c      ****  * by Jonathan Bush
   5:bno055.c      ****  * 2019
   6:bno055.c      ****  */
   7:bno055.c      **** 
   8:bno055.c      **** #include "project.h"
   9:bno055.c      **** #include "bno055.h"
  10:bno055.c      **** 
  11:bno055.c      **** #define DEVICE_ADDRESS 0x28
  12:bno055.c      **** #define BNO055_ID (0xA0)
  13:bno055.c      **** 
  14:bno055.c      **** //volatile euler_angles orientation = {.roll = 0, .pitch = 0, .yaw = 0};
  15:bno055.c      **** 
  16:bno055.c      **** int16 angle_divider = BNO_DEGREES;
  17:bno055.c      **** 
  18:bno055.c      **** int bno_init(uint8 mode, bno055_angle_unit_t units) {
  19:bno055.c      ****     CyDelay(3000);
  20:bno055.c      ****     uint8_t id = bno_read(BNO055_CHIP_ID_ADDR);
  21:bno055.c      ****     if (id != BNO055_ID) {
  22:bno055.c      ****         CyDelay(1000); // hold on for boot
  23:bno055.c      ****         id = bno_read(BNO055_CHIP_ID_ADDR);
  24:bno055.c      ****         if (id != BNO055_ID) {
  25:bno055.c      ****             return 0; // still not? ok bail
  26:bno055.c      ****         }
  27:bno055.c      ****     }
  28:bno055.c      ****     
  29:bno055.c      ****     bno_write(BNO055_OPR_MODE_ADDR, OPERATION_MODE_CONFIG);
  30:bno055.c      ****     CyDelay(600);
ARM GAS  C:\Users\jebush2\AppData\Local\Temp\ccl4YIpn.s 			page 2


  31:bno055.c      ****     bno_write(BNO055_SYS_TRIGGER_ADDR, 0x20);   // reset
  32:bno055.c      ****     CyDelay(1000);
  33:bno055.c      ****     while (bno_read(BNO055_CHIP_ID_ADDR) != BNO055_ID) {
  34:bno055.c      ****         CyDelay(100);
  35:bno055.c      ****     }
  36:bno055.c      ****     CyDelay(600);
  37:bno055.c      ****     
  38:bno055.c      ****     bno_write(BNO055_PWR_MODE_ADDR, POWER_MODE_NORMAL);
  39:bno055.c      ****     CyDelay(100);
  40:bno055.c      ****     
  41:bno055.c      ****     bno_write(BNO055_PAGE_ID_ADDR, 0);
  42:bno055.c      ****     CyDelay(100);
  43:bno055.c      ****     
  44:bno055.c      ****     bno_write(BNO055_SYS_TRIGGER_ADDR, 0x00);   // 0x80 = use external crystal / 0x00 = use interna
  45:bno055.c      ****     CyDelay(200);
  46:bno055.c      ****     
  47:bno055.c      ****     bno_write(BNO055_OPR_MODE_ADDR, mode);
  48:bno055.c      ****     CyDelay(600);
  49:bno055.c      ****     
  50:bno055.c      ****     angle_divider = units;
  51:bno055.c      ****     
  52:bno055.c      ****     return 1;
  53:bno055.c      ****     
  54:bno055.c      **** }
  55:bno055.c      **** 
  56:bno055.c      **** /* writes a single byte register */
  57:bno055.c      **** void bno_write(uint8 reg, uint8 data) {
  28              		.loc 1 57 0
  29              		.cfi_startproc
  30              		@ args = 0, pretend = 0, frame = 0
  31              		@ frame_needed = 0, uses_anonymous_args = 0
  32              	.LVL0:
  33 0000 38B5     		push	{r3, r4, r5, lr}
  34              		.cfi_def_cfa_offset 16
  35              		.cfi_offset 3, -16
  36              		.cfi_offset 4, -12
  37              		.cfi_offset 5, -8
  38              		.cfi_offset 14, -4
  39 0002 0546     		mov	r5, r0
  40 0004 0C46     		mov	r4, r1
  58:bno055.c      ****     uint8 status = I2C_MasterSendStart(DEVICE_ADDRESS, I2C_WRITE_XFER_MODE);
  41              		.loc 1 58 0
  42 0006 0021     		movs	r1, #0
  43              	.LVL1:
  44 0008 2820     		movs	r0, #40
  45              	.LVL2:
  46 000a FFF7FEFF 		bl	I2C_MasterSendStart
  47              	.LVL3:
  59:bno055.c      ****     if (status == I2C_MSTR_NO_ERROR) {
  48              		.loc 1 59 0
  49 000e 40B9     		cbnz	r0, .L2
  60:bno055.c      ****         I2C_MasterWriteByte(reg);
  50              		.loc 1 60 0
  51 0010 2846     		mov	r0, r5
  52              	.LVL4:
  53 0012 FFF7FEFF 		bl	I2C_MasterWriteByte
  54              	.LVL5:
ARM GAS  C:\Users\jebush2\AppData\Local\Temp\ccl4YIpn.s 			page 3


  61:bno055.c      ****         LED_Write(0);
  55              		.loc 1 61 0
  56 0016 0020     		movs	r0, #0
  57 0018 FFF7FEFF 		bl	LED_Write
  58              	.LVL6:
  62:bno055.c      ****         I2C_MasterWriteByte(data);
  59              		.loc 1 62 0
  60 001c 2046     		mov	r0, r4
  61 001e FFF7FEFF 		bl	I2C_MasterWriteByte
  62              	.LVL7:
  63              	.L2:
  63:bno055.c      ****     }
  64:bno055.c      ****     
  65:bno055.c      ****     I2C_MasterSendStop();
  64              		.loc 1 65 0
  65 0022 FFF7FEFF 		bl	I2C_MasterSendStop
  66              	.LVL8:
  67 0026 38BD     		pop	{r3, r4, r5, pc}
  68              		.cfi_endproc
  69              	.LFE64:
  70              		.size	bno_write, .-bno_write
  71              		.section	.text.bno_read,"ax",%progbits
  72              		.align	2
  73              		.global	bno_read
  74              		.thumb
  75              		.thumb_func
  76              		.type	bno_read, %function
  77              	bno_read:
  78              	.LFB65:
  66:bno055.c      ****     
  67:bno055.c      **** }
  68:bno055.c      **** 
  69:bno055.c      **** /* reads a single byte register */
  70:bno055.c      **** uint8 bno_read(uint8 reg) {
  79              		.loc 1 70 0
  80              		.cfi_startproc
  81              		@ args = 0, pretend = 0, frame = 0
  82              		@ frame_needed = 0, uses_anonymous_args = 0
  83              	.LVL9:
  84 0000 10B5     		push	{r4, lr}
  85              		.cfi_def_cfa_offset 8
  86              		.cfi_offset 4, -8
  87              		.cfi_offset 14, -4
  88 0002 0446     		mov	r4, r0
  71:bno055.c      ****     uint8 status = I2C_MasterSendStart(DEVICE_ADDRESS, I2C_WRITE_XFER_MODE);
  89              		.loc 1 71 0
  90 0004 0021     		movs	r1, #0
  91 0006 2820     		movs	r0, #40
  92              	.LVL10:
  93 0008 FFF7FEFF 		bl	I2C_MasterSendStart
  94              	.LVL11:
  72:bno055.c      ****     I2C_MasterWriteByte(reg);
  95              		.loc 1 72 0
  96 000c 2046     		mov	r0, r4
  97 000e FFF7FEFF 		bl	I2C_MasterWriteByte
  98              	.LVL12:
  73:bno055.c      ****     I2C_MasterSendRestart(DEVICE_ADDRESS, I2C_READ_XFER_MODE);
ARM GAS  C:\Users\jebush2\AppData\Local\Temp\ccl4YIpn.s 			page 4


  99              		.loc 1 73 0
 100 0012 0121     		movs	r1, #1
 101 0014 2820     		movs	r0, #40
 102 0016 FFF7FEFF 		bl	I2C_MasterSendRestart
 103              	.LVL13:
  74:bno055.c      ****     uint8 data = I2C_MasterReadByte(I2C_NAK_DATA);
 104              		.loc 1 74 0
 105 001a 0020     		movs	r0, #0
 106 001c FFF7FEFF 		bl	I2C_MasterReadByte
 107              	.LVL14:
 108 0020 0446     		mov	r4, r0
 109              	.LVL15:
  75:bno055.c      ****     I2C_MasterSendStop();
 110              		.loc 1 75 0
 111 0022 FFF7FEFF 		bl	I2C_MasterSendStop
 112              	.LVL16:
  76:bno055.c      ****     return data;
  77:bno055.c      **** }
 113              		.loc 1 77 0
 114 0026 2046     		mov	r0, r4
 115 0028 10BD     		pop	{r4, pc}
 116              		.cfi_endproc
 117              	.LFE65:
 118              		.size	bno_read, .-bno_read
 119              		.section	.text.bno_init,"ax",%progbits
 120              		.align	2
 121              		.global	bno_init
 122              		.thumb
 123              		.thumb_func
 124              		.type	bno_init, %function
 125              	bno_init:
 126              	.LFB63:
  18:bno055.c      ****     CyDelay(3000);
 127              		.loc 1 18 0
 128              		.cfi_startproc
 129              		@ args = 0, pretend = 0, frame = 0
 130              		@ frame_needed = 0, uses_anonymous_args = 0
 131              	.LVL17:
 132 0000 38B5     		push	{r3, r4, r5, lr}
 133              		.cfi_def_cfa_offset 16
 134              		.cfi_offset 3, -16
 135              		.cfi_offset 4, -12
 136              		.cfi_offset 5, -8
 137              		.cfi_offset 14, -4
 138 0002 0546     		mov	r5, r0
 139 0004 0C46     		mov	r4, r1
  19:bno055.c      ****     uint8_t id = bno_read(BNO055_CHIP_ID_ADDR);
 140              		.loc 1 19 0
 141 0006 40F6B830 		movw	r0, #3000
 142              	.LVL18:
 143 000a FFF7FEFF 		bl	CyDelay
 144              	.LVL19:
  20:bno055.c      ****     if (id != BNO055_ID) {
 145              		.loc 1 20 0
 146 000e 0020     		movs	r0, #0
 147 0010 FFF7FEFF 		bl	bno_read
 148              	.LVL20:
ARM GAS  C:\Users\jebush2\AppData\Local\Temp\ccl4YIpn.s 			page 5


  21:bno055.c      ****         CyDelay(1000); // hold on for boot
 149              		.loc 1 21 0
 150 0014 A028     		cmp	r0, #160
 151 0016 08D0     		beq	.L7
  22:bno055.c      ****         id = bno_read(BNO055_CHIP_ID_ADDR);
 152              		.loc 1 22 0
 153 0018 4FF47A70 		mov	r0, #1000
 154              	.LVL21:
 155 001c FFF7FEFF 		bl	CyDelay
 156              	.LVL22:
  23:bno055.c      ****         if (id != BNO055_ID) {
 157              		.loc 1 23 0
 158 0020 0020     		movs	r0, #0
 159 0022 FFF7FEFF 		bl	bno_read
 160              	.LVL23:
  24:bno055.c      ****             return 0; // still not? ok bail
 161              		.loc 1 24 0
 162 0026 A028     		cmp	r0, #160
 163 0028 3DD1     		bne	.L11
 164              	.L7:
  29:bno055.c      ****     CyDelay(600);
 165              		.loc 1 29 0
 166 002a 0021     		movs	r1, #0
 167 002c 3D20     		movs	r0, #61
 168              	.LVL24:
 169 002e FFF7FEFF 		bl	bno_write
 170              	.LVL25:
  30:bno055.c      ****     bno_write(BNO055_SYS_TRIGGER_ADDR, 0x20);   // reset
 171              		.loc 1 30 0
 172 0032 4FF41670 		mov	r0, #600
 173 0036 FFF7FEFF 		bl	CyDelay
 174              	.LVL26:
  31:bno055.c      ****     CyDelay(1000);
 175              		.loc 1 31 0
 176 003a 2021     		movs	r1, #32
 177 003c 3F20     		movs	r0, #63
 178 003e FFF7FEFF 		bl	bno_write
 179              	.LVL27:
  32:bno055.c      ****     while (bno_read(BNO055_CHIP_ID_ADDR) != BNO055_ID) {
 180              		.loc 1 32 0
 181 0042 4FF47A70 		mov	r0, #1000
 182 0046 FFF7FEFF 		bl	CyDelay
 183              	.LVL28:
  33:bno055.c      ****         CyDelay(100);
 184              		.loc 1 33 0
 185 004a 02E0     		b	.L9
 186              	.L10:
  34:bno055.c      ****     }
 187              		.loc 1 34 0
 188 004c 6420     		movs	r0, #100
 189 004e FFF7FEFF 		bl	CyDelay
 190              	.LVL29:
 191              	.L9:
  33:bno055.c      ****         CyDelay(100);
 192              		.loc 1 33 0
 193 0052 0020     		movs	r0, #0
 194 0054 FFF7FEFF 		bl	bno_read
ARM GAS  C:\Users\jebush2\AppData\Local\Temp\ccl4YIpn.s 			page 6


 195              	.LVL30:
 196 0058 A028     		cmp	r0, #160
 197 005a F7D1     		bne	.L10
  36:bno055.c      ****     
 198              		.loc 1 36 0
 199 005c 4FF41670 		mov	r0, #600
 200 0060 FFF7FEFF 		bl	CyDelay
 201              	.LVL31:
  38:bno055.c      ****     CyDelay(100);
 202              		.loc 1 38 0
 203 0064 0021     		movs	r1, #0
 204 0066 3E20     		movs	r0, #62
 205 0068 FFF7FEFF 		bl	bno_write
 206              	.LVL32:
  39:bno055.c      ****     
 207              		.loc 1 39 0
 208 006c 6420     		movs	r0, #100
 209 006e FFF7FEFF 		bl	CyDelay
 210              	.LVL33:
  41:bno055.c      ****     CyDelay(100);
 211              		.loc 1 41 0
 212 0072 0021     		movs	r1, #0
 213 0074 0720     		movs	r0, #7
 214 0076 FFF7FEFF 		bl	bno_write
 215              	.LVL34:
  42:bno055.c      ****     
 216              		.loc 1 42 0
 217 007a 6420     		movs	r0, #100
 218 007c FFF7FEFF 		bl	CyDelay
 219              	.LVL35:
  44:bno055.c      ****     CyDelay(200);
 220              		.loc 1 44 0
 221 0080 0021     		movs	r1, #0
 222 0082 3F20     		movs	r0, #63
 223 0084 FFF7FEFF 		bl	bno_write
 224              	.LVL36:
  45:bno055.c      ****     
 225              		.loc 1 45 0
 226 0088 C820     		movs	r0, #200
 227 008a FFF7FEFF 		bl	CyDelay
 228              	.LVL37:
  47:bno055.c      ****     CyDelay(600);
 229              		.loc 1 47 0
 230 008e 2946     		mov	r1, r5
 231 0090 3D20     		movs	r0, #61
 232 0092 FFF7FEFF 		bl	bno_write
 233              	.LVL38:
  48:bno055.c      ****     
 234              		.loc 1 48 0
 235 0096 4FF41670 		mov	r0, #600
 236 009a FFF7FEFF 		bl	CyDelay
 237              	.LVL39:
  50:bno055.c      ****     
 238              		.loc 1 50 0
 239 009e 034B     		ldr	r3, .L13
 240 00a0 1C80     		strh	r4, [r3]	@ movhi
  52:bno055.c      ****     
ARM GAS  C:\Users\jebush2\AppData\Local\Temp\ccl4YIpn.s 			page 7


 241              		.loc 1 52 0
 242 00a2 0120     		movs	r0, #1
 243 00a4 38BD     		pop	{r3, r4, r5, pc}
 244              	.LVL40:
 245              	.L11:
  25:bno055.c      ****         }
 246              		.loc 1 25 0
 247 00a6 0020     		movs	r0, #0
 248              	.LVL41:
  54:bno055.c      **** 
 249              		.loc 1 54 0
 250 00a8 38BD     		pop	{r3, r4, r5, pc}
 251              	.L14:
 252 00aa 00BF     		.align	2
 253              	.L13:
 254 00ac 00000000 		.word	.LANCHOR0
 255              		.cfi_endproc
 256              	.LFE63:
 257              		.size	bno_init, .-bno_init
 258              		.section	.text.bno_readbuf,"ax",%progbits
 259              		.align	2
 260              		.global	bno_readbuf
 261              		.thumb
 262              		.thumb_func
 263              		.type	bno_readbuf, %function
 264              	bno_readbuf:
 265              	.LFB66:
  78:bno055.c      **** 
  79:bno055.c      **** /* read data register into rdData buffer */
  80:bno055.c      **** void bno_readbuf(uint8 reg, uint8 * rdData, uint8 cnt) {
 266              		.loc 1 80 0
 267              		.cfi_startproc
 268              		@ args = 0, pretend = 0, frame = 0
 269              		@ frame_needed = 0, uses_anonymous_args = 0
 270              	.LVL42:
 271 0000 70B5     		push	{r4, r5, r6, lr}
 272              		.cfi_def_cfa_offset 16
 273              		.cfi_offset 4, -16
 274              		.cfi_offset 5, -12
 275              		.cfi_offset 6, -8
 276              		.cfi_offset 14, -4
 277 0002 0646     		mov	r6, r0
 278 0004 0C46     		mov	r4, r1
 279 0006 1546     		mov	r5, r2
  81:bno055.c      ****     uint8 status = I2C_MasterSendStart(DEVICE_ADDRESS, 0);
 280              		.loc 1 81 0
 281 0008 0021     		movs	r1, #0
 282              	.LVL43:
 283 000a 2820     		movs	r0, #40
 284              	.LVL44:
 285 000c FFF7FEFF 		bl	I2C_MasterSendStart
 286              	.LVL45:
  82:bno055.c      ****     //if (status == I2C_MSTR_NO_ERROR) {
  83:bno055.c      ****         I2C_MasterWriteByte(reg);
 287              		.loc 1 83 0
 288 0010 3046     		mov	r0, r6
 289 0012 FFF7FEFF 		bl	I2C_MasterWriteByte
ARM GAS  C:\Users\jebush2\AppData\Local\Temp\ccl4YIpn.s 			page 8


 290              	.LVL46:
  84:bno055.c      ****         I2C_MasterReadBuf(DEVICE_ADDRESS, rdData, cnt, I2C_MODE_COMPLETE_XFER);
 291              		.loc 1 84 0
 292 0016 0023     		movs	r3, #0
 293 0018 2A46     		mov	r2, r5
 294 001a 2146     		mov	r1, r4
 295 001c 2820     		movs	r0, #40
 296 001e FFF7FEFF 		bl	I2C_MasterReadBuf
 297              	.LVL47:
  85:bno055.c      ****         I2C_MasterSendStop();
 298              		.loc 1 85 0
 299 0022 FFF7FEFF 		bl	I2C_MasterSendStop
 300              	.LVL48:
 301 0026 70BD     		pop	{r4, r5, r6, pc}
 302              		.cfi_endproc
 303              	.LFE66:
 304              		.size	bno_readbuf, .-bno_readbuf
 305              		.global	__aeabi_i2d
 306              		.global	__aeabi_dmul
 307              		.global	__aeabi_d2f
 308              		.section	.text.bno_update,"ax",%progbits
 309              		.align	2
 310              		.global	bno_update
 311              		.thumb
 312              		.thumb_func
 313              		.type	bno_update, %function
 314              	bno_update:
 315              	.LFB67:
  86:bno055.c      ****     //}
  87:bno055.c      **** }
  88:bno055.c      **** 
  89:bno055.c      **** void bno_update(euler_angles * orientation) {
 316              		.loc 1 89 0
 317              		.cfi_startproc
 318              		@ args = 0, pretend = 0, frame = 0
 319              		@ frame_needed = 0, uses_anonymous_args = 0
 320              	.LVL49:
 321 0000 2DE9F047 		push	{r4, r5, r6, r7, r8, r9, r10, lr}
 322              		.cfi_def_cfa_offset 32
 323              		.cfi_offset 4, -32
 324              		.cfi_offset 5, -28
 325              		.cfi_offset 6, -24
 326              		.cfi_offset 7, -20
 327              		.cfi_offset 8, -16
 328              		.cfi_offset 9, -12
 329              		.cfi_offset 10, -8
 330              		.cfi_offset 14, -4
 331 0004 0446     		mov	r4, r0
  90:bno055.c      ****     uint8 buffer[6];
  91:bno055.c      ****     //bno_readbuf(VECTOR_GYROSCOPE, buffer, 6);
  92:bno055.c      ****     buffer[0] = bno_read(BNO055_EULER_H_LSB_ADDR);
 332              		.loc 1 92 0
 333 0006 1A20     		movs	r0, #26
 334              	.LVL50:
 335 0008 FFF7FEFF 		bl	bno_read
 336              	.LVL51:
 337 000c 0746     		mov	r7, r0
ARM GAS  C:\Users\jebush2\AppData\Local\Temp\ccl4YIpn.s 			page 9


  93:bno055.c      ****     buffer[1] = bno_read(BNO055_EULER_H_MSB_ADDR);
 338              		.loc 1 93 0
 339 000e 1B20     		movs	r0, #27
 340 0010 FFF7FEFF 		bl	bno_read
 341              	.LVL52:
 342 0014 8246     		mov	r10, r0
  94:bno055.c      ****     buffer[2] = bno_read(BNO055_EULER_R_LSB_ADDR);
 343              		.loc 1 94 0
 344 0016 1C20     		movs	r0, #28
 345 0018 FFF7FEFF 		bl	bno_read
 346              	.LVL53:
 347 001c 0646     		mov	r6, r0
  95:bno055.c      ****     buffer[3] = bno_read(BNO055_EULER_R_MSB_ADDR);
 348              		.loc 1 95 0
 349 001e 1D20     		movs	r0, #29
 350 0020 FFF7FEFF 		bl	bno_read
 351              	.LVL54:
 352 0024 8146     		mov	r9, r0
  96:bno055.c      ****     buffer[4] = bno_read(BNO055_EULER_P_LSB_ADDR);
 353              		.loc 1 96 0
 354 0026 1E20     		movs	r0, #30
 355 0028 FFF7FEFF 		bl	bno_read
 356              	.LVL55:
 357 002c 0546     		mov	r5, r0
  97:bno055.c      ****     buffer[5] = bno_read(BNO055_EULER_P_MSB_ADDR);
 358              		.loc 1 97 0
 359 002e 1F20     		movs	r0, #31
 360 0030 FFF7FEFF 		bl	bno_read
 361              	.LVL56:
 362 0034 8046     		mov	r8, r0
  98:bno055.c      ****     //buffer[5] = 0;
  99:bno055.c      ****     orientation->yaw   = (int16)((uint16)buffer[1] << 8 | (uint16)buffer[0]) / 16.0;
 363              		.loc 1 99 0
 364 0036 47EA0A20 		orr	r0, r7, r10, lsl #8
 365 003a 00B2     		sxth	r0, r0
 366 003c FFF7FEFF 		bl	__aeabi_i2d
 367              	.LVL57:
 368 0040 0022     		movs	r2, #0
 369 0042 104B     		ldr	r3, .L19
 370 0044 FFF7FEFF 		bl	__aeabi_dmul
 371              	.LVL58:
 372 0048 FFF7FEFF 		bl	__aeabi_d2f
 373              	.LVL59:
 374 004c A060     		str	r0, [r4, #8]	@ float
 100:bno055.c      ****     orientation->roll  = (int16)((uint16)buffer[3] << 8 | (uint16)buffer[2]) / 16.0;
 375              		.loc 1 100 0
 376 004e 46EA0920 		orr	r0, r6, r9, lsl #8
 377 0052 00B2     		sxth	r0, r0
 378 0054 FFF7FEFF 		bl	__aeabi_i2d
 379              	.LVL60:
 380 0058 0022     		movs	r2, #0
 381 005a 0A4B     		ldr	r3, .L19
 382 005c FFF7FEFF 		bl	__aeabi_dmul
 383              	.LVL61:
 384 0060 FFF7FEFF 		bl	__aeabi_d2f
 385              	.LVL62:
 386 0064 2060     		str	r0, [r4]	@ float
ARM GAS  C:\Users\jebush2\AppData\Local\Temp\ccl4YIpn.s 			page 10


 101:bno055.c      ****     orientation->pitch = (int16)((uint16)buffer[5] << 8 | (uint16)buffer[4]) / 16.0;   
 387              		.loc 1 101 0
 388 0066 45EA0820 		orr	r0, r5, r8, lsl #8
 389 006a 00B2     		sxth	r0, r0
 390 006c FFF7FEFF 		bl	__aeabi_i2d
 391              	.LVL63:
 392 0070 0022     		movs	r2, #0
 393 0072 044B     		ldr	r3, .L19
 394 0074 FFF7FEFF 		bl	__aeabi_dmul
 395              	.LVL64:
 396 0078 FFF7FEFF 		bl	__aeabi_d2f
 397              	.LVL65:
 398 007c 6060     		str	r0, [r4, #4]	@ float
 399 007e BDE8F087 		pop	{r4, r5, r6, r7, r8, r9, r10, pc}
 400              	.LVL66:
 401              	.L20:
 402 0082 00BF     		.align	2
 403              	.L19:
 404 0084 0000B03F 		.word	1068498944
 405              		.cfi_endproc
 406              	.LFE67:
 407              		.size	bno_update, .-bno_update
 408              		.global	angle_divider
 409              		.data
 410              		.align	1
 411              		.set	.LANCHOR0,. + 0
 412              		.type	angle_divider, %object
 413              		.size	angle_divider, 2
 414              	angle_divider:
 415 0000 1000     		.short	16
 416              		.text
 417              	.Letext0:
 418              		.file 2 "c:\\program files (x86)\\cypress\\psoc creator\\4.2\\psoc creator\\import\\gnu\\arm\\5.4.
 419              		.file 3 "c:\\program files (x86)\\cypress\\psoc creator\\4.2\\psoc creator\\import\\gnu\\arm\\5.4.
 420              		.file 4 "Generated_Source\\PSoC5/cytypes.h"
 421              		.file 5 "bno055.h"
 422              		.file 6 "Generated_Source\\PSoC5/core_cm3.h"
 423              		.file 7 "Generated_Source\\PSoC5/I2C.h"
 424              		.file 8 "Generated_Source\\PSoC5/LED.h"
 425              		.file 9 "Generated_Source\\PSoC5/CyLib.h"