ARM GAS  C:\Users\jebush2\AppData\Local\Temp\ccdV1jcL.s 			page 1


   1              		.syntax unified
   2              		.cpu cortex-m3
   3              		.fpu softvfp
   4              		.eabi_attribute 20, 1
   5              		.eabi_attribute 21, 1
   6              		.eabi_attribute 23, 3
   7              		.eabi_attribute 24, 1
   8              		.eabi_attribute 25, 1
   9              		.eabi_attribute 26, 1
  10              		.eabi_attribute 30, 1
  11              		.eabi_attribute 34, 1
  12              		.eabi_attribute 18, 4
  13              		.thumb
  14              		.syntax unified
  15              		.file	"main.c"
  16              		.text
  17              	.Ltext0:
  18              		.cfi_sections	.debug_frame
  19              		.global	__aeabi_i2d
  20              		.global	__aeabi_dmul
  21              		.global	__aeabi_i2f
  22              		.global	__aeabi_f2d
  23              		.global	__aeabi_ddiv
  24              		.global	__aeabi_d2f
  25              		.section	.text.timer_isr,"ax",%progbits
  26              		.align	2
  27              		.global	timer_isr
  28              		.thumb
  29              		.thumb_func
  30              		.type	timer_isr, %function
  31              	timer_isr:
  32              	.LFB66:
  33              		.file 1 "main.c"
   1:main.c        **** /* ========================================
   2:main.c        ****  *
   3:main.c        ****  * Copyright YOUR COMPANY, THE YEAR
   4:main.c        ****  * All Rights Reserved
   5:main.c        ****  * UNPUBLISHED, LICENSED SOFTWARE.
   6:main.c        ****  *
   7:main.c        ****  * CONFIDENTIAL AND PROPRIETARY INFORMATION
   8:main.c        ****  * WHICH IS THE PROPERTY OF your company.
   9:main.c        ****  *
  10:main.c        ****  * ========================================
  11:main.c        **** */
  12:main.c        **** 
  13:main.c        **** /*
  14:main.c        ****  * Notes: Gimbal encoder is 980 cpr
  15:main.c        ****  * Accounting for 18:24 gear ratio, each gimbal revolution is 1306.67 counts
  16:main.c        ****  *
  17:main.c        ****  */
  18:main.c        **** 
  19:main.c        **** #include <stdio.h>
  20:main.c        **** #include <string.h>
  21:main.c        **** #include <stdlib.h>
  22:main.c        **** #include <math.h>
  23:main.c        **** #include "project.h"
  24:main.c        **** #include "bno055.h"
ARM GAS  C:\Users\jebush2\AppData\Local\Temp\ccdV1jcL.s 			page 2


  25:main.c        **** 
  26:main.c        **** #define GIMBAL_MAX_COMPARE (2200)
  27:main.c        **** #define GIMBAL_MOTOR_CUTOFF  (20)
  28:main.c        **** 
  29:main.c        **** #define STEERING_MAX_COMPARE (2200)
  30:main.c        **** #define STEERING_MOTOR_CUTOFF  (260)
  31:main.c        **** 
  32:main.c        **** #define signum(X) ((X > 0) ? 1 : ((X < 0) ? -1 : 0))
  33:main.c        **** 
  34:main.c        **** CY_ISR_PROTO(gimbal_control_loop);
  35:main.c        **** CY_ISR_PROTO(steering_control_loop);
  36:main.c        **** CY_ISR_PROTO(timer_isr);
  37:main.c        **** CY_ISR_PROTO(enc_high_isr);
  38:main.c        **** CY_ISR_PROTO(enc_low_isr);
  39:main.c        **** 
  40:main.c        **** const uint16 gimbal_pwm_low = 100;
  41:main.c        **** const uint16 gimbal_pwm_high = 200;
  42:main.c        **** const uint16 gimbal_pwm_target = 132;//132; //143; //120
  43:main.c        **** 
  44:main.c        **** const int16 gimbal_max = 180;
  45:main.c        **** const int16 gimbal_min = -180;
  46:main.c        **** 
  47:main.c        **** volatile int steeringTarget;    // steering setpoint in encoder counts
  48:main.c        **** volatile float phi_w;           // gimbal angular position
  49:main.c        **** volatile float phi_w_dot;       // gimbal angular velocity in rad/s
  50:main.c        **** volatile float phi_b;
  51:main.c        **** volatile float phi_b_dot;
  52:main.c        **** volatile float speed_reading;   // measured gimbal angular velocity in rad/s
  53:main.c        **** 
  54:main.c        **** const int gimbal_enc_min = -217;
  55:main.c        **** const int gimbal_enc_max = 217;
  56:main.c        **** 
  57:main.c        **** const float phi_w_dot_max = 11.5;
  58:main.c        **** 
  59:main.c        **** uint16 high_ctr = 1;
  60:main.c        **** uint16 low_ctr = 1;
  61:main.c        **** 
  62:main.c        **** float alpha();  /* the gimbal angle */
  63:main.c        **** float cmg_pid();
  64:main.c        **** 
  65:main.c        **** euler_angles orientation;   /* orientation data read from the IMU */
  66:main.c        **** 
  67:main.c        **** int main(void)
  68:main.c        **** {
  69:main.c        ****     CyGlobalIntEnable; /* Enable global interrupts. */
  70:main.c        **** 
  71:main.c        ****     PWM_CMG_Start();
  72:main.c        ****     PWM_CMG_WriteCompare1(gimbal_pwm_low);
  73:main.c        ****     
  74:main.c        ****     LED1_Write(0);
  75:main.c        ****     
  76:main.c        ****     phi_w_dot = 0;  // set gimbal angular velocity to 0
  77:main.c        **** 
  78:main.c        ****     Gimbal_Encoder_Start();
  79:main.c        ****     Gimbal_Encoder_SetCounter(0);
  80:main.c        ****     
  81:main.c        ****     steeringTarget = 0;
ARM GAS  C:\Users\jebush2\AppData\Local\Temp\ccdV1jcL.s 			page 3


  82:main.c        ****     Handle_Encoder_Start();
  83:main.c        ****     Handle_Encoder_SetCounter(0);
  84:main.c        ****     PWM_Steer_Start();
  85:main.c        ****     
  86:main.c        ****     Gimbal_Control_Loop_Interrupt_StartEx(gimbal_control_loop);
  87:main.c        ****     Steering_Control_Loop_Interrupt_StartEx(steering_control_loop);
  88:main.c        ****     Timer_Interrupt_StartEx(timer_isr); // start the timer interrupt for gimbal speed measurement
  89:main.c        ****     
  90:main.c        ****     Gimbal_Timer_Start();   // timers control the control loop frequencies
  91:main.c        ****     Steering_Timer_Start();
  92:main.c        ****     
  93:main.c        ****     bno_init(OPERATION_MODE_IMUPLUS, BNO_RADIANS);
  94:main.c        ****     
  95:main.c        ****     for(;;)
  96:main.c        ****     {
  97:main.c        ****         LED1_Write(0);
  98:main.c        ****         
  99:main.c        ****         bno_update(&orientation);   // read the orienation
 100:main.c        ****         
 101:main.c        ****         phi_b = orientation.roll;// - 0.02;
 102:main.c        ****         uint8 phi_b_dot_lsb = bno_read(BNO055_GYRO_DATA_Y_LSB_ADDR);
 103:main.c        ****         uint8 phi_b_dot_msb = bno_read(BNO055_GYRO_DATA_Y_MSB_ADDR);
 104:main.c        ****         phi_b_dot = (float)((int16)((uint16)phi_b_dot_msb << 8 | (uint16)phi_b_dot_lsb)) / BNO_RADI
 105:main.c        ****         
 106:main.c        ****         while (SW1_Read()) {
 107:main.c        ****             phi_w_dot = -0.2 * signum(alpha()) / fabs(cos(alpha()));
 108:main.c        ****         }
 109:main.c        ****         CyDelay(500);
 110:main.c        ****         //while (!SW1_Read());
 111:main.c        ****         
 112:main.c        **** #define FLYWHEEL_ENABLE        
 113:main.c        **** #ifdef FLYWHEEL_ENABLE
 114:main.c        ****         for (uint16 comp = gimbal_pwm_low + 10; comp <= gimbal_pwm_target; ++comp) {
 115:main.c        ****             PWM_CMG_WriteCompare1(comp);
 116:main.c        ****             LED1_Write(1);
 117:main.c        ****             CyDelay(500);
 118:main.c        ****             LED1_Write(0);
 119:main.c        ****             CyDelay(500);
 120:main.c        ****             if (SW1_Read()) {
 121:main.c        ****                 break;
 122:main.c        ****             }
 123:main.c        ****         }
 124:main.c        ****         CyDelay(10000);
 125:main.c        **** #endif
 126:main.c        ****         LED1_Write(1);
 127:main.c        ****         
 128:main.c        ****         char reset_flag = 0;
 129:main.c        **** 
 130:main.c        **** #define BALANCE_PID
 131:main.c        ****  
 132:main.c        ****         /* Sliding Mode control for CMG balancing */
 133:main.c        **** #ifndef BALANCE_PID
 134:main.c        ****         while (!SW1_Read()) {
 135:main.c        ****             //phi_w_dot = M_PI;
 136:main.c        ****             //float phi_w_dot_temp = fabs(12.65 * phi_b + 5.56 * phi_b_dot) * signum(3.0 * phi_b + 
 137:main.c        ****             
 138:main.c        ****             if (phi_b < 0.02 && phi_b > -0.02) {
ARM GAS  C:\Users\jebush2\AppData\Local\Temp\ccdV1jcL.s 			page 4


 139:main.c        ****                 phi_w_dot = -0.07 * signum(alpha()) / fabs(cos(alpha()));
 140:main.c        ****                 reset_flag = 0;
 141:main.c        ****             } else if (reset_flag || Gimbal_Encoder_GetCounter() > gimbal_max || Gimbal_Encoder_Get
 142:main.c        ****                 phi_w_dot = -0.2 * signum(alpha()) / fabs(cos(alpha()));
 143:main.c        ****                 reset_flag = (fabs(alpha()) > 0.02);
 144:main.c        ****             } else {
 145:main.c        ****                 float phi_w_dot_temp = -fabs(21.0 * phi_b + 4.0 * phi_b_dot) * signum(3.0 * phi_b +
 146:main.c        ****                 
 147:main.c        ****                 if (fabs(phi_w_dot_temp) > phi_w_dot_max) {
 148:main.c        ****                     phi_w_dot_temp = phi_w_dot_max * signum(phi_w_dot_temp);
 149:main.c        ****                 }
 150:main.c        ****                 phi_w_dot = phi_w_dot_temp;
 151:main.c        ****             }
 152:main.c        ****         }
 153:main.c        **** #endif
 154:main.c        **** 
 155:main.c        ****         /* PID control for CMG balancing */
 156:main.c        **** #ifdef BALANCE_PID
 157:main.c        ****         
 158:main.c        ****         while (!SW1_Read()) {
 159:main.c        ****             phi_w_dot = cmg_pid();
 160:main.c        ****             CyDelay(10);
 161:main.c        ****         }
 162:main.c        **** #endif
 163:main.c        ****         phi_w_dot = 0;
 164:main.c        **** 
 165:main.c        ****         PWM_CMG_WriteCompare1(gimbal_pwm_low);
 166:main.c        ****         
 167:main.c        ****         LED1_Write(0);
 168:main.c        ****         //UART_Stop();
 169:main.c        **** 
 170:main.c        ****         //while (!SW1_Read());
 171:main.c        ****         CyDelay(1000);
 172:main.c        ****         
 173:main.c        ****     }
 174:main.c        ****     
 175:main.c        **** }
 176:main.c        **** 
 177:main.c        **** float cmg_pid()
 178:main.c        **** {
 179:main.c        ****     static const float Kp = 20;
 180:main.c        ****     static const float Ki = 0.0;
 181:main.c        ****     static const float Kd = 2.2;
 182:main.c        ****     static const float dt = 0.01;
 183:main.c        **** 
 184:main.c        ****     //static float previous_error = 0;
 185:main.c        ****     static float integral = 0;
 186:main.c        ****     static float derivative = 0;
 187:main.c        ****     
 188:main.c        ****     float error = 0 - phi_b;
 189:main.c        ****     integral += error * dt;
 190:main.c        ****     derivative = phi_b_dot;
 191:main.c        ****     float output = (Kp*error + Ki*integral + Kd*derivative);
 192:main.c        ****     //previous_error = error;
 193:main.c        ****     
 194:main.c        ****     return output;
 195:main.c        ****     
ARM GAS  C:\Users\jebush2\AppData\Local\Temp\ccdV1jcL.s 			page 5


 196:main.c        **** }
 197:main.c        **** 
 198:main.c        **** /* 10 kHz */
 199:main.c        **** CY_ISR(timer_isr) {
  34              		.loc 1 199 0
  35              		.cfi_startproc
  36              		@ args = 0, pretend = 0, frame = 0
  37              		@ frame_needed = 0, uses_anonymous_args = 0
  38 0000 F8B5     		push	{r3, r4, r5, r6, r7, lr}
  39              		.cfi_def_cfa_offset 24
  40              		.cfi_offset 3, -24
  41              		.cfi_offset 4, -20
  42              		.cfi_offset 5, -16
  43              		.cfi_offset 6, -12
  44              		.cfi_offset 7, -8
  45              		.cfi_offset 14, -4
 200:main.c        ****     static int time_since_change = 0;
 201:main.c        ****     static int last_encoder = 0;
 202:main.c        ****     int new_encoder;
 203:main.c        ****     ++time_since_change;
  46              		.loc 1 203 0
  47 0002 1B4C     		ldr	r4, .L5+8
  48 0004 2368     		ldr	r3, [r4]
  49 0006 0133     		adds	r3, r3, #1
  50 0008 2360     		str	r3, [r4]
 204:main.c        ****     new_encoder = Gimbal_Encoder_GetCounter();
  51              		.loc 1 204 0
  52 000a FFF7FEFF 		bl	Gimbal_Encoder_GetCounter
  53              	.LVL0:
  54 000e 0546     		mov	r5, r0
  55              	.LVL1:
 205:main.c        ****     if (new_encoder != last_encoder) {
  56              		.loc 1 205 0
  57 0010 6068     		ldr	r0, [r4, #4]
  58              	.LVL2:
  59 0012 8542     		cmp	r5, r0
  60 0014 1CD0     		beq	.L2
 206:main.c        ****         speed_reading = (last_encoder - new_encoder) * 38.45 / (float)time_since_change;    //48.07
  61              		.loc 1 206 0
  62 0016 401B     		subs	r0, r0, r5
  63 0018 FFF7FEFF 		bl	__aeabi_i2d
  64              	.LVL3:
  65 001c 12A3     		adr	r3, .L5
  66 001e D3E90023 		ldrd	r2, [r3]
  67 0022 FFF7FEFF 		bl	__aeabi_dmul
  68              	.LVL4:
  69 0026 0646     		mov	r6, r0
  70 0028 0F46     		mov	r7, r1
  71 002a 2068     		ldr	r0, [r4]
  72 002c FFF7FEFF 		bl	__aeabi_i2f
  73              	.LVL5:
  74 0030 FFF7FEFF 		bl	__aeabi_f2d
  75              	.LVL6:
  76 0034 0246     		mov	r2, r0
  77 0036 0B46     		mov	r3, r1
  78 0038 3046     		mov	r0, r6
  79 003a 3946     		mov	r1, r7
ARM GAS  C:\Users\jebush2\AppData\Local\Temp\ccdV1jcL.s 			page 6


  80 003c FFF7FEFF 		bl	__aeabi_ddiv
  81              	.LVL7:
  82 0040 FFF7FEFF 		bl	__aeabi_d2f
  83              	.LVL8:
  84 0044 0B4B     		ldr	r3, .L5+12
  85 0046 1860     		str	r0, [r3]	@ float
 207:main.c        ****         last_encoder = new_encoder;
  86              		.loc 1 207 0
  87 0048 6560     		str	r5, [r4, #4]
 208:main.c        ****         time_since_change = 0;
  88              		.loc 1 208 0
  89 004a 0023     		movs	r3, #0
  90 004c 2360     		str	r3, [r4]
  91 004e F8BD     		pop	{r3, r4, r5, r6, r7, pc}
  92              	.LVL9:
  93              	.L2:
 209:main.c        ****     } else if (time_since_change > 4000) {
  94              		.loc 1 209 0
  95 0050 074B     		ldr	r3, .L5+8
  96 0052 1B68     		ldr	r3, [r3]
  97 0054 B3F57A6F 		cmp	r3, #4000
  98 0058 05DD     		ble	.L1
 210:main.c        ****         speed_reading = 0;
  99              		.loc 1 210 0
 100 005a 0022     		movs	r2, #0
 101 005c 054B     		ldr	r3, .L5+12
 102 005e 1A60     		str	r2, [r3]	@ float
 211:main.c        ****         time_since_change = 0;
 103              		.loc 1 211 0
 104 0060 0022     		movs	r2, #0
 105 0062 034B     		ldr	r3, .L5+8
 106 0064 1A60     		str	r2, [r3]
 107              	.L1:
 108 0066 F8BD     		pop	{r3, r4, r5, r6, r7, pc}
 109              	.LVL10:
 110              	.L6:
 111              		.align	3
 112              	.L5:
 113 0068 9A999999 		.word	-1717986918
 114 006c 99394340 		.word	1078147481
 115 0070 00000000 		.word	.LANCHOR0
 116 0074 00000000 		.word	speed_reading
 117              		.cfi_endproc
 118              	.LFE66:
 119              		.size	timer_isr, .-timer_isr
 120              		.global	__aeabi_fsub
 121              		.global	__aeabi_fmul
 122              		.global	__aeabi_fadd
 123              		.global	__aeabi_fdiv
 124              		.global	__aeabi_fcmplt
 125              		.global	__aeabi_fcmpgt
 126              		.global	__aeabi_d2iz
 127              		.section	.text.gimbal_control_loop,"ax",%progbits
 128              		.align	2
 129              		.global	gimbal_control_loop
 130              		.thumb
 131              		.thumb_func
ARM GAS  C:\Users\jebush2\AppData\Local\Temp\ccdV1jcL.s 			page 7


 132              		.type	gimbal_control_loop, %function
 133              	gimbal_control_loop:
 134              	.LFB67:
 212:main.c        ****     }
 213:main.c        **** }
 214:main.c        **** 
 215:main.c        **** /* velocity PID control loop for gimbal control, 1000Hz */
 216:main.c        **** CY_ISR(gimbal_control_loop)
 217:main.c        **** {
 135              		.loc 1 217 0
 136              		.cfi_startproc
 137              		@ args = 0, pretend = 0, frame = 0
 138              		@ frame_needed = 0, uses_anonymous_args = 0
 139 0000 2DE9F041 		push	{r4, r5, r6, r7, r8, lr}
 140              		.cfi_def_cfa_offset 24
 141              		.cfi_offset 4, -24
 142              		.cfi_offset 5, -20
 143              		.cfi_offset 6, -16
 144              		.cfi_offset 7, -12
 145              		.cfi_offset 8, -8
 146              		.cfi_offset 14, -4
 218:main.c        ****     static const float Kp = .8;
 219:main.c        ****     static const float Ki = 0.02;
 220:main.c        ****     static const float Kd = 0.002;
 221:main.c        ****     static const float dt = 0.002;
 222:main.c        **** 
 223:main.c        ****     static float previous_error = 0;
 224:main.c        ****     static float integral = 0;
 225:main.c        ****     static float derivative = 0;
 226:main.c        ****     
 227:main.c        ****     static float speedValue = 0;
 228:main.c        ****     
 229:main.c        ****     Gimbal_Timer_ReadStatusRegister();
 147              		.loc 1 229 0
 148 0004 FFF7FEFF 		bl	Gimbal_Timer_ReadStatusRegister
 149              	.LVL11:
 230:main.c        **** 
 231:main.c        ****     float speedTarget = phi_w_dot;
 150              		.loc 1 231 0
 151 0008 454B     		ldr	r3, .L21+8
 152 000a 1868     		ldr	r0, [r3]	@ float
 153              	.LVL12:
 232:main.c        ****     float error = (speedTarget - speed_reading) * dt;
 154              		.loc 1 232 0
 155 000c 454B     		ldr	r3, .L21+12
 156 000e 1968     		ldr	r1, [r3]	@ float
 157 0010 FFF7FEFF 		bl	__aeabi_fsub
 158              	.LVL13:
 159 0014 4449     		ldr	r1, .L21+16
 160 0016 FFF7FEFF 		bl	__aeabi_fmul
 161              	.LVL14:
 162 001a 0546     		mov	r5, r0
 163              	.LVL15:
 233:main.c        ****     integral += error * dt;
 164              		.loc 1 233 0
 165 001c 4249     		ldr	r1, .L21+16
 166 001e FFF7FEFF 		bl	__aeabi_fmul
ARM GAS  C:\Users\jebush2\AppData\Local\Temp\ccdV1jcL.s 			page 8


 167              	.LVL16:
 168 0022 424C     		ldr	r4, .L21+20
 169 0024 A168     		ldr	r1, [r4, #8]	@ float
 170 0026 FFF7FEFF 		bl	__aeabi_fadd
 171              	.LVL17:
 172 002a 0646     		mov	r6, r0
 173 002c A060     		str	r0, [r4, #8]	@ float
 234:main.c        ****     derivative = (error - previous_error) / dt;
 174              		.loc 1 234 0
 175 002e E168     		ldr	r1, [r4, #12]	@ float
 176 0030 2846     		mov	r0, r5
 177 0032 FFF7FEFF 		bl	__aeabi_fsub
 178              	.LVL18:
 179 0036 3C49     		ldr	r1, .L21+16
 180 0038 FFF7FEFF 		bl	__aeabi_fdiv
 181              	.LVL19:
 182 003c 0746     		mov	r7, r0
 235:main.c        ****     float output = (Kp * error + Ki * integral + Kd*derivative);
 183              		.loc 1 235 0
 184 003e 3C49     		ldr	r1, .L21+24
 185 0040 2846     		mov	r0, r5
 186 0042 FFF7FEFF 		bl	__aeabi_fmul
 187              	.LVL20:
 188 0046 8046     		mov	r8, r0
 189 0048 3A49     		ldr	r1, .L21+28
 190 004a 3046     		mov	r0, r6
 191 004c FFF7FEFF 		bl	__aeabi_fmul
 192              	.LVL21:
 193 0050 0146     		mov	r1, r0
 194 0052 4046     		mov	r0, r8
 195 0054 FFF7FEFF 		bl	__aeabi_fadd
 196              	.LVL22:
 197 0058 0646     		mov	r6, r0
 198 005a 3349     		ldr	r1, .L21+16
 199 005c 3846     		mov	r0, r7
 200 005e FFF7FEFF 		bl	__aeabi_fmul
 201              	.LVL23:
 202 0062 0146     		mov	r1, r0
 203 0064 3046     		mov	r0, r6
 204 0066 FFF7FEFF 		bl	__aeabi_fadd
 205              	.LVL24:
 236:main.c        ****     previous_error = error;
 206              		.loc 1 236 0
 207 006a E560     		str	r5, [r4, #12]	@ float
 237:main.c        ****     float temp = speedValue + output;
 208              		.loc 1 237 0
 209 006c 2169     		ldr	r1, [r4, #16]	@ float
 210 006e FFF7FEFF 		bl	__aeabi_fadd
 211              	.LVL25:
 212 0072 0446     		mov	r4, r0
 213              	.LVL26:
 238:main.c        ****     if (temp < -1.0) {
 214              		.loc 1 238 0
 215 0074 3049     		ldr	r1, .L21+32
 216 0076 FFF7FEFF 		bl	__aeabi_fcmplt
 217              	.LVL27:
 218 007a 30B9     		cbnz	r0, .L15
ARM GAS  C:\Users\jebush2\AppData\Local\Temp\ccdV1jcL.s 			page 9


 239:main.c        ****         temp = -1.0;
 240:main.c        ****     } else if (temp > 1.0) {
 219              		.loc 1 240 0
 220 007c 4FF07E51 		mov	r1, #1065353216
 221 0080 2046     		mov	r0, r4
 222 0082 FFF7FEFF 		bl	__aeabi_fcmpgt
 223              	.LVL28:
 224 0086 10B9     		cbnz	r0, .L16
 225 0088 03E0     		b	.L8
 226              	.L15:
 239:main.c        ****         temp = -1.0;
 227              		.loc 1 239 0
 228 008a 2B4C     		ldr	r4, .L21+32
 229              	.LVL29:
 230 008c 01E0     		b	.L8
 231              	.LVL30:
 232              	.L16:
 241:main.c        ****         temp = 1.0;
 233              		.loc 1 241 0
 234 008e 4FF07E54 		mov	r4, #1065353216
 235              	.LVL31:
 236              	.L8:
 242:main.c        ****     }
 243:main.c        ****     speedValue = temp;
 237              		.loc 1 243 0
 238 0092 264B     		ldr	r3, .L21+20
 239 0094 1C61     		str	r4, [r3, #16]	@ float
 244:main.c        ****     
 245:main.c        ****     gimbal_direction_Write(speedValue < 0);
 240              		.loc 1 245 0
 241 0096 4FF00105 		mov	r5, #1
 242              	.LVL32:
 243 009a 0021     		movs	r1, #0
 244 009c 2046     		mov	r0, r4
 245 009e FFF7FEFF 		bl	__aeabi_fcmplt
 246              	.LVL33:
 247 00a2 08B9     		cbnz	r0, .L9
 248 00a4 4FF00005 		mov	r5, #0
 249              	.L9:
 250 00a8 05F00100 		and	r0, r5, #1
 251 00ac FFF7FEFF 		bl	gimbal_direction_Write
 252              	.LVL34:
 246:main.c        ****     
 247:main.c        ****     int gimbal_motor_compare = (int)((float)GIMBAL_MAX_COMPARE * fabs(speedValue));
 253              		.loc 1 247 0
 254 00b0 1E4B     		ldr	r3, .L21+20
 255 00b2 1D69     		ldr	r5, [r3, #16]	@ float
 256 00b4 25F00040 		bic	r0, r5, #-2147483648
 257 00b8 FFF7FEFF 		bl	__aeabi_f2d
 258              	.LVL35:
 259 00bc 16A3     		adr	r3, .L21
 260 00be D3E90023 		ldrd	r2, [r3]
 261 00c2 FFF7FEFF 		bl	__aeabi_dmul
 262              	.LVL36:
 263 00c6 FFF7FEFF 		bl	__aeabi_d2iz
 264              	.LVL37:
 265 00ca 0446     		mov	r4, r0
ARM GAS  C:\Users\jebush2\AppData\Local\Temp\ccdV1jcL.s 			page 10


 266              	.LVL38:
 248:main.c        ****     
 249:main.c        ****     if (gimbal_motor_compare < GIMBAL_MOTOR_CUTOFF) gimbal_motor_compare = 0;
 267              		.loc 1 249 0
 268 00cc 1328     		cmp	r0, #19
 269 00ce 00DC     		bgt	.L10
 270 00d0 0024     		movs	r4, #0
 271              	.L10:
 272              	.LVL39:
 250:main.c        ****     
 251:main.c        ****     /* limit gimbal motion */
 252:main.c        **** #ifdef BALANCE_PID
 253:main.c        ****     if (speedValue > 0 && Gimbal_Encoder_GetCounter() < gimbal_min) {
 273              		.loc 1 253 0
 274 00d2 0021     		movs	r1, #0
 275 00d4 2846     		mov	r0, r5
 276 00d6 FFF7FEFF 		bl	__aeabi_fcmpgt
 277              	.LVL40:
 278 00da 48B1     		cbz	r0, .L11
 279              		.loc 1 253 0 is_stmt 0 discriminator 1
 280 00dc FFF7FEFF 		bl	Gimbal_Encoder_GetCounter
 281              	.LVL41:
 282 00e0 10F1B40F 		cmn	r0, #180
 283 00e4 04DA     		bge	.L11
 284              	.LVL42:
 254:main.c        ****         gimbal_motor_compare = 0;
 255:main.c        ****         integral = 0;
 285              		.loc 1 255 0 is_stmt 1
 286 00e6 0022     		movs	r2, #0
 287 00e8 104B     		ldr	r3, .L21+20
 288 00ea 9A60     		str	r2, [r3, #8]	@ float
 254:main.c        ****         gimbal_motor_compare = 0;
 289              		.loc 1 254 0
 290 00ec 0024     		movs	r4, #0
 291              		.loc 1 255 0
 292 00ee 0DE0     		b	.L13
 293              	.LVL43:
 294              	.L11:
 256:main.c        ****     } else if (speedValue < 0 && Gimbal_Encoder_GetCounter() > gimbal_max) {
 295              		.loc 1 256 0
 296 00f0 0021     		movs	r1, #0
 297 00f2 0E4B     		ldr	r3, .L21+20
 298 00f4 1869     		ldr	r0, [r3, #16]	@ float
 299 00f6 FFF7FEFF 		bl	__aeabi_fcmplt
 300              	.LVL44:
 301 00fa 38B1     		cbz	r0, .L13
 302              		.loc 1 256 0 is_stmt 0 discriminator 1
 303 00fc FFF7FEFF 		bl	Gimbal_Encoder_GetCounter
 304              	.LVL45:
 305 0100 B428     		cmp	r0, #180
 306 0102 03DD     		ble	.L13
 307              	.LVL46:
 257:main.c        ****         gimbal_motor_compare = 0;
 258:main.c        ****         integral = 0;
 308              		.loc 1 258 0 is_stmt 1
 309 0104 0022     		movs	r2, #0
 310 0106 094B     		ldr	r3, .L21+20
ARM GAS  C:\Users\jebush2\AppData\Local\Temp\ccdV1jcL.s 			page 11


 311 0108 9A60     		str	r2, [r3, #8]	@ float
 257:main.c        ****         gimbal_motor_compare = 0;
 312              		.loc 1 257 0
 313 010a 0024     		movs	r4, #0
 314              	.LVL47:
 315              	.L13:
 259:main.c        ****     }
 260:main.c        **** #endif
 261:main.c        **** 
 262:main.c        ****     PWM_CMG_WriteCompare2(gimbal_motor_compare);
 316              		.loc 1 262 0
 317 010c A0B2     		uxth	r0, r4
 318 010e FFF7FEFF 		bl	PWM_CMG_WriteCompare2
 319              	.LVL48:
 320 0112 BDE8F081 		pop	{r4, r5, r6, r7, r8, pc}
 321              	.LVL49:
 322              	.L22:
 323 0116 00BF     		.align	3
 324              	.L21:
 325 0118 00000000 		.word	0
 326 011c 0030A140 		.word	1084305408
 327 0120 00000000 		.word	phi_w_dot
 328 0124 00000000 		.word	speed_reading
 329 0128 6F12033B 		.word	990057071
 330 012c 00000000 		.word	.LANCHOR0
 331 0130 CDCC4C3F 		.word	1061997773
 332 0134 0AD7A33C 		.word	1017370378
 333 0138 000080BF 		.word	-1082130432
 334              		.cfi_endproc
 335              	.LFE67:
 336              		.size	gimbal_control_loop, .-gimbal_control_loop
 337              		.global	__aeabi_f2iz
 338              		.section	.text.steering_control_loop,"ax",%progbits
 339              		.align	2
 340              		.global	steering_control_loop
 341              		.thumb
 342              		.thumb_func
 343              		.type	steering_control_loop, %function
 344              	steering_control_loop:
 345              	.LFB68:
 263:main.c        ****    
 264:main.c        **** }
 265:main.c        **** 
 266:main.c        **** CY_ISR(steering_control_loop)
 267:main.c        **** {
 346              		.loc 1 267 0
 347              		.cfi_startproc
 348              		@ args = 0, pretend = 0, frame = 0
 349              		@ frame_needed = 0, uses_anonymous_args = 0
 350 0000 2DE9F041 		push	{r4, r5, r6, r7, r8, lr}
 351              		.cfi_def_cfa_offset 24
 352              		.cfi_offset 4, -24
 353              		.cfi_offset 5, -20
 354              		.cfi_offset 6, -16
 355              		.cfi_offset 7, -12
 356              		.cfi_offset 8, -8
 357              		.cfi_offset 14, -4
ARM GAS  C:\Users\jebush2\AppData\Local\Temp\ccdV1jcL.s 			page 12


 268:main.c        ****     static const float Kp = 10.0;
 269:main.c        ****     static const float Ki = 4.0;
 270:main.c        ****     static const float Kd = 0.5;
 271:main.c        ****     static const float dt = 0.01;
 272:main.c        **** 
 273:main.c        ****     static int previous_error = 0;
 274:main.c        ****     //static int previous_encoder = 0;
 275:main.c        ****     static float integral = 0;
 276:main.c        ****     static float derivative = 0;
 277:main.c        ****     
 278:main.c        ****     Steering_Timer_ReadStatusRegister();
 358              		.loc 1 278 0
 359 0004 FFF7FEFF 		bl	Steering_Timer_ReadStatusRegister
 360              	.LVL50:
 279:main.c        ****     
 280:main.c        ****     int error = steeringTarget - Handle_Encoder_GetCounter();
 361              		.loc 1 280 0
 362 0008 264B     		ldr	r3, .L27
 363 000a 1C68     		ldr	r4, [r3]
 364 000c FFF7FEFF 		bl	Handle_Encoder_GetCounter
 365              	.LVL51:
 366 0010 241A     		subs	r4, r4, r0
 367              	.LVL52:
 281:main.c        ****     integral += error * dt;
 368              		.loc 1 281 0
 369 0012 2046     		mov	r0, r4
 370 0014 FFF7FEFF 		bl	__aeabi_i2f
 371              	.LVL53:
 372 0018 8046     		mov	r8, r0
 373 001a 2349     		ldr	r1, .L27+4
 374 001c FFF7FEFF 		bl	__aeabi_fmul
 375              	.LVL54:
 376 0020 224D     		ldr	r5, .L27+8
 377 0022 6969     		ldr	r1, [r5, #20]	@ float
 378 0024 FFF7FEFF 		bl	__aeabi_fadd
 379              	.LVL55:
 380 0028 0646     		mov	r6, r0
 381 002a 6861     		str	r0, [r5, #20]	@ float
 282:main.c        ****     derivative = (error - previous_error) / dt;
 382              		.loc 1 282 0
 383 002c A869     		ldr	r0, [r5, #24]
 384 002e 201A     		subs	r0, r4, r0
 385 0030 FFF7FEFF 		bl	__aeabi_i2f
 386              	.LVL56:
 387 0034 1C49     		ldr	r1, .L27+4
 388 0036 FFF7FEFF 		bl	__aeabi_fdiv
 389              	.LVL57:
 390 003a 0746     		mov	r7, r0
 283:main.c        ****     int output = (int)(Kp*error + Ki*integral + Kd*derivative);
 391              		.loc 1 283 0
 392 003c 1C49     		ldr	r1, .L27+12
 393 003e 4046     		mov	r0, r8
 394 0040 FFF7FEFF 		bl	__aeabi_fmul
 395              	.LVL58:
 396 0044 8046     		mov	r8, r0
 397 0046 4FF08141 		mov	r1, #1082130432
 398 004a 3046     		mov	r0, r6
ARM GAS  C:\Users\jebush2\AppData\Local\Temp\ccdV1jcL.s 			page 13


 399 004c FFF7FEFF 		bl	__aeabi_fmul
 400              	.LVL59:
 401 0050 0146     		mov	r1, r0
 402 0052 4046     		mov	r0, r8
 403 0054 FFF7FEFF 		bl	__aeabi_fadd
 404              	.LVL60:
 405 0058 0646     		mov	r6, r0
 406 005a 4FF07C51 		mov	r1, #1056964608
 407 005e 3846     		mov	r0, r7
 408 0060 FFF7FEFF 		bl	__aeabi_fmul
 409              	.LVL61:
 410 0064 0146     		mov	r1, r0
 411 0066 3046     		mov	r0, r6
 412 0068 FFF7FEFF 		bl	__aeabi_fadd
 413              	.LVL62:
 414 006c FFF7FEFF 		bl	__aeabi_f2iz
 415              	.LVL63:
 284:main.c        ****     previous_error = error;
 416              		.loc 1 284 0
 417 0070 AC61     		str	r4, [r5, #24]
 285:main.c        ****     
 286:main.c        ****     Steering_Dir_Write(output > 0);
 418              		.loc 1 286 0
 419 0072 0446     		mov	r4, r0
 420              	.LVL64:
 421 0074 0028     		cmp	r0, #0
 422 0076 D4BF     		ite	le
 423 0078 0020     		movle	r0, #0
 424              	.LVL65:
 425 007a 0120     		movgt	r0, #1
 426 007c FFF7FEFF 		bl	Steering_Dir_Write
 427              	.LVL66:
 287:main.c        ****     output = (abs(output) > STEERING_MAX_COMPARE) ? STEERING_MAX_COMPARE : abs(output);
 428              		.loc 1 287 0
 429 0080 84EAE470 		eor	r0, r4, r4, asr #31
 430 0084 A0EBE470 		sub	r0, r0, r4, asr #31
 431 0088 40F69803 		movw	r3, #2200
 432 008c 9842     		cmp	r0, r3
 433 008e A8BF     		it	ge
 434 0090 1846     		movge	r0, r3
 435              	.LVL67:
 288:main.c        ****     if (output < STEERING_MOTOR_CUTOFF) output = 0;
 436              		.loc 1 288 0
 437 0092 B0F5827F 		cmp	r0, #260
 438 0096 00DA     		bge	.L24
 439 0098 0020     		movs	r0, #0
 440              	.LVL68:
 441              	.L24:
 289:main.c        **** //    if ((output > MOTOR_MAX_COMPARE - 10 && abs(Handle_Encoder_GetCounter() - previous_encoder) <
 290:main.c        **** //        output = 0;
 291:main.c        **** //        integral = 0;
 292:main.c        **** //    }
 293:main.c        ****     PWM_Steer_WriteCompare(output);
 442              		.loc 1 293 0
 443 009a 80B2     		uxth	r0, r0
 444              	.LVL69:
 445 009c FFF7FEFF 		bl	PWM_Steer_WriteCompare
ARM GAS  C:\Users\jebush2\AppData\Local\Temp\ccdV1jcL.s 			page 14


 446              	.LVL70:
 447 00a0 BDE8F081 		pop	{r4, r5, r6, r7, r8, pc}
 448              	.L28:
 449              		.align	2
 450              	.L27:
 451 00a4 00000000 		.word	steeringTarget
 452 00a8 0AD7233C 		.word	1008981770
 453 00ac 00000000 		.word	.LANCHOR0
 454 00b0 00002041 		.word	1092616192
 455              		.cfi_endproc
 456              	.LFE68:
 457              		.size	steering_control_loop, .-steering_control_loop
 458              		.section	.text.cmg_pid,"ax",%progbits
 459              		.align	2
 460              		.global	cmg_pid
 461              		.thumb
 462              		.thumb_func
 463              		.type	cmg_pid, %function
 464              	cmg_pid:
 465              	.LFB65:
 178:main.c        ****     static const float Kp = 20;
 466              		.loc 1 178 0
 467              		.cfi_startproc
 468              		@ args = 0, pretend = 0, frame = 0
 469              		@ frame_needed = 0, uses_anonymous_args = 0
 470 0000 70B5     		push	{r4, r5, r6, lr}
 471              		.cfi_def_cfa_offset 16
 472              		.cfi_offset 4, -16
 473              		.cfi_offset 5, -12
 474              		.cfi_offset 6, -8
 475              		.cfi_offset 14, -4
 188:main.c        ****     integral += error * dt;
 476              		.loc 1 188 0
 477 0002 144B     		ldr	r3, .L31
 478 0004 1968     		ldr	r1, [r3]	@ float
 479 0006 0020     		movs	r0, #0
 480 0008 FFF7FEFF 		bl	__aeabi_fsub
 481              	.LVL71:
 482 000c 0646     		mov	r6, r0
 483              	.LVL72:
 189:main.c        ****     derivative = phi_b_dot;
 484              		.loc 1 189 0
 485 000e 1249     		ldr	r1, .L31+4
 486 0010 FFF7FEFF 		bl	__aeabi_fmul
 487              	.LVL73:
 488 0014 114D     		ldr	r5, .L31+8
 489 0016 E969     		ldr	r1, [r5, #28]	@ float
 490 0018 FFF7FEFF 		bl	__aeabi_fadd
 491              	.LVL74:
 492 001c 0446     		mov	r4, r0
 493 001e E861     		str	r0, [r5, #28]	@ float
 190:main.c        ****     float output = (Kp*error + Ki*integral + Kd*derivative);
 494              		.loc 1 190 0
 495 0020 0F4B     		ldr	r3, .L31+12
 496 0022 1D68     		ldr	r5, [r3]	@ float
 191:main.c        ****     //previous_error = error;
 497              		.loc 1 191 0
ARM GAS  C:\Users\jebush2\AppData\Local\Temp\ccdV1jcL.s 			page 15


 498 0024 0F49     		ldr	r1, .L31+16
 499 0026 3046     		mov	r0, r6
 500 0028 FFF7FEFF 		bl	__aeabi_fmul
 501              	.LVL75:
 502 002c 0646     		mov	r6, r0
 503              	.LVL76:
 504 002e 0021     		movs	r1, #0
 505 0030 2046     		mov	r0, r4
 506 0032 FFF7FEFF 		bl	__aeabi_fmul
 507              	.LVL77:
 508 0036 0146     		mov	r1, r0
 509 0038 3046     		mov	r0, r6
 510 003a FFF7FEFF 		bl	__aeabi_fadd
 511              	.LVL78:
 512 003e 0446     		mov	r4, r0
 513 0040 0949     		ldr	r1, .L31+20
 514 0042 2846     		mov	r0, r5
 515 0044 FFF7FEFF 		bl	__aeabi_fmul
 516              	.LVL79:
 517 0048 0146     		mov	r1, r0
 518 004a 2046     		mov	r0, r4
 519 004c FFF7FEFF 		bl	__aeabi_fadd
 520              	.LVL80:
 196:main.c        **** 
 521              		.loc 1 196 0
 522 0050 70BD     		pop	{r4, r5, r6, pc}
 523              	.L32:
 524 0052 00BF     		.align	2
 525              	.L31:
 526 0054 00000000 		.word	phi_b
 527 0058 0AD7233C 		.word	1008981770
 528 005c 00000000 		.word	.LANCHOR0
 529 0060 00000000 		.word	phi_b_dot
 530 0064 0000A041 		.word	1101004800
 531 0068 CDCC0C40 		.word	1074580685
 532              		.cfi_endproc
 533              	.LFE65:
 534              		.size	cmg_pid, .-cmg_pid
 535              		.section	.text.alpha,"ax",%progbits
 536              		.align	2
 537              		.global	alpha
 538              		.thumb
 539              		.thumb_func
 540              		.type	alpha, %function
 541              	alpha:
 542              	.LFB69:
 294:main.c        ****     //previous_encoder = Handle_Encoder_GetCounter();
 295:main.c        ****    
 296:main.c        **** }
 297:main.c        **** 
 298:main.c        **** 
 299:main.c        **** 
 300:main.c        **** float alpha()
 301:main.c        **** {
 543              		.loc 1 301 0
 544              		.cfi_startproc
 545              		@ args = 0, pretend = 0, frame = 0
ARM GAS  C:\Users\jebush2\AppData\Local\Temp\ccdV1jcL.s 			page 16


 546              		@ frame_needed = 0, uses_anonymous_args = 0
 547 0000 D0B5     		push	{r4, r6, r7, lr}
 548              		.cfi_def_cfa_offset 16
 549              		.cfi_offset 4, -16
 550              		.cfi_offset 6, -12
 551              		.cfi_offset 7, -8
 552              		.cfi_offset 14, -4
 302:main.c        ****     return 6.2832 * low_ctr / high_ctr;
 553              		.loc 1 302 0
 554 0002 0D4C     		ldr	r4, .L35+8
 555 0004 2088     		ldrh	r0, [r4]
 556 0006 FFF7FEFF 		bl	__aeabi_i2d
 557              	.LVL81:
 558 000a 09A3     		adr	r3, .L35
 559 000c D3E90023 		ldrd	r2, [r3]
 560 0010 FFF7FEFF 		bl	__aeabi_dmul
 561              	.LVL82:
 562 0014 0646     		mov	r6, r0
 563 0016 0F46     		mov	r7, r1
 564 0018 6088     		ldrh	r0, [r4, #2]
 565 001a FFF7FEFF 		bl	__aeabi_i2d
 566              	.LVL83:
 567 001e 0246     		mov	r2, r0
 568 0020 0B46     		mov	r3, r1
 569 0022 3046     		mov	r0, r6
 570 0024 3946     		mov	r1, r7
 571 0026 FFF7FEFF 		bl	__aeabi_ddiv
 572              	.LVL84:
 573 002a FFF7FEFF 		bl	__aeabi_d2f
 574              	.LVL85:
 303:main.c        ****     //return -(float)Gimbal_Encoder_GetCounter() * 0.004807; // M_PI * 2 / 1307
 304:main.c        **** }
 575              		.loc 1 304 0
 576 002e D0BD     		pop	{r4, r6, r7, pc}
 577              	.L36:
 578              		.align	3
 579              	.L35:
 580 0030 A7E8482E 		.word	776530087
 581 0034 FF211940 		.word	1075388927
 582 0038 00000000 		.word	.LANCHOR1
 583              		.cfi_endproc
 584              	.LFE69:
 585              		.size	alpha, .-alpha
 586              		.section	.text.main,"ax",%progbits
 587              		.align	2
 588              		.global	main
 589              		.thumb
 590              		.thumb_func
 591              		.type	main, %function
 592              	main:
 593              	.LFB64:
  68:main.c        ****     CyGlobalIntEnable; /* Enable global interrupts. */
 594              		.loc 1 68 0
 595              		.cfi_startproc
 596              		@ args = 0, pretend = 0, frame = 0
 597              		@ frame_needed = 0, uses_anonymous_args = 0
 598 0000 D0B5     		push	{r4, r6, r7, lr}
ARM GAS  C:\Users\jebush2\AppData\Local\Temp\ccdV1jcL.s 			page 17


 599              		.cfi_def_cfa_offset 16
 600              		.cfi_offset 4, -16
 601              		.cfi_offset 6, -12
 602              		.cfi_offset 7, -8
 603              		.cfi_offset 14, -4
  69:main.c        **** 
 604              		.loc 1 69 0
 605              		.syntax unified
 606              	@ 69 "main.c" 1
 607 0002 62B6     		CPSIE   i
 608              	@ 0 "" 2
  71:main.c        ****     PWM_CMG_WriteCompare1(gimbal_pwm_low);
 609              		.loc 1 71 0
 610              		.thumb
 611              		.syntax unified
 612 0004 FFF7FEFF 		bl	PWM_CMG_Start
 613              	.LVL86:
  72:main.c        ****     
 614              		.loc 1 72 0
 615 0008 6420     		movs	r0, #100
 616 000a FFF7FEFF 		bl	PWM_CMG_WriteCompare1
 617              	.LVL87:
  74:main.c        ****     
 618              		.loc 1 74 0
 619 000e 0020     		movs	r0, #0
 620 0010 FFF7FEFF 		bl	LED1_Write
 621              	.LVL88:
  76:main.c        **** 
 622              		.loc 1 76 0
 623 0014 0022     		movs	r2, #0
 624 0016 584B     		ldr	r3, .L53+16
 625 0018 1A60     		str	r2, [r3]	@ float
  78:main.c        ****     Gimbal_Encoder_SetCounter(0);
 626              		.loc 1 78 0
 627 001a FFF7FEFF 		bl	Gimbal_Encoder_Start
 628              	.LVL89:
  79:main.c        ****     
 629              		.loc 1 79 0
 630 001e 0020     		movs	r0, #0
 631 0020 FFF7FEFF 		bl	Gimbal_Encoder_SetCounter
 632              	.LVL90:
  81:main.c        ****     Handle_Encoder_Start();
 633              		.loc 1 81 0
 634 0024 0024     		movs	r4, #0
 635 0026 554B     		ldr	r3, .L53+20
 636 0028 1C60     		str	r4, [r3]
  82:main.c        ****     Handle_Encoder_SetCounter(0);
 637              		.loc 1 82 0
 638 002a FFF7FEFF 		bl	Handle_Encoder_Start
 639              	.LVL91:
  83:main.c        ****     PWM_Steer_Start();
 640              		.loc 1 83 0
 641 002e 2046     		mov	r0, r4
 642 0030 FFF7FEFF 		bl	Handle_Encoder_SetCounter
 643              	.LVL92:
  84:main.c        ****     
 644              		.loc 1 84 0
ARM GAS  C:\Users\jebush2\AppData\Local\Temp\ccdV1jcL.s 			page 18


 645 0034 FFF7FEFF 		bl	PWM_Steer_Start
 646              	.LVL93:
  86:main.c        ****     Steering_Control_Loop_Interrupt_StartEx(steering_control_loop);
 647              		.loc 1 86 0
 648 0038 5148     		ldr	r0, .L53+24
 649 003a FFF7FEFF 		bl	Gimbal_Control_Loop_Interrupt_StartEx
 650              	.LVL94:
  87:main.c        ****     Timer_Interrupt_StartEx(timer_isr); // start the timer interrupt for gimbal speed measurement
 651              		.loc 1 87 0
 652 003e 5148     		ldr	r0, .L53+28
 653 0040 FFF7FEFF 		bl	Steering_Control_Loop_Interrupt_StartEx
 654              	.LVL95:
  88:main.c        ****     
 655              		.loc 1 88 0
 656 0044 5048     		ldr	r0, .L53+32
 657 0046 FFF7FEFF 		bl	Timer_Interrupt_StartEx
 658              	.LVL96:
  90:main.c        ****     Steering_Timer_Start();
 659              		.loc 1 90 0
 660 004a FFF7FEFF 		bl	Gimbal_Timer_Start
 661              	.LVL97:
  91:main.c        ****     
 662              		.loc 1 91 0
 663 004e FFF7FEFF 		bl	Steering_Timer_Start
 664              	.LVL98:
  93:main.c        ****     
 665              		.loc 1 93 0
 666 0052 4FF46171 		mov	r1, #900
 667 0056 0820     		movs	r0, #8
 668 0058 FFF7FEFF 		bl	bno_init
 669              	.LVL99:
 670              	.L47:
 671              	.LBB2:
  97:main.c        ****         
 672              		.loc 1 97 0
 673 005c 0020     		movs	r0, #0
 674 005e FFF7FEFF 		bl	LED1_Write
 675              	.LVL100:
  99:main.c        ****         
 676              		.loc 1 99 0
 677 0062 4A4C     		ldr	r4, .L53+36
 678 0064 2046     		mov	r0, r4
 679 0066 FFF7FEFF 		bl	bno_update
 680              	.LVL101:
 101:main.c        ****         uint8 phi_b_dot_lsb = bno_read(BNO055_GYRO_DATA_Y_LSB_ADDR);
 681              		.loc 1 101 0
 682 006a 2268     		ldr	r2, [r4]	@ float
 683 006c 484B     		ldr	r3, .L53+40
 684 006e 1A60     		str	r2, [r3]	@ float
 102:main.c        ****         uint8 phi_b_dot_msb = bno_read(BNO055_GYRO_DATA_Y_MSB_ADDR);
 685              		.loc 1 102 0
 686 0070 1620     		movs	r0, #22
 687 0072 FFF7FEFF 		bl	bno_read
 688              	.LVL102:
 689 0076 0446     		mov	r4, r0
 690              	.LVL103:
 103:main.c        ****         phi_b_dot = (float)((int16)((uint16)phi_b_dot_msb << 8 | (uint16)phi_b_dot_lsb)) / BNO_RADI
ARM GAS  C:\Users\jebush2\AppData\Local\Temp\ccdV1jcL.s 			page 19


 691              		.loc 1 103 0
 692 0078 1720     		movs	r0, #23
 693 007a FFF7FEFF 		bl	bno_read
 694              	.LVL104:
 104:main.c        ****         
 695              		.loc 1 104 0
 696 007e 44EA0020 		orr	r0, r4, r0, lsl #8
 697              	.LVL105:
 698 0082 00B2     		sxth	r0, r0
 699 0084 FFF7FEFF 		bl	__aeabi_i2f
 700              	.LVL106:
 701 0088 4249     		ldr	r1, .L53+44
 702 008a FFF7FEFF 		bl	__aeabi_fdiv
 703              	.LVL107:
 704 008e 424B     		ldr	r3, .L53+48
 705 0090 1860     		str	r0, [r3]	@ float
 106:main.c        ****             phi_w_dot = -0.2 * signum(alpha()) / fabs(cos(alpha()));
 706              		.loc 1 106 0
 707 0092 26E0     		b	.L38
 708              	.LVL108:
 709              	.L41:
 107:main.c        ****         }
 710              		.loc 1 107 0
 711 0094 FFF7FEFF 		bl	alpha
 712              	.LVL109:
 713 0098 0446     		mov	r4, r0
 714 009a 0021     		movs	r1, #0
 715 009c FFF7FEFF 		bl	__aeabi_fcmpgt
 716              	.LVL110:
 717 00a0 40B9     		cbnz	r0, .L48
 107:main.c        ****         }
 718              		.loc 1 107 0 is_stmt 0 discriminator 2
 719 00a2 0021     		movs	r1, #0
 720 00a4 2046     		mov	r0, r4
 721 00a6 FFF7FEFF 		bl	__aeabi_fcmplt
 722              	.LVL111:
 723 00aa 38B1     		cbz	r0, .L51
 107:main.c        ****         }
 724              		.loc 1 107 0
 725 00ac 2EA7     		adr	r7, .L53
 726 00ae D7E90067 		ldrd	r6, [r7]
 727 00b2 06E0     		b	.L39
 728              	.L48:
 729 00b4 2EA7     		adr	r7, .L53+8
 730 00b6 D7E90067 		ldrd	r6, [r7]
 731 00ba 02E0     		b	.L39
 732              	.L51:
 733 00bc 0026     		movs	r6, #0
 734 00be 4FF00047 		mov	r7, #-2147483648
 735              	.L39:
 107:main.c        ****         }
 736              		.loc 1 107 0 discriminator 8
 737 00c2 2046     		mov	r0, r4
 738 00c4 FFF7FEFF 		bl	__aeabi_f2d
 739              	.LVL112:
 740 00c8 FFF7FEFF 		bl	cos
 741              	.LVL113:
ARM GAS  C:\Users\jebush2\AppData\Local\Temp\ccdV1jcL.s 			page 20


 742 00cc 0246     		mov	r2, r0
 743 00ce 21F00043 		bic	r3, r1, #-2147483648
 744 00d2 3046     		mov	r0, r6
 745 00d4 3946     		mov	r1, r7
 746 00d6 FFF7FEFF 		bl	__aeabi_ddiv
 747              	.LVL114:
 748 00da FFF7FEFF 		bl	__aeabi_d2f
 749              	.LVL115:
 750 00de 264B     		ldr	r3, .L53+16
 751 00e0 1860     		str	r0, [r3]	@ float
 752              	.L38:
 106:main.c        ****             phi_w_dot = -0.2 * signum(alpha()) / fabs(cos(alpha()));
 753              		.loc 1 106 0 is_stmt 1
 754 00e2 FFF7FEFF 		bl	SW1_Read
 755              	.LVL116:
 756 00e6 0028     		cmp	r0, #0
 757 00e8 D4D1     		bne	.L41
 109:main.c        ****         //while (!SW1_Read());
 758              		.loc 1 109 0
 759 00ea 4FF4FA70 		mov	r0, #500
 760 00ee FFF7FEFF 		bl	CyDelay
 761              	.LVL117:
 762              	.LBB3:
 114:main.c        ****             PWM_CMG_WriteCompare1(comp);
 763              		.loc 1 114 0
 764 00f2 6E24     		movs	r4, #110
 765 00f4 15E0     		b	.L42
 766              	.LVL118:
 767              	.L44:
 115:main.c        ****             LED1_Write(1);
 768              		.loc 1 115 0
 769 00f6 2046     		mov	r0, r4
 770 00f8 FFF7FEFF 		bl	PWM_CMG_WriteCompare1
 771              	.LVL119:
 116:main.c        ****             CyDelay(500);
 772              		.loc 1 116 0
 773 00fc 0120     		movs	r0, #1
 774 00fe FFF7FEFF 		bl	LED1_Write
 775              	.LVL120:
 117:main.c        ****             LED1_Write(0);
 776              		.loc 1 117 0
 777 0102 4FF4FA70 		mov	r0, #500
 778 0106 FFF7FEFF 		bl	CyDelay
 779              	.LVL121:
 118:main.c        ****             CyDelay(500);
 780              		.loc 1 118 0
 781 010a 0020     		movs	r0, #0
 782 010c FFF7FEFF 		bl	LED1_Write
 783              	.LVL122:
 119:main.c        ****             if (SW1_Read()) {
 784              		.loc 1 119 0
 785 0110 4FF4FA70 		mov	r0, #500
 786 0114 FFF7FEFF 		bl	CyDelay
 787              	.LVL123:
 120:main.c        ****                 break;
 788              		.loc 1 120 0
 789 0118 FFF7FEFF 		bl	SW1_Read
ARM GAS  C:\Users\jebush2\AppData\Local\Temp\ccdV1jcL.s 			page 21


 790              	.LVL124:
 791 011c 18B9     		cbnz	r0, .L43
 114:main.c        ****             PWM_CMG_WriteCompare1(comp);
 792              		.loc 1 114 0 discriminator 2
 793 011e 0134     		adds	r4, r4, #1
 794              	.LVL125:
 795 0120 A4B2     		uxth	r4, r4
 796              	.LVL126:
 797              	.L42:
 114:main.c        ****             PWM_CMG_WriteCompare1(comp);
 798              		.loc 1 114 0 is_stmt 0 discriminator 1
 799 0122 842C     		cmp	r4, #132
 800 0124 E7D9     		bls	.L44
 801              	.L43:
 802              	.LBE3:
 124:main.c        **** #endif
 803              		.loc 1 124 0 is_stmt 1
 804 0126 42F21070 		movw	r0, #10000
 805 012a FFF7FEFF 		bl	CyDelay
 806              	.LVL127:
 126:main.c        ****         
 807              		.loc 1 126 0
 808 012e 0120     		movs	r0, #1
 809 0130 FFF7FEFF 		bl	LED1_Write
 810              	.LVL128:
 158:main.c        ****             phi_w_dot = cmg_pid();
 811              		.loc 1 158 0
 812 0134 06E0     		b	.L45
 813              	.L46:
 159:main.c        ****             CyDelay(10);
 814              		.loc 1 159 0
 815 0136 FFF7FEFF 		bl	cmg_pid
 816              	.LVL129:
 817 013a 0F4B     		ldr	r3, .L53+16
 818 013c 1860     		str	r0, [r3]	@ float
 160:main.c        ****         }
 819              		.loc 1 160 0
 820 013e 0A20     		movs	r0, #10
 821 0140 FFF7FEFF 		bl	CyDelay
 822              	.LVL130:
 823              	.L45:
 158:main.c        ****             phi_w_dot = cmg_pid();
 824              		.loc 1 158 0
 825 0144 FFF7FEFF 		bl	SW1_Read
 826              	.LVL131:
 827 0148 0028     		cmp	r0, #0
 828 014a F4D0     		beq	.L46
 163:main.c        **** 
 829              		.loc 1 163 0
 830 014c 0022     		movs	r2, #0
 831 014e 0A4B     		ldr	r3, .L53+16
 832 0150 1A60     		str	r2, [r3]	@ float
 165:main.c        ****         
 833              		.loc 1 165 0
 834 0152 6420     		movs	r0, #100
 835 0154 FFF7FEFF 		bl	PWM_CMG_WriteCompare1
 836              	.LVL132:
ARM GAS  C:\Users\jebush2\AppData\Local\Temp\ccdV1jcL.s 			page 22


 167:main.c        ****         //UART_Stop();
 837              		.loc 1 167 0
 838 0158 0020     		movs	r0, #0
 839 015a FFF7FEFF 		bl	LED1_Write
 840              	.LVL133:
 171:main.c        ****         
 841              		.loc 1 171 0
 842 015e 4FF47A70 		mov	r0, #1000
 843 0162 FFF7FEFF 		bl	CyDelay
 844              	.LVL134:
 845              	.LBE2:
 173:main.c        ****     
 846              		.loc 1 173 0
 847 0166 79E7     		b	.L47
 848              	.L54:
 849              		.align	3
 850              	.L53:
 851 0168 9A999999 		.word	-1717986918
 852 016c 9999C93F 		.word	1070176665
 853 0170 9A999999 		.word	-1717986918
 854 0174 9999C9BF 		.word	-1077306983
 855 0178 00000000 		.word	phi_w_dot
 856 017c 00000000 		.word	steeringTarget
 857 0180 00000000 		.word	gimbal_control_loop
 858 0184 00000000 		.word	steering_control_loop
 859 0188 00000000 		.word	timer_isr
 860 018c 00000000 		.word	orientation
 861 0190 00000000 		.word	phi_b
 862 0194 00006144 		.word	1147207680
 863 0198 00000000 		.word	phi_b_dot
 864              		.cfi_endproc
 865              	.LFE64:
 866              		.size	main, .-main
 867              		.section	.text.enc_high_isr,"ax",%progbits
 868              		.align	2
 869              		.global	enc_high_isr
 870              		.thumb
 871              		.thumb_func
 872              		.type	enc_high_isr, %function
 873              	enc_high_isr:
 874              	.LFB70:
 305:main.c        **** 
 306:main.c        **** CY_ISR(enc_high_isr) {
 875              		.loc 1 306 0
 876              		.cfi_startproc
 877              		@ args = 0, pretend = 0, frame = 0
 878              		@ frame_needed = 0, uses_anonymous_args = 0
 879 0000 08B5     		push	{r3, lr}
 880              		.cfi_def_cfa_offset 8
 881              		.cfi_offset 3, -8
 882              		.cfi_offset 14, -4
 307:main.c        ****     high_ctr = 65535 - EncTimer_ReadCounter();
 883              		.loc 1 307 0
 884 0002 FFF7FEFF 		bl	EncTimer_ReadCounter
 885              	.LVL135:
 886 0006 C043     		mvns	r0, r0
 887 0008 034B     		ldr	r3, .L57
ARM GAS  C:\Users\jebush2\AppData\Local\Temp\ccdV1jcL.s 			page 23


 888 000a 5880     		strh	r0, [r3, #2]	@ movhi
 308:main.c        ****     EncTimer_WriteCounter(65535);
 889              		.loc 1 308 0
 890 000c 4FF6FF70 		movw	r0, #65535
 891 0010 FFF7FEFF 		bl	EncTimer_WriteCounter
 892              	.LVL136:
 893 0014 08BD     		pop	{r3, pc}
 894              	.L58:
 895 0016 00BF     		.align	2
 896              	.L57:
 897 0018 00000000 		.word	.LANCHOR1
 898              		.cfi_endproc
 899              	.LFE70:
 900              		.size	enc_high_isr, .-enc_high_isr
 901              		.section	.text.enc_low_isr,"ax",%progbits
 902              		.align	2
 903              		.global	enc_low_isr
 904              		.thumb
 905              		.thumb_func
 906              		.type	enc_low_isr, %function
 907              	enc_low_isr:
 908              	.LFB71:
 309:main.c        **** }
 310:main.c        **** 
 311:main.c        **** CY_ISR(enc_low_isr) {
 909              		.loc 1 311 0
 910              		.cfi_startproc
 911              		@ args = 0, pretend = 0, frame = 0
 912              		@ frame_needed = 0, uses_anonymous_args = 0
 913 0000 08B5     		push	{r3, lr}
 914              		.cfi_def_cfa_offset 8
 915              		.cfi_offset 3, -8
 916              		.cfi_offset 14, -4
 312:main.c        ****     low_ctr = 65535 - EncTimer_ReadCounter();
 917              		.loc 1 312 0
 918 0002 FFF7FEFF 		bl	EncTimer_ReadCounter
 919              	.LVL137:
 920 0006 C043     		mvns	r0, r0
 921 0008 014B     		ldr	r3, .L61
 922 000a 1880     		strh	r0, [r3]	@ movhi
 923 000c 08BD     		pop	{r3, pc}
 924              	.L62:
 925 000e 00BF     		.align	2
 926              	.L61:
 927 0010 00000000 		.word	.LANCHOR1
 928              		.cfi_endproc
 929              	.LFE71:
 930              		.size	enc_low_isr, .-enc_low_isr
 931              		.comm	orientation,12,4
 932              		.global	low_ctr
 933              		.global	high_ctr
 934              		.global	phi_w_dot_max
 935              		.global	gimbal_enc_max
 936              		.global	gimbal_enc_min
 937              		.comm	speed_reading,4,4
 938              		.comm	phi_b_dot,4,4
 939              		.comm	phi_b,4,4
ARM GAS  C:\Users\jebush2\AppData\Local\Temp\ccdV1jcL.s 			page 24


 940              		.comm	phi_w_dot,4,4
 941              		.comm	phi_w,4,4
 942              		.comm	steeringTarget,4,4
 943              		.global	gimbal_min
 944              		.global	gimbal_max
 945              		.global	gimbal_pwm_target
 946              		.global	gimbal_pwm_high
 947              		.global	gimbal_pwm_low
 948              		.section	.rodata
 949              		.align	2
 950              		.type	phi_w_dot_max, %object
 951              		.size	phi_w_dot_max, 4
 952              	phi_w_dot_max:
 953 0000 00003841 		.word	1094189056
 954              		.type	gimbal_enc_max, %object
 955              		.size	gimbal_enc_max, 4
 956              	gimbal_enc_max:
 957 0004 D9000000 		.word	217
 958              		.type	gimbal_enc_min, %object
 959              		.size	gimbal_enc_min, 4
 960              	gimbal_enc_min:
 961 0008 27FFFFFF 		.word	-217
 962              		.type	gimbal_min, %object
 963              		.size	gimbal_min, 2
 964              	gimbal_min:
 965 000c 4CFF     		.short	-180
 966              		.type	gimbal_max, %object
 967              		.size	gimbal_max, 2
 968              	gimbal_max:
 969 000e B400     		.short	180
 970              		.type	gimbal_pwm_target, %object
 971              		.size	gimbal_pwm_target, 2
 972              	gimbal_pwm_target:
 973 0010 8400     		.short	132
 974              		.type	gimbal_pwm_high, %object
 975              		.size	gimbal_pwm_high, 2
 976              	gimbal_pwm_high:
 977 0012 C800     		.short	200
 978              		.type	gimbal_pwm_low, %object
 979              		.size	gimbal_pwm_low, 2
 980              	gimbal_pwm_low:
 981 0014 6400     		.short	100
 982              		.data
 983              		.align	1
 984              		.set	.LANCHOR1,. + 0
 985              		.type	low_ctr, %object
 986              		.size	low_ctr, 2
 987              	low_ctr:
 988 0000 0100     		.short	1
 989              		.type	high_ctr, %object
 990              		.size	high_ctr, 2
 991              	high_ctr:
 992 0002 0100     		.short	1
 993              		.bss
 994              		.align	2
 995              		.set	.LANCHOR0,. + 0
 996              		.type	time_since_change.8816, %object
ARM GAS  C:\Users\jebush2\AppData\Local\Temp\ccdV1jcL.s 			page 25


 997              		.size	time_since_change.8816, 4
 998              	time_since_change.8816:
 999 0000 00000000 		.space	4
 1000              		.type	last_encoder.8817, %object
 1001              		.size	last_encoder.8817, 4
 1002              	last_encoder.8817:
 1003 0004 00000000 		.space	4
 1004              		.type	integral.8827, %object
 1005              		.size	integral.8827, 4
 1006              	integral.8827:
 1007 0008 00000000 		.space	4
 1008              		.type	previous_error.8826, %object
 1009              		.size	previous_error.8826, 4
 1010              	previous_error.8826:
 1011 000c 00000000 		.space	4
 1012              		.type	speedValue.8829, %object
 1013              		.size	speedValue.8829, 4
 1014              	speedValue.8829:
 1015 0010 00000000 		.space	4
 1016              		.type	integral.8843, %object
 1017              		.size	integral.8843, 4
 1018              	integral.8843:
 1019 0014 00000000 		.space	4
 1020              		.type	previous_error.8842, %object
 1021              		.size	previous_error.8842, 4
 1022              	previous_error.8842:
 1023 0018 00000000 		.space	4
 1024              		.type	integral.8809, %object
 1025              		.size	integral.8809, 4
 1026              	integral.8809:
 1027 001c 00000000 		.space	4
 1028              		.text
 1029              	.Letext0:
 1030              		.file 2 "c:\\program files (x86)\\cypress\\psoc creator\\4.2\\psoc creator\\import\\gnu\\arm\\5.4.
 1031              		.file 3 "c:\\program files (x86)\\cypress\\psoc creator\\4.2\\psoc creator\\import\\gnu\\arm\\5.4.
 1032              		.file 4 "Generated_Source\\PSoC5/cytypes.h"
 1033              		.file 5 "bno055.h"
 1034              		.file 6 "Generated_Source\\PSoC5/core_cm3.h"
 1035              		.file 7 "Generated_Source\\PSoC5/Gimbal_Encoder.h"
 1036              		.file 8 "Generated_Source\\PSoC5/Gimbal_Timer.h"
 1037              		.file 9 "Generated_Source\\PSoC5/gimbal_direction.h"
 1038              		.file 10 "Generated_Source\\PSoC5/PWM_CMG.h"
 1039              		.file 11 "Generated_Source\\PSoC5/Steering_Timer.h"
 1040              		.file 12 "Generated_Source\\PSoC5/Handle_Encoder.h"
 1041              		.file 13 "Generated_Source\\PSoC5/Steering_Dir.h"
 1042              		.file 14 "Generated_Source\\PSoC5/PWM_Steer.h"
 1043              		.file 15 "Generated_Source\\PSoC5/LED1.h"
 1044              		.file 16 "Generated_Source\\PSoC5/CyLib.h"
 1045              		.file 17 "Generated_Source\\PSoC5/SW1.h"
 1046              		.file 18 "Generated_Source\\PSoC5/Gimbal_Control_Loop_Interrupt.h"
 1047              		.file 19 "Generated_Source\\PSoC5/Steering_Control_Loop_Interrupt.h"
 1048              		.file 20 "Generated_Source\\PSoC5/Timer_Interrupt.h"
 1049              		.file 21 "Generated_Source\\PSoC5/EncTimer.h"
 1050              		.file 22 "c:\\program files (x86)\\cypress\\psoc creator\\4.2\\psoc creator\\import\\gnu\\arm\\5.4