ARM GAS  C:\Users\jon\AppData\Local\Temp\cciNEubl.s 			page 1


   1              		.syntax unified
   2              		.cpu cortex-m3
   3              		.fpu softvfp
   4              		.eabi_attribute 20, 1
   5              		.eabi_attribute 21, 1
   6              		.eabi_attribute 23, 3
   7              		.eabi_attribute 24, 1
   8              		.eabi_attribute 25, 1
   9              		.eabi_attribute 26, 1
  10              		.eabi_attribute 30, 2
  11              		.eabi_attribute 34, 1
  12              		.eabi_attribute 18, 4
  13              		.thumb
  14              		.syntax unified
  15              		.file	"Handle_Encoder.c"
  16              		.text
  17              	.Ltext0:
  18              		.cfi_sections	.debug_frame
  19              		.section	.text.Handle_Encoder_Init,"ax",%progbits
  20              		.align	2
  21              		.global	Handle_Encoder_Init
  22              		.thumb
  23              		.thumb_func
  24              		.type	Handle_Encoder_Init, %function
  25              	Handle_Encoder_Init:
  26              	.LFB0:
  27              		.file 1 "Generated_Source\\PSoC5\\Handle_Encoder.c"
   1:Generated_Source\PSoC5/Handle_Encoder.c **** /*******************************************************************************
   2:Generated_Source\PSoC5/Handle_Encoder.c **** * File Name: Handle_Encoder.c  
   3:Generated_Source\PSoC5/Handle_Encoder.c **** * Version 3.0
   4:Generated_Source\PSoC5/Handle_Encoder.c **** *
   5:Generated_Source\PSoC5/Handle_Encoder.c **** * Description:
   6:Generated_Source\PSoC5/Handle_Encoder.c **** *  This file provides the source code to the API for the Quadrature Decoder
   7:Generated_Source\PSoC5/Handle_Encoder.c **** *  component.
   8:Generated_Source\PSoC5/Handle_Encoder.c **** *
   9:Generated_Source\PSoC5/Handle_Encoder.c **** * Note:
  10:Generated_Source\PSoC5/Handle_Encoder.c **** *  None.
  11:Generated_Source\PSoC5/Handle_Encoder.c **** *   
  12:Generated_Source\PSoC5/Handle_Encoder.c **** ********************************************************************************
  13:Generated_Source\PSoC5/Handle_Encoder.c **** * Copyright 2008-2014, Cypress Semiconductor Corporation.  All rights reserved.
  14:Generated_Source\PSoC5/Handle_Encoder.c **** * You may use this file only in accordance with the license, terms, conditions, 
  15:Generated_Source\PSoC5/Handle_Encoder.c **** * disclaimers, and limitations in the end user license agreement accompanying 
  16:Generated_Source\PSoC5/Handle_Encoder.c **** * the software package with which this file was provided.
  17:Generated_Source\PSoC5/Handle_Encoder.c **** *******************************************************************************/
  18:Generated_Source\PSoC5/Handle_Encoder.c **** 
  19:Generated_Source\PSoC5/Handle_Encoder.c **** #include "Handle_Encoder.h"
  20:Generated_Source\PSoC5/Handle_Encoder.c **** 
  21:Generated_Source\PSoC5/Handle_Encoder.c **** #if (Handle_Encoder_COUNTER_SIZE == Handle_Encoder_COUNTER_SIZE_32_BIT)
  22:Generated_Source\PSoC5/Handle_Encoder.c ****     #include "Handle_Encoder_PVT.h"
  23:Generated_Source\PSoC5/Handle_Encoder.c **** #endif /* Handle_Encoder_COUNTER_SIZE == Handle_Encoder_COUNTER_SIZE_32_BIT */
  24:Generated_Source\PSoC5/Handle_Encoder.c **** 
  25:Generated_Source\PSoC5/Handle_Encoder.c **** uint8 Handle_Encoder_initVar = 0u;
  26:Generated_Source\PSoC5/Handle_Encoder.c **** 
  27:Generated_Source\PSoC5/Handle_Encoder.c **** 
  28:Generated_Source\PSoC5/Handle_Encoder.c **** /*******************************************************************************
  29:Generated_Source\PSoC5/Handle_Encoder.c **** * Function Name: Handle_Encoder_Init
  30:Generated_Source\PSoC5/Handle_Encoder.c **** ********************************************************************************
ARM GAS  C:\Users\jon\AppData\Local\Temp\cciNEubl.s 			page 2


  31:Generated_Source\PSoC5/Handle_Encoder.c **** *
  32:Generated_Source\PSoC5/Handle_Encoder.c **** * Summary:
  33:Generated_Source\PSoC5/Handle_Encoder.c **** *  Inits/Restores default QuadDec configuration provided with customizer.
  34:Generated_Source\PSoC5/Handle_Encoder.c **** *
  35:Generated_Source\PSoC5/Handle_Encoder.c **** * Parameters:
  36:Generated_Source\PSoC5/Handle_Encoder.c **** *  None.
  37:Generated_Source\PSoC5/Handle_Encoder.c **** *
  38:Generated_Source\PSoC5/Handle_Encoder.c **** * Return:
  39:Generated_Source\PSoC5/Handle_Encoder.c **** *  None.
  40:Generated_Source\PSoC5/Handle_Encoder.c **** *
  41:Generated_Source\PSoC5/Handle_Encoder.c **** *******************************************************************************/
  42:Generated_Source\PSoC5/Handle_Encoder.c **** void Handle_Encoder_Init(void) 
  43:Generated_Source\PSoC5/Handle_Encoder.c **** {
  28              		.loc 1 43 0
  29              		.cfi_startproc
  30              		@ args = 0, pretend = 0, frame = 0
  31              		@ frame_needed = 0, uses_anonymous_args = 0
  32              		@ link register save eliminated.
  33 0000 7047     		bx	lr
  34              		.cfi_endproc
  35              	.LFE0:
  36              		.size	Handle_Encoder_Init, .-Handle_Encoder_Init
  37 0002 00BF     		.section	.text.Handle_Encoder_Enable,"ax",%progbits
  38              		.align	2
  39              		.global	Handle_Encoder_Enable
  40              		.thumb
  41              		.thumb_func
  42              		.type	Handle_Encoder_Enable, %function
  43              	Handle_Encoder_Enable:
  44              	.LFB1:
  44:Generated_Source\PSoC5/Handle_Encoder.c ****     #if (Handle_Encoder_COUNTER_SIZE == Handle_Encoder_COUNTER_SIZE_32_BIT)
  45:Generated_Source\PSoC5/Handle_Encoder.c ****         /* Disable Interrupt. */
  46:Generated_Source\PSoC5/Handle_Encoder.c ****         CyIntDisable(Handle_Encoder_ISR_NUMBER);
  47:Generated_Source\PSoC5/Handle_Encoder.c ****         /* Set the ISR to point to the Handle_Encoder_isr Interrupt. */
  48:Generated_Source\PSoC5/Handle_Encoder.c ****         (void) CyIntSetVector(Handle_Encoder_ISR_NUMBER, & Handle_Encoder_ISR);
  49:Generated_Source\PSoC5/Handle_Encoder.c ****         /* Set the priority. */
  50:Generated_Source\PSoC5/Handle_Encoder.c ****         CyIntSetPriority(Handle_Encoder_ISR_NUMBER, Handle_Encoder_ISR_PRIORITY);
  51:Generated_Source\PSoC5/Handle_Encoder.c ****     #endif /* Handle_Encoder_COUNTER_SIZE == Handle_Encoder_COUNTER_SIZE_32_BIT */
  52:Generated_Source\PSoC5/Handle_Encoder.c **** }
  53:Generated_Source\PSoC5/Handle_Encoder.c **** 
  54:Generated_Source\PSoC5/Handle_Encoder.c **** 
  55:Generated_Source\PSoC5/Handle_Encoder.c **** /*******************************************************************************
  56:Generated_Source\PSoC5/Handle_Encoder.c **** * Function Name: Handle_Encoder_Enable
  57:Generated_Source\PSoC5/Handle_Encoder.c **** ********************************************************************************
  58:Generated_Source\PSoC5/Handle_Encoder.c **** *
  59:Generated_Source\PSoC5/Handle_Encoder.c **** * Summary:
  60:Generated_Source\PSoC5/Handle_Encoder.c **** *  This function enable interrupts from Component and also enable Component's
  61:Generated_Source\PSoC5/Handle_Encoder.c **** *  ISR in case of 32-bit counter.
  62:Generated_Source\PSoC5/Handle_Encoder.c **** *
  63:Generated_Source\PSoC5/Handle_Encoder.c **** * Parameters:
  64:Generated_Source\PSoC5/Handle_Encoder.c **** *  None.
  65:Generated_Source\PSoC5/Handle_Encoder.c **** *
  66:Generated_Source\PSoC5/Handle_Encoder.c **** * Return:
  67:Generated_Source\PSoC5/Handle_Encoder.c **** *  None.
  68:Generated_Source\PSoC5/Handle_Encoder.c **** *
  69:Generated_Source\PSoC5/Handle_Encoder.c **** *******************************************************************************/
  70:Generated_Source\PSoC5/Handle_Encoder.c **** void Handle_Encoder_Enable(void) 
ARM GAS  C:\Users\jon\AppData\Local\Temp\cciNEubl.s 			page 3


  71:Generated_Source\PSoC5/Handle_Encoder.c **** {
  45              		.loc 1 71 0
  46              		.cfi_startproc
  47              		@ args = 0, pretend = 0, frame = 0
  48              		@ frame_needed = 0, uses_anonymous_args = 0
  49              	.LVL0:
  50              		.loc 1 71 0
  51 0000 08B5     		push	{r3, lr}
  52              		.cfi_def_cfa_offset 8
  53              		.cfi_offset 3, -8
  54              		.cfi_offset 14, -4
  55              	.LBB12:
  56              	.LBB13:
  72:Generated_Source\PSoC5/Handle_Encoder.c ****     uint8 enableInterrupts;
  73:Generated_Source\PSoC5/Handle_Encoder.c **** 
  74:Generated_Source\PSoC5/Handle_Encoder.c ****     Handle_Encoder_SetInterruptMask(Handle_Encoder_INIT_INT_MASK);
  75:Generated_Source\PSoC5/Handle_Encoder.c **** 
  76:Generated_Source\PSoC5/Handle_Encoder.c ****     /* Clear pending interrupts. */
  77:Generated_Source\PSoC5/Handle_Encoder.c ****     (void) Handle_Encoder_GetEvents();
  78:Generated_Source\PSoC5/Handle_Encoder.c ****     
  79:Generated_Source\PSoC5/Handle_Encoder.c ****     enableInterrupts = CyEnterCriticalSection();
  80:Generated_Source\PSoC5/Handle_Encoder.c **** 
  81:Generated_Source\PSoC5/Handle_Encoder.c ****     /* Enable interrupts from Statusi register */
  82:Generated_Source\PSoC5/Handle_Encoder.c ****     Handle_Encoder_SR_AUX_CONTROL |= Handle_Encoder_INTERRUPTS_ENABLE;
  83:Generated_Source\PSoC5/Handle_Encoder.c **** 
  84:Generated_Source\PSoC5/Handle_Encoder.c ****     CyExitCriticalSection(enableInterrupts);        
  85:Generated_Source\PSoC5/Handle_Encoder.c **** 
  86:Generated_Source\PSoC5/Handle_Encoder.c ****     #if (Handle_Encoder_COUNTER_SIZE == Handle_Encoder_COUNTER_SIZE_32_BIT)
  87:Generated_Source\PSoC5/Handle_Encoder.c ****         /* Enable Component interrupts */
  88:Generated_Source\PSoC5/Handle_Encoder.c ****         CyIntEnable(Handle_Encoder_ISR_NUMBER);
  89:Generated_Source\PSoC5/Handle_Encoder.c ****     #endif /* Handle_Encoder_COUNTER_SIZE == Handle_Encoder_COUNTER_SIZE_32_BIT */
  90:Generated_Source\PSoC5/Handle_Encoder.c **** }
  91:Generated_Source\PSoC5/Handle_Encoder.c **** 
  92:Generated_Source\PSoC5/Handle_Encoder.c **** 
  93:Generated_Source\PSoC5/Handle_Encoder.c **** /*******************************************************************************
  94:Generated_Source\PSoC5/Handle_Encoder.c **** * Function Name: Handle_Encoder_Start
  95:Generated_Source\PSoC5/Handle_Encoder.c **** ********************************************************************************
  96:Generated_Source\PSoC5/Handle_Encoder.c **** *
  97:Generated_Source\PSoC5/Handle_Encoder.c **** * Summary:
  98:Generated_Source\PSoC5/Handle_Encoder.c **** *  Initializes UDBs and other relevant hardware.
  99:Generated_Source\PSoC5/Handle_Encoder.c **** *  Resets counter, enables or disables all relevant interrupts.
 100:Generated_Source\PSoC5/Handle_Encoder.c **** *  Starts monitoring the inputs and counting.
 101:Generated_Source\PSoC5/Handle_Encoder.c **** *
 102:Generated_Source\PSoC5/Handle_Encoder.c **** * Parameters:
 103:Generated_Source\PSoC5/Handle_Encoder.c **** *  None.
 104:Generated_Source\PSoC5/Handle_Encoder.c **** *
 105:Generated_Source\PSoC5/Handle_Encoder.c **** * Return:
 106:Generated_Source\PSoC5/Handle_Encoder.c **** *  None.
 107:Generated_Source\PSoC5/Handle_Encoder.c **** *
 108:Generated_Source\PSoC5/Handle_Encoder.c **** * Global variables:
 109:Generated_Source\PSoC5/Handle_Encoder.c **** *  Handle_Encoder_initVar - used to check initial configuration, modified on
 110:Generated_Source\PSoC5/Handle_Encoder.c **** *  first function call.
 111:Generated_Source\PSoC5/Handle_Encoder.c **** *
 112:Generated_Source\PSoC5/Handle_Encoder.c **** * Reentrant:
 113:Generated_Source\PSoC5/Handle_Encoder.c **** *  No.
 114:Generated_Source\PSoC5/Handle_Encoder.c **** *
 115:Generated_Source\PSoC5/Handle_Encoder.c **** *******************************************************************************/
ARM GAS  C:\Users\jon\AppData\Local\Temp\cciNEubl.s 			page 4


 116:Generated_Source\PSoC5/Handle_Encoder.c **** void Handle_Encoder_Start(void) 
 117:Generated_Source\PSoC5/Handle_Encoder.c **** {
 118:Generated_Source\PSoC5/Handle_Encoder.c ****     #if (Handle_Encoder_COUNTER_SIZE == Handle_Encoder_COUNTER_SIZE_8_BIT)
 119:Generated_Source\PSoC5/Handle_Encoder.c ****         Handle_Encoder_Cnt8_Start();
 120:Generated_Source\PSoC5/Handle_Encoder.c ****         Handle_Encoder_Cnt8_WriteCounter(Handle_Encoder_COUNTER_INIT_VALUE);
 121:Generated_Source\PSoC5/Handle_Encoder.c ****     #else
 122:Generated_Source\PSoC5/Handle_Encoder.c ****         /* (Handle_Encoder_COUNTER_SIZE == Handle_Encoder_COUNTER_SIZE_16_BIT) || 
 123:Generated_Source\PSoC5/Handle_Encoder.c ****         *  (Handle_Encoder_COUNTER_SIZE == Handle_Encoder_COUNTER_SIZE_32_BIT) 
 124:Generated_Source\PSoC5/Handle_Encoder.c ****         */
 125:Generated_Source\PSoC5/Handle_Encoder.c ****         Handle_Encoder_Cnt16_Start();
 126:Generated_Source\PSoC5/Handle_Encoder.c ****         Handle_Encoder_Cnt16_WriteCounter(Handle_Encoder_COUNTER_INIT_VALUE);
 127:Generated_Source\PSoC5/Handle_Encoder.c ****     #endif /* Handle_Encoder_COUNTER_SIZE == Handle_Encoder_COUNTER_SIZE_8_BIT */
 128:Generated_Source\PSoC5/Handle_Encoder.c ****     
 129:Generated_Source\PSoC5/Handle_Encoder.c ****     #if (Handle_Encoder_COUNTER_SIZE == Handle_Encoder_COUNTER_SIZE_32_BIT)        
 130:Generated_Source\PSoC5/Handle_Encoder.c ****        Handle_Encoder_count32SoftPart = 0;
 131:Generated_Source\PSoC5/Handle_Encoder.c ****     #endif /* Handle_Encoder_COUNTER_SIZE == Handle_Encoder_COUNTER_SIZE_32_BIT */
 132:Generated_Source\PSoC5/Handle_Encoder.c **** 
 133:Generated_Source\PSoC5/Handle_Encoder.c ****     if (Handle_Encoder_initVar == 0u)
 134:Generated_Source\PSoC5/Handle_Encoder.c ****     {
 135:Generated_Source\PSoC5/Handle_Encoder.c ****         Handle_Encoder_Init();
 136:Generated_Source\PSoC5/Handle_Encoder.c ****         Handle_Encoder_initVar = 1u;
 137:Generated_Source\PSoC5/Handle_Encoder.c ****     }
 138:Generated_Source\PSoC5/Handle_Encoder.c **** 
 139:Generated_Source\PSoC5/Handle_Encoder.c ****     Handle_Encoder_Enable();
 140:Generated_Source\PSoC5/Handle_Encoder.c **** }
 141:Generated_Source\PSoC5/Handle_Encoder.c **** 
 142:Generated_Source\PSoC5/Handle_Encoder.c **** 
 143:Generated_Source\PSoC5/Handle_Encoder.c **** /*******************************************************************************
 144:Generated_Source\PSoC5/Handle_Encoder.c **** * Function Name: Handle_Encoder_Stop
 145:Generated_Source\PSoC5/Handle_Encoder.c **** ********************************************************************************
 146:Generated_Source\PSoC5/Handle_Encoder.c **** *
 147:Generated_Source\PSoC5/Handle_Encoder.c **** * Summary:
 148:Generated_Source\PSoC5/Handle_Encoder.c **** *  Turns off UDBs and other relevant hardware.
 149:Generated_Source\PSoC5/Handle_Encoder.c **** *
 150:Generated_Source\PSoC5/Handle_Encoder.c **** * Parameters:
 151:Generated_Source\PSoC5/Handle_Encoder.c **** *  None.
 152:Generated_Source\PSoC5/Handle_Encoder.c **** *
 153:Generated_Source\PSoC5/Handle_Encoder.c **** * Return:
 154:Generated_Source\PSoC5/Handle_Encoder.c **** *  None.
 155:Generated_Source\PSoC5/Handle_Encoder.c **** *
 156:Generated_Source\PSoC5/Handle_Encoder.c **** *******************************************************************************/
 157:Generated_Source\PSoC5/Handle_Encoder.c **** void Handle_Encoder_Stop(void) 
 158:Generated_Source\PSoC5/Handle_Encoder.c **** {
 159:Generated_Source\PSoC5/Handle_Encoder.c ****     uint8 enableInterrupts;
 160:Generated_Source\PSoC5/Handle_Encoder.c **** 
 161:Generated_Source\PSoC5/Handle_Encoder.c ****     #if (Handle_Encoder_COUNTER_SIZE == Handle_Encoder_COUNTER_SIZE_8_BIT)
 162:Generated_Source\PSoC5/Handle_Encoder.c ****         Handle_Encoder_Cnt8_Stop();
 163:Generated_Source\PSoC5/Handle_Encoder.c ****     #else 
 164:Generated_Source\PSoC5/Handle_Encoder.c ****         /* (Handle_Encoder_COUNTER_SIZE == Handle_Encoder_COUNTER_SIZE_16_BIT) ||
 165:Generated_Source\PSoC5/Handle_Encoder.c ****         *  (Handle_Encoder_COUNTER_SIZE == Handle_Encoder_COUNTER_SIZE_32_BIT)
 166:Generated_Source\PSoC5/Handle_Encoder.c ****         */
 167:Generated_Source\PSoC5/Handle_Encoder.c ****         Handle_Encoder_Cnt16_Stop();    /* counter disable */
 168:Generated_Source\PSoC5/Handle_Encoder.c ****     #endif /* (Handle_Encoder_COUNTER_SIZE == Handle_Encoder_COUNTER_SIZE_8_BIT) */
 169:Generated_Source\PSoC5/Handle_Encoder.c ****  
 170:Generated_Source\PSoC5/Handle_Encoder.c ****     enableInterrupts = CyEnterCriticalSection();
 171:Generated_Source\PSoC5/Handle_Encoder.c **** 
 172:Generated_Source\PSoC5/Handle_Encoder.c ****     /* Disable interrupts interrupts from Statusi register */
ARM GAS  C:\Users\jon\AppData\Local\Temp\cciNEubl.s 			page 5


 173:Generated_Source\PSoC5/Handle_Encoder.c ****     Handle_Encoder_SR_AUX_CONTROL &= (uint8) (~Handle_Encoder_INTERRUPTS_ENABLE);
 174:Generated_Source\PSoC5/Handle_Encoder.c **** 
 175:Generated_Source\PSoC5/Handle_Encoder.c ****     CyExitCriticalSection(enableInterrupts);
 176:Generated_Source\PSoC5/Handle_Encoder.c **** 
 177:Generated_Source\PSoC5/Handle_Encoder.c ****     #if (Handle_Encoder_COUNTER_SIZE == Handle_Encoder_COUNTER_SIZE_32_BIT)
 178:Generated_Source\PSoC5/Handle_Encoder.c ****         CyIntDisable(Handle_Encoder_ISR_NUMBER);    /* interrupt disable */
 179:Generated_Source\PSoC5/Handle_Encoder.c ****     #endif /* Handle_Encoder_COUNTER_SIZE == Handle_Encoder_COUNTER_SIZE_32_BIT */
 180:Generated_Source\PSoC5/Handle_Encoder.c **** }
 181:Generated_Source\PSoC5/Handle_Encoder.c **** 
 182:Generated_Source\PSoC5/Handle_Encoder.c **** 
 183:Generated_Source\PSoC5/Handle_Encoder.c **** /*******************************************************************************
 184:Generated_Source\PSoC5/Handle_Encoder.c **** * Function Name: Handle_Encoder_GetCounter
 185:Generated_Source\PSoC5/Handle_Encoder.c **** ********************************************************************************
 186:Generated_Source\PSoC5/Handle_Encoder.c **** *
 187:Generated_Source\PSoC5/Handle_Encoder.c **** * Summary:
 188:Generated_Source\PSoC5/Handle_Encoder.c **** *  Reports the current value of the counter.
 189:Generated_Source\PSoC5/Handle_Encoder.c **** *
 190:Generated_Source\PSoC5/Handle_Encoder.c **** * Parameters:
 191:Generated_Source\PSoC5/Handle_Encoder.c **** *  None.
 192:Generated_Source\PSoC5/Handle_Encoder.c **** *
 193:Generated_Source\PSoC5/Handle_Encoder.c **** * Return:
 194:Generated_Source\PSoC5/Handle_Encoder.c **** *  The counter value. Return type is signed and per the counter size setting.
 195:Generated_Source\PSoC5/Handle_Encoder.c **** *  A positive value indicates clockwise movement (B before A).
 196:Generated_Source\PSoC5/Handle_Encoder.c **** *
 197:Generated_Source\PSoC5/Handle_Encoder.c **** * Global variables:
 198:Generated_Source\PSoC5/Handle_Encoder.c **** *  Handle_Encoder_count32SoftPart - used to get hi 16 bit for current value
 199:Generated_Source\PSoC5/Handle_Encoder.c **** *  of the 32-bit counter, when Counter size equal 32-bit.
 200:Generated_Source\PSoC5/Handle_Encoder.c **** *
 201:Generated_Source\PSoC5/Handle_Encoder.c **** *******************************************************************************/
 202:Generated_Source\PSoC5/Handle_Encoder.c **** int16 Handle_Encoder_GetCounter(void) 
 203:Generated_Source\PSoC5/Handle_Encoder.c **** {
 204:Generated_Source\PSoC5/Handle_Encoder.c ****     int16 count;
 205:Generated_Source\PSoC5/Handle_Encoder.c ****     uint16 tmpCnt;
 206:Generated_Source\PSoC5/Handle_Encoder.c **** 
 207:Generated_Source\PSoC5/Handle_Encoder.c ****     #if (Handle_Encoder_COUNTER_SIZE == Handle_Encoder_COUNTER_SIZE_32_BIT)
 208:Generated_Source\PSoC5/Handle_Encoder.c ****         int16 hwCount;
 209:Generated_Source\PSoC5/Handle_Encoder.c **** 
 210:Generated_Source\PSoC5/Handle_Encoder.c ****         CyIntDisable(Handle_Encoder_ISR_NUMBER);
 211:Generated_Source\PSoC5/Handle_Encoder.c **** 
 212:Generated_Source\PSoC5/Handle_Encoder.c ****         tmpCnt = Handle_Encoder_Cnt16_ReadCounter();
 213:Generated_Source\PSoC5/Handle_Encoder.c ****         hwCount = (int16) ((int32) tmpCnt - (int32) Handle_Encoder_COUNTER_INIT_VALUE);
 214:Generated_Source\PSoC5/Handle_Encoder.c ****         count = Handle_Encoder_count32SoftPart + hwCount;
 215:Generated_Source\PSoC5/Handle_Encoder.c **** 
 216:Generated_Source\PSoC5/Handle_Encoder.c ****         CyIntEnable(Handle_Encoder_ISR_NUMBER);
 217:Generated_Source\PSoC5/Handle_Encoder.c ****     #else 
 218:Generated_Source\PSoC5/Handle_Encoder.c ****         /* (Handle_Encoder_COUNTER_SIZE == Handle_Encoder_COUNTER_SIZE_8_BIT) || 
 219:Generated_Source\PSoC5/Handle_Encoder.c ****         *  (Handle_Encoder_COUNTER_SIZE == Handle_Encoder_COUNTER_SIZE_16_BIT)
 220:Generated_Source\PSoC5/Handle_Encoder.c ****         */
 221:Generated_Source\PSoC5/Handle_Encoder.c ****         #if (Handle_Encoder_COUNTER_SIZE == Handle_Encoder_COUNTER_SIZE_8_BIT)
 222:Generated_Source\PSoC5/Handle_Encoder.c ****             tmpCnt = Handle_Encoder_Cnt8_ReadCounter();
 223:Generated_Source\PSoC5/Handle_Encoder.c ****         #else /* (Handle_Encoder_COUNTER_SIZE == Handle_Encoder_COUNTER_SIZE_16_BIT) */
 224:Generated_Source\PSoC5/Handle_Encoder.c ****             tmpCnt = Handle_Encoder_Cnt16_ReadCounter();
 225:Generated_Source\PSoC5/Handle_Encoder.c ****         #endif  /* Handle_Encoder_COUNTER_SIZE == Handle_Encoder_COUNTER_SIZE_8_BIT */
 226:Generated_Source\PSoC5/Handle_Encoder.c **** 
 227:Generated_Source\PSoC5/Handle_Encoder.c ****         count = (int16) ((int32) tmpCnt -
 228:Generated_Source\PSoC5/Handle_Encoder.c ****                 (int32) Handle_Encoder_COUNTER_INIT_VALUE);
 229:Generated_Source\PSoC5/Handle_Encoder.c **** 
ARM GAS  C:\Users\jon\AppData\Local\Temp\cciNEubl.s 			page 6


 230:Generated_Source\PSoC5/Handle_Encoder.c ****     #endif /* Handle_Encoder_COUNTER_SIZE == Handle_Encoder_COUNTER_SIZE_32_BIT */ 
 231:Generated_Source\PSoC5/Handle_Encoder.c **** 
 232:Generated_Source\PSoC5/Handle_Encoder.c ****     return (count);
 233:Generated_Source\PSoC5/Handle_Encoder.c **** }
 234:Generated_Source\PSoC5/Handle_Encoder.c **** 
 235:Generated_Source\PSoC5/Handle_Encoder.c **** 
 236:Generated_Source\PSoC5/Handle_Encoder.c **** /*******************************************************************************
 237:Generated_Source\PSoC5/Handle_Encoder.c **** * Function Name: Handle_Encoder_SetCounter
 238:Generated_Source\PSoC5/Handle_Encoder.c **** ********************************************************************************
 239:Generated_Source\PSoC5/Handle_Encoder.c **** *
 240:Generated_Source\PSoC5/Handle_Encoder.c **** * Summary:
 241:Generated_Source\PSoC5/Handle_Encoder.c **** *  Sets the current value of the counter.
 242:Generated_Source\PSoC5/Handle_Encoder.c **** *
 243:Generated_Source\PSoC5/Handle_Encoder.c **** * Parameters:
 244:Generated_Source\PSoC5/Handle_Encoder.c **** *  value:  The new value. Parameter type is signed and per the counter size
 245:Generated_Source\PSoC5/Handle_Encoder.c **** *  setting.
 246:Generated_Source\PSoC5/Handle_Encoder.c **** *
 247:Generated_Source\PSoC5/Handle_Encoder.c **** * Return:
 248:Generated_Source\PSoC5/Handle_Encoder.c **** *  None.
 249:Generated_Source\PSoC5/Handle_Encoder.c **** *
 250:Generated_Source\PSoC5/Handle_Encoder.c **** * Global variables:
 251:Generated_Source\PSoC5/Handle_Encoder.c **** *  Handle_Encoder_count32SoftPart - modified to set hi 16 bit for current
 252:Generated_Source\PSoC5/Handle_Encoder.c **** *  value of the 32-bit counter, when Counter size equal 32-bit.
 253:Generated_Source\PSoC5/Handle_Encoder.c **** *
 254:Generated_Source\PSoC5/Handle_Encoder.c **** * Reentrant:
 255:Generated_Source\PSoC5/Handle_Encoder.c **** *  No.
 256:Generated_Source\PSoC5/Handle_Encoder.c **** *
 257:Generated_Source\PSoC5/Handle_Encoder.c **** *******************************************************************************/
 258:Generated_Source\PSoC5/Handle_Encoder.c **** void Handle_Encoder_SetCounter(int16 value) 
 259:Generated_Source\PSoC5/Handle_Encoder.c **** {
 260:Generated_Source\PSoC5/Handle_Encoder.c ****     #if ((Handle_Encoder_COUNTER_SIZE == Handle_Encoder_COUNTER_SIZE_8_BIT) || \
 261:Generated_Source\PSoC5/Handle_Encoder.c ****          (Handle_Encoder_COUNTER_SIZE == Handle_Encoder_COUNTER_SIZE_16_BIT))
 262:Generated_Source\PSoC5/Handle_Encoder.c ****         uint16 count;
 263:Generated_Source\PSoC5/Handle_Encoder.c ****         
 264:Generated_Source\PSoC5/Handle_Encoder.c ****         if (value >= 0)
 265:Generated_Source\PSoC5/Handle_Encoder.c ****         {
 266:Generated_Source\PSoC5/Handle_Encoder.c ****             count = (uint16) value + Handle_Encoder_COUNTER_INIT_VALUE;
 267:Generated_Source\PSoC5/Handle_Encoder.c ****         }
 268:Generated_Source\PSoC5/Handle_Encoder.c ****         else
 269:Generated_Source\PSoC5/Handle_Encoder.c ****         {
 270:Generated_Source\PSoC5/Handle_Encoder.c ****             count = Handle_Encoder_COUNTER_INIT_VALUE - (uint16)(-value);
 271:Generated_Source\PSoC5/Handle_Encoder.c ****         }
 272:Generated_Source\PSoC5/Handle_Encoder.c ****         #if (Handle_Encoder_COUNTER_SIZE == Handle_Encoder_COUNTER_SIZE_8_BIT)
 273:Generated_Source\PSoC5/Handle_Encoder.c ****             Handle_Encoder_Cnt8_WriteCounter(count);
 274:Generated_Source\PSoC5/Handle_Encoder.c ****         #else /* (Handle_Encoder_COUNTER_SIZE == Handle_Encoder_COUNTER_SIZE_16_BIT) */
 275:Generated_Source\PSoC5/Handle_Encoder.c ****             Handle_Encoder_Cnt16_WriteCounter(count);
 276:Generated_Source\PSoC5/Handle_Encoder.c ****         #endif  /* Handle_Encoder_COUNTER_SIZE == Handle_Encoder_COUNTER_SIZE_8_BIT */
 277:Generated_Source\PSoC5/Handle_Encoder.c ****     #else /* (Handle_Encoder_COUNTER_SIZE == Handle_Encoder_COUNTER_SIZE_32_BIT) */
 278:Generated_Source\PSoC5/Handle_Encoder.c ****         CyIntDisable(Handle_Encoder_ISR_NUMBER);
 279:Generated_Source\PSoC5/Handle_Encoder.c **** 
 280:Generated_Source\PSoC5/Handle_Encoder.c ****         Handle_Encoder_Cnt16_WriteCounter(Handle_Encoder_COUNTER_INIT_VALUE);
 281:Generated_Source\PSoC5/Handle_Encoder.c ****         Handle_Encoder_count32SoftPart = value;
 282:Generated_Source\PSoC5/Handle_Encoder.c **** 
 283:Generated_Source\PSoC5/Handle_Encoder.c ****         CyIntEnable(Handle_Encoder_ISR_NUMBER);
 284:Generated_Source\PSoC5/Handle_Encoder.c ****     #endif  /* (Handle_Encoder_COUNTER_SIZE == Handle_Encoder_COUNTER_SIZE_8_BIT) ||
 285:Generated_Source\PSoC5/Handle_Encoder.c ****              * (Handle_Encoder_COUNTER_SIZE == Handle_Encoder_COUNTER_SIZE_16_BIT)
 286:Generated_Source\PSoC5/Handle_Encoder.c ****              */
ARM GAS  C:\Users\jon\AppData\Local\Temp\cciNEubl.s 			page 7


 287:Generated_Source\PSoC5/Handle_Encoder.c **** }
 288:Generated_Source\PSoC5/Handle_Encoder.c **** 
 289:Generated_Source\PSoC5/Handle_Encoder.c **** 
 290:Generated_Source\PSoC5/Handle_Encoder.c **** /*******************************************************************************
 291:Generated_Source\PSoC5/Handle_Encoder.c **** * Function Name: Handle_Encoder_GetEvents
 292:Generated_Source\PSoC5/Handle_Encoder.c **** ********************************************************************************
 293:Generated_Source\PSoC5/Handle_Encoder.c **** * 
 294:Generated_Source\PSoC5/Handle_Encoder.c **** * Summary:
 295:Generated_Source\PSoC5/Handle_Encoder.c **** *   Reports the current status of events. This function clears the bits of the 
 296:Generated_Source\PSoC5/Handle_Encoder.c **** *   status register.
 297:Generated_Source\PSoC5/Handle_Encoder.c **** *
 298:Generated_Source\PSoC5/Handle_Encoder.c **** * Parameters:
 299:Generated_Source\PSoC5/Handle_Encoder.c **** *  None.
 300:Generated_Source\PSoC5/Handle_Encoder.c **** *
 301:Generated_Source\PSoC5/Handle_Encoder.c **** * Return:
 302:Generated_Source\PSoC5/Handle_Encoder.c **** *  The events, as bits in an unsigned 8-bit value:
 303:Generated_Source\PSoC5/Handle_Encoder.c **** *    Bit      Description
 304:Generated_Source\PSoC5/Handle_Encoder.c **** *     0        Counter overflow.
 305:Generated_Source\PSoC5/Handle_Encoder.c **** *     1        Counter underflow.
 306:Generated_Source\PSoC5/Handle_Encoder.c **** *     2        Counter reset due to index, if index input is used.
 307:Generated_Source\PSoC5/Handle_Encoder.c **** *     3        Invalid A, B inputs state transition.
 308:Generated_Source\PSoC5/Handle_Encoder.c **** *
 309:Generated_Source\PSoC5/Handle_Encoder.c **** *******************************************************************************/
 310:Generated_Source\PSoC5/Handle_Encoder.c **** uint8 Handle_Encoder_GetEvents(void) 
 311:Generated_Source\PSoC5/Handle_Encoder.c **** {
 312:Generated_Source\PSoC5/Handle_Encoder.c ****     return (Handle_Encoder_STATUS_REG & Handle_Encoder_INIT_INT_MASK);
 313:Generated_Source\PSoC5/Handle_Encoder.c **** }
 314:Generated_Source\PSoC5/Handle_Encoder.c **** 
 315:Generated_Source\PSoC5/Handle_Encoder.c **** 
 316:Generated_Source\PSoC5/Handle_Encoder.c **** /*******************************************************************************
 317:Generated_Source\PSoC5/Handle_Encoder.c **** * Function Name: Handle_Encoder_SetInterruptMask
 318:Generated_Source\PSoC5/Handle_Encoder.c **** ********************************************************************************
 319:Generated_Source\PSoC5/Handle_Encoder.c **** *
 320:Generated_Source\PSoC5/Handle_Encoder.c **** * Summary:
 321:Generated_Source\PSoC5/Handle_Encoder.c **** *  Enables / disables interrupts due to the events.
 322:Generated_Source\PSoC5/Handle_Encoder.c **** *  For the 32-bit counter, the overflow, underflow and reset interrupts cannot
 323:Generated_Source\PSoC5/Handle_Encoder.c **** *  be disabled, these bits are ignored.
 324:Generated_Source\PSoC5/Handle_Encoder.c **** *
 325:Generated_Source\PSoC5/Handle_Encoder.c **** * Parameters:
 326:Generated_Source\PSoC5/Handle_Encoder.c **** *  mask: Enable / disable bits in an 8-bit value, where 1 enables the interrupt.
 327:Generated_Source\PSoC5/Handle_Encoder.c **** *
 328:Generated_Source\PSoC5/Handle_Encoder.c **** * Return:
 329:Generated_Source\PSoC5/Handle_Encoder.c **** *  None.
 330:Generated_Source\PSoC5/Handle_Encoder.c **** *
 331:Generated_Source\PSoC5/Handle_Encoder.c **** *******************************************************************************/
 332:Generated_Source\PSoC5/Handle_Encoder.c **** void Handle_Encoder_SetInterruptMask(uint8 mask) 
 333:Generated_Source\PSoC5/Handle_Encoder.c **** {
 334:Generated_Source\PSoC5/Handle_Encoder.c ****     #if (Handle_Encoder_COUNTER_SIZE == Handle_Encoder_COUNTER_SIZE_32_BIT)
 335:Generated_Source\PSoC5/Handle_Encoder.c ****         /* Underflow, Overflow and Reset interrupts for 32-bit Counter are always enable */
 336:Generated_Source\PSoC5/Handle_Encoder.c ****         mask |= (Handle_Encoder_COUNTER_OVERFLOW | Handle_Encoder_COUNTER_UNDERFLOW |
 337:Generated_Source\PSoC5/Handle_Encoder.c ****                  Handle_Encoder_COUNTER_RESET);
 338:Generated_Source\PSoC5/Handle_Encoder.c ****     #endif /* Handle_Encoder_COUNTER_SIZE == Handle_Encoder_COUNTER_SIZE_32_BIT */
 339:Generated_Source\PSoC5/Handle_Encoder.c **** 
 340:Generated_Source\PSoC5/Handle_Encoder.c ****     Handle_Encoder_STATUS_MASK = mask;
  57              		.loc 1 340 0
  58 0002 084A     		ldr	r2, .L4
  59 0004 0F21     		movs	r1, #15
ARM GAS  C:\Users\jon\AppData\Local\Temp\cciNEubl.s 			page 8


  60              	.LBE13:
  61              	.LBE12:
  62              	.LBB15:
  63              	.LBB16:
 312:Generated_Source\PSoC5/Handle_Encoder.c **** }
  64              		.loc 1 312 0
  65 0006 084B     		ldr	r3, .L4+4
  66              	.LBE16:
  67              	.LBE15:
  68              	.LBB18:
  69              	.LBB14:
  70              		.loc 1 340 0
  71 0008 1170     		strb	r1, [r2]
  72              	.LVL1:
  73              	.LBE14:
  74              	.LBE18:
  75              	.LBB19:
  76              	.LBB17:
 312:Generated_Source\PSoC5/Handle_Encoder.c **** }
  77              		.loc 1 312 0
  78 000a 1B78     		ldrb	r3, [r3]	@ zero_extendqisi2
  79              	.LBE17:
  80              	.LBE19:
  79:Generated_Source\PSoC5/Handle_Encoder.c **** 
  81              		.loc 1 79 0
  82 000c FFF7FEFF 		bl	CyEnterCriticalSection
  83              	.LVL2:
  82:Generated_Source\PSoC5/Handle_Encoder.c **** 
  84              		.loc 1 82 0
  85 0010 064A     		ldr	r2, .L4+8
  86 0012 1378     		ldrb	r3, [r2]	@ zero_extendqisi2
  87 0014 43F01003 		orr	r3, r3, #16
  88 0018 1370     		strb	r3, [r2]
  90:Generated_Source\PSoC5/Handle_Encoder.c **** 
  89              		.loc 1 90 0
  90 001a BDE80840 		pop	{r3, lr}
  91              		.cfi_restore 14
  92              		.cfi_restore 3
  93              		.cfi_def_cfa_offset 0
  84:Generated_Source\PSoC5/Handle_Encoder.c **** 
  94              		.loc 1 84 0
  95 001e FFF7FEBF 		b	CyExitCriticalSection
  96              	.LVL3:
  97              	.L5:
  98 0022 00BF     		.align	2
  99              	.L4:
 100 0024 85640040 		.word	1073767557
 101 0028 65640040 		.word	1073767525
 102 002c 95640040 		.word	1073767573
 103              		.cfi_endproc
 104              	.LFE1:
 105              		.size	Handle_Encoder_Enable, .-Handle_Encoder_Enable
 106              		.section	.text.Handle_Encoder_Start,"ax",%progbits
 107              		.align	2
 108              		.global	Handle_Encoder_Start
 109              		.thumb
 110              		.thumb_func
ARM GAS  C:\Users\jon\AppData\Local\Temp\cciNEubl.s 			page 9


 111              		.type	Handle_Encoder_Start, %function
 112              	Handle_Encoder_Start:
 113              	.LFB2:
 117:Generated_Source\PSoC5/Handle_Encoder.c ****     #if (Handle_Encoder_COUNTER_SIZE == Handle_Encoder_COUNTER_SIZE_8_BIT)
 114              		.loc 1 117 0
 115              		.cfi_startproc
 116              		@ args = 0, pretend = 0, frame = 0
 117              		@ frame_needed = 0, uses_anonymous_args = 0
 118 0000 08B5     		push	{r3, lr}
 119              		.cfi_def_cfa_offset 8
 120              		.cfi_offset 3, -8
 121              		.cfi_offset 14, -4
 125:Generated_Source\PSoC5/Handle_Encoder.c ****         Handle_Encoder_Cnt16_WriteCounter(Handle_Encoder_COUNTER_INIT_VALUE);
 122              		.loc 1 125 0
 123 0002 FFF7FEFF 		bl	Handle_Encoder_Cnt16_Start
 124              	.LVL4:
 126:Generated_Source\PSoC5/Handle_Encoder.c ****     #endif /* Handle_Encoder_COUNTER_SIZE == Handle_Encoder_COUNTER_SIZE_8_BIT */
 125              		.loc 1 126 0
 126 0006 4FF40040 		mov	r0, #32768
 127 000a FFF7FEFF 		bl	Handle_Encoder_Cnt16_WriteCounter
 128              	.LVL5:
 133:Generated_Source\PSoC5/Handle_Encoder.c ****     {
 129              		.loc 1 133 0
 130 000e 0A4B     		ldr	r3, .L10
 131 0010 1A78     		ldrb	r2, [r3]	@ zero_extendqisi2
 132 0012 0AB9     		cbnz	r2, .L7
 136:Generated_Source\PSoC5/Handle_Encoder.c ****     }
 133              		.loc 1 136 0
 134 0014 0122     		movs	r2, #1
 135 0016 1A70     		strb	r2, [r3]
 136              	.L7:
 137              	.LVL6:
 138              	.LBB26:
 139              	.LBB27:
 140              	.LBB28:
 141              	.LBB29:
 142              		.loc 1 340 0
 143 0018 084A     		ldr	r2, .L10+4
 144 001a 0F21     		movs	r1, #15
 145              	.LBE29:
 146              	.LBE28:
 147              	.LBB31:
 148              	.LBB32:
 312:Generated_Source\PSoC5/Handle_Encoder.c **** }
 149              		.loc 1 312 0
 150 001c 084B     		ldr	r3, .L10+8
 151              	.LBE32:
 152              	.LBE31:
 153              	.LBB34:
 154              	.LBB30:
 155              		.loc 1 340 0
 156 001e 1170     		strb	r1, [r2]
 157              	.LVL7:
 158              	.LBE30:
 159              	.LBE34:
 160              	.LBB35:
 161              	.LBB33:
ARM GAS  C:\Users\jon\AppData\Local\Temp\cciNEubl.s 			page 10


 312:Generated_Source\PSoC5/Handle_Encoder.c **** }
 162              		.loc 1 312 0
 163 0020 1B78     		ldrb	r3, [r3]	@ zero_extendqisi2
 164              	.LBE33:
 165              	.LBE35:
  79:Generated_Source\PSoC5/Handle_Encoder.c **** 
 166              		.loc 1 79 0
 167 0022 FFF7FEFF 		bl	CyEnterCriticalSection
 168              	.LVL8:
  82:Generated_Source\PSoC5/Handle_Encoder.c **** 
 169              		.loc 1 82 0
 170 0026 074A     		ldr	r2, .L10+12
 171 0028 1378     		ldrb	r3, [r2]	@ zero_extendqisi2
 172 002a 43F01003 		orr	r3, r3, #16
 173 002e 1370     		strb	r3, [r2]
 174              	.LBE27:
 175              	.LBE26:
 140:Generated_Source\PSoC5/Handle_Encoder.c **** 
 176              		.loc 1 140 0
 177 0030 BDE80840 		pop	{r3, lr}
 178              		.cfi_restore 14
 179              		.cfi_restore 3
 180              		.cfi_def_cfa_offset 0
 181              	.LBB37:
 182              	.LBB36:
  84:Generated_Source\PSoC5/Handle_Encoder.c **** 
 183              		.loc 1 84 0
 184 0034 FFF7FEBF 		b	CyExitCriticalSection
 185              	.LVL9:
 186              	.L11:
 187              		.align	2
 188              	.L10:
 189 0038 00000000 		.word	.LANCHOR0
 190 003c 85640040 		.word	1073767557
 191 0040 65640040 		.word	1073767525
 192 0044 95640040 		.word	1073767573
 193              	.LBE36:
 194              	.LBE37:
 195              		.cfi_endproc
 196              	.LFE2:
 197              		.size	Handle_Encoder_Start, .-Handle_Encoder_Start
 198              		.section	.text.Handle_Encoder_Stop,"ax",%progbits
 199              		.align	2
 200              		.global	Handle_Encoder_Stop
 201              		.thumb
 202              		.thumb_func
 203              		.type	Handle_Encoder_Stop, %function
 204              	Handle_Encoder_Stop:
 205              	.LFB3:
 158:Generated_Source\PSoC5/Handle_Encoder.c ****     uint8 enableInterrupts;
 206              		.loc 1 158 0
 207              		.cfi_startproc
 208              		@ args = 0, pretend = 0, frame = 0
 209              		@ frame_needed = 0, uses_anonymous_args = 0
 210 0000 08B5     		push	{r3, lr}
 211              		.cfi_def_cfa_offset 8
 212              		.cfi_offset 3, -8
ARM GAS  C:\Users\jon\AppData\Local\Temp\cciNEubl.s 			page 11


 213              		.cfi_offset 14, -4
 167:Generated_Source\PSoC5/Handle_Encoder.c ****     #endif /* (Handle_Encoder_COUNTER_SIZE == Handle_Encoder_COUNTER_SIZE_8_BIT) */
 214              		.loc 1 167 0
 215 0002 FFF7FEFF 		bl	Handle_Encoder_Cnt16_Stop
 216              	.LVL10:
 170:Generated_Source\PSoC5/Handle_Encoder.c **** 
 217              		.loc 1 170 0
 218 0006 FFF7FEFF 		bl	CyEnterCriticalSection
 219              	.LVL11:
 173:Generated_Source\PSoC5/Handle_Encoder.c **** 
 220              		.loc 1 173 0
 221 000a 044A     		ldr	r2, .L14
 222 000c 1378     		ldrb	r3, [r2]	@ zero_extendqisi2
 223 000e 03F0EF03 		and	r3, r3, #239
 224 0012 1370     		strb	r3, [r2]
 180:Generated_Source\PSoC5/Handle_Encoder.c **** 
 225              		.loc 1 180 0
 226 0014 BDE80840 		pop	{r3, lr}
 227              		.cfi_restore 14
 228              		.cfi_restore 3
 229              		.cfi_def_cfa_offset 0
 175:Generated_Source\PSoC5/Handle_Encoder.c **** 
 230              		.loc 1 175 0
 231 0018 FFF7FEBF 		b	CyExitCriticalSection
 232              	.LVL12:
 233              	.L15:
 234              		.align	2
 235              	.L14:
 236 001c 95640040 		.word	1073767573
 237              		.cfi_endproc
 238              	.LFE3:
 239              		.size	Handle_Encoder_Stop, .-Handle_Encoder_Stop
 240              		.section	.text.Handle_Encoder_GetCounter,"ax",%progbits
 241              		.align	2
 242              		.global	Handle_Encoder_GetCounter
 243              		.thumb
 244              		.thumb_func
 245              		.type	Handle_Encoder_GetCounter, %function
 246              	Handle_Encoder_GetCounter:
 247              	.LFB4:
 203:Generated_Source\PSoC5/Handle_Encoder.c ****     int16 count;
 248              		.loc 1 203 0
 249              		.cfi_startproc
 250              		@ args = 0, pretend = 0, frame = 0
 251              		@ frame_needed = 0, uses_anonymous_args = 0
 252 0000 08B5     		push	{r3, lr}
 253              		.cfi_def_cfa_offset 8
 254              		.cfi_offset 3, -8
 255              		.cfi_offset 14, -4
 224:Generated_Source\PSoC5/Handle_Encoder.c ****         #endif  /* Handle_Encoder_COUNTER_SIZE == Handle_Encoder_COUNTER_SIZE_8_BIT */
 256              		.loc 1 224 0
 257 0002 FFF7FEFF 		bl	Handle_Encoder_Cnt16_ReadCounter
 258              	.LVL13:
 232:Generated_Source\PSoC5/Handle_Encoder.c **** }
 259              		.loc 1 232 0
 260 0006 A0F50040 		sub	r0, r0, #32768
 261              	.LVL14:
ARM GAS  C:\Users\jon\AppData\Local\Temp\cciNEubl.s 			page 12


 233:Generated_Source\PSoC5/Handle_Encoder.c **** 
 262              		.loc 1 233 0
 263 000a 00B2     		sxth	r0, r0
 264 000c 08BD     		pop	{r3, pc}
 265              		.cfi_endproc
 266              	.LFE4:
 267              		.size	Handle_Encoder_GetCounter, .-Handle_Encoder_GetCounter
 268 000e 00BF     		.section	.text.Handle_Encoder_SetCounter,"ax",%progbits
 269              		.align	2
 270              		.global	Handle_Encoder_SetCounter
 271              		.thumb
 272              		.thumb_func
 273              		.type	Handle_Encoder_SetCounter, %function
 274              	Handle_Encoder_SetCounter:
 275              	.LFB5:
 259:Generated_Source\PSoC5/Handle_Encoder.c ****     #if ((Handle_Encoder_COUNTER_SIZE == Handle_Encoder_COUNTER_SIZE_8_BIT) || \
 276              		.loc 1 259 0
 277              		.cfi_startproc
 278              		@ args = 0, pretend = 0, frame = 0
 279              		@ frame_needed = 0, uses_anonymous_args = 0
 280              		@ link register save eliminated.
 281              	.LVL15:
 275:Generated_Source\PSoC5/Handle_Encoder.c ****         #endif  /* Handle_Encoder_COUNTER_SIZE == Handle_Encoder_COUNTER_SIZE_8_BIT */
 282              		.loc 1 275 0
 283 0000 A0F50040 		sub	r0, r0, #32768
 284              	.LVL16:
 285 0004 80B2     		uxth	r0, r0
 286 0006 FFF7FEBF 		b	Handle_Encoder_Cnt16_WriteCounter
 287              	.LVL17:
 288              		.cfi_endproc
 289              	.LFE5:
 290              		.size	Handle_Encoder_SetCounter, .-Handle_Encoder_SetCounter
 291 000a 00BF     		.section	.text.Handle_Encoder_GetEvents,"ax",%progbits
 292              		.align	2
 293              		.global	Handle_Encoder_GetEvents
 294              		.thumb
 295              		.thumb_func
 296              		.type	Handle_Encoder_GetEvents, %function
 297              	Handle_Encoder_GetEvents:
 298              	.LFB6:
 311:Generated_Source\PSoC5/Handle_Encoder.c ****     return (Handle_Encoder_STATUS_REG & Handle_Encoder_INIT_INT_MASK);
 299              		.loc 1 311 0
 300              		.cfi_startproc
 301              		@ args = 0, pretend = 0, frame = 0
 302              		@ frame_needed = 0, uses_anonymous_args = 0
 303              		@ link register save eliminated.
 312:Generated_Source\PSoC5/Handle_Encoder.c **** }
 304              		.loc 1 312 0
 305 0000 024B     		ldr	r3, .L20
 306 0002 1878     		ldrb	r0, [r3]	@ zero_extendqisi2
 313:Generated_Source\PSoC5/Handle_Encoder.c **** 
 307              		.loc 1 313 0
 308 0004 00F00F00 		and	r0, r0, #15
 309 0008 7047     		bx	lr
 310              	.L21:
 311 000a 00BF     		.align	2
 312              	.L20:
ARM GAS  C:\Users\jon\AppData\Local\Temp\cciNEubl.s 			page 13


 313 000c 65640040 		.word	1073767525
 314              		.cfi_endproc
 315              	.LFE6:
 316              		.size	Handle_Encoder_GetEvents, .-Handle_Encoder_GetEvents
 317              		.section	.text.Handle_Encoder_SetInterruptMask,"ax",%progbits
 318              		.align	2
 319              		.global	Handle_Encoder_SetInterruptMask
 320              		.thumb
 321              		.thumb_func
 322              		.type	Handle_Encoder_SetInterruptMask, %function
 323              	Handle_Encoder_SetInterruptMask:
 324              	.LFB7:
 333:Generated_Source\PSoC5/Handle_Encoder.c ****     #if (Handle_Encoder_COUNTER_SIZE == Handle_Encoder_COUNTER_SIZE_32_BIT)
 325              		.loc 1 333 0
 326              		.cfi_startproc
 327              		@ args = 0, pretend = 0, frame = 0
 328              		@ frame_needed = 0, uses_anonymous_args = 0
 329              		@ link register save eliminated.
 330              	.LVL18:
 331              		.loc 1 340 0
 332 0000 014B     		ldr	r3, .L23
 333 0002 1870     		strb	r0, [r3]
 334 0004 7047     		bx	lr
 335              	.L24:
 336 0006 00BF     		.align	2
 337              	.L23:
 338 0008 85640040 		.word	1073767557
 339              		.cfi_endproc
 340              	.LFE7:
 341              		.size	Handle_Encoder_SetInterruptMask, .-Handle_Encoder_SetInterruptMask
 342              		.section	.text.Handle_Encoder_GetInterruptMask,"ax",%progbits
 343              		.align	2
 344              		.global	Handle_Encoder_GetInterruptMask
 345              		.thumb
 346              		.thumb_func
 347              		.type	Handle_Encoder_GetInterruptMask, %function
 348              	Handle_Encoder_GetInterruptMask:
 349              	.LFB8:
 341:Generated_Source\PSoC5/Handle_Encoder.c **** }
 342:Generated_Source\PSoC5/Handle_Encoder.c **** 
 343:Generated_Source\PSoC5/Handle_Encoder.c **** 
 344:Generated_Source\PSoC5/Handle_Encoder.c **** /*******************************************************************************
 345:Generated_Source\PSoC5/Handle_Encoder.c **** * Function Name: Handle_Encoder_GetInterruptMask
 346:Generated_Source\PSoC5/Handle_Encoder.c **** ********************************************************************************
 347:Generated_Source\PSoC5/Handle_Encoder.c **** *
 348:Generated_Source\PSoC5/Handle_Encoder.c **** * Summary:
 349:Generated_Source\PSoC5/Handle_Encoder.c **** *  Reports the current interrupt mask settings.
 350:Generated_Source\PSoC5/Handle_Encoder.c **** *
 351:Generated_Source\PSoC5/Handle_Encoder.c **** * Parameters:
 352:Generated_Source\PSoC5/Handle_Encoder.c **** *  None.
 353:Generated_Source\PSoC5/Handle_Encoder.c **** *
 354:Generated_Source\PSoC5/Handle_Encoder.c **** * Return:
 355:Generated_Source\PSoC5/Handle_Encoder.c **** *  Enable / disable bits in an 8-bit value, where 1 enables the interrupt.
 356:Generated_Source\PSoC5/Handle_Encoder.c **** *  For the 32-bit counter, the overflow, underflow and reset enable bits are
 357:Generated_Source\PSoC5/Handle_Encoder.c **** *  always set.
 358:Generated_Source\PSoC5/Handle_Encoder.c **** *
 359:Generated_Source\PSoC5/Handle_Encoder.c **** *******************************************************************************/
ARM GAS  C:\Users\jon\AppData\Local\Temp\cciNEubl.s 			page 14


 360:Generated_Source\PSoC5/Handle_Encoder.c **** uint8 Handle_Encoder_GetInterruptMask(void) 
 361:Generated_Source\PSoC5/Handle_Encoder.c **** {
 350              		.loc 1 361 0
 351              		.cfi_startproc
 352              		@ args = 0, pretend = 0, frame = 0
 353              		@ frame_needed = 0, uses_anonymous_args = 0
 354              		@ link register save eliminated.
 362:Generated_Source\PSoC5/Handle_Encoder.c ****     return (Handle_Encoder_STATUS_MASK & Handle_Encoder_INIT_INT_MASK);
 355              		.loc 1 362 0
 356 0000 024B     		ldr	r3, .L26
 357 0002 1878     		ldrb	r0, [r3]	@ zero_extendqisi2
 363:Generated_Source\PSoC5/Handle_Encoder.c **** }
 358              		.loc 1 363 0
 359 0004 00F00F00 		and	r0, r0, #15
 360 0008 7047     		bx	lr
 361              	.L27:
 362 000a 00BF     		.align	2
 363              	.L26:
 364 000c 85640040 		.word	1073767557
 365              		.cfi_endproc
 366              	.LFE8:
 367              		.size	Handle_Encoder_GetInterruptMask, .-Handle_Encoder_GetInterruptMask
 368              		.global	Handle_Encoder_initVar
 369              		.bss
 370              		.set	.LANCHOR0,. + 0
 371              		.type	Handle_Encoder_initVar, %object
 372              		.size	Handle_Encoder_initVar, 1
 373              	Handle_Encoder_initVar:
 374 0000 00       		.space	1
 375              		.text
 376              	.Letext0:
 377              		.file 2 "Generated_Source\\PSoC5\\cytypes.h"
 378              		.file 3 "Generated_Source\\PSoC5\\CyLib.h"
 379              		.file 4 "Generated_Source\\PSoC5\\Handle_Encoder_Cnt16.h"