ARM GAS  C:\Users\jon\AppData\Local\Temp\ccfvzxak.s 			page 1


   1              		.syntax unified
   2              		.cpu cortex-m3
   3              		.fpu softvfp
   4              		.eabi_attribute 20, 1
   5              		.eabi_attribute 21, 1
   6              		.eabi_attribute 23, 3
   7              		.eabi_attribute 24, 1
   8              		.eabi_attribute 25, 1
   9              		.eabi_attribute 26, 1
  10              		.eabi_attribute 30, 2
  11              		.eabi_attribute 34, 1
  12              		.eabi_attribute 18, 4
  13              		.thumb
  14              		.syntax unified
  15              		.file	"Handle_Encoder_PM.c"
  16              		.text
  17              	.Ltext0:
  18              		.cfi_sections	.debug_frame
  19              		.section	.text.Handle_Encoder_SaveConfig,"ax",%progbits
  20              		.align	2
  21              		.global	Handle_Encoder_SaveConfig
  22              		.thumb
  23              		.thumb_func
  24              		.type	Handle_Encoder_SaveConfig, %function
  25              	Handle_Encoder_SaveConfig:
  26              	.LFB0:
  27              		.file 1 "Generated_Source\\PSoC5\\Handle_Encoder_PM.c"
   1:Generated_Source\PSoC5/Handle_Encoder_PM.c **** /*******************************************************************************
   2:Generated_Source\PSoC5/Handle_Encoder_PM.c **** * File Name: Handle_Encoder_PM.c
   3:Generated_Source\PSoC5/Handle_Encoder_PM.c **** * Version 3.0
   4:Generated_Source\PSoC5/Handle_Encoder_PM.c **** *
   5:Generated_Source\PSoC5/Handle_Encoder_PM.c **** * Description:
   6:Generated_Source\PSoC5/Handle_Encoder_PM.c **** *  This file contains the setup, control and status commands to support 
   7:Generated_Source\PSoC5/Handle_Encoder_PM.c **** *  component operations in low power mode.  
   8:Generated_Source\PSoC5/Handle_Encoder_PM.c **** *
   9:Generated_Source\PSoC5/Handle_Encoder_PM.c **** * Note:
  10:Generated_Source\PSoC5/Handle_Encoder_PM.c **** *  None.
  11:Generated_Source\PSoC5/Handle_Encoder_PM.c **** *
  12:Generated_Source\PSoC5/Handle_Encoder_PM.c **** ********************************************************************************
  13:Generated_Source\PSoC5/Handle_Encoder_PM.c **** * Copyright 2008-2014, Cypress Semiconductor Corporation.  All rights reserved.
  14:Generated_Source\PSoC5/Handle_Encoder_PM.c **** * You may use this file only in accordance with the license, terms, conditions,
  15:Generated_Source\PSoC5/Handle_Encoder_PM.c **** * disclaimers, and limitations in the end user license agreement accompanying
  16:Generated_Source\PSoC5/Handle_Encoder_PM.c **** * the software package with which this file was provided.
  17:Generated_Source\PSoC5/Handle_Encoder_PM.c **** *******************************************************************************/
  18:Generated_Source\PSoC5/Handle_Encoder_PM.c **** 
  19:Generated_Source\PSoC5/Handle_Encoder_PM.c **** #include "Handle_Encoder.h"
  20:Generated_Source\PSoC5/Handle_Encoder_PM.c **** 
  21:Generated_Source\PSoC5/Handle_Encoder_PM.c **** static Handle_Encoder_BACKUP_STRUCT Handle_Encoder_backup = {0u};
  22:Generated_Source\PSoC5/Handle_Encoder_PM.c **** 
  23:Generated_Source\PSoC5/Handle_Encoder_PM.c **** 
  24:Generated_Source\PSoC5/Handle_Encoder_PM.c **** /*******************************************************************************
  25:Generated_Source\PSoC5/Handle_Encoder_PM.c **** * Function Name: Handle_Encoder_SaveConfig
  26:Generated_Source\PSoC5/Handle_Encoder_PM.c **** ********************************************************************************
  27:Generated_Source\PSoC5/Handle_Encoder_PM.c **** * Summary:
  28:Generated_Source\PSoC5/Handle_Encoder_PM.c **** *  Saves the current user configuration of the component.
  29:Generated_Source\PSoC5/Handle_Encoder_PM.c **** *
  30:Generated_Source\PSoC5/Handle_Encoder_PM.c **** * Parameters:
ARM GAS  C:\Users\jon\AppData\Local\Temp\ccfvzxak.s 			page 2


  31:Generated_Source\PSoC5/Handle_Encoder_PM.c **** *  None.
  32:Generated_Source\PSoC5/Handle_Encoder_PM.c **** *
  33:Generated_Source\PSoC5/Handle_Encoder_PM.c **** * Return:
  34:Generated_Source\PSoC5/Handle_Encoder_PM.c **** *  None.
  35:Generated_Source\PSoC5/Handle_Encoder_PM.c **** *
  36:Generated_Source\PSoC5/Handle_Encoder_PM.c **** *******************************************************************************/
  37:Generated_Source\PSoC5/Handle_Encoder_PM.c **** void Handle_Encoder_SaveConfig(void) 
  38:Generated_Source\PSoC5/Handle_Encoder_PM.c **** {
  28              		.loc 1 38 0
  29              		.cfi_startproc
  30              		@ args = 0, pretend = 0, frame = 0
  31              		@ frame_needed = 0, uses_anonymous_args = 0
  32              		@ link register save eliminated.
  39:Generated_Source\PSoC5/Handle_Encoder_PM.c ****     #if (Handle_Encoder_COUNTER_SIZE == Handle_Encoder_COUNTER_SIZE_8_BIT)
  40:Generated_Source\PSoC5/Handle_Encoder_PM.c ****         Handle_Encoder_Cnt8_SaveConfig();
  41:Generated_Source\PSoC5/Handle_Encoder_PM.c ****     #else 
  42:Generated_Source\PSoC5/Handle_Encoder_PM.c ****         /* (Handle_Encoder_COUNTER_SIZE == Handle_Encoder_COUNTER_SIZE_16_BIT) || 
  43:Generated_Source\PSoC5/Handle_Encoder_PM.c ****          * (Handle_Encoder_COUNTER_SIZE == Handle_Encoder_COUNTER_SIZE_32_BIT)
  44:Generated_Source\PSoC5/Handle_Encoder_PM.c ****          */
  45:Generated_Source\PSoC5/Handle_Encoder_PM.c ****         Handle_Encoder_Cnt16_SaveConfig();
  33              		.loc 1 45 0
  34 0000 FFF7FEBF 		b	Handle_Encoder_Cnt16_SaveConfig
  35              	.LVL0:
  36              		.cfi_endproc
  37              	.LFE0:
  38              		.size	Handle_Encoder_SaveConfig, .-Handle_Encoder_SaveConfig
  39              		.section	.text.Handle_Encoder_RestoreConfig,"ax",%progbits
  40              		.align	2
  41              		.global	Handle_Encoder_RestoreConfig
  42              		.thumb
  43              		.thumb_func
  44              		.type	Handle_Encoder_RestoreConfig, %function
  45              	Handle_Encoder_RestoreConfig:
  46              	.LFB1:
  46:Generated_Source\PSoC5/Handle_Encoder_PM.c ****     #endif /* (Handle_Encoder_COUNTER_SIZE == Handle_Encoder_COUNTER_SIZE_8_BIT) */
  47:Generated_Source\PSoC5/Handle_Encoder_PM.c **** }
  48:Generated_Source\PSoC5/Handle_Encoder_PM.c **** 
  49:Generated_Source\PSoC5/Handle_Encoder_PM.c **** 
  50:Generated_Source\PSoC5/Handle_Encoder_PM.c **** /*******************************************************************************
  51:Generated_Source\PSoC5/Handle_Encoder_PM.c **** * Function Name: Handle_Encoder_RestoreConfig
  52:Generated_Source\PSoC5/Handle_Encoder_PM.c **** ********************************************************************************
  53:Generated_Source\PSoC5/Handle_Encoder_PM.c **** * Summary:
  54:Generated_Source\PSoC5/Handle_Encoder_PM.c **** *  Restores the current user configuration of the component.
  55:Generated_Source\PSoC5/Handle_Encoder_PM.c **** *
  56:Generated_Source\PSoC5/Handle_Encoder_PM.c **** * Parameters:
  57:Generated_Source\PSoC5/Handle_Encoder_PM.c **** *  None.
  58:Generated_Source\PSoC5/Handle_Encoder_PM.c **** *
  59:Generated_Source\PSoC5/Handle_Encoder_PM.c **** * Return:
  60:Generated_Source\PSoC5/Handle_Encoder_PM.c **** *  None.
  61:Generated_Source\PSoC5/Handle_Encoder_PM.c **** *
  62:Generated_Source\PSoC5/Handle_Encoder_PM.c **** *******************************************************************************/
  63:Generated_Source\PSoC5/Handle_Encoder_PM.c **** void Handle_Encoder_RestoreConfig(void) 
  64:Generated_Source\PSoC5/Handle_Encoder_PM.c **** {
  47              		.loc 1 64 0
  48              		.cfi_startproc
  49              		@ args = 0, pretend = 0, frame = 0
  50              		@ frame_needed = 0, uses_anonymous_args = 0
ARM GAS  C:\Users\jon\AppData\Local\Temp\ccfvzxak.s 			page 3


  51              		@ link register save eliminated.
  65:Generated_Source\PSoC5/Handle_Encoder_PM.c ****     #if (Handle_Encoder_COUNTER_SIZE == Handle_Encoder_COUNTER_SIZE_8_BIT)
  66:Generated_Source\PSoC5/Handle_Encoder_PM.c ****         Handle_Encoder_Cnt8_RestoreConfig();
  67:Generated_Source\PSoC5/Handle_Encoder_PM.c ****     #else 
  68:Generated_Source\PSoC5/Handle_Encoder_PM.c ****         /* (Handle_Encoder_COUNTER_SIZE == Handle_Encoder_COUNTER_SIZE_16_BIT) || 
  69:Generated_Source\PSoC5/Handle_Encoder_PM.c ****          * (Handle_Encoder_COUNTER_SIZE == Handle_Encoder_COUNTER_SIZE_32_BIT) 
  70:Generated_Source\PSoC5/Handle_Encoder_PM.c ****          */
  71:Generated_Source\PSoC5/Handle_Encoder_PM.c ****         Handle_Encoder_Cnt16_RestoreConfig();
  52              		.loc 1 71 0
  53 0000 FFF7FEBF 		b	Handle_Encoder_Cnt16_RestoreConfig
  54              	.LVL1:
  55              		.cfi_endproc
  56              	.LFE1:
  57              		.size	Handle_Encoder_RestoreConfig, .-Handle_Encoder_RestoreConfig
  58              		.section	.text.Handle_Encoder_Sleep,"ax",%progbits
  59              		.align	2
  60              		.global	Handle_Encoder_Sleep
  61              		.thumb
  62              		.thumb_func
  63              		.type	Handle_Encoder_Sleep, %function
  64              	Handle_Encoder_Sleep:
  65              	.LFB2:
  72:Generated_Source\PSoC5/Handle_Encoder_PM.c ****     #endif /* (Handle_Encoder_COUNTER_SIZE == Handle_Encoder_COUNTER_SIZE_8_BIT) */
  73:Generated_Source\PSoC5/Handle_Encoder_PM.c **** }
  74:Generated_Source\PSoC5/Handle_Encoder_PM.c **** 
  75:Generated_Source\PSoC5/Handle_Encoder_PM.c **** 
  76:Generated_Source\PSoC5/Handle_Encoder_PM.c **** /*******************************************************************************
  77:Generated_Source\PSoC5/Handle_Encoder_PM.c **** * Function Name: Handle_Encoder_Sleep
  78:Generated_Source\PSoC5/Handle_Encoder_PM.c **** ********************************************************************************
  79:Generated_Source\PSoC5/Handle_Encoder_PM.c **** * 
  80:Generated_Source\PSoC5/Handle_Encoder_PM.c **** * Summary:
  81:Generated_Source\PSoC5/Handle_Encoder_PM.c **** *  Prepare Quadrature Decoder Component goes to sleep.
  82:Generated_Source\PSoC5/Handle_Encoder_PM.c **** *
  83:Generated_Source\PSoC5/Handle_Encoder_PM.c **** * Parameters:
  84:Generated_Source\PSoC5/Handle_Encoder_PM.c **** *  None.
  85:Generated_Source\PSoC5/Handle_Encoder_PM.c **** *
  86:Generated_Source\PSoC5/Handle_Encoder_PM.c **** * Return:
  87:Generated_Source\PSoC5/Handle_Encoder_PM.c **** *  None.
  88:Generated_Source\PSoC5/Handle_Encoder_PM.c **** *
  89:Generated_Source\PSoC5/Handle_Encoder_PM.c **** * Global Variables:
  90:Generated_Source\PSoC5/Handle_Encoder_PM.c **** *  Handle_Encoder_backup - modified when non-retention registers are saved.
  91:Generated_Source\PSoC5/Handle_Encoder_PM.c **** *
  92:Generated_Source\PSoC5/Handle_Encoder_PM.c **** * Reentrant:
  93:Generated_Source\PSoC5/Handle_Encoder_PM.c **** *  No.
  94:Generated_Source\PSoC5/Handle_Encoder_PM.c **** *
  95:Generated_Source\PSoC5/Handle_Encoder_PM.c **** *******************************************************************************/
  96:Generated_Source\PSoC5/Handle_Encoder_PM.c **** void Handle_Encoder_Sleep(void) 
  97:Generated_Source\PSoC5/Handle_Encoder_PM.c **** {
  66              		.loc 1 97 0
  67              		.cfi_startproc
  68              		@ args = 0, pretend = 0, frame = 0
  69              		@ frame_needed = 0, uses_anonymous_args = 0
  70 0000 08B5     		push	{r3, lr}
  71              		.cfi_def_cfa_offset 8
  72              		.cfi_offset 3, -8
  73              		.cfi_offset 14, -4
  98:Generated_Source\PSoC5/Handle_Encoder_PM.c ****     if (0u != (Handle_Encoder_SR_AUX_CONTROL & Handle_Encoder_INTERRUPTS_ENABLE))
ARM GAS  C:\Users\jon\AppData\Local\Temp\ccfvzxak.s 			page 4


  74              		.loc 1 98 0
  75 0002 064B     		ldr	r3, .L5
  76 0004 064A     		ldr	r2, .L5+4
  77 0006 1B78     		ldrb	r3, [r3]	@ zero_extendqisi2
  78 0008 C3F30013 		ubfx	r3, r3, #4, #1
  79 000c 1370     		strb	r3, [r2]
  99:Generated_Source\PSoC5/Handle_Encoder_PM.c ****     {
 100:Generated_Source\PSoC5/Handle_Encoder_PM.c ****         Handle_Encoder_backup.enableState = 1u;
 101:Generated_Source\PSoC5/Handle_Encoder_PM.c ****     }
 102:Generated_Source\PSoC5/Handle_Encoder_PM.c ****     else /* The Quadrature Decoder Component is disabled */
 103:Generated_Source\PSoC5/Handle_Encoder_PM.c ****     {
 104:Generated_Source\PSoC5/Handle_Encoder_PM.c ****         Handle_Encoder_backup.enableState = 0u;
 105:Generated_Source\PSoC5/Handle_Encoder_PM.c ****     }
 106:Generated_Source\PSoC5/Handle_Encoder_PM.c **** 
 107:Generated_Source\PSoC5/Handle_Encoder_PM.c ****     Handle_Encoder_Stop();
  80              		.loc 1 107 0
  81 000e FFF7FEFF 		bl	Handle_Encoder_Stop
  82              	.LVL2:
 108:Generated_Source\PSoC5/Handle_Encoder_PM.c ****     Handle_Encoder_SaveConfig();
 109:Generated_Source\PSoC5/Handle_Encoder_PM.c **** }
  83              		.loc 1 109 0
  84 0012 BDE80840 		pop	{r3, lr}
  85              		.cfi_restore 14
  86              		.cfi_restore 3
  87              		.cfi_def_cfa_offset 0
  88              	.LBB6:
  89              	.LBB7:
  45:Generated_Source\PSoC5/Handle_Encoder_PM.c ****     #endif /* (Handle_Encoder_COUNTER_SIZE == Handle_Encoder_COUNTER_SIZE_8_BIT) */
  90              		.loc 1 45 0
  91 0016 FFF7FEBF 		b	Handle_Encoder_Cnt16_SaveConfig
  92              	.LVL3:
  93              	.L6:
  94 001a 00BF     		.align	2
  95              	.L5:
  96 001c 95640040 		.word	1073767573
  97 0020 00000000 		.word	.LANCHOR0
  98              	.LBE7:
  99              	.LBE6:
 100              		.cfi_endproc
 101              	.LFE2:
 102              		.size	Handle_Encoder_Sleep, .-Handle_Encoder_Sleep
 103              		.section	.text.Handle_Encoder_Wakeup,"ax",%progbits
 104              		.align	2
 105              		.global	Handle_Encoder_Wakeup
 106              		.thumb
 107              		.thumb_func
 108              		.type	Handle_Encoder_Wakeup, %function
 109              	Handle_Encoder_Wakeup:
 110              	.LFB3:
 110:Generated_Source\PSoC5/Handle_Encoder_PM.c **** 
 111:Generated_Source\PSoC5/Handle_Encoder_PM.c **** 
 112:Generated_Source\PSoC5/Handle_Encoder_PM.c **** /*******************************************************************************
 113:Generated_Source\PSoC5/Handle_Encoder_PM.c **** * Function Name: Handle_Encoder_Wakeup
 114:Generated_Source\PSoC5/Handle_Encoder_PM.c **** ********************************************************************************
 115:Generated_Source\PSoC5/Handle_Encoder_PM.c **** *
 116:Generated_Source\PSoC5/Handle_Encoder_PM.c **** * Summary:
 117:Generated_Source\PSoC5/Handle_Encoder_PM.c **** *  Prepare Quadrature Decoder Component to wake up.
ARM GAS  C:\Users\jon\AppData\Local\Temp\ccfvzxak.s 			page 5


 118:Generated_Source\PSoC5/Handle_Encoder_PM.c **** *
 119:Generated_Source\PSoC5/Handle_Encoder_PM.c **** * Parameters:
 120:Generated_Source\PSoC5/Handle_Encoder_PM.c **** *  None.
 121:Generated_Source\PSoC5/Handle_Encoder_PM.c **** *
 122:Generated_Source\PSoC5/Handle_Encoder_PM.c **** * Return:
 123:Generated_Source\PSoC5/Handle_Encoder_PM.c **** *  None.
 124:Generated_Source\PSoC5/Handle_Encoder_PM.c **** *
 125:Generated_Source\PSoC5/Handle_Encoder_PM.c **** * Global Variables:
 126:Generated_Source\PSoC5/Handle_Encoder_PM.c **** *  Handle_Encoder_backup - used when non-retention registers are restored.
 127:Generated_Source\PSoC5/Handle_Encoder_PM.c **** *
 128:Generated_Source\PSoC5/Handle_Encoder_PM.c **** *******************************************************************************/
 129:Generated_Source\PSoC5/Handle_Encoder_PM.c **** void Handle_Encoder_Wakeup(void) 
 130:Generated_Source\PSoC5/Handle_Encoder_PM.c **** {
 111              		.loc 1 130 0
 112              		.cfi_startproc
 113              		@ args = 0, pretend = 0, frame = 0
 114              		@ frame_needed = 0, uses_anonymous_args = 0
 115 0000 08B5     		push	{r3, lr}
 116              		.cfi_def_cfa_offset 8
 117              		.cfi_offset 3, -8
 118              		.cfi_offset 14, -4
 119              	.LBB8:
 120              	.LBB9:
  71:Generated_Source\PSoC5/Handle_Encoder_PM.c ****     #endif /* (Handle_Encoder_COUNTER_SIZE == Handle_Encoder_COUNTER_SIZE_8_BIT) */
 121              		.loc 1 71 0
 122 0002 FFF7FEFF 		bl	Handle_Encoder_Cnt16_RestoreConfig
 123              	.LVL4:
 124              	.LBE9:
 125              	.LBE8:
 131:Generated_Source\PSoC5/Handle_Encoder_PM.c ****     Handle_Encoder_RestoreConfig();
 132:Generated_Source\PSoC5/Handle_Encoder_PM.c **** 
 133:Generated_Source\PSoC5/Handle_Encoder_PM.c ****     if (Handle_Encoder_backup.enableState != 0u)
 126              		.loc 1 133 0
 127 0006 054B     		ldr	r3, .L12
 128 0008 1B78     		ldrb	r3, [r3]	@ zero_extendqisi2
 129 000a 03B9     		cbnz	r3, .L11
 130 000c 08BD     		pop	{r3, pc}
 131              	.L11:
 134:Generated_Source\PSoC5/Handle_Encoder_PM.c ****     {
 135:Generated_Source\PSoC5/Handle_Encoder_PM.c ****         #if (Handle_Encoder_COUNTER_SIZE == Handle_Encoder_COUNTER_SIZE_8_BIT)
 136:Generated_Source\PSoC5/Handle_Encoder_PM.c ****             Handle_Encoder_Cnt8_Enable();
 137:Generated_Source\PSoC5/Handle_Encoder_PM.c ****         #else 
 138:Generated_Source\PSoC5/Handle_Encoder_PM.c ****             /* (Handle_Encoder_COUNTER_SIZE == Handle_Encoder_COUNTER_SIZE_16_BIT) || 
 139:Generated_Source\PSoC5/Handle_Encoder_PM.c ****             *  (Handle_Encoder_COUNTER_SIZE == Handle_Encoder_COUNTER_SIZE_32_BIT) 
 140:Generated_Source\PSoC5/Handle_Encoder_PM.c ****             */
 141:Generated_Source\PSoC5/Handle_Encoder_PM.c ****             Handle_Encoder_Cnt16_Enable();
 132              		.loc 1 141 0
 133 000e FFF7FEFF 		bl	Handle_Encoder_Cnt16_Enable
 134              	.LVL5:
 142:Generated_Source\PSoC5/Handle_Encoder_PM.c ****         #endif /* (Handle_Encoder_COUNTER_SIZE == Handle_Encoder_COUNTER_SIZE_8_BIT) */
 143:Generated_Source\PSoC5/Handle_Encoder_PM.c **** 
 144:Generated_Source\PSoC5/Handle_Encoder_PM.c ****         /* Enable component's operation */
 145:Generated_Source\PSoC5/Handle_Encoder_PM.c ****         Handle_Encoder_Enable();
 146:Generated_Source\PSoC5/Handle_Encoder_PM.c ****     } /* Do nothing if component's block was disabled before */
 147:Generated_Source\PSoC5/Handle_Encoder_PM.c **** }
 135              		.loc 1 147 0
 136 0012 BDE80840 		pop	{r3, lr}
ARM GAS  C:\Users\jon\AppData\Local\Temp\ccfvzxak.s 			page 6


 137              		.cfi_restore 14
 138              		.cfi_restore 3
 139              		.cfi_def_cfa_offset 0
 145:Generated_Source\PSoC5/Handle_Encoder_PM.c ****     } /* Do nothing if component's block was disabled before */
 140              		.loc 1 145 0
 141 0016 FFF7FEBF 		b	Handle_Encoder_Enable
 142              	.LVL6:
 143              	.L13:
 144 001a 00BF     		.align	2
 145              	.L12:
 146 001c 00000000 		.word	.LANCHOR0
 147              		.cfi_endproc
 148              	.LFE3:
 149              		.size	Handle_Encoder_Wakeup, .-Handle_Encoder_Wakeup
 150              		.bss
 151              		.align	2
 152              		.set	.LANCHOR0,. + 0
 153              		.type	Handle_Encoder_backup, %object
 154              		.size	Handle_Encoder_backup, 1
 155              	Handle_Encoder_backup:
 156 0000 00       		.space	1
 157              		.text
 158              	.Letext0:
 159              		.file 2 "Generated_Source\\PSoC5\\cytypes.h"
 160              		.file 3 "Generated_Source\\PSoC5\\Handle_Encoder.h"
 161              		.file 4 "Generated_Source\\PSoC5\\Handle_Encoder_Cnt16.h"