ARM GAS  C:\Users\jon\AppData\Local\Temp\cc4eWXqs.s 			page 1


   1              		.syntax unified
   2              		.cpu cortex-m3
   3              		.fpu softvfp
   4              		.eabi_attribute 20, 1
   5              		.eabi_attribute 21, 1
   6              		.eabi_attribute 23, 3
   7              		.eabi_attribute 24, 1
   8              		.eabi_attribute 25, 1
   9              		.eabi_attribute 26, 1
  10              		.eabi_attribute 30, 2
  11              		.eabi_attribute 34, 1
  12              		.eabi_attribute 18, 4
  13              		.thumb
  14              		.syntax unified
  15              		.file	"Opamp_Throttle.c"
  16              		.text
  17              	.Ltext0:
  18              		.cfi_sections	.debug_frame
  19              		.section	.text.Opamp_Throttle_Init,"ax",%progbits
  20              		.align	2
  21              		.global	Opamp_Throttle_Init
  22              		.thumb
  23              		.thumb_func
  24              		.type	Opamp_Throttle_Init, %function
  25              	Opamp_Throttle_Init:
  26              	.LFB0:
  27              		.file 1 "Generated_Source\\PSoC5\\Opamp_Throttle.c"
   1:Generated_Source\PSoC5/Opamp_Throttle.c **** /*******************************************************************************
   2:Generated_Source\PSoC5/Opamp_Throttle.c **** * File Name: Opamp_Throttle.c
   3:Generated_Source\PSoC5/Opamp_Throttle.c **** * Version 1.90
   4:Generated_Source\PSoC5/Opamp_Throttle.c **** *
   5:Generated_Source\PSoC5/Opamp_Throttle.c **** * Description:
   6:Generated_Source\PSoC5/Opamp_Throttle.c **** *  This file provides the source code to the API for OpAmp (Analog Buffer) 
   7:Generated_Source\PSoC5/Opamp_Throttle.c **** *  Component.
   8:Generated_Source\PSoC5/Opamp_Throttle.c **** *
   9:Generated_Source\PSoC5/Opamp_Throttle.c **** * Note:
  10:Generated_Source\PSoC5/Opamp_Throttle.c **** *
  11:Generated_Source\PSoC5/Opamp_Throttle.c **** ********************************************************************************
  12:Generated_Source\PSoC5/Opamp_Throttle.c **** * Copyright 2008-2012, Cypress Semiconductor Corporation.  All rights reserved.
  13:Generated_Source\PSoC5/Opamp_Throttle.c **** * You may use this file only in accordance with the license, terms, conditions, 
  14:Generated_Source\PSoC5/Opamp_Throttle.c **** * disclaimers, and limitations in the end user license agreement accompanying 
  15:Generated_Source\PSoC5/Opamp_Throttle.c **** * the software package with which this file was provided.
  16:Generated_Source\PSoC5/Opamp_Throttle.c **** *******************************************************************************/
  17:Generated_Source\PSoC5/Opamp_Throttle.c **** 
  18:Generated_Source\PSoC5/Opamp_Throttle.c **** #include "Opamp_Throttle.h"
  19:Generated_Source\PSoC5/Opamp_Throttle.c **** 
  20:Generated_Source\PSoC5/Opamp_Throttle.c **** uint8 Opamp_Throttle_initVar = 0u;
  21:Generated_Source\PSoC5/Opamp_Throttle.c **** 
  22:Generated_Source\PSoC5/Opamp_Throttle.c **** 
  23:Generated_Source\PSoC5/Opamp_Throttle.c **** /*******************************************************************************   
  24:Generated_Source\PSoC5/Opamp_Throttle.c **** * Function Name: Opamp_Throttle_Init
  25:Generated_Source\PSoC5/Opamp_Throttle.c **** ********************************************************************************
  26:Generated_Source\PSoC5/Opamp_Throttle.c **** *
  27:Generated_Source\PSoC5/Opamp_Throttle.c **** * Summary:
  28:Generated_Source\PSoC5/Opamp_Throttle.c **** *  Initialize component's parameters to the parameters set by user in the 
  29:Generated_Source\PSoC5/Opamp_Throttle.c **** *  customizer of the component placed onto schematic. Usually called in 
  30:Generated_Source\PSoC5/Opamp_Throttle.c **** *  Opamp_Throttle_Start().
ARM GAS  C:\Users\jon\AppData\Local\Temp\cc4eWXqs.s 			page 2


  31:Generated_Source\PSoC5/Opamp_Throttle.c **** *
  32:Generated_Source\PSoC5/Opamp_Throttle.c **** * Parameters:
  33:Generated_Source\PSoC5/Opamp_Throttle.c **** *  void
  34:Generated_Source\PSoC5/Opamp_Throttle.c **** *
  35:Generated_Source\PSoC5/Opamp_Throttle.c **** * Return:
  36:Generated_Source\PSoC5/Opamp_Throttle.c **** *  void
  37:Generated_Source\PSoC5/Opamp_Throttle.c **** *
  38:Generated_Source\PSoC5/Opamp_Throttle.c **** *******************************************************************************/
  39:Generated_Source\PSoC5/Opamp_Throttle.c **** void Opamp_Throttle_Init(void) 
  40:Generated_Source\PSoC5/Opamp_Throttle.c **** {
  28              		.loc 1 40 0
  29              		.cfi_startproc
  30              		@ args = 0, pretend = 0, frame = 0
  31              		@ frame_needed = 0, uses_anonymous_args = 0
  32              		@ link register save eliminated.
  33              	.LVL0:
  34              	.LBB10:
  35              	.LBB11:
  41:Generated_Source\PSoC5/Opamp_Throttle.c ****     Opamp_Throttle_SetPower(Opamp_Throttle_DEFAULT_POWER);
  42:Generated_Source\PSoC5/Opamp_Throttle.c **** }
  43:Generated_Source\PSoC5/Opamp_Throttle.c **** 
  44:Generated_Source\PSoC5/Opamp_Throttle.c **** 
  45:Generated_Source\PSoC5/Opamp_Throttle.c **** /*******************************************************************************   
  46:Generated_Source\PSoC5/Opamp_Throttle.c **** * Function Name: Opamp_Throttle_Enable
  47:Generated_Source\PSoC5/Opamp_Throttle.c **** ********************************************************************************
  48:Generated_Source\PSoC5/Opamp_Throttle.c **** *
  49:Generated_Source\PSoC5/Opamp_Throttle.c **** * Summary:
  50:Generated_Source\PSoC5/Opamp_Throttle.c **** *  Enables the OpAmp block operation
  51:Generated_Source\PSoC5/Opamp_Throttle.c **** *
  52:Generated_Source\PSoC5/Opamp_Throttle.c **** * Parameters:
  53:Generated_Source\PSoC5/Opamp_Throttle.c **** *  void
  54:Generated_Source\PSoC5/Opamp_Throttle.c **** *
  55:Generated_Source\PSoC5/Opamp_Throttle.c **** * Return:
  56:Generated_Source\PSoC5/Opamp_Throttle.c **** *  void
  57:Generated_Source\PSoC5/Opamp_Throttle.c **** *
  58:Generated_Source\PSoC5/Opamp_Throttle.c **** *******************************************************************************/
  59:Generated_Source\PSoC5/Opamp_Throttle.c **** void Opamp_Throttle_Enable(void) 
  60:Generated_Source\PSoC5/Opamp_Throttle.c **** {
  61:Generated_Source\PSoC5/Opamp_Throttle.c ****     /* Enable negative charge pumps in ANIF */
  62:Generated_Source\PSoC5/Opamp_Throttle.c ****     Opamp_Throttle_PUMP_CR1_REG  |= (Opamp_Throttle_PUMP_CR1_CLKSEL | Opamp_Throttle_PUMP_CR1_FORCE
  63:Generated_Source\PSoC5/Opamp_Throttle.c **** 
  64:Generated_Source\PSoC5/Opamp_Throttle.c ****     /* Enable power to buffer in active mode */
  65:Generated_Source\PSoC5/Opamp_Throttle.c ****     Opamp_Throttle_PM_ACT_CFG_REG |= Opamp_Throttle_ACT_PWR_EN;
  66:Generated_Source\PSoC5/Opamp_Throttle.c **** 
  67:Generated_Source\PSoC5/Opamp_Throttle.c ****     /* Enable power to buffer in alternative active mode */
  68:Generated_Source\PSoC5/Opamp_Throttle.c ****     Opamp_Throttle_PM_STBY_CFG_REG |= Opamp_Throttle_STBY_PWR_EN;
  69:Generated_Source\PSoC5/Opamp_Throttle.c **** }
  70:Generated_Source\PSoC5/Opamp_Throttle.c **** 
  71:Generated_Source\PSoC5/Opamp_Throttle.c **** 
  72:Generated_Source\PSoC5/Opamp_Throttle.c **** /*******************************************************************************
  73:Generated_Source\PSoC5/Opamp_Throttle.c **** * Function Name:   Opamp_Throttle_Start
  74:Generated_Source\PSoC5/Opamp_Throttle.c **** ********************************************************************************
  75:Generated_Source\PSoC5/Opamp_Throttle.c **** *
  76:Generated_Source\PSoC5/Opamp_Throttle.c **** * Summary:
  77:Generated_Source\PSoC5/Opamp_Throttle.c **** *  The start function initializes the Analog Buffer with the default values and 
  78:Generated_Source\PSoC5/Opamp_Throttle.c **** *  sets the power to the given level. A power level of 0, is same as 
  79:Generated_Source\PSoC5/Opamp_Throttle.c **** *  executing the stop function.
ARM GAS  C:\Users\jon\AppData\Local\Temp\cc4eWXqs.s 			page 3


  80:Generated_Source\PSoC5/Opamp_Throttle.c **** *
  81:Generated_Source\PSoC5/Opamp_Throttle.c **** * Parameters:
  82:Generated_Source\PSoC5/Opamp_Throttle.c **** *  void
  83:Generated_Source\PSoC5/Opamp_Throttle.c **** *
  84:Generated_Source\PSoC5/Opamp_Throttle.c **** * Return:
  85:Generated_Source\PSoC5/Opamp_Throttle.c **** *  void
  86:Generated_Source\PSoC5/Opamp_Throttle.c **** *
  87:Generated_Source\PSoC5/Opamp_Throttle.c **** * Global variables:
  88:Generated_Source\PSoC5/Opamp_Throttle.c **** *  Opamp_Throttle_initVar: Used to check the initial configuration, modified 
  89:Generated_Source\PSoC5/Opamp_Throttle.c **** *  when this function is called for the first time.
  90:Generated_Source\PSoC5/Opamp_Throttle.c **** *
  91:Generated_Source\PSoC5/Opamp_Throttle.c **** *******************************************************************************/
  92:Generated_Source\PSoC5/Opamp_Throttle.c **** void Opamp_Throttle_Start(void) 
  93:Generated_Source\PSoC5/Opamp_Throttle.c **** {
  94:Generated_Source\PSoC5/Opamp_Throttle.c ****     if(Opamp_Throttle_initVar == 0u)
  95:Generated_Source\PSoC5/Opamp_Throttle.c ****     {
  96:Generated_Source\PSoC5/Opamp_Throttle.c ****         Opamp_Throttle_initVar = 1u;
  97:Generated_Source\PSoC5/Opamp_Throttle.c ****         Opamp_Throttle_Init();
  98:Generated_Source\PSoC5/Opamp_Throttle.c ****     }
  99:Generated_Source\PSoC5/Opamp_Throttle.c **** 
 100:Generated_Source\PSoC5/Opamp_Throttle.c ****     Opamp_Throttle_Enable();
 101:Generated_Source\PSoC5/Opamp_Throttle.c **** }
 102:Generated_Source\PSoC5/Opamp_Throttle.c **** 
 103:Generated_Source\PSoC5/Opamp_Throttle.c **** 
 104:Generated_Source\PSoC5/Opamp_Throttle.c **** /*******************************************************************************
 105:Generated_Source\PSoC5/Opamp_Throttle.c **** * Function Name: Opamp_Throttle_Stop
 106:Generated_Source\PSoC5/Opamp_Throttle.c **** ********************************************************************************
 107:Generated_Source\PSoC5/Opamp_Throttle.c **** *
 108:Generated_Source\PSoC5/Opamp_Throttle.c **** * Summary:
 109:Generated_Source\PSoC5/Opamp_Throttle.c **** *  Powers down amplifier to lowest power state.
 110:Generated_Source\PSoC5/Opamp_Throttle.c **** *
 111:Generated_Source\PSoC5/Opamp_Throttle.c **** * Parameters:
 112:Generated_Source\PSoC5/Opamp_Throttle.c **** *  void
 113:Generated_Source\PSoC5/Opamp_Throttle.c **** *
 114:Generated_Source\PSoC5/Opamp_Throttle.c **** * Return:
 115:Generated_Source\PSoC5/Opamp_Throttle.c **** *  void
 116:Generated_Source\PSoC5/Opamp_Throttle.c **** *
 117:Generated_Source\PSoC5/Opamp_Throttle.c **** *******************************************************************************/
 118:Generated_Source\PSoC5/Opamp_Throttle.c **** void Opamp_Throttle_Stop(void) 
 119:Generated_Source\PSoC5/Opamp_Throttle.c **** {
 120:Generated_Source\PSoC5/Opamp_Throttle.c ****     /* Disable power to buffer in active mode template */
 121:Generated_Source\PSoC5/Opamp_Throttle.c ****     Opamp_Throttle_PM_ACT_CFG_REG &= (uint8)(~Opamp_Throttle_ACT_PWR_EN);
 122:Generated_Source\PSoC5/Opamp_Throttle.c **** 
 123:Generated_Source\PSoC5/Opamp_Throttle.c ****     /* Disable power to buffer in alternative active mode template */
 124:Generated_Source\PSoC5/Opamp_Throttle.c ****     Opamp_Throttle_PM_STBY_CFG_REG &= (uint8)(~Opamp_Throttle_STBY_PWR_EN);
 125:Generated_Source\PSoC5/Opamp_Throttle.c ****     
 126:Generated_Source\PSoC5/Opamp_Throttle.c ****     /* Disable negative charge pumps for ANIF only if all ABuf is turned OFF */
 127:Generated_Source\PSoC5/Opamp_Throttle.c ****     if(Opamp_Throttle_PM_ACT_CFG_REG == 0u)
 128:Generated_Source\PSoC5/Opamp_Throttle.c ****     {
 129:Generated_Source\PSoC5/Opamp_Throttle.c ****         Opamp_Throttle_PUMP_CR1_REG &= (uint8)(~(Opamp_Throttle_PUMP_CR1_CLKSEL | Opamp_Throttle_PU
 130:Generated_Source\PSoC5/Opamp_Throttle.c ****     }
 131:Generated_Source\PSoC5/Opamp_Throttle.c **** }
 132:Generated_Source\PSoC5/Opamp_Throttle.c **** 
 133:Generated_Source\PSoC5/Opamp_Throttle.c **** 
 134:Generated_Source\PSoC5/Opamp_Throttle.c **** /*******************************************************************************
 135:Generated_Source\PSoC5/Opamp_Throttle.c **** * Function Name: Opamp_Throttle_SetPower
 136:Generated_Source\PSoC5/Opamp_Throttle.c **** ********************************************************************************
ARM GAS  C:\Users\jon\AppData\Local\Temp\cc4eWXqs.s 			page 4


 137:Generated_Source\PSoC5/Opamp_Throttle.c **** *
 138:Generated_Source\PSoC5/Opamp_Throttle.c **** * Summary:
 139:Generated_Source\PSoC5/Opamp_Throttle.c **** *  Sets power level of Analog buffer.
 140:Generated_Source\PSoC5/Opamp_Throttle.c **** *
 141:Generated_Source\PSoC5/Opamp_Throttle.c **** * Parameters: 
 142:Generated_Source\PSoC5/Opamp_Throttle.c **** *  power: PSoC3: Sets power level between low (1) and high power (3).
 143:Generated_Source\PSoC5/Opamp_Throttle.c **** *         PSoC5: Sets power level High (0)
 144:Generated_Source\PSoC5/Opamp_Throttle.c **** *
 145:Generated_Source\PSoC5/Opamp_Throttle.c **** * Return:
 146:Generated_Source\PSoC5/Opamp_Throttle.c **** *  void
 147:Generated_Source\PSoC5/Opamp_Throttle.c **** *
 148:Generated_Source\PSoC5/Opamp_Throttle.c **** **********************************************************************************/
 149:Generated_Source\PSoC5/Opamp_Throttle.c **** void Opamp_Throttle_SetPower(uint8 power) 
 150:Generated_Source\PSoC5/Opamp_Throttle.c **** {
 151:Generated_Source\PSoC5/Opamp_Throttle.c ****     #if (CY_PSOC3 || CY_PSOC5LP)
 152:Generated_Source\PSoC5/Opamp_Throttle.c ****         Opamp_Throttle_CR_REG &= (uint8)(~Opamp_Throttle_PWR_MASK);
  36              		.loc 1 152 0
  37 0000 044B     		ldr	r3, .L2
  38 0002 1A78     		ldrb	r2, [r3]	@ zero_extendqisi2
  39 0004 02F0FC02 		and	r2, r2, #252
  40 0008 1A70     		strb	r2, [r3]
 153:Generated_Source\PSoC5/Opamp_Throttle.c ****         Opamp_Throttle_CR_REG |= power & Opamp_Throttle_PWR_MASK;      /* Set device power */
  41              		.loc 1 153 0
  42 000a 1A78     		ldrb	r2, [r3]	@ zero_extendqisi2
  43 000c 42F00302 		orr	r2, r2, #3
  44 0010 1A70     		strb	r2, [r3]
  45              	.LVL1:
  46 0012 7047     		bx	lr
  47              	.L3:
  48              		.align	2
  49              	.L2:
  50 0014 5E580040 		.word	1073764446
  51              	.LBE11:
  52              	.LBE10:
  53              		.cfi_endproc
  54              	.LFE0:
  55              		.size	Opamp_Throttle_Init, .-Opamp_Throttle_Init
  56              		.section	.text.Opamp_Throttle_Enable,"ax",%progbits
  57              		.align	2
  58              		.global	Opamp_Throttle_Enable
  59              		.thumb
  60              		.thumb_func
  61              		.type	Opamp_Throttle_Enable, %function
  62              	Opamp_Throttle_Enable:
  63              	.LFB1:
  60:Generated_Source\PSoC5/Opamp_Throttle.c ****     /* Enable negative charge pumps in ANIF */
  64              		.loc 1 60 0
  65              		.cfi_startproc
  66              		@ args = 0, pretend = 0, frame = 0
  67              		@ frame_needed = 0, uses_anonymous_args = 0
  68              		@ link register save eliminated.
  62:Generated_Source\PSoC5/Opamp_Throttle.c **** 
  69              		.loc 1 62 0
  70 0000 0748     		ldr	r0, .L5
  65:Generated_Source\PSoC5/Opamp_Throttle.c **** 
  71              		.loc 1 65 0
  72 0002 0849     		ldr	r1, .L5+4
ARM GAS  C:\Users\jon\AppData\Local\Temp\cc4eWXqs.s 			page 5


  62:Generated_Source\PSoC5/Opamp_Throttle.c **** 
  73              		.loc 1 62 0
  74 0004 0378     		ldrb	r3, [r0]	@ zero_extendqisi2
  68:Generated_Source\PSoC5/Opamp_Throttle.c **** }
  75              		.loc 1 68 0
  76 0006 084A     		ldr	r2, .L5+8
  62:Generated_Source\PSoC5/Opamp_Throttle.c **** 
  77              		.loc 1 62 0
  78 0008 43F06003 		orr	r3, r3, #96
  79 000c 0370     		strb	r3, [r0]
  65:Generated_Source\PSoC5/Opamp_Throttle.c **** 
  80              		.loc 1 65 0
  81 000e 0B78     		ldrb	r3, [r1]	@ zero_extendqisi2
  82 0010 43F00803 		orr	r3, r3, #8
  83 0014 0B70     		strb	r3, [r1]
  68:Generated_Source\PSoC5/Opamp_Throttle.c **** }
  84              		.loc 1 68 0
  85 0016 1378     		ldrb	r3, [r2]	@ zero_extendqisi2
  86 0018 43F00803 		orr	r3, r3, #8
  87 001c 1370     		strb	r3, [r2]
  88 001e 7047     		bx	lr
  89              	.L6:
  90              		.align	2
  91              	.L5:
  92 0020 77580040 		.word	1073764471
  93 0024 A4430040 		.word	1073759140
  94 0028 B4430040 		.word	1073759156
  95              		.cfi_endproc
  96              	.LFE1:
  97              		.size	Opamp_Throttle_Enable, .-Opamp_Throttle_Enable
  98              		.section	.text.Opamp_Throttle_Start,"ax",%progbits
  99              		.align	2
 100              		.global	Opamp_Throttle_Start
 101              		.thumb
 102              		.thumb_func
 103              		.type	Opamp_Throttle_Start, %function
 104              	Opamp_Throttle_Start:
 105              	.LFB2:
  93:Generated_Source\PSoC5/Opamp_Throttle.c ****     if(Opamp_Throttle_initVar == 0u)
 106              		.loc 1 93 0
 107              		.cfi_startproc
 108              		@ args = 0, pretend = 0, frame = 0
 109              		@ frame_needed = 0, uses_anonymous_args = 0
 110              		@ link register save eliminated.
  94:Generated_Source\PSoC5/Opamp_Throttle.c ****     {
 111              		.loc 1 94 0
 112 0000 0E4A     		ldr	r2, .L10
 113 0002 1378     		ldrb	r3, [r2]	@ zero_extendqisi2
 114 0004 53B9     		cbnz	r3, .L8
 115              	.LBB12:
 116              	.LBB13:
 117              	.LBB14:
 152:Generated_Source\PSoC5/Opamp_Throttle.c ****         Opamp_Throttle_CR_REG |= power & Opamp_Throttle_PWR_MASK;      /* Set device power */
 118              		.loc 1 152 0
 119 0006 0E4B     		ldr	r3, .L10+4
 120              	.LBE14:
 121              	.LBE13:
ARM GAS  C:\Users\jon\AppData\Local\Temp\cc4eWXqs.s 			page 6


 122              	.LBE12:
  96:Generated_Source\PSoC5/Opamp_Throttle.c ****         Opamp_Throttle_Init();
 123              		.loc 1 96 0
 124 0008 0121     		movs	r1, #1
 125 000a 1170     		strb	r1, [r2]
 126              	.LVL2:
 127              	.LBB17:
 128              	.LBB16:
 129              	.LBB15:
 152:Generated_Source\PSoC5/Opamp_Throttle.c ****         Opamp_Throttle_CR_REG |= power & Opamp_Throttle_PWR_MASK;      /* Set device power */
 130              		.loc 1 152 0
 131 000c 1A78     		ldrb	r2, [r3]	@ zero_extendqisi2
 132 000e 02F0FC02 		and	r2, r2, #252
 133 0012 1A70     		strb	r2, [r3]
 134              		.loc 1 153 0
 135 0014 1A78     		ldrb	r2, [r3]	@ zero_extendqisi2
 136 0016 42F00302 		orr	r2, r2, #3
 137 001a 1A70     		strb	r2, [r3]
 138              	.LVL3:
 139              	.L8:
 140              	.LBE15:
 141              	.LBE16:
 142              	.LBE17:
 143              	.LBB18:
 144              	.LBB19:
  62:Generated_Source\PSoC5/Opamp_Throttle.c **** 
 145              		.loc 1 62 0
 146 001c 0948     		ldr	r0, .L10+8
  65:Generated_Source\PSoC5/Opamp_Throttle.c **** 
 147              		.loc 1 65 0
 148 001e 0A49     		ldr	r1, .L10+12
  62:Generated_Source\PSoC5/Opamp_Throttle.c **** 
 149              		.loc 1 62 0
 150 0020 0378     		ldrb	r3, [r0]	@ zero_extendqisi2
  68:Generated_Source\PSoC5/Opamp_Throttle.c **** }
 151              		.loc 1 68 0
 152 0022 0A4A     		ldr	r2, .L10+16
  62:Generated_Source\PSoC5/Opamp_Throttle.c **** 
 153              		.loc 1 62 0
 154 0024 43F06003 		orr	r3, r3, #96
 155 0028 0370     		strb	r3, [r0]
  65:Generated_Source\PSoC5/Opamp_Throttle.c **** 
 156              		.loc 1 65 0
 157 002a 0B78     		ldrb	r3, [r1]	@ zero_extendqisi2
 158 002c 43F00803 		orr	r3, r3, #8
 159 0030 0B70     		strb	r3, [r1]
  68:Generated_Source\PSoC5/Opamp_Throttle.c **** }
 160              		.loc 1 68 0
 161 0032 1378     		ldrb	r3, [r2]	@ zero_extendqisi2
 162 0034 43F00803 		orr	r3, r3, #8
 163 0038 1370     		strb	r3, [r2]
 164 003a 7047     		bx	lr
 165              	.L11:
 166              		.align	2
 167              	.L10:
 168 003c 00000000 		.word	.LANCHOR0
 169 0040 5E580040 		.word	1073764446
ARM GAS  C:\Users\jon\AppData\Local\Temp\cc4eWXqs.s 			page 7


 170 0044 77580040 		.word	1073764471
 171 0048 A4430040 		.word	1073759140
 172 004c B4430040 		.word	1073759156
 173              	.LBE19:
 174              	.LBE18:
 175              		.cfi_endproc
 176              	.LFE2:
 177              		.size	Opamp_Throttle_Start, .-Opamp_Throttle_Start
 178              		.section	.text.Opamp_Throttle_Stop,"ax",%progbits
 179              		.align	2
 180              		.global	Opamp_Throttle_Stop
 181              		.thumb
 182              		.thumb_func
 183              		.type	Opamp_Throttle_Stop, %function
 184              	Opamp_Throttle_Stop:
 185              	.LFB3:
 119:Generated_Source\PSoC5/Opamp_Throttle.c ****     /* Disable power to buffer in active mode template */
 186              		.loc 1 119 0
 187              		.cfi_startproc
 188              		@ args = 0, pretend = 0, frame = 0
 189              		@ frame_needed = 0, uses_anonymous_args = 0
 190              		@ link register save eliminated.
 121:Generated_Source\PSoC5/Opamp_Throttle.c **** 
 191              		.loc 1 121 0
 192 0000 084B     		ldr	r3, .L14
 124:Generated_Source\PSoC5/Opamp_Throttle.c ****     
 193              		.loc 1 124 0
 194 0002 0949     		ldr	r1, .L14+4
 121:Generated_Source\PSoC5/Opamp_Throttle.c **** 
 195              		.loc 1 121 0
 196 0004 1A78     		ldrb	r2, [r3]	@ zero_extendqisi2
 197 0006 02F0F702 		and	r2, r2, #247
 198 000a 1A70     		strb	r2, [r3]
 124:Generated_Source\PSoC5/Opamp_Throttle.c ****     
 199              		.loc 1 124 0
 200 000c 0A78     		ldrb	r2, [r1]	@ zero_extendqisi2
 201 000e 02F0F702 		and	r2, r2, #247
 202 0012 0A70     		strb	r2, [r1]
 127:Generated_Source\PSoC5/Opamp_Throttle.c ****     {
 203              		.loc 1 127 0
 204 0014 1B78     		ldrb	r3, [r3]	@ zero_extendqisi2
 205 0016 23B9     		cbnz	r3, .L12
 129:Generated_Source\PSoC5/Opamp_Throttle.c ****     }
 206              		.loc 1 129 0
 207 0018 044A     		ldr	r2, .L14+8
 208 001a 1378     		ldrb	r3, [r2]	@ zero_extendqisi2
 209 001c 03F09F03 		and	r3, r3, #159
 210 0020 1370     		strb	r3, [r2]
 211              	.L12:
 212 0022 7047     		bx	lr
 213              	.L15:
 214              		.align	2
 215              	.L14:
 216 0024 A4430040 		.word	1073759140
 217 0028 B4430040 		.word	1073759156
 218 002c 77580040 		.word	1073764471
 219              		.cfi_endproc
ARM GAS  C:\Users\jon\AppData\Local\Temp\cc4eWXqs.s 			page 8


 220              	.LFE3:
 221              		.size	Opamp_Throttle_Stop, .-Opamp_Throttle_Stop
 222              		.section	.text.Opamp_Throttle_SetPower,"ax",%progbits
 223              		.align	2
 224              		.global	Opamp_Throttle_SetPower
 225              		.thumb
 226              		.thumb_func
 227              		.type	Opamp_Throttle_SetPower, %function
 228              	Opamp_Throttle_SetPower:
 229              	.LFB4:
 150:Generated_Source\PSoC5/Opamp_Throttle.c ****     #if (CY_PSOC3 || CY_PSOC5LP)
 230              		.loc 1 150 0
 231              		.cfi_startproc
 232              		@ args = 0, pretend = 0, frame = 0
 233              		@ frame_needed = 0, uses_anonymous_args = 0
 234              		@ link register save eliminated.
 235              	.LVL4:
 152:Generated_Source\PSoC5/Opamp_Throttle.c ****         Opamp_Throttle_CR_REG |= power & Opamp_Throttle_PWR_MASK;      /* Set device power */
 236              		.loc 1 152 0
 237 0000 054B     		ldr	r3, .L17
 238              		.loc 1 153 0
 239 0002 00F00300 		and	r0, r0, #3
 240              	.LVL5:
 152:Generated_Source\PSoC5/Opamp_Throttle.c ****         Opamp_Throttle_CR_REG |= power & Opamp_Throttle_PWR_MASK;      /* Set device power */
 241              		.loc 1 152 0
 242 0006 1A78     		ldrb	r2, [r3]	@ zero_extendqisi2
 243 0008 02F0FC02 		and	r2, r2, #252
 244 000c 1A70     		strb	r2, [r3]
 245              		.loc 1 153 0
 246 000e 1A78     		ldrb	r2, [r3]	@ zero_extendqisi2
 247 0010 1043     		orrs	r0, r0, r2
 248 0012 1870     		strb	r0, [r3]
 249 0014 7047     		bx	lr
 250              	.L18:
 251 0016 00BF     		.align	2
 252              	.L17:
 253 0018 5E580040 		.word	1073764446
 254              		.cfi_endproc
 255              	.LFE4:
 256              		.size	Opamp_Throttle_SetPower, .-Opamp_Throttle_SetPower
 257              		.global	Opamp_Throttle_initVar
 258              		.bss
 259              		.set	.LANCHOR0,. + 0
 260              		.type	Opamp_Throttle_initVar, %object
 261              		.size	Opamp_Throttle_initVar, 1
 262              	Opamp_Throttle_initVar:
 263 0000 00       		.space	1
 264              		.text
 265              	.Letext0:
 266              		.file 2 "Generated_Source\\PSoC5\\cytypes.h"