ARM GAS  C:\Users\jon\AppData\Local\Temp\ccV7CjP2.s 			page 1


   1              		.syntax unified
   2              		.cpu cortex-m3
   3              		.fpu softvfp
   4              		.eabi_attribute 20, 1
   5              		.eabi_attribute 21, 1
   6              		.eabi_attribute 23, 3
   7              		.eabi_attribute 24, 1
   8              		.eabi_attribute 25, 1
   9              		.eabi_attribute 26, 1
  10              		.eabi_attribute 30, 2
  11              		.eabi_attribute 34, 1
  12              		.eabi_attribute 18, 4
  13              		.thumb
  14              		.syntax unified
  15              		.file	"PWM_Steer.c"
  16              		.text
  17              	.Ltext0:
  18              		.cfi_sections	.debug_frame
  19              		.section	.text.PWM_Steer_Start,"ax",%progbits
  20              		.align	2
  21              		.global	PWM_Steer_Start
  22              		.thumb
  23              		.thumb_func
  24              		.type	PWM_Steer_Start, %function
  25              	PWM_Steer_Start:
  26              	.LFB0:
  27              		.file 1 "Generated_Source\\PSoC5\\PWM_Steer.c"
   1:Generated_Source\PSoC5/PWM_Steer.c **** /*******************************************************************************
   2:Generated_Source\PSoC5/PWM_Steer.c **** * File Name: PWM_Steer.c
   3:Generated_Source\PSoC5/PWM_Steer.c **** * Version 3.30
   4:Generated_Source\PSoC5/PWM_Steer.c **** *
   5:Generated_Source\PSoC5/PWM_Steer.c **** * Description:
   6:Generated_Source\PSoC5/PWM_Steer.c **** *  The PWM User Module consist of an 8 or 16-bit counter with two 8 or 16-bit
   7:Generated_Source\PSoC5/PWM_Steer.c **** *  comparitors. Each instance of this user module is capable of generating
   8:Generated_Source\PSoC5/PWM_Steer.c **** *  two PWM outputs with the same period. The pulse width is selectable between
   9:Generated_Source\PSoC5/PWM_Steer.c **** *  1 and 255/65535. The period is selectable between 2 and 255/65536 clocks.
  10:Generated_Source\PSoC5/PWM_Steer.c **** *  The compare value output may be configured to be active when the present
  11:Generated_Source\PSoC5/PWM_Steer.c **** *  counter is less than or less than/equal to the compare value.
  12:Generated_Source\PSoC5/PWM_Steer.c **** *  A terminal count output is also provided. It generates a pulse one clock
  13:Generated_Source\PSoC5/PWM_Steer.c **** *  width wide when the counter is equal to zero.
  14:Generated_Source\PSoC5/PWM_Steer.c **** *
  15:Generated_Source\PSoC5/PWM_Steer.c **** * Note:
  16:Generated_Source\PSoC5/PWM_Steer.c **** *
  17:Generated_Source\PSoC5/PWM_Steer.c **** *******************************************************************************
  18:Generated_Source\PSoC5/PWM_Steer.c **** * Copyright 2008-2014, Cypress Semiconductor Corporation.  All rights reserved.
  19:Generated_Source\PSoC5/PWM_Steer.c **** * You may use this file only in accordance with the license, terms, conditions,
  20:Generated_Source\PSoC5/PWM_Steer.c **** * disclaimers, and limitations in the end user license agreement accompanying
  21:Generated_Source\PSoC5/PWM_Steer.c **** * the software package with which this file was provided.
  22:Generated_Source\PSoC5/PWM_Steer.c **** ********************************************************************************/
  23:Generated_Source\PSoC5/PWM_Steer.c **** 
  24:Generated_Source\PSoC5/PWM_Steer.c **** #include "PWM_Steer.h"
  25:Generated_Source\PSoC5/PWM_Steer.c **** 
  26:Generated_Source\PSoC5/PWM_Steer.c **** /* Error message for removed <resource> through optimization */
  27:Generated_Source\PSoC5/PWM_Steer.c **** #ifdef PWM_Steer_PWMUDB_genblk1_ctrlreg__REMOVED
  28:Generated_Source\PSoC5/PWM_Steer.c ****     #error PWM_v3_30 detected with a constant 0 for the enable or \
  29:Generated_Source\PSoC5/PWM_Steer.c ****          constant 1 for reset. This will prevent the component from operating.
  30:Generated_Source\PSoC5/PWM_Steer.c **** #endif /* PWM_Steer_PWMUDB_genblk1_ctrlreg__REMOVED */
ARM GAS  C:\Users\jon\AppData\Local\Temp\ccV7CjP2.s 			page 2


  31:Generated_Source\PSoC5/PWM_Steer.c **** 
  32:Generated_Source\PSoC5/PWM_Steer.c **** uint8 PWM_Steer_initVar = 0u;
  33:Generated_Source\PSoC5/PWM_Steer.c **** 
  34:Generated_Source\PSoC5/PWM_Steer.c **** 
  35:Generated_Source\PSoC5/PWM_Steer.c **** /*******************************************************************************
  36:Generated_Source\PSoC5/PWM_Steer.c **** * Function Name: PWM_Steer_Start
  37:Generated_Source\PSoC5/PWM_Steer.c **** ********************************************************************************
  38:Generated_Source\PSoC5/PWM_Steer.c **** *
  39:Generated_Source\PSoC5/PWM_Steer.c **** * Summary:
  40:Generated_Source\PSoC5/PWM_Steer.c **** *  The start function initializes the pwm with the default values, the
  41:Generated_Source\PSoC5/PWM_Steer.c **** *  enables the counter to begin counting.  It does not enable interrupts,
  42:Generated_Source\PSoC5/PWM_Steer.c **** *  the EnableInt command should be called if interrupt generation is required.
  43:Generated_Source\PSoC5/PWM_Steer.c **** *
  44:Generated_Source\PSoC5/PWM_Steer.c **** * Parameters:
  45:Generated_Source\PSoC5/PWM_Steer.c **** *  None
  46:Generated_Source\PSoC5/PWM_Steer.c **** *
  47:Generated_Source\PSoC5/PWM_Steer.c **** * Return:
  48:Generated_Source\PSoC5/PWM_Steer.c **** *  None
  49:Generated_Source\PSoC5/PWM_Steer.c **** *
  50:Generated_Source\PSoC5/PWM_Steer.c **** * Global variables:
  51:Generated_Source\PSoC5/PWM_Steer.c **** *  PWM_Steer_initVar: Is modified when this function is called for the
  52:Generated_Source\PSoC5/PWM_Steer.c **** *   first time. Is used to ensure that initialization happens only once.
  53:Generated_Source\PSoC5/PWM_Steer.c **** *
  54:Generated_Source\PSoC5/PWM_Steer.c **** *******************************************************************************/
  55:Generated_Source\PSoC5/PWM_Steer.c **** void PWM_Steer_Start(void) 
  56:Generated_Source\PSoC5/PWM_Steer.c **** {
  28              		.loc 1 56 0
  29              		.cfi_startproc
  30              		@ args = 0, pretend = 0, frame = 0
  31              		@ frame_needed = 0, uses_anonymous_args = 0
  32 0000 F8B5     		push	{r3, r4, r5, r6, r7, lr}
  33              		.cfi_def_cfa_offset 24
  34              		.cfi_offset 3, -24
  35              		.cfi_offset 4, -20
  36              		.cfi_offset 5, -16
  37              		.cfi_offset 6, -12
  38              		.cfi_offset 7, -8
  39              		.cfi_offset 14, -4
  57:Generated_Source\PSoC5/PWM_Steer.c ****     /* If not Initialized then initialize all required hardware and software */
  58:Generated_Source\PSoC5/PWM_Steer.c ****     if(PWM_Steer_initVar == 0u)
  40              		.loc 1 58 0
  41 0002 1C4C     		ldr	r4, .L13
  42 0004 2378     		ldrb	r3, [r4]	@ zero_extendqisi2
  43 0006 2BB1     		cbz	r3, .L12
  44              	.L2:
  45              	.LBB40:
  46              	.LBB41:
  59:Generated_Source\PSoC5/PWM_Steer.c ****     {
  60:Generated_Source\PSoC5/PWM_Steer.c ****         PWM_Steer_Init();
  61:Generated_Source\PSoC5/PWM_Steer.c ****         PWM_Steer_initVar = 1u;
  62:Generated_Source\PSoC5/PWM_Steer.c ****     }
  63:Generated_Source\PSoC5/PWM_Steer.c ****     PWM_Steer_Enable();
  64:Generated_Source\PSoC5/PWM_Steer.c **** 
  65:Generated_Source\PSoC5/PWM_Steer.c **** }
  66:Generated_Source\PSoC5/PWM_Steer.c **** 
  67:Generated_Source\PSoC5/PWM_Steer.c **** 
  68:Generated_Source\PSoC5/PWM_Steer.c **** /*******************************************************************************
ARM GAS  C:\Users\jon\AppData\Local\Temp\ccV7CjP2.s 			page 3


  69:Generated_Source\PSoC5/PWM_Steer.c **** * Function Name: PWM_Steer_Init
  70:Generated_Source\PSoC5/PWM_Steer.c **** ********************************************************************************
  71:Generated_Source\PSoC5/PWM_Steer.c **** *
  72:Generated_Source\PSoC5/PWM_Steer.c **** * Summary:
  73:Generated_Source\PSoC5/PWM_Steer.c **** *  Initialize component's parameters to the parameters set by user in the
  74:Generated_Source\PSoC5/PWM_Steer.c **** *  customizer of the component placed onto schematic. Usually called in
  75:Generated_Source\PSoC5/PWM_Steer.c **** *  PWM_Steer_Start().
  76:Generated_Source\PSoC5/PWM_Steer.c **** *
  77:Generated_Source\PSoC5/PWM_Steer.c **** * Parameters:
  78:Generated_Source\PSoC5/PWM_Steer.c **** *  None
  79:Generated_Source\PSoC5/PWM_Steer.c **** *
  80:Generated_Source\PSoC5/PWM_Steer.c **** * Return:
  81:Generated_Source\PSoC5/PWM_Steer.c **** *  None
  82:Generated_Source\PSoC5/PWM_Steer.c **** *
  83:Generated_Source\PSoC5/PWM_Steer.c **** *******************************************************************************/
  84:Generated_Source\PSoC5/PWM_Steer.c **** void PWM_Steer_Init(void) 
  85:Generated_Source\PSoC5/PWM_Steer.c **** {
  86:Generated_Source\PSoC5/PWM_Steer.c ****     #if (PWM_Steer_UsingFixedFunction || PWM_Steer_UseControl)
  87:Generated_Source\PSoC5/PWM_Steer.c ****         uint8 ctrl;
  88:Generated_Source\PSoC5/PWM_Steer.c ****     #endif /* (PWM_Steer_UsingFixedFunction || PWM_Steer_UseControl) */
  89:Generated_Source\PSoC5/PWM_Steer.c **** 
  90:Generated_Source\PSoC5/PWM_Steer.c ****     #if(!PWM_Steer_UsingFixedFunction)
  91:Generated_Source\PSoC5/PWM_Steer.c ****         #if(PWM_Steer_UseStatus)
  92:Generated_Source\PSoC5/PWM_Steer.c ****             /* Interrupt State Backup for Critical Region*/
  93:Generated_Source\PSoC5/PWM_Steer.c ****             uint8 PWM_Steer_interruptState;
  94:Generated_Source\PSoC5/PWM_Steer.c ****         #endif /* (PWM_Steer_UseStatus) */
  95:Generated_Source\PSoC5/PWM_Steer.c ****     #endif /* (!PWM_Steer_UsingFixedFunction) */
  96:Generated_Source\PSoC5/PWM_Steer.c **** 
  97:Generated_Source\PSoC5/PWM_Steer.c ****     #if (PWM_Steer_UsingFixedFunction)
  98:Generated_Source\PSoC5/PWM_Steer.c ****         /* You are allowed to write the compare value (FF only) */
  99:Generated_Source\PSoC5/PWM_Steer.c ****         PWM_Steer_CONTROL |= PWM_Steer_CFG0_MODE;
 100:Generated_Source\PSoC5/PWM_Steer.c ****         #if (PWM_Steer_DeadBand2_4)
 101:Generated_Source\PSoC5/PWM_Steer.c ****             PWM_Steer_CONTROL |= PWM_Steer_CFG0_DB;
 102:Generated_Source\PSoC5/PWM_Steer.c ****         #endif /* (PWM_Steer_DeadBand2_4) */
 103:Generated_Source\PSoC5/PWM_Steer.c **** 
 104:Generated_Source\PSoC5/PWM_Steer.c ****         ctrl = PWM_Steer_CONTROL3 & ((uint8 )(~PWM_Steer_CTRL_CMPMODE1_MASK));
 105:Generated_Source\PSoC5/PWM_Steer.c ****         PWM_Steer_CONTROL3 = ctrl | PWM_Steer_DEFAULT_COMPARE1_MODE;
 106:Generated_Source\PSoC5/PWM_Steer.c **** 
 107:Generated_Source\PSoC5/PWM_Steer.c ****          /* Clear and Set SYNCTC and SYNCCMP bits of RT1 register */
 108:Generated_Source\PSoC5/PWM_Steer.c ****         PWM_Steer_RT1 &= ((uint8)(~PWM_Steer_RT1_MASK));
 109:Generated_Source\PSoC5/PWM_Steer.c ****         PWM_Steer_RT1 |= PWM_Steer_SYNC;
 110:Generated_Source\PSoC5/PWM_Steer.c **** 
 111:Generated_Source\PSoC5/PWM_Steer.c ****         /*Enable DSI Sync all all inputs of the PWM*/
 112:Generated_Source\PSoC5/PWM_Steer.c ****         PWM_Steer_RT1 &= ((uint8)(~PWM_Steer_SYNCDSI_MASK));
 113:Generated_Source\PSoC5/PWM_Steer.c ****         PWM_Steer_RT1 |= PWM_Steer_SYNCDSI_EN;
 114:Generated_Source\PSoC5/PWM_Steer.c **** 
 115:Generated_Source\PSoC5/PWM_Steer.c ****     #elif (PWM_Steer_UseControl)
 116:Generated_Source\PSoC5/PWM_Steer.c ****         /* Set the default compare mode defined in the parameter */
 117:Generated_Source\PSoC5/PWM_Steer.c ****         ctrl = PWM_Steer_CONTROL & ((uint8)(~PWM_Steer_CTRL_CMPMODE2_MASK)) &
 118:Generated_Source\PSoC5/PWM_Steer.c ****                 ((uint8)(~PWM_Steer_CTRL_CMPMODE1_MASK));
 119:Generated_Source\PSoC5/PWM_Steer.c ****         PWM_Steer_CONTROL = ctrl | PWM_Steer_DEFAULT_COMPARE2_MODE |
 120:Generated_Source\PSoC5/PWM_Steer.c ****                                    PWM_Steer_DEFAULT_COMPARE1_MODE;
 121:Generated_Source\PSoC5/PWM_Steer.c ****     #endif /* (PWM_Steer_UsingFixedFunction) */
 122:Generated_Source\PSoC5/PWM_Steer.c **** 
 123:Generated_Source\PSoC5/PWM_Steer.c ****     #if (!PWM_Steer_UsingFixedFunction)
 124:Generated_Source\PSoC5/PWM_Steer.c ****         #if (PWM_Steer_Resolution == 8)
 125:Generated_Source\PSoC5/PWM_Steer.c ****             /* Set FIFO 0 to 1 byte register for period*/
ARM GAS  C:\Users\jon\AppData\Local\Temp\ccV7CjP2.s 			page 4


 126:Generated_Source\PSoC5/PWM_Steer.c ****             PWM_Steer_AUX_CONTROLDP0 |= (PWM_Steer_AUX_CTRL_FIFO0_CLR);
 127:Generated_Source\PSoC5/PWM_Steer.c ****         #else /* (PWM_Steer_Resolution == 16)*/
 128:Generated_Source\PSoC5/PWM_Steer.c ****             /* Set FIFO 0 to 1 byte register for period */
 129:Generated_Source\PSoC5/PWM_Steer.c ****             PWM_Steer_AUX_CONTROLDP0 |= (PWM_Steer_AUX_CTRL_FIFO0_CLR);
 130:Generated_Source\PSoC5/PWM_Steer.c ****             PWM_Steer_AUX_CONTROLDP1 |= (PWM_Steer_AUX_CTRL_FIFO0_CLR);
 131:Generated_Source\PSoC5/PWM_Steer.c ****         #endif /* (PWM_Steer_Resolution == 8) */
 132:Generated_Source\PSoC5/PWM_Steer.c **** 
 133:Generated_Source\PSoC5/PWM_Steer.c ****         PWM_Steer_WriteCounter(PWM_Steer_INIT_PERIOD_VALUE);
 134:Generated_Source\PSoC5/PWM_Steer.c ****     #endif /* (!PWM_Steer_UsingFixedFunction) */
 135:Generated_Source\PSoC5/PWM_Steer.c **** 
 136:Generated_Source\PSoC5/PWM_Steer.c ****     PWM_Steer_WritePeriod(PWM_Steer_INIT_PERIOD_VALUE);
 137:Generated_Source\PSoC5/PWM_Steer.c **** 
 138:Generated_Source\PSoC5/PWM_Steer.c ****         #if (PWM_Steer_UseOneCompareMode)
 139:Generated_Source\PSoC5/PWM_Steer.c ****             PWM_Steer_WriteCompare(PWM_Steer_INIT_COMPARE_VALUE1);
 140:Generated_Source\PSoC5/PWM_Steer.c ****         #else
 141:Generated_Source\PSoC5/PWM_Steer.c ****             PWM_Steer_WriteCompare1(PWM_Steer_INIT_COMPARE_VALUE1);
 142:Generated_Source\PSoC5/PWM_Steer.c ****             PWM_Steer_WriteCompare2(PWM_Steer_INIT_COMPARE_VALUE2);
 143:Generated_Source\PSoC5/PWM_Steer.c ****         #endif /* (PWM_Steer_UseOneCompareMode) */
 144:Generated_Source\PSoC5/PWM_Steer.c **** 
 145:Generated_Source\PSoC5/PWM_Steer.c ****         #if (PWM_Steer_KillModeMinTime)
 146:Generated_Source\PSoC5/PWM_Steer.c ****             PWM_Steer_WriteKillTime(PWM_Steer_MinimumKillTime);
 147:Generated_Source\PSoC5/PWM_Steer.c ****         #endif /* (PWM_Steer_KillModeMinTime) */
 148:Generated_Source\PSoC5/PWM_Steer.c **** 
 149:Generated_Source\PSoC5/PWM_Steer.c ****         #if (PWM_Steer_DeadBandUsed)
 150:Generated_Source\PSoC5/PWM_Steer.c ****             PWM_Steer_WriteDeadTime(PWM_Steer_INIT_DEAD_TIME);
 151:Generated_Source\PSoC5/PWM_Steer.c ****         #endif /* (PWM_Steer_DeadBandUsed) */
 152:Generated_Source\PSoC5/PWM_Steer.c **** 
 153:Generated_Source\PSoC5/PWM_Steer.c ****     #if (PWM_Steer_UseStatus || PWM_Steer_UsingFixedFunction)
 154:Generated_Source\PSoC5/PWM_Steer.c ****         PWM_Steer_SetInterruptMode(PWM_Steer_INIT_INTERRUPTS_MODE);
 155:Generated_Source\PSoC5/PWM_Steer.c ****     #endif /* (PWM_Steer_UseStatus || PWM_Steer_UsingFixedFunction) */
 156:Generated_Source\PSoC5/PWM_Steer.c **** 
 157:Generated_Source\PSoC5/PWM_Steer.c ****     #if (PWM_Steer_UsingFixedFunction)
 158:Generated_Source\PSoC5/PWM_Steer.c ****         /* Globally Enable the Fixed Function Block chosen */
 159:Generated_Source\PSoC5/PWM_Steer.c ****         PWM_Steer_GLOBAL_ENABLE |= PWM_Steer_BLOCK_EN_MASK;
 160:Generated_Source\PSoC5/PWM_Steer.c ****         /* Set the Interrupt source to come from the status register */
 161:Generated_Source\PSoC5/PWM_Steer.c ****         PWM_Steer_CONTROL2 |= PWM_Steer_CTRL2_IRQ_SEL;
 162:Generated_Source\PSoC5/PWM_Steer.c ****     #else
 163:Generated_Source\PSoC5/PWM_Steer.c ****         #if(PWM_Steer_UseStatus)
 164:Generated_Source\PSoC5/PWM_Steer.c **** 
 165:Generated_Source\PSoC5/PWM_Steer.c ****             /* CyEnterCriticalRegion and CyExitCriticalRegion are used to mark following region cri
 166:Generated_Source\PSoC5/PWM_Steer.c ****             /* Enter Critical Region*/
 167:Generated_Source\PSoC5/PWM_Steer.c ****             PWM_Steer_interruptState = CyEnterCriticalSection();
 168:Generated_Source\PSoC5/PWM_Steer.c ****             /* Use the interrupt output of the status register for IRQ output */
 169:Generated_Source\PSoC5/PWM_Steer.c ****             PWM_Steer_STATUS_AUX_CTRL |= PWM_Steer_STATUS_ACTL_INT_EN_MASK;
 170:Generated_Source\PSoC5/PWM_Steer.c **** 
 171:Generated_Source\PSoC5/PWM_Steer.c ****              /* Exit Critical Region*/
 172:Generated_Source\PSoC5/PWM_Steer.c ****             CyExitCriticalSection(PWM_Steer_interruptState);
 173:Generated_Source\PSoC5/PWM_Steer.c **** 
 174:Generated_Source\PSoC5/PWM_Steer.c ****             /* Clear the FIFO to enable the PWM_Steer_STATUS_FIFOFULL
 175:Generated_Source\PSoC5/PWM_Steer.c ****                    bit to be set on FIFO full. */
 176:Generated_Source\PSoC5/PWM_Steer.c ****             PWM_Steer_ClearFIFO();
 177:Generated_Source\PSoC5/PWM_Steer.c ****         #endif /* (PWM_Steer_UseStatus) */
 178:Generated_Source\PSoC5/PWM_Steer.c ****     #endif /* (PWM_Steer_UsingFixedFunction) */
 179:Generated_Source\PSoC5/PWM_Steer.c **** }
 180:Generated_Source\PSoC5/PWM_Steer.c **** 
 181:Generated_Source\PSoC5/PWM_Steer.c **** 
 182:Generated_Source\PSoC5/PWM_Steer.c **** /*******************************************************************************
ARM GAS  C:\Users\jon\AppData\Local\Temp\ccV7CjP2.s 			page 5


 183:Generated_Source\PSoC5/PWM_Steer.c **** * Function Name: PWM_Steer_Enable
 184:Generated_Source\PSoC5/PWM_Steer.c **** ********************************************************************************
 185:Generated_Source\PSoC5/PWM_Steer.c **** *
 186:Generated_Source\PSoC5/PWM_Steer.c **** * Summary:
 187:Generated_Source\PSoC5/PWM_Steer.c **** *  Enables the PWM block operation
 188:Generated_Source\PSoC5/PWM_Steer.c **** *
 189:Generated_Source\PSoC5/PWM_Steer.c **** * Parameters:
 190:Generated_Source\PSoC5/PWM_Steer.c **** *  None
 191:Generated_Source\PSoC5/PWM_Steer.c **** *
 192:Generated_Source\PSoC5/PWM_Steer.c **** * Return:
 193:Generated_Source\PSoC5/PWM_Steer.c **** *  None
 194:Generated_Source\PSoC5/PWM_Steer.c **** *
 195:Generated_Source\PSoC5/PWM_Steer.c **** * Side Effects:
 196:Generated_Source\PSoC5/PWM_Steer.c **** *  This works only if software enable mode is chosen
 197:Generated_Source\PSoC5/PWM_Steer.c **** *
 198:Generated_Source\PSoC5/PWM_Steer.c **** *******************************************************************************/
 199:Generated_Source\PSoC5/PWM_Steer.c **** void PWM_Steer_Enable(void) 
 200:Generated_Source\PSoC5/PWM_Steer.c **** {
 201:Generated_Source\PSoC5/PWM_Steer.c ****     /* Globally Enable the Fixed Function Block chosen */
 202:Generated_Source\PSoC5/PWM_Steer.c ****     #if (PWM_Steer_UsingFixedFunction)
 203:Generated_Source\PSoC5/PWM_Steer.c ****         PWM_Steer_GLOBAL_ENABLE |= PWM_Steer_BLOCK_EN_MASK;
 204:Generated_Source\PSoC5/PWM_Steer.c ****         PWM_Steer_GLOBAL_STBY_ENABLE |= PWM_Steer_BLOCK_STBY_EN_MASK;
 205:Generated_Source\PSoC5/PWM_Steer.c ****     #endif /* (PWM_Steer_UsingFixedFunction) */
 206:Generated_Source\PSoC5/PWM_Steer.c **** 
 207:Generated_Source\PSoC5/PWM_Steer.c ****     /* Enable the PWM from the control register  */
 208:Generated_Source\PSoC5/PWM_Steer.c ****     #if (PWM_Steer_UseControl || PWM_Steer_UsingFixedFunction)
 209:Generated_Source\PSoC5/PWM_Steer.c ****         PWM_Steer_CONTROL |= PWM_Steer_CTRL_ENABLE;
  47              		.loc 1 209 0
  48 0008 1B4A     		ldr	r2, .L13+4
  49 000a 1378     		ldrb	r3, [r2]	@ zero_extendqisi2
  50 000c 43F08003 		orr	r3, r3, #128
  51 0010 1370     		strb	r3, [r2]
  52 0012 F8BD     		pop	{r3, r4, r5, r6, r7, pc}
  53              	.L12:
  54              	.LBE41:
  55              	.LBE40:
  56              	.LBB42:
  57              	.LBB43:
  58              	.LBB44:
  59              	.LBB45:
 210:Generated_Source\PSoC5/PWM_Steer.c ****     #endif /* (PWM_Steer_UseControl || PWM_Steer_UsingFixedFunction) */
 211:Generated_Source\PSoC5/PWM_Steer.c **** }
 212:Generated_Source\PSoC5/PWM_Steer.c **** 
 213:Generated_Source\PSoC5/PWM_Steer.c **** 
 214:Generated_Source\PSoC5/PWM_Steer.c **** /*******************************************************************************
 215:Generated_Source\PSoC5/PWM_Steer.c **** * Function Name: PWM_Steer_Stop
 216:Generated_Source\PSoC5/PWM_Steer.c **** ********************************************************************************
 217:Generated_Source\PSoC5/PWM_Steer.c **** *
 218:Generated_Source\PSoC5/PWM_Steer.c **** * Summary:
 219:Generated_Source\PSoC5/PWM_Steer.c **** *  The stop function halts the PWM, but does not change any modes or disable
 220:Generated_Source\PSoC5/PWM_Steer.c **** *  interrupts.
 221:Generated_Source\PSoC5/PWM_Steer.c **** *
 222:Generated_Source\PSoC5/PWM_Steer.c **** * Parameters:
 223:Generated_Source\PSoC5/PWM_Steer.c **** *  None
 224:Generated_Source\PSoC5/PWM_Steer.c **** *
 225:Generated_Source\PSoC5/PWM_Steer.c **** * Return:
 226:Generated_Source\PSoC5/PWM_Steer.c **** *  None
ARM GAS  C:\Users\jon\AppData\Local\Temp\ccV7CjP2.s 			page 6


 227:Generated_Source\PSoC5/PWM_Steer.c **** *
 228:Generated_Source\PSoC5/PWM_Steer.c **** * Side Effects:
 229:Generated_Source\PSoC5/PWM_Steer.c **** *  If the Enable mode is set to Hardware only then this function
 230:Generated_Source\PSoC5/PWM_Steer.c **** *  has no effect on the operation of the PWM
 231:Generated_Source\PSoC5/PWM_Steer.c **** *
 232:Generated_Source\PSoC5/PWM_Steer.c **** *******************************************************************************/
 233:Generated_Source\PSoC5/PWM_Steer.c **** void PWM_Steer_Stop(void) 
 234:Generated_Source\PSoC5/PWM_Steer.c **** {
 235:Generated_Source\PSoC5/PWM_Steer.c ****     #if (PWM_Steer_UseControl || PWM_Steer_UsingFixedFunction)
 236:Generated_Source\PSoC5/PWM_Steer.c ****         PWM_Steer_CONTROL &= ((uint8)(~PWM_Steer_CTRL_ENABLE));
 237:Generated_Source\PSoC5/PWM_Steer.c ****     #endif /* (PWM_Steer_UseControl || PWM_Steer_UsingFixedFunction) */
 238:Generated_Source\PSoC5/PWM_Steer.c **** 
 239:Generated_Source\PSoC5/PWM_Steer.c ****     /* Globally disable the Fixed Function Block chosen */
 240:Generated_Source\PSoC5/PWM_Steer.c ****     #if (PWM_Steer_UsingFixedFunction)
 241:Generated_Source\PSoC5/PWM_Steer.c ****         PWM_Steer_GLOBAL_ENABLE &= ((uint8)(~PWM_Steer_BLOCK_EN_MASK));
 242:Generated_Source\PSoC5/PWM_Steer.c ****         PWM_Steer_GLOBAL_STBY_ENABLE &= ((uint8)(~PWM_Steer_BLOCK_STBY_EN_MASK));
 243:Generated_Source\PSoC5/PWM_Steer.c ****     #endif /* (PWM_Steer_UsingFixedFunction) */
 244:Generated_Source\PSoC5/PWM_Steer.c **** }
 245:Generated_Source\PSoC5/PWM_Steer.c **** 
 246:Generated_Source\PSoC5/PWM_Steer.c **** #if (PWM_Steer_UseOneCompareMode)
 247:Generated_Source\PSoC5/PWM_Steer.c ****     #if (PWM_Steer_CompareMode1SW)
 248:Generated_Source\PSoC5/PWM_Steer.c **** 
 249:Generated_Source\PSoC5/PWM_Steer.c **** 
 250:Generated_Source\PSoC5/PWM_Steer.c ****         /*******************************************************************************
 251:Generated_Source\PSoC5/PWM_Steer.c ****         * Function Name: PWM_Steer_SetCompareMode
 252:Generated_Source\PSoC5/PWM_Steer.c ****         ********************************************************************************
 253:Generated_Source\PSoC5/PWM_Steer.c ****         *
 254:Generated_Source\PSoC5/PWM_Steer.c ****         * Summary:
 255:Generated_Source\PSoC5/PWM_Steer.c ****         *  This function writes the Compare Mode for the pwm output when in Dither mode,
 256:Generated_Source\PSoC5/PWM_Steer.c ****         *  Center Align Mode or One Output Mode.
 257:Generated_Source\PSoC5/PWM_Steer.c ****         *
 258:Generated_Source\PSoC5/PWM_Steer.c ****         * Parameters:
 259:Generated_Source\PSoC5/PWM_Steer.c ****         *  comparemode:  The new compare mode for the PWM output. Use the compare types
 260:Generated_Source\PSoC5/PWM_Steer.c ****         *                defined in the H file as input arguments.
 261:Generated_Source\PSoC5/PWM_Steer.c ****         *
 262:Generated_Source\PSoC5/PWM_Steer.c ****         * Return:
 263:Generated_Source\PSoC5/PWM_Steer.c ****         *  None
 264:Generated_Source\PSoC5/PWM_Steer.c ****         *
 265:Generated_Source\PSoC5/PWM_Steer.c ****         *******************************************************************************/
 266:Generated_Source\PSoC5/PWM_Steer.c ****         void PWM_Steer_SetCompareMode(uint8 comparemode) 
 267:Generated_Source\PSoC5/PWM_Steer.c ****         {
 268:Generated_Source\PSoC5/PWM_Steer.c ****             #if(PWM_Steer_UsingFixedFunction)
 269:Generated_Source\PSoC5/PWM_Steer.c **** 
 270:Generated_Source\PSoC5/PWM_Steer.c ****                 #if(0 != PWM_Steer_CTRL_CMPMODE1_SHIFT)
 271:Generated_Source\PSoC5/PWM_Steer.c ****                     uint8 comparemodemasked = ((uint8)((uint8)comparemode << PWM_Steer_CTRL_CMPMODE
 272:Generated_Source\PSoC5/PWM_Steer.c ****                 #else
 273:Generated_Source\PSoC5/PWM_Steer.c ****                     uint8 comparemodemasked = comparemode;
 274:Generated_Source\PSoC5/PWM_Steer.c ****                 #endif /* (0 != PWM_Steer_CTRL_CMPMODE1_SHIFT) */
 275:Generated_Source\PSoC5/PWM_Steer.c **** 
 276:Generated_Source\PSoC5/PWM_Steer.c ****                 PWM_Steer_CONTROL3 &= ((uint8)(~PWM_Steer_CTRL_CMPMODE1_MASK)); /*Clear Existing Da
 277:Generated_Source\PSoC5/PWM_Steer.c ****                 PWM_Steer_CONTROL3 |= comparemodemasked;
 278:Generated_Source\PSoC5/PWM_Steer.c **** 
 279:Generated_Source\PSoC5/PWM_Steer.c ****             #elif (PWM_Steer_UseControl)
 280:Generated_Source\PSoC5/PWM_Steer.c **** 
 281:Generated_Source\PSoC5/PWM_Steer.c ****                 #if(0 != PWM_Steer_CTRL_CMPMODE1_SHIFT)
 282:Generated_Source\PSoC5/PWM_Steer.c ****                     uint8 comparemode1masked = ((uint8)((uint8)comparemode << PWM_Steer_CTRL_CMPMOD
 283:Generated_Source\PSoC5/PWM_Steer.c ****                                                 PWM_Steer_CTRL_CMPMODE1_MASK;
ARM GAS  C:\Users\jon\AppData\Local\Temp\ccV7CjP2.s 			page 7


 284:Generated_Source\PSoC5/PWM_Steer.c ****                 #else
 285:Generated_Source\PSoC5/PWM_Steer.c ****                     uint8 comparemode1masked = comparemode & PWM_Steer_CTRL_CMPMODE1_MASK;
 286:Generated_Source\PSoC5/PWM_Steer.c ****                 #endif /* (0 != PWM_Steer_CTRL_CMPMODE1_SHIFT) */
 287:Generated_Source\PSoC5/PWM_Steer.c **** 
 288:Generated_Source\PSoC5/PWM_Steer.c ****                 #if(0 != PWM_Steer_CTRL_CMPMODE2_SHIFT)
 289:Generated_Source\PSoC5/PWM_Steer.c ****                     uint8 comparemode2masked = ((uint8)((uint8)comparemode << PWM_Steer_CTRL_CMPMOD
 290:Generated_Source\PSoC5/PWM_Steer.c ****                                                PWM_Steer_CTRL_CMPMODE2_MASK;
 291:Generated_Source\PSoC5/PWM_Steer.c ****                 #else
 292:Generated_Source\PSoC5/PWM_Steer.c ****                     uint8 comparemode2masked = comparemode & PWM_Steer_CTRL_CMPMODE2_MASK;
 293:Generated_Source\PSoC5/PWM_Steer.c ****                 #endif /* (0 != PWM_Steer_CTRL_CMPMODE2_SHIFT) */
 294:Generated_Source\PSoC5/PWM_Steer.c **** 
 295:Generated_Source\PSoC5/PWM_Steer.c ****                 /*Clear existing mode */
 296:Generated_Source\PSoC5/PWM_Steer.c ****                 PWM_Steer_CONTROL &= ((uint8)(~(PWM_Steer_CTRL_CMPMODE1_MASK |
 297:Generated_Source\PSoC5/PWM_Steer.c ****                                             PWM_Steer_CTRL_CMPMODE2_MASK)));
 298:Generated_Source\PSoC5/PWM_Steer.c ****                 PWM_Steer_CONTROL |= (comparemode1masked | comparemode2masked);
 299:Generated_Source\PSoC5/PWM_Steer.c **** 
 300:Generated_Source\PSoC5/PWM_Steer.c ****             #else
 301:Generated_Source\PSoC5/PWM_Steer.c ****                 uint8 temp = comparemode;
 302:Generated_Source\PSoC5/PWM_Steer.c ****             #endif /* (PWM_Steer_UsingFixedFunction) */
 303:Generated_Source\PSoC5/PWM_Steer.c ****         }
 304:Generated_Source\PSoC5/PWM_Steer.c ****     #endif /* PWM_Steer_CompareMode1SW */
 305:Generated_Source\PSoC5/PWM_Steer.c **** 
 306:Generated_Source\PSoC5/PWM_Steer.c **** #else /* UseOneCompareMode */
 307:Generated_Source\PSoC5/PWM_Steer.c **** 
 308:Generated_Source\PSoC5/PWM_Steer.c ****     #if (PWM_Steer_CompareMode1SW)
 309:Generated_Source\PSoC5/PWM_Steer.c **** 
 310:Generated_Source\PSoC5/PWM_Steer.c **** 
 311:Generated_Source\PSoC5/PWM_Steer.c ****         /*******************************************************************************
 312:Generated_Source\PSoC5/PWM_Steer.c ****         * Function Name: PWM_Steer_SetCompareMode1
 313:Generated_Source\PSoC5/PWM_Steer.c ****         ********************************************************************************
 314:Generated_Source\PSoC5/PWM_Steer.c ****         *
 315:Generated_Source\PSoC5/PWM_Steer.c ****         * Summary:
 316:Generated_Source\PSoC5/PWM_Steer.c ****         *  This function writes the Compare Mode for the pwm or pwm1 output
 317:Generated_Source\PSoC5/PWM_Steer.c ****         *
 318:Generated_Source\PSoC5/PWM_Steer.c ****         * Parameters:
 319:Generated_Source\PSoC5/PWM_Steer.c ****         *  comparemode:  The new compare mode for the PWM output. Use the compare types
 320:Generated_Source\PSoC5/PWM_Steer.c ****         *                defined in the H file as input arguments.
 321:Generated_Source\PSoC5/PWM_Steer.c ****         *
 322:Generated_Source\PSoC5/PWM_Steer.c ****         * Return:
 323:Generated_Source\PSoC5/PWM_Steer.c ****         *  None
 324:Generated_Source\PSoC5/PWM_Steer.c ****         *
 325:Generated_Source\PSoC5/PWM_Steer.c ****         *******************************************************************************/
 326:Generated_Source\PSoC5/PWM_Steer.c ****         void PWM_Steer_SetCompareMode1(uint8 comparemode) 
 327:Generated_Source\PSoC5/PWM_Steer.c ****         {
 328:Generated_Source\PSoC5/PWM_Steer.c ****             #if(0 != PWM_Steer_CTRL_CMPMODE1_SHIFT)
 329:Generated_Source\PSoC5/PWM_Steer.c ****                 uint8 comparemodemasked = ((uint8)((uint8)comparemode << PWM_Steer_CTRL_CMPMODE1_SH
 330:Generated_Source\PSoC5/PWM_Steer.c ****                                            PWM_Steer_CTRL_CMPMODE1_MASK;
 331:Generated_Source\PSoC5/PWM_Steer.c ****             #else
 332:Generated_Source\PSoC5/PWM_Steer.c ****                 uint8 comparemodemasked = comparemode & PWM_Steer_CTRL_CMPMODE1_MASK;
 333:Generated_Source\PSoC5/PWM_Steer.c ****             #endif /* (0 != PWM_Steer_CTRL_CMPMODE1_SHIFT) */
 334:Generated_Source\PSoC5/PWM_Steer.c **** 
 335:Generated_Source\PSoC5/PWM_Steer.c ****             #if (PWM_Steer_UseControl)
 336:Generated_Source\PSoC5/PWM_Steer.c ****                 PWM_Steer_CONTROL &= ((uint8)(~PWM_Steer_CTRL_CMPMODE1_MASK)); /*Clear existing mod
 337:Generated_Source\PSoC5/PWM_Steer.c ****                 PWM_Steer_CONTROL |= comparemodemasked;
 338:Generated_Source\PSoC5/PWM_Steer.c ****             #endif /* (PWM_Steer_UseControl) */
 339:Generated_Source\PSoC5/PWM_Steer.c ****         }
 340:Generated_Source\PSoC5/PWM_Steer.c ****     #endif /* PWM_Steer_CompareMode1SW */
ARM GAS  C:\Users\jon\AppData\Local\Temp\ccV7CjP2.s 			page 8


 341:Generated_Source\PSoC5/PWM_Steer.c **** 
 342:Generated_Source\PSoC5/PWM_Steer.c **** #if (PWM_Steer_CompareMode2SW)
 343:Generated_Source\PSoC5/PWM_Steer.c **** 
 344:Generated_Source\PSoC5/PWM_Steer.c **** 
 345:Generated_Source\PSoC5/PWM_Steer.c ****     /*******************************************************************************
 346:Generated_Source\PSoC5/PWM_Steer.c ****     * Function Name: PWM_Steer_SetCompareMode2
 347:Generated_Source\PSoC5/PWM_Steer.c ****     ********************************************************************************
 348:Generated_Source\PSoC5/PWM_Steer.c ****     *
 349:Generated_Source\PSoC5/PWM_Steer.c ****     * Summary:
 350:Generated_Source\PSoC5/PWM_Steer.c ****     *  This function writes the Compare Mode for the pwm or pwm2 output
 351:Generated_Source\PSoC5/PWM_Steer.c ****     *
 352:Generated_Source\PSoC5/PWM_Steer.c ****     * Parameters:
 353:Generated_Source\PSoC5/PWM_Steer.c ****     *  comparemode:  The new compare mode for the PWM output. Use the compare types
 354:Generated_Source\PSoC5/PWM_Steer.c ****     *                defined in the H file as input arguments.
 355:Generated_Source\PSoC5/PWM_Steer.c ****     *
 356:Generated_Source\PSoC5/PWM_Steer.c ****     * Return:
 357:Generated_Source\PSoC5/PWM_Steer.c ****     *  None
 358:Generated_Source\PSoC5/PWM_Steer.c ****     *
 359:Generated_Source\PSoC5/PWM_Steer.c ****     *******************************************************************************/
 360:Generated_Source\PSoC5/PWM_Steer.c ****     void PWM_Steer_SetCompareMode2(uint8 comparemode) 
 361:Generated_Source\PSoC5/PWM_Steer.c ****     {
 362:Generated_Source\PSoC5/PWM_Steer.c **** 
 363:Generated_Source\PSoC5/PWM_Steer.c ****         #if(0 != PWM_Steer_CTRL_CMPMODE2_SHIFT)
 364:Generated_Source\PSoC5/PWM_Steer.c ****             uint8 comparemodemasked = ((uint8)((uint8)comparemode << PWM_Steer_CTRL_CMPMODE2_SHIFT)
 365:Generated_Source\PSoC5/PWM_Steer.c ****                                                  PWM_Steer_CTRL_CMPMODE2_MASK;
 366:Generated_Source\PSoC5/PWM_Steer.c ****         #else
 367:Generated_Source\PSoC5/PWM_Steer.c ****             uint8 comparemodemasked = comparemode & PWM_Steer_CTRL_CMPMODE2_MASK;
 368:Generated_Source\PSoC5/PWM_Steer.c ****         #endif /* (0 != PWM_Steer_CTRL_CMPMODE2_SHIFT) */
 369:Generated_Source\PSoC5/PWM_Steer.c **** 
 370:Generated_Source\PSoC5/PWM_Steer.c ****         #if (PWM_Steer_UseControl)
 371:Generated_Source\PSoC5/PWM_Steer.c ****             PWM_Steer_CONTROL &= ((uint8)(~PWM_Steer_CTRL_CMPMODE2_MASK)); /*Clear existing mode */
 372:Generated_Source\PSoC5/PWM_Steer.c ****             PWM_Steer_CONTROL |= comparemodemasked;
 373:Generated_Source\PSoC5/PWM_Steer.c ****         #endif /* (PWM_Steer_UseControl) */
 374:Generated_Source\PSoC5/PWM_Steer.c ****     }
 375:Generated_Source\PSoC5/PWM_Steer.c ****     #endif /*PWM_Steer_CompareMode2SW */
 376:Generated_Source\PSoC5/PWM_Steer.c **** 
 377:Generated_Source\PSoC5/PWM_Steer.c **** #endif /* UseOneCompareMode */
 378:Generated_Source\PSoC5/PWM_Steer.c **** 
 379:Generated_Source\PSoC5/PWM_Steer.c **** 
 380:Generated_Source\PSoC5/PWM_Steer.c **** #if (!PWM_Steer_UsingFixedFunction)
 381:Generated_Source\PSoC5/PWM_Steer.c **** 
 382:Generated_Source\PSoC5/PWM_Steer.c **** 
 383:Generated_Source\PSoC5/PWM_Steer.c ****     /*******************************************************************************
 384:Generated_Source\PSoC5/PWM_Steer.c ****     * Function Name: PWM_Steer_WriteCounter
 385:Generated_Source\PSoC5/PWM_Steer.c ****     ********************************************************************************
 386:Generated_Source\PSoC5/PWM_Steer.c ****     *
 387:Generated_Source\PSoC5/PWM_Steer.c ****     * Summary:
 388:Generated_Source\PSoC5/PWM_Steer.c ****     *  Writes a new counter value directly to the counter register. This will be
 389:Generated_Source\PSoC5/PWM_Steer.c ****     *  implemented for that currently running period and only that period. This API
 390:Generated_Source\PSoC5/PWM_Steer.c ****     *  is valid only for UDB implementation and not available for fixed function
 391:Generated_Source\PSoC5/PWM_Steer.c ****     *  PWM implementation.
 392:Generated_Source\PSoC5/PWM_Steer.c ****     *
 393:Generated_Source\PSoC5/PWM_Steer.c ****     * Parameters:
 394:Generated_Source\PSoC5/PWM_Steer.c ****     *  counter:  The period new period counter value.
 395:Generated_Source\PSoC5/PWM_Steer.c ****     *
 396:Generated_Source\PSoC5/PWM_Steer.c ****     * Return:
 397:Generated_Source\PSoC5/PWM_Steer.c ****     *  None
ARM GAS  C:\Users\jon\AppData\Local\Temp\ccV7CjP2.s 			page 9


 398:Generated_Source\PSoC5/PWM_Steer.c ****     *
 399:Generated_Source\PSoC5/PWM_Steer.c ****     * Side Effects:
 400:Generated_Source\PSoC5/PWM_Steer.c ****     *  The PWM Period will be reloaded when a counter value will be a zero
 401:Generated_Source\PSoC5/PWM_Steer.c ****     *
 402:Generated_Source\PSoC5/PWM_Steer.c ****     *******************************************************************************/
 403:Generated_Source\PSoC5/PWM_Steer.c ****     void PWM_Steer_WriteCounter(uint16 counter) \
 404:Generated_Source\PSoC5/PWM_Steer.c ****                                        
 405:Generated_Source\PSoC5/PWM_Steer.c ****     {
 406:Generated_Source\PSoC5/PWM_Steer.c ****         CY_SET_REG16(PWM_Steer_COUNTER_LSB_PTR, counter);
  60              		.loc 1 406 0
  61 0014 40F6C411 		movw	r1, #2500
  62              	.LBE45:
  63              	.LBE44:
 117:Generated_Source\PSoC5/PWM_Steer.c ****                 ((uint8)(~PWM_Steer_CTRL_CMPMODE1_MASK));
  64              		.loc 1 117 0
  65 0018 174E     		ldr	r6, .L13+4
 129:Generated_Source\PSoC5/PWM_Steer.c ****             PWM_Steer_AUX_CONTROLDP1 |= (PWM_Steer_AUX_CTRL_FIFO0_CLR);
  66              		.loc 1 129 0
  67 001a 1848     		ldr	r0, .L13+8
 117:Generated_Source\PSoC5/PWM_Steer.c ****                 ((uint8)(~PWM_Steer_CTRL_CMPMODE1_MASK));
  68              		.loc 1 117 0
  69 001c 3278     		ldrb	r2, [r6]	@ zero_extendqisi2
  70              	.LVL0:
 130:Generated_Source\PSoC5/PWM_Steer.c ****         #endif /* (PWM_Steer_Resolution == 8) */
  71              		.loc 1 130 0
  72 001e 184D     		ldr	r5, .L13+12
 119:Generated_Source\PSoC5/PWM_Steer.c ****                                    PWM_Steer_DEFAULT_COMPARE1_MODE;
  73              		.loc 1 119 0
  74 0020 02F0C002 		and	r2, r2, #192
  75              	.LVL1:
  76 0024 42F00902 		orr	r2, r2, #9
  77 0028 3270     		strb	r2, [r6]
 129:Generated_Source\PSoC5/PWM_Steer.c ****             PWM_Steer_AUX_CONTROLDP1 |= (PWM_Steer_AUX_CTRL_FIFO0_CLR);
  78              		.loc 1 129 0
  79 002a 0278     		ldrb	r2, [r0]	@ zero_extendqisi2
  80              	.LBB48:
  81              	.LBB46:
  82              		.loc 1 406 0
  83 002c 154F     		ldr	r7, .L13+16
  84              	.LBE46:
  85              	.LBE48:
 129:Generated_Source\PSoC5/PWM_Steer.c ****             PWM_Steer_AUX_CONTROLDP1 |= (PWM_Steer_AUX_CTRL_FIFO0_CLR);
  86              		.loc 1 129 0
  87 002e 42F00102 		orr	r2, r2, #1
  88 0032 0270     		strb	r2, [r0]
 130:Generated_Source\PSoC5/PWM_Steer.c ****         #endif /* (PWM_Steer_Resolution == 8) */
  89              		.loc 1 130 0
  90 0034 2A78     		ldrb	r2, [r5]	@ zero_extendqisi2
  91 0036 42F00102 		orr	r2, r2, #1
  92 003a 2A70     		strb	r2, [r5]
  93              	.LVL2:
  94              	.LBB49:
  95              	.LBB50:
 407:Generated_Source\PSoC5/PWM_Steer.c ****     }
 408:Generated_Source\PSoC5/PWM_Steer.c **** 
 409:Generated_Source\PSoC5/PWM_Steer.c **** 
 410:Generated_Source\PSoC5/PWM_Steer.c ****     /*******************************************************************************
ARM GAS  C:\Users\jon\AppData\Local\Temp\ccV7CjP2.s 			page 10


 411:Generated_Source\PSoC5/PWM_Steer.c ****     * Function Name: PWM_Steer_ReadCounter
 412:Generated_Source\PSoC5/PWM_Steer.c ****     ********************************************************************************
 413:Generated_Source\PSoC5/PWM_Steer.c ****     *
 414:Generated_Source\PSoC5/PWM_Steer.c ****     * Summary:
 415:Generated_Source\PSoC5/PWM_Steer.c ****     *  This function returns the current value of the counter.  It doesn't matter
 416:Generated_Source\PSoC5/PWM_Steer.c ****     *  if the counter is enabled or running.
 417:Generated_Source\PSoC5/PWM_Steer.c ****     *
 418:Generated_Source\PSoC5/PWM_Steer.c ****     * Parameters:
 419:Generated_Source\PSoC5/PWM_Steer.c ****     *  None
 420:Generated_Source\PSoC5/PWM_Steer.c ****     *
 421:Generated_Source\PSoC5/PWM_Steer.c ****     * Return:
 422:Generated_Source\PSoC5/PWM_Steer.c ****     *  The current value of the counter.
 423:Generated_Source\PSoC5/PWM_Steer.c ****     *
 424:Generated_Source\PSoC5/PWM_Steer.c ****     *******************************************************************************/
 425:Generated_Source\PSoC5/PWM_Steer.c ****     uint16 PWM_Steer_ReadCounter(void) 
 426:Generated_Source\PSoC5/PWM_Steer.c ****     {
 427:Generated_Source\PSoC5/PWM_Steer.c ****         /* Force capture by reading Accumulator */
 428:Generated_Source\PSoC5/PWM_Steer.c ****         /* Must first do a software capture to be able to read the counter */
 429:Generated_Source\PSoC5/PWM_Steer.c ****         /* It is up to the user code to make sure there isn't already captured data in the FIFO */
 430:Generated_Source\PSoC5/PWM_Steer.c ****           (void)CY_GET_REG8(PWM_Steer_COUNTERCAP_LSB_PTR_8BIT);
 431:Generated_Source\PSoC5/PWM_Steer.c **** 
 432:Generated_Source\PSoC5/PWM_Steer.c ****         /* Read the data from the FIFO */
 433:Generated_Source\PSoC5/PWM_Steer.c ****         return (CY_GET_REG16(PWM_Steer_CAPTURE_LSB_PTR));
 434:Generated_Source\PSoC5/PWM_Steer.c ****     }
 435:Generated_Source\PSoC5/PWM_Steer.c **** 
 436:Generated_Source\PSoC5/PWM_Steer.c ****     #if (PWM_Steer_UseStatus)
 437:Generated_Source\PSoC5/PWM_Steer.c **** 
 438:Generated_Source\PSoC5/PWM_Steer.c **** 
 439:Generated_Source\PSoC5/PWM_Steer.c ****         /*******************************************************************************
 440:Generated_Source\PSoC5/PWM_Steer.c ****         * Function Name: PWM_Steer_ClearFIFO
 441:Generated_Source\PSoC5/PWM_Steer.c ****         ********************************************************************************
 442:Generated_Source\PSoC5/PWM_Steer.c ****         *
 443:Generated_Source\PSoC5/PWM_Steer.c ****         * Summary:
 444:Generated_Source\PSoC5/PWM_Steer.c ****         *  This function clears all capture data from the capture FIFO
 445:Generated_Source\PSoC5/PWM_Steer.c ****         *
 446:Generated_Source\PSoC5/PWM_Steer.c ****         * Parameters:
 447:Generated_Source\PSoC5/PWM_Steer.c ****         *  None
 448:Generated_Source\PSoC5/PWM_Steer.c ****         *
 449:Generated_Source\PSoC5/PWM_Steer.c ****         * Return:
 450:Generated_Source\PSoC5/PWM_Steer.c ****         *  None
 451:Generated_Source\PSoC5/PWM_Steer.c ****         *
 452:Generated_Source\PSoC5/PWM_Steer.c ****         *******************************************************************************/
 453:Generated_Source\PSoC5/PWM_Steer.c ****         void PWM_Steer_ClearFIFO(void) 
 454:Generated_Source\PSoC5/PWM_Steer.c ****         {
 455:Generated_Source\PSoC5/PWM_Steer.c ****             while(0u != (PWM_Steer_ReadStatusRegister() & PWM_Steer_STATUS_FIFONEMPTY))
 456:Generated_Source\PSoC5/PWM_Steer.c ****             {
 457:Generated_Source\PSoC5/PWM_Steer.c ****                 (void)PWM_Steer_ReadCapture();
 458:Generated_Source\PSoC5/PWM_Steer.c ****             }
 459:Generated_Source\PSoC5/PWM_Steer.c ****         }
 460:Generated_Source\PSoC5/PWM_Steer.c **** 
 461:Generated_Source\PSoC5/PWM_Steer.c ****     #endif /* PWM_Steer_UseStatus */
 462:Generated_Source\PSoC5/PWM_Steer.c **** 
 463:Generated_Source\PSoC5/PWM_Steer.c **** #endif /* !PWM_Steer_UsingFixedFunction */
 464:Generated_Source\PSoC5/PWM_Steer.c **** 
 465:Generated_Source\PSoC5/PWM_Steer.c **** 
 466:Generated_Source\PSoC5/PWM_Steer.c **** /*******************************************************************************
 467:Generated_Source\PSoC5/PWM_Steer.c **** * Function Name: PWM_Steer_WritePeriod
ARM GAS  C:\Users\jon\AppData\Local\Temp\ccV7CjP2.s 			page 11


 468:Generated_Source\PSoC5/PWM_Steer.c **** ********************************************************************************
 469:Generated_Source\PSoC5/PWM_Steer.c **** *
 470:Generated_Source\PSoC5/PWM_Steer.c **** * Summary:
 471:Generated_Source\PSoC5/PWM_Steer.c **** *  This function is used to change the period of the counter.  The new period
 472:Generated_Source\PSoC5/PWM_Steer.c **** *  will be loaded the next time terminal count is detected.
 473:Generated_Source\PSoC5/PWM_Steer.c **** *
 474:Generated_Source\PSoC5/PWM_Steer.c **** * Parameters:
 475:Generated_Source\PSoC5/PWM_Steer.c **** *  period:  Period value. May be between 1 and (2^Resolution)-1.  A value of 0
 476:Generated_Source\PSoC5/PWM_Steer.c **** *           will result in the counter remaining at zero.
 477:Generated_Source\PSoC5/PWM_Steer.c **** *
 478:Generated_Source\PSoC5/PWM_Steer.c **** * Return:
 479:Generated_Source\PSoC5/PWM_Steer.c **** *  None
 480:Generated_Source\PSoC5/PWM_Steer.c **** *
 481:Generated_Source\PSoC5/PWM_Steer.c **** *******************************************************************************/
 482:Generated_Source\PSoC5/PWM_Steer.c **** void PWM_Steer_WritePeriod(uint16 period) 
 483:Generated_Source\PSoC5/PWM_Steer.c **** {
 484:Generated_Source\PSoC5/PWM_Steer.c ****     #if(PWM_Steer_UsingFixedFunction)
 485:Generated_Source\PSoC5/PWM_Steer.c ****         CY_SET_REG16(PWM_Steer_PERIOD_LSB_PTR, (uint16)period);
 486:Generated_Source\PSoC5/PWM_Steer.c ****     #else
 487:Generated_Source\PSoC5/PWM_Steer.c ****         CY_SET_REG16(PWM_Steer_PERIOD_LSB_PTR, period);
 488:Generated_Source\PSoC5/PWM_Steer.c ****     #endif /* (PWM_Steer_UsingFixedFunction) */
 489:Generated_Source\PSoC5/PWM_Steer.c **** }
 490:Generated_Source\PSoC5/PWM_Steer.c **** 
 491:Generated_Source\PSoC5/PWM_Steer.c **** #if (PWM_Steer_UseOneCompareMode)
 492:Generated_Source\PSoC5/PWM_Steer.c **** 
 493:Generated_Source\PSoC5/PWM_Steer.c **** 
 494:Generated_Source\PSoC5/PWM_Steer.c ****     /*******************************************************************************
 495:Generated_Source\PSoC5/PWM_Steer.c ****     * Function Name: PWM_Steer_WriteCompare
 496:Generated_Source\PSoC5/PWM_Steer.c ****     ********************************************************************************
 497:Generated_Source\PSoC5/PWM_Steer.c ****     *
 498:Generated_Source\PSoC5/PWM_Steer.c ****     * Summary:
 499:Generated_Source\PSoC5/PWM_Steer.c ****     *  This funtion is used to change the compare1 value when the PWM is in Dither
 500:Generated_Source\PSoC5/PWM_Steer.c ****     *  mode. The compare output will reflect the new value on the next UDB clock.
 501:Generated_Source\PSoC5/PWM_Steer.c ****     *  The compare output will be driven high when the present counter value is
 502:Generated_Source\PSoC5/PWM_Steer.c ****     *  compared to the compare value based on the compare mode defined in
 503:Generated_Source\PSoC5/PWM_Steer.c ****     *  Dither Mode.
 504:Generated_Source\PSoC5/PWM_Steer.c ****     *
 505:Generated_Source\PSoC5/PWM_Steer.c ****     * Parameters:
 506:Generated_Source\PSoC5/PWM_Steer.c ****     *  compare:  New compare value.
 507:Generated_Source\PSoC5/PWM_Steer.c ****     *
 508:Generated_Source\PSoC5/PWM_Steer.c ****     * Return:
 509:Generated_Source\PSoC5/PWM_Steer.c ****     *  None
 510:Generated_Source\PSoC5/PWM_Steer.c ****     *
 511:Generated_Source\PSoC5/PWM_Steer.c ****     * Side Effects:
 512:Generated_Source\PSoC5/PWM_Steer.c ****     *  This function is only available if the PWM mode parameter is set to
 513:Generated_Source\PSoC5/PWM_Steer.c ****     *  Dither Mode, Center Aligned Mode or One Output Mode
 514:Generated_Source\PSoC5/PWM_Steer.c ****     *
 515:Generated_Source\PSoC5/PWM_Steer.c ****     *******************************************************************************/
 516:Generated_Source\PSoC5/PWM_Steer.c ****     void PWM_Steer_WriteCompare(uint16 compare) \
 517:Generated_Source\PSoC5/PWM_Steer.c ****                                        
 518:Generated_Source\PSoC5/PWM_Steer.c ****     {
 519:Generated_Source\PSoC5/PWM_Steer.c ****         #if(PWM_Steer_UsingFixedFunction)
 520:Generated_Source\PSoC5/PWM_Steer.c ****             CY_SET_REG16(PWM_Steer_COMPARE1_LSB_PTR, (uint16)compare);
 521:Generated_Source\PSoC5/PWM_Steer.c ****         #else
 522:Generated_Source\PSoC5/PWM_Steer.c ****             CY_SET_REG16(PWM_Steer_COMPARE1_LSB_PTR, compare);
 523:Generated_Source\PSoC5/PWM_Steer.c ****         #endif /* (PWM_Steer_UsingFixedFunction) */
 524:Generated_Source\PSoC5/PWM_Steer.c **** 
ARM GAS  C:\Users\jon\AppData\Local\Temp\ccV7CjP2.s 			page 12


 525:Generated_Source\PSoC5/PWM_Steer.c ****         #if (PWM_Steer_PWMMode == PWM_Steer__B_PWM__DITHER)
 526:Generated_Source\PSoC5/PWM_Steer.c ****             #if(PWM_Steer_UsingFixedFunction)
 527:Generated_Source\PSoC5/PWM_Steer.c ****                 CY_SET_REG16(PWM_Steer_COMPARE2_LSB_PTR, (uint16)(compare + 1u));
 528:Generated_Source\PSoC5/PWM_Steer.c ****             #else
 529:Generated_Source\PSoC5/PWM_Steer.c ****                 CY_SET_REG16(PWM_Steer_COMPARE2_LSB_PTR, (compare + 1u));
 530:Generated_Source\PSoC5/PWM_Steer.c ****             #endif /* (PWM_Steer_UsingFixedFunction) */
 531:Generated_Source\PSoC5/PWM_Steer.c ****         #endif /* (PWM_Steer_PWMMode == PWM_Steer__B_PWM__DITHER) */
 532:Generated_Source\PSoC5/PWM_Steer.c ****     }
 533:Generated_Source\PSoC5/PWM_Steer.c **** 
 534:Generated_Source\PSoC5/PWM_Steer.c **** 
 535:Generated_Source\PSoC5/PWM_Steer.c **** #else
 536:Generated_Source\PSoC5/PWM_Steer.c **** 
 537:Generated_Source\PSoC5/PWM_Steer.c **** 
 538:Generated_Source\PSoC5/PWM_Steer.c ****     /*******************************************************************************
 539:Generated_Source\PSoC5/PWM_Steer.c ****     * Function Name: PWM_Steer_WriteCompare1
 540:Generated_Source\PSoC5/PWM_Steer.c ****     ********************************************************************************
 541:Generated_Source\PSoC5/PWM_Steer.c ****     *
 542:Generated_Source\PSoC5/PWM_Steer.c ****     * Summary:
 543:Generated_Source\PSoC5/PWM_Steer.c ****     *  This funtion is used to change the compare1 value.  The compare output will
 544:Generated_Source\PSoC5/PWM_Steer.c ****     *  reflect the new value on the next UDB clock.  The compare output will be
 545:Generated_Source\PSoC5/PWM_Steer.c ****     *  driven high when the present counter value is less than or less than or
 546:Generated_Source\PSoC5/PWM_Steer.c ****     *  equal to the compare register, depending on the mode.
 547:Generated_Source\PSoC5/PWM_Steer.c ****     *
 548:Generated_Source\PSoC5/PWM_Steer.c ****     * Parameters:
 549:Generated_Source\PSoC5/PWM_Steer.c ****     *  compare:  New compare value.
 550:Generated_Source\PSoC5/PWM_Steer.c ****     *
 551:Generated_Source\PSoC5/PWM_Steer.c ****     * Return:
 552:Generated_Source\PSoC5/PWM_Steer.c ****     *  None
 553:Generated_Source\PSoC5/PWM_Steer.c ****     *
 554:Generated_Source\PSoC5/PWM_Steer.c ****     *******************************************************************************/
 555:Generated_Source\PSoC5/PWM_Steer.c ****     void PWM_Steer_WriteCompare1(uint16 compare) \
 556:Generated_Source\PSoC5/PWM_Steer.c ****                                         
 557:Generated_Source\PSoC5/PWM_Steer.c ****     {
 558:Generated_Source\PSoC5/PWM_Steer.c ****         #if(PWM_Steer_UsingFixedFunction)
 559:Generated_Source\PSoC5/PWM_Steer.c ****             CY_SET_REG16(PWM_Steer_COMPARE1_LSB_PTR, (uint16)compare);
 560:Generated_Source\PSoC5/PWM_Steer.c ****         #else
 561:Generated_Source\PSoC5/PWM_Steer.c ****             CY_SET_REG16(PWM_Steer_COMPARE1_LSB_PTR, compare);
 562:Generated_Source\PSoC5/PWM_Steer.c ****         #endif /* (PWM_Steer_UsingFixedFunction) */
 563:Generated_Source\PSoC5/PWM_Steer.c ****     }
 564:Generated_Source\PSoC5/PWM_Steer.c **** 
 565:Generated_Source\PSoC5/PWM_Steer.c **** 
 566:Generated_Source\PSoC5/PWM_Steer.c ****     /*******************************************************************************
 567:Generated_Source\PSoC5/PWM_Steer.c ****     * Function Name: PWM_Steer_WriteCompare2
 568:Generated_Source\PSoC5/PWM_Steer.c ****     ********************************************************************************
 569:Generated_Source\PSoC5/PWM_Steer.c ****     *
 570:Generated_Source\PSoC5/PWM_Steer.c ****     * Summary:
 571:Generated_Source\PSoC5/PWM_Steer.c ****     *  This funtion is used to change the compare value, for compare1 output.
 572:Generated_Source\PSoC5/PWM_Steer.c ****     *  The compare output will reflect the new value on the next UDB clock.
 573:Generated_Source\PSoC5/PWM_Steer.c ****     *  The compare output will be driven high when the present counter value is
 574:Generated_Source\PSoC5/PWM_Steer.c ****     *  less than or less than or equal to the compare register, depending on the
 575:Generated_Source\PSoC5/PWM_Steer.c ****     *  mode.
 576:Generated_Source\PSoC5/PWM_Steer.c ****     *
 577:Generated_Source\PSoC5/PWM_Steer.c ****     * Parameters:
 578:Generated_Source\PSoC5/PWM_Steer.c ****     *  compare:  New compare value.
 579:Generated_Source\PSoC5/PWM_Steer.c ****     *
 580:Generated_Source\PSoC5/PWM_Steer.c ****     * Return:
 581:Generated_Source\PSoC5/PWM_Steer.c ****     *  None
ARM GAS  C:\Users\jon\AppData\Local\Temp\ccV7CjP2.s 			page 13


 582:Generated_Source\PSoC5/PWM_Steer.c ****     *
 583:Generated_Source\PSoC5/PWM_Steer.c ****     *******************************************************************************/
 584:Generated_Source\PSoC5/PWM_Steer.c ****     void PWM_Steer_WriteCompare2(uint16 compare) \
 585:Generated_Source\PSoC5/PWM_Steer.c ****                                         
 586:Generated_Source\PSoC5/PWM_Steer.c ****     {
 587:Generated_Source\PSoC5/PWM_Steer.c ****         #if(PWM_Steer_UsingFixedFunction)
 588:Generated_Source\PSoC5/PWM_Steer.c ****             CY_SET_REG16(PWM_Steer_COMPARE2_LSB_PTR, compare);
 589:Generated_Source\PSoC5/PWM_Steer.c ****         #else
 590:Generated_Source\PSoC5/PWM_Steer.c ****             CY_SET_REG16(PWM_Steer_COMPARE2_LSB_PTR, compare);
 591:Generated_Source\PSoC5/PWM_Steer.c ****         #endif /* (PWM_Steer_UsingFixedFunction) */
 592:Generated_Source\PSoC5/PWM_Steer.c ****     }
 593:Generated_Source\PSoC5/PWM_Steer.c **** #endif /* UseOneCompareMode */
 594:Generated_Source\PSoC5/PWM_Steer.c **** 
 595:Generated_Source\PSoC5/PWM_Steer.c **** #if (PWM_Steer_DeadBandUsed)
 596:Generated_Source\PSoC5/PWM_Steer.c **** 
 597:Generated_Source\PSoC5/PWM_Steer.c **** 
 598:Generated_Source\PSoC5/PWM_Steer.c ****     /*******************************************************************************
 599:Generated_Source\PSoC5/PWM_Steer.c ****     * Function Name: PWM_Steer_WriteDeadTime
 600:Generated_Source\PSoC5/PWM_Steer.c ****     ********************************************************************************
 601:Generated_Source\PSoC5/PWM_Steer.c ****     *
 602:Generated_Source\PSoC5/PWM_Steer.c ****     * Summary:
 603:Generated_Source\PSoC5/PWM_Steer.c ****     *  This function writes the dead-band counts to the corresponding register
 604:Generated_Source\PSoC5/PWM_Steer.c ****     *
 605:Generated_Source\PSoC5/PWM_Steer.c ****     * Parameters:
 606:Generated_Source\PSoC5/PWM_Steer.c ****     *  deadtime:  Number of counts for dead time
 607:Generated_Source\PSoC5/PWM_Steer.c ****     *
 608:Generated_Source\PSoC5/PWM_Steer.c ****     * Return:
 609:Generated_Source\PSoC5/PWM_Steer.c ****     *  None
 610:Generated_Source\PSoC5/PWM_Steer.c ****     *
 611:Generated_Source\PSoC5/PWM_Steer.c ****     *******************************************************************************/
 612:Generated_Source\PSoC5/PWM_Steer.c ****     void PWM_Steer_WriteDeadTime(uint8 deadtime) 
 613:Generated_Source\PSoC5/PWM_Steer.c ****     {
 614:Generated_Source\PSoC5/PWM_Steer.c ****         /* If using the Dead Band 1-255 mode then just write the register */
 615:Generated_Source\PSoC5/PWM_Steer.c ****         #if(!PWM_Steer_DeadBand2_4)
 616:Generated_Source\PSoC5/PWM_Steer.c ****             CY_SET_REG8(PWM_Steer_DEADBAND_COUNT_PTR, deadtime);
 617:Generated_Source\PSoC5/PWM_Steer.c ****         #else
 618:Generated_Source\PSoC5/PWM_Steer.c ****             /* Otherwise the data has to be masked and offset */
 619:Generated_Source\PSoC5/PWM_Steer.c ****             /* Clear existing data */
 620:Generated_Source\PSoC5/PWM_Steer.c ****             PWM_Steer_DEADBAND_COUNT &= ((uint8)(~PWM_Steer_DEADBAND_COUNT_MASK));
 621:Generated_Source\PSoC5/PWM_Steer.c **** 
 622:Generated_Source\PSoC5/PWM_Steer.c ****             /* Set new dead time */
 623:Generated_Source\PSoC5/PWM_Steer.c ****             #if(PWM_Steer_DEADBAND_COUNT_SHIFT)
 624:Generated_Source\PSoC5/PWM_Steer.c ****                 PWM_Steer_DEADBAND_COUNT |= ((uint8)((uint8)deadtime << PWM_Steer_DEADBAND_COUNT_SH
 625:Generated_Source\PSoC5/PWM_Steer.c ****                                                     PWM_Steer_DEADBAND_COUNT_MASK;
 626:Generated_Source\PSoC5/PWM_Steer.c ****             #else
 627:Generated_Source\PSoC5/PWM_Steer.c ****                 PWM_Steer_DEADBAND_COUNT |= deadtime & PWM_Steer_DEADBAND_COUNT_MASK;
 628:Generated_Source\PSoC5/PWM_Steer.c ****             #endif /* (PWM_Steer_DEADBAND_COUNT_SHIFT) */
 629:Generated_Source\PSoC5/PWM_Steer.c **** 
 630:Generated_Source\PSoC5/PWM_Steer.c ****         #endif /* (!PWM_Steer_DeadBand2_4) */
 631:Generated_Source\PSoC5/PWM_Steer.c ****     }
 632:Generated_Source\PSoC5/PWM_Steer.c **** 
 633:Generated_Source\PSoC5/PWM_Steer.c **** 
 634:Generated_Source\PSoC5/PWM_Steer.c ****     /*******************************************************************************
 635:Generated_Source\PSoC5/PWM_Steer.c ****     * Function Name: PWM_Steer_ReadDeadTime
 636:Generated_Source\PSoC5/PWM_Steer.c ****     ********************************************************************************
 637:Generated_Source\PSoC5/PWM_Steer.c ****     *
 638:Generated_Source\PSoC5/PWM_Steer.c ****     * Summary:
ARM GAS  C:\Users\jon\AppData\Local\Temp\ccV7CjP2.s 			page 14


 639:Generated_Source\PSoC5/PWM_Steer.c ****     *  This function reads the dead-band counts from the corresponding register
 640:Generated_Source\PSoC5/PWM_Steer.c ****     *
 641:Generated_Source\PSoC5/PWM_Steer.c ****     * Parameters:
 642:Generated_Source\PSoC5/PWM_Steer.c ****     *  None
 643:Generated_Source\PSoC5/PWM_Steer.c ****     *
 644:Generated_Source\PSoC5/PWM_Steer.c ****     * Return:
 645:Generated_Source\PSoC5/PWM_Steer.c ****     *  Dead Band Counts
 646:Generated_Source\PSoC5/PWM_Steer.c ****     *
 647:Generated_Source\PSoC5/PWM_Steer.c ****     *******************************************************************************/
 648:Generated_Source\PSoC5/PWM_Steer.c ****     uint8 PWM_Steer_ReadDeadTime(void) 
 649:Generated_Source\PSoC5/PWM_Steer.c ****     {
 650:Generated_Source\PSoC5/PWM_Steer.c ****         /* If using the Dead Band 1-255 mode then just read the register */
 651:Generated_Source\PSoC5/PWM_Steer.c ****         #if(!PWM_Steer_DeadBand2_4)
 652:Generated_Source\PSoC5/PWM_Steer.c ****             return (CY_GET_REG8(PWM_Steer_DEADBAND_COUNT_PTR));
 653:Generated_Source\PSoC5/PWM_Steer.c ****         #else
 654:Generated_Source\PSoC5/PWM_Steer.c **** 
 655:Generated_Source\PSoC5/PWM_Steer.c ****             /* Otherwise the data has to be masked and offset */
 656:Generated_Source\PSoC5/PWM_Steer.c ****             #if(PWM_Steer_DEADBAND_COUNT_SHIFT)
 657:Generated_Source\PSoC5/PWM_Steer.c ****                 return ((uint8)(((uint8)(PWM_Steer_DEADBAND_COUNT & PWM_Steer_DEADBAND_COUNT_MASK))
 658:Generated_Source\PSoC5/PWM_Steer.c ****                                                                            PWM_Steer_DEADBAND_COUNT
 659:Generated_Source\PSoC5/PWM_Steer.c ****             #else
 660:Generated_Source\PSoC5/PWM_Steer.c ****                 return (PWM_Steer_DEADBAND_COUNT & PWM_Steer_DEADBAND_COUNT_MASK);
 661:Generated_Source\PSoC5/PWM_Steer.c ****             #endif /* (PWM_Steer_DEADBAND_COUNT_SHIFT) */
 662:Generated_Source\PSoC5/PWM_Steer.c ****         #endif /* (!PWM_Steer_DeadBand2_4) */
 663:Generated_Source\PSoC5/PWM_Steer.c ****     }
 664:Generated_Source\PSoC5/PWM_Steer.c **** #endif /* DeadBandUsed */
 665:Generated_Source\PSoC5/PWM_Steer.c **** 
 666:Generated_Source\PSoC5/PWM_Steer.c **** #if (PWM_Steer_UseStatus || PWM_Steer_UsingFixedFunction)
 667:Generated_Source\PSoC5/PWM_Steer.c **** 
 668:Generated_Source\PSoC5/PWM_Steer.c **** 
 669:Generated_Source\PSoC5/PWM_Steer.c ****     /*******************************************************************************
 670:Generated_Source\PSoC5/PWM_Steer.c ****     * Function Name: PWM_Steer_SetInterruptMode
 671:Generated_Source\PSoC5/PWM_Steer.c ****     ********************************************************************************
 672:Generated_Source\PSoC5/PWM_Steer.c ****     *
 673:Generated_Source\PSoC5/PWM_Steer.c ****     * Summary:
 674:Generated_Source\PSoC5/PWM_Steer.c ****     *  This function configures the interrupts mask control of theinterrupt
 675:Generated_Source\PSoC5/PWM_Steer.c ****     *  source status register.
 676:Generated_Source\PSoC5/PWM_Steer.c ****     *
 677:Generated_Source\PSoC5/PWM_Steer.c ****     * Parameters:
 678:Generated_Source\PSoC5/PWM_Steer.c ****     *  uint8 interruptMode: Bit field containing the interrupt sources enabled
 679:Generated_Source\PSoC5/PWM_Steer.c ****     *
 680:Generated_Source\PSoC5/PWM_Steer.c ****     * Return:
 681:Generated_Source\PSoC5/PWM_Steer.c ****     *  None
 682:Generated_Source\PSoC5/PWM_Steer.c ****     *
 683:Generated_Source\PSoC5/PWM_Steer.c ****     *******************************************************************************/
 684:Generated_Source\PSoC5/PWM_Steer.c ****     void PWM_Steer_SetInterruptMode(uint8 interruptMode) 
 685:Generated_Source\PSoC5/PWM_Steer.c ****     {
 686:Generated_Source\PSoC5/PWM_Steer.c ****         CY_SET_REG8(PWM_Steer_STATUS_MASK_PTR, interruptMode);
  96              		.loc 1 686 0
  97 003c 124A     		ldr	r2, .L13+20
  98              	.LBE50:
  99              	.LBE49:
 100              	.LBB52:
 101              	.LBB47:
 406:Generated_Source\PSoC5/PWM_Steer.c ****     }
 102              		.loc 1 406 0
 103 003e 3980     		strh	r1, [r7]	@ movhi
ARM GAS  C:\Users\jon\AppData\Local\Temp\ccV7CjP2.s 			page 15


 104              	.LVL3:
 105              	.LBE47:
 106              	.LBE52:
 107              	.LBB53:
 108              	.LBB54:
 487:Generated_Source\PSoC5/PWM_Steer.c ****     #endif /* (PWM_Steer_UsingFixedFunction) */
 109              		.loc 1 487 0
 110 0040 A6F81B14 		strh	r1, [r6, #1051]	@ movhi
 111              	.LVL4:
 112              	.LBE54:
 113              	.LBE53:
 114              	.LBB55:
 115              	.LBB56:
 522:Generated_Source\PSoC5/PWM_Steer.c ****         #endif /* (PWM_Steer_UsingFixedFunction) */
 116              		.loc 1 522 0
 117 0044 A0F8BC33 		strh	r3, [r0, #956]	@ movhi
 118              	.LVL5:
 119              	.LBE56:
 120              	.LBE55:
 121              	.LBB57:
 122              	.LBB51:
 123              		.loc 1 686 0
 124 0048 1370     		strb	r3, [r2]
 125              	.LVL6:
 126              	.LBE51:
 127              	.LBE57:
 167:Generated_Source\PSoC5/PWM_Steer.c ****             /* Use the interrupt output of the status register for IRQ output */
 128              		.loc 1 167 0
 129 004a FFF7FEFF 		bl	CyEnterCriticalSection
 130              	.LVL7:
 169:Generated_Source\PSoC5/PWM_Steer.c **** 
 131              		.loc 1 169 0
 132 004e 2B78     		ldrb	r3, [r5]	@ zero_extendqisi2
 133 0050 43F01003 		orr	r3, r3, #16
 134 0054 2B70     		strb	r3, [r5]
 172:Generated_Source\PSoC5/PWM_Steer.c **** 
 135              		.loc 1 172 0
 136 0056 FFF7FEFF 		bl	CyExitCriticalSection
 137              	.LVL8:
 138              	.LBB58:
 139              	.LBB59:
 140              	.LBB60:
 141              	.LBB61:
 687:Generated_Source\PSoC5/PWM_Steer.c ****     }
 688:Generated_Source\PSoC5/PWM_Steer.c **** 
 689:Generated_Source\PSoC5/PWM_Steer.c **** 
 690:Generated_Source\PSoC5/PWM_Steer.c ****     /*******************************************************************************
 691:Generated_Source\PSoC5/PWM_Steer.c ****     * Function Name: PWM_Steer_ReadStatusRegister
 692:Generated_Source\PSoC5/PWM_Steer.c ****     ********************************************************************************
 693:Generated_Source\PSoC5/PWM_Steer.c ****     *
 694:Generated_Source\PSoC5/PWM_Steer.c ****     * Summary:
 695:Generated_Source\PSoC5/PWM_Steer.c ****     *  This function returns the current state of the status register.
 696:Generated_Source\PSoC5/PWM_Steer.c ****     *
 697:Generated_Source\PSoC5/PWM_Steer.c ****     * Parameters:
 698:Generated_Source\PSoC5/PWM_Steer.c ****     *  None
 699:Generated_Source\PSoC5/PWM_Steer.c ****     *
 700:Generated_Source\PSoC5/PWM_Steer.c ****     * Return:
ARM GAS  C:\Users\jon\AppData\Local\Temp\ccV7CjP2.s 			page 16


 701:Generated_Source\PSoC5/PWM_Steer.c ****     *  uint8 : Current status register value. The status register bits are:
 702:Generated_Source\PSoC5/PWM_Steer.c ****     *  [7:6] : Unused(0)
 703:Generated_Source\PSoC5/PWM_Steer.c ****     *  [5]   : Kill event output
 704:Generated_Source\PSoC5/PWM_Steer.c ****     *  [4]   : FIFO not empty
 705:Generated_Source\PSoC5/PWM_Steer.c ****     *  [3]   : FIFO full
 706:Generated_Source\PSoC5/PWM_Steer.c ****     *  [2]   : Terminal count
 707:Generated_Source\PSoC5/PWM_Steer.c ****     *  [1]   : Compare output 2
 708:Generated_Source\PSoC5/PWM_Steer.c ****     *  [0]   : Compare output 1
 709:Generated_Source\PSoC5/PWM_Steer.c ****     *
 710:Generated_Source\PSoC5/PWM_Steer.c ****     *******************************************************************************/
 711:Generated_Source\PSoC5/PWM_Steer.c ****     uint8 PWM_Steer_ReadStatusRegister(void) 
 712:Generated_Source\PSoC5/PWM_Steer.c ****     {
 713:Generated_Source\PSoC5/PWM_Steer.c ****         return (CY_GET_REG8(PWM_Steer_STATUS_PTR));
 142              		.loc 1 713 0
 143 005a 0C4A     		ldr	r2, .L13+24
 144 005c 1378     		ldrb	r3, [r2]	@ zero_extendqisi2
 145              	.LBE61:
 146              	.LBE60:
 455:Generated_Source\PSoC5/PWM_Steer.c ****             {
 147              		.loc 1 455 0
 148 005e D906     		lsls	r1, r3, #27
 149 0060 04D5     		bpl	.L3
 150              	.LBB63:
 151              	.LBB64:
 714:Generated_Source\PSoC5/PWM_Steer.c ****     }
 715:Generated_Source\PSoC5/PWM_Steer.c **** 
 716:Generated_Source\PSoC5/PWM_Steer.c **** #endif /* (PWM_Steer_UseStatus || PWM_Steer_UsingFixedFunction) */
 717:Generated_Source\PSoC5/PWM_Steer.c **** 
 718:Generated_Source\PSoC5/PWM_Steer.c **** 
 719:Generated_Source\PSoC5/PWM_Steer.c **** #if (PWM_Steer_UseControl)
 720:Generated_Source\PSoC5/PWM_Steer.c **** 
 721:Generated_Source\PSoC5/PWM_Steer.c **** 
 722:Generated_Source\PSoC5/PWM_Steer.c ****     /*******************************************************************************
 723:Generated_Source\PSoC5/PWM_Steer.c ****     * Function Name: PWM_Steer_ReadControlRegister
 724:Generated_Source\PSoC5/PWM_Steer.c ****     ********************************************************************************
 725:Generated_Source\PSoC5/PWM_Steer.c ****     *
 726:Generated_Source\PSoC5/PWM_Steer.c ****     * Summary:
 727:Generated_Source\PSoC5/PWM_Steer.c ****     *  Returns the current state of the control register. This API is available
 728:Generated_Source\PSoC5/PWM_Steer.c ****     *  only if the control register is not removed.
 729:Generated_Source\PSoC5/PWM_Steer.c ****     *
 730:Generated_Source\PSoC5/PWM_Steer.c ****     * Parameters:
 731:Generated_Source\PSoC5/PWM_Steer.c ****     *  None
 732:Generated_Source\PSoC5/PWM_Steer.c ****     *
 733:Generated_Source\PSoC5/PWM_Steer.c ****     * Return:
 734:Generated_Source\PSoC5/PWM_Steer.c ****     *  uint8 : Current control register value
 735:Generated_Source\PSoC5/PWM_Steer.c ****     *
 736:Generated_Source\PSoC5/PWM_Steer.c ****     *******************************************************************************/
 737:Generated_Source\PSoC5/PWM_Steer.c ****     uint8 PWM_Steer_ReadControlRegister(void) 
 738:Generated_Source\PSoC5/PWM_Steer.c ****     {
 739:Generated_Source\PSoC5/PWM_Steer.c ****         uint8 result;
 740:Generated_Source\PSoC5/PWM_Steer.c **** 
 741:Generated_Source\PSoC5/PWM_Steer.c ****         result = CY_GET_REG8(PWM_Steer_CONTROL_PTR);
 742:Generated_Source\PSoC5/PWM_Steer.c ****         return (result);
 743:Generated_Source\PSoC5/PWM_Steer.c ****     }
 744:Generated_Source\PSoC5/PWM_Steer.c **** 
 745:Generated_Source\PSoC5/PWM_Steer.c **** 
 746:Generated_Source\PSoC5/PWM_Steer.c ****     /*******************************************************************************
ARM GAS  C:\Users\jon\AppData\Local\Temp\ccV7CjP2.s 			page 17


 747:Generated_Source\PSoC5/PWM_Steer.c ****     * Function Name: PWM_Steer_WriteControlRegister
 748:Generated_Source\PSoC5/PWM_Steer.c ****     ********************************************************************************
 749:Generated_Source\PSoC5/PWM_Steer.c ****     *
 750:Generated_Source\PSoC5/PWM_Steer.c ****     * Summary:
 751:Generated_Source\PSoC5/PWM_Steer.c ****     *  Sets the bit field of the control register. This API is available only if
 752:Generated_Source\PSoC5/PWM_Steer.c ****     *  the control register is not removed.
 753:Generated_Source\PSoC5/PWM_Steer.c ****     *
 754:Generated_Source\PSoC5/PWM_Steer.c ****     * Parameters:
 755:Generated_Source\PSoC5/PWM_Steer.c ****     *  uint8 control: Control register bit field, The status register bits are:
 756:Generated_Source\PSoC5/PWM_Steer.c ****     *  [7]   : PWM Enable
 757:Generated_Source\PSoC5/PWM_Steer.c ****     *  [6]   : Reset
 758:Generated_Source\PSoC5/PWM_Steer.c ****     *  [5:3] : Compare Mode2
 759:Generated_Source\PSoC5/PWM_Steer.c ****     *  [2:0] : Compare Mode2
 760:Generated_Source\PSoC5/PWM_Steer.c ****     *
 761:Generated_Source\PSoC5/PWM_Steer.c ****     * Return:
 762:Generated_Source\PSoC5/PWM_Steer.c ****     *  None
 763:Generated_Source\PSoC5/PWM_Steer.c ****     *
 764:Generated_Source\PSoC5/PWM_Steer.c ****     *******************************************************************************/
 765:Generated_Source\PSoC5/PWM_Steer.c ****     void PWM_Steer_WriteControlRegister(uint8 control) 
 766:Generated_Source\PSoC5/PWM_Steer.c ****     {
 767:Generated_Source\PSoC5/PWM_Steer.c ****         CY_SET_REG8(PWM_Steer_CONTROL_PTR, control);
 768:Generated_Source\PSoC5/PWM_Steer.c ****     }
 769:Generated_Source\PSoC5/PWM_Steer.c **** 
 770:Generated_Source\PSoC5/PWM_Steer.c **** #endif /* (PWM_Steer_UseControl) */
 771:Generated_Source\PSoC5/PWM_Steer.c **** 
 772:Generated_Source\PSoC5/PWM_Steer.c **** 
 773:Generated_Source\PSoC5/PWM_Steer.c **** #if (!PWM_Steer_UsingFixedFunction)
 774:Generated_Source\PSoC5/PWM_Steer.c **** 
 775:Generated_Source\PSoC5/PWM_Steer.c **** 
 776:Generated_Source\PSoC5/PWM_Steer.c ****     /*******************************************************************************
 777:Generated_Source\PSoC5/PWM_Steer.c ****     * Function Name: PWM_Steer_ReadCapture
 778:Generated_Source\PSoC5/PWM_Steer.c ****     ********************************************************************************
 779:Generated_Source\PSoC5/PWM_Steer.c ****     *
 780:Generated_Source\PSoC5/PWM_Steer.c ****     * Summary:
 781:Generated_Source\PSoC5/PWM_Steer.c ****     *  Reads the capture value from the capture FIFO.
 782:Generated_Source\PSoC5/PWM_Steer.c ****     *
 783:Generated_Source\PSoC5/PWM_Steer.c ****     * Parameters:
 784:Generated_Source\PSoC5/PWM_Steer.c ****     *  None
 785:Generated_Source\PSoC5/PWM_Steer.c ****     *
 786:Generated_Source\PSoC5/PWM_Steer.c ****     * Return:
 787:Generated_Source\PSoC5/PWM_Steer.c ****     *  uint8/uint16: The current capture value
 788:Generated_Source\PSoC5/PWM_Steer.c ****     *
 789:Generated_Source\PSoC5/PWM_Steer.c ****     *******************************************************************************/
 790:Generated_Source\PSoC5/PWM_Steer.c ****     uint16 PWM_Steer_ReadCapture(void) 
 791:Generated_Source\PSoC5/PWM_Steer.c ****     {
 792:Generated_Source\PSoC5/PWM_Steer.c ****         return (CY_GET_REG16(PWM_Steer_CAPTURE_LSB_PTR));
 152              		.loc 1 792 0
 153 0062 0B49     		ldr	r1, .L13+28
 154              	.L7:
 155 0064 0B88     		ldrh	r3, [r1]
 156              	.LBE64:
 157              	.LBE63:
 158              	.LBB65:
 159              	.LBB62:
 713:Generated_Source\PSoC5/PWM_Steer.c ****     }
 160              		.loc 1 713 0
 161 0066 1378     		ldrb	r3, [r2]	@ zero_extendqisi2
ARM GAS  C:\Users\jon\AppData\Local\Temp\ccV7CjP2.s 			page 18


 162              	.LBE62:
 163              	.LBE65:
 455:Generated_Source\PSoC5/PWM_Steer.c ****             {
 164              		.loc 1 455 0
 165 0068 DB06     		lsls	r3, r3, #27
 166 006a FBD4     		bmi	.L7
 167              	.L3:
 168              	.LBE59:
 169              	.LBE58:
 170              	.LBE43:
 171              	.LBE42:
  61:Generated_Source\PSoC5/PWM_Steer.c ****     }
 172              		.loc 1 61 0
 173 006c 0123     		movs	r3, #1
 174 006e 2370     		strb	r3, [r4]
 175 0070 CAE7     		b	.L2
 176              	.L14:
 177 0072 00BF     		.align	2
 178              	.L13:
 179 0074 00000000 		.word	.LANCHOR0
 180 0078 7D640040 		.word	1073767549
 181 007c 9C640040 		.word	1073767580
 182 0080 9D640040 		.word	1073767581
 183 0084 18680040 		.word	1073768472
 184 0088 8D640040 		.word	1073767565
 185 008c 6D640040 		.word	1073767533
 186 0090 B8680040 		.word	1073768632
 187              		.cfi_endproc
 188              	.LFE0:
 189              		.size	PWM_Steer_Start, .-PWM_Steer_Start
 190              		.section	.text.PWM_Steer_Init,"ax",%progbits
 191              		.align	2
 192              		.global	PWM_Steer_Init
 193              		.thumb
 194              		.thumb_func
 195              		.type	PWM_Steer_Init, %function
 196              	PWM_Steer_Init:
 197              	.LFB1:
  85:Generated_Source\PSoC5/PWM_Steer.c ****     #if (PWM_Steer_UsingFixedFunction || PWM_Steer_UseControl)
 198              		.loc 1 85 0
 199              		.cfi_startproc
 200              		@ args = 0, pretend = 0, frame = 0
 201              		@ frame_needed = 0, uses_anonymous_args = 0
 202              	.LBB66:
 203              	.LBB67:
 406:Generated_Source\PSoC5/PWM_Steer.c ****     }
 204              		.loc 1 406 0
 205 0000 40F6C411 		movw	r1, #2500
 206              	.LBE67:
 207              	.LBE66:
  85:Generated_Source\PSoC5/PWM_Steer.c ****     #if (PWM_Steer_UsingFixedFunction || PWM_Steer_UseControl)
 208              		.loc 1 85 0
 209 0004 F8B5     		push	{r3, r4, r5, r6, r7, lr}
 210              		.cfi_def_cfa_offset 24
 211              		.cfi_offset 3, -24
 212              		.cfi_offset 4, -20
 213              		.cfi_offset 5, -16
ARM GAS  C:\Users\jon\AppData\Local\Temp\ccV7CjP2.s 			page 19


 214              		.cfi_offset 6, -12
 215              		.cfi_offset 7, -8
 216              		.cfi_offset 14, -4
 117:Generated_Source\PSoC5/PWM_Steer.c ****                 ((uint8)(~PWM_Steer_CTRL_CMPMODE1_MASK));
 217              		.loc 1 117 0
 218 0006 1548     		ldr	r0, .L24
 129:Generated_Source\PSoC5/PWM_Steer.c ****             PWM_Steer_AUX_CONTROLDP1 |= (PWM_Steer_AUX_CTRL_FIFO0_CLR);
 219              		.loc 1 129 0
 220 0008 154A     		ldr	r2, .L24+4
 117:Generated_Source\PSoC5/PWM_Steer.c ****                 ((uint8)(~PWM_Steer_CTRL_CMPMODE1_MASK));
 221              		.loc 1 117 0
 222 000a 0378     		ldrb	r3, [r0]	@ zero_extendqisi2
 223              	.LVL9:
 130:Generated_Source\PSoC5/PWM_Steer.c ****         #endif /* (PWM_Steer_Resolution == 8) */
 224              		.loc 1 130 0
 225 000c 154C     		ldr	r4, .L24+8
 119:Generated_Source\PSoC5/PWM_Steer.c ****                                    PWM_Steer_DEFAULT_COMPARE1_MODE;
 226              		.loc 1 119 0
 227 000e 03F0C003 		and	r3, r3, #192
 228              	.LVL10:
 229 0012 43F00903 		orr	r3, r3, #9
 230 0016 0370     		strb	r3, [r0]
 129:Generated_Source\PSoC5/PWM_Steer.c ****             PWM_Steer_AUX_CONTROLDP1 |= (PWM_Steer_AUX_CTRL_FIFO0_CLR);
 231              		.loc 1 129 0
 232 0018 1378     		ldrb	r3, [r2]	@ zero_extendqisi2
 233              	.LBB70:
 234              	.LBB68:
 406:Generated_Source\PSoC5/PWM_Steer.c ****     }
 235              		.loc 1 406 0
 236 001a 134F     		ldr	r7, .L24+12
 237              	.LBE68:
 238              	.LBE70:
 129:Generated_Source\PSoC5/PWM_Steer.c ****             PWM_Steer_AUX_CONTROLDP1 |= (PWM_Steer_AUX_CTRL_FIFO0_CLR);
 239              		.loc 1 129 0
 240 001c 43F00103 		orr	r3, r3, #1
 241 0020 1370     		strb	r3, [r2]
 130:Generated_Source\PSoC5/PWM_Steer.c ****         #endif /* (PWM_Steer_Resolution == 8) */
 242              		.loc 1 130 0
 243 0022 2378     		ldrb	r3, [r4]	@ zero_extendqisi2
 244              	.LBB71:
 245              	.LBB72:
 487:Generated_Source\PSoC5/PWM_Steer.c ****     #endif /* (PWM_Steer_UsingFixedFunction) */
 246              		.loc 1 487 0
 247 0024 114E     		ldr	r6, .L24+16
 248              	.LBE72:
 249              	.LBE71:
 250              	.LBB74:
 251              	.LBB75:
 522:Generated_Source\PSoC5/PWM_Steer.c ****         #endif /* (PWM_Steer_UsingFixedFunction) */
 252              		.loc 1 522 0
 253 0026 124D     		ldr	r5, .L24+20
 254 0028 0022     		movs	r2, #0
 255              	.LBE75:
 256              	.LBE74:
 130:Generated_Source\PSoC5/PWM_Steer.c ****         #endif /* (PWM_Steer_Resolution == 8) */
 257              		.loc 1 130 0
 258 002a 43F00103 		orr	r3, r3, #1
ARM GAS  C:\Users\jon\AppData\Local\Temp\ccV7CjP2.s 			page 20


 259 002e 2370     		strb	r3, [r4]
 260              	.LVL11:
 261              	.LBB77:
 262              	.LBB69:
 406:Generated_Source\PSoC5/PWM_Steer.c ****     }
 263              		.loc 1 406 0
 264 0030 3980     		strh	r1, [r7]	@ movhi
 265              	.LVL12:
 266              	.LBE69:
 267              	.LBE77:
 268              	.LBB78:
 269              	.LBB73:
 487:Generated_Source\PSoC5/PWM_Steer.c ****     #endif /* (PWM_Steer_UsingFixedFunction) */
 270              		.loc 1 487 0
 271 0032 3180     		strh	r1, [r6]	@ movhi
 272              	.LVL13:
 273              	.LBE73:
 274              	.LBE78:
 275              	.LBB79:
 276              	.LBB76:
 522:Generated_Source\PSoC5/PWM_Steer.c ****         #endif /* (PWM_Steer_UsingFixedFunction) */
 277              		.loc 1 522 0
 278 0034 2A80     		strh	r2, [r5]	@ movhi
 279              	.LVL14:
 280              	.LBE76:
 281              	.LBE79:
 282              	.LBB80:
 283              	.LBB81:
 686:Generated_Source\PSoC5/PWM_Steer.c ****     }
 284              		.loc 1 686 0
 285 0036 0274     		strb	r2, [r0, #16]
 286              	.LVL15:
 287              	.LBE81:
 288              	.LBE80:
 167:Generated_Source\PSoC5/PWM_Steer.c ****             /* Use the interrupt output of the status register for IRQ output */
 289              		.loc 1 167 0
 290 0038 FFF7FEFF 		bl	CyEnterCriticalSection
 291              	.LVL16:
 169:Generated_Source\PSoC5/PWM_Steer.c **** 
 292              		.loc 1 169 0
 293 003c 2378     		ldrb	r3, [r4]	@ zero_extendqisi2
 294 003e 43F01003 		orr	r3, r3, #16
 295 0042 2370     		strb	r3, [r4]
 172:Generated_Source\PSoC5/PWM_Steer.c **** 
 296              		.loc 1 172 0
 297 0044 FFF7FEFF 		bl	CyExitCriticalSection
 298              	.LVL17:
 299              	.LBB82:
 300              	.LBB83:
 301              	.LBB84:
 302              	.LBB85:
 713:Generated_Source\PSoC5/PWM_Steer.c ****     }
 303              		.loc 1 713 0
 304 0048 0A4A     		ldr	r2, .L24+24
 305 004a 1378     		ldrb	r3, [r2]	@ zero_extendqisi2
 306              	.LBE85:
 307              	.LBE84:
ARM GAS  C:\Users\jon\AppData\Local\Temp\ccV7CjP2.s 			page 21


 455:Generated_Source\PSoC5/PWM_Steer.c ****             {
 308              		.loc 1 455 0
 309 004c D906     		lsls	r1, r3, #27
 310 004e 04D5     		bpl	.L15
 311              	.LBB87:
 312              	.LBB88:
 313              		.loc 1 792 0
 314 0050 0949     		ldr	r1, .L24+28
 315              	.L20:
 316 0052 0B88     		ldrh	r3, [r1]
 317              	.LBE88:
 318              	.LBE87:
 319              	.LBB89:
 320              	.LBB86:
 713:Generated_Source\PSoC5/PWM_Steer.c ****     }
 321              		.loc 1 713 0
 322 0054 1378     		ldrb	r3, [r2]	@ zero_extendqisi2
 323              	.LBE86:
 324              	.LBE89:
 455:Generated_Source\PSoC5/PWM_Steer.c ****             {
 325              		.loc 1 455 0
 326 0056 DB06     		lsls	r3, r3, #27
 327 0058 FBD4     		bmi	.L20
 328              	.L15:
 329 005a F8BD     		pop	{r3, r4, r5, r6, r7, pc}
 330              	.L25:
 331              		.align	2
 332              	.L24:
 333 005c 7D640040 		.word	1073767549
 334 0060 9C640040 		.word	1073767580
 335 0064 9D640040 		.word	1073767581
 336 0068 18680040 		.word	1073768472
 337 006c 98680040 		.word	1073768600
 338 0070 58680040 		.word	1073768536
 339 0074 6D640040 		.word	1073767533
 340 0078 B8680040 		.word	1073768632
 341              	.LBE83:
 342              	.LBE82:
 343              		.cfi_endproc
 344              	.LFE1:
 345              		.size	PWM_Steer_Init, .-PWM_Steer_Init
 346              		.section	.text.PWM_Steer_Enable,"ax",%progbits
 347              		.align	2
 348              		.global	PWM_Steer_Enable
 349              		.thumb
 350              		.thumb_func
 351              		.type	PWM_Steer_Enable, %function
 352              	PWM_Steer_Enable:
 353              	.LFB2:
 200:Generated_Source\PSoC5/PWM_Steer.c ****     /* Globally Enable the Fixed Function Block chosen */
 354              		.loc 1 200 0
 355              		.cfi_startproc
 356              		@ args = 0, pretend = 0, frame = 0
 357              		@ frame_needed = 0, uses_anonymous_args = 0
 358              		@ link register save eliminated.
 209:Generated_Source\PSoC5/PWM_Steer.c ****     #endif /* (PWM_Steer_UseControl || PWM_Steer_UsingFixedFunction) */
 359              		.loc 1 209 0
ARM GAS  C:\Users\jon\AppData\Local\Temp\ccV7CjP2.s 			page 22


 360 0000 024A     		ldr	r2, .L27
 361 0002 1378     		ldrb	r3, [r2]	@ zero_extendqisi2
 362 0004 43F08003 		orr	r3, r3, #128
 363 0008 1370     		strb	r3, [r2]
 364 000a 7047     		bx	lr
 365              	.L28:
 366              		.align	2
 367              	.L27:
 368 000c 7D640040 		.word	1073767549
 369              		.cfi_endproc
 370              	.LFE2:
 371              		.size	PWM_Steer_Enable, .-PWM_Steer_Enable
 372              		.section	.text.PWM_Steer_Stop,"ax",%progbits
 373              		.align	2
 374              		.global	PWM_Steer_Stop
 375              		.thumb
 376              		.thumb_func
 377              		.type	PWM_Steer_Stop, %function
 378              	PWM_Steer_Stop:
 379              	.LFB3:
 234:Generated_Source\PSoC5/PWM_Steer.c ****     #if (PWM_Steer_UseControl || PWM_Steer_UsingFixedFunction)
 380              		.loc 1 234 0
 381              		.cfi_startproc
 382              		@ args = 0, pretend = 0, frame = 0
 383              		@ frame_needed = 0, uses_anonymous_args = 0
 384              		@ link register save eliminated.
 236:Generated_Source\PSoC5/PWM_Steer.c ****     #endif /* (PWM_Steer_UseControl || PWM_Steer_UsingFixedFunction) */
 385              		.loc 1 236 0
 386 0000 024A     		ldr	r2, .L30
 387 0002 1378     		ldrb	r3, [r2]	@ zero_extendqisi2
 388 0004 03F07F03 		and	r3, r3, #127
 389 0008 1370     		strb	r3, [r2]
 390 000a 7047     		bx	lr
 391              	.L31:
 392              		.align	2
 393              	.L30:
 394 000c 7D640040 		.word	1073767549
 395              		.cfi_endproc
 396              	.LFE3:
 397              		.size	PWM_Steer_Stop, .-PWM_Steer_Stop
 398              		.section	.text.PWM_Steer_WriteCounter,"ax",%progbits
 399              		.align	2
 400              		.global	PWM_Steer_WriteCounter
 401              		.thumb
 402              		.thumb_func
 403              		.type	PWM_Steer_WriteCounter, %function
 404              	PWM_Steer_WriteCounter:
 405              	.LFB4:
 405:Generated_Source\PSoC5/PWM_Steer.c ****         CY_SET_REG16(PWM_Steer_COUNTER_LSB_PTR, counter);
 406              		.loc 1 405 0
 407              		.cfi_startproc
 408              		@ args = 0, pretend = 0, frame = 0
 409              		@ frame_needed = 0, uses_anonymous_args = 0
 410              		@ link register save eliminated.
 411              	.LVL18:
 406:Generated_Source\PSoC5/PWM_Steer.c ****     }
 412              		.loc 1 406 0
ARM GAS  C:\Users\jon\AppData\Local\Temp\ccV7CjP2.s 			page 23


 413 0000 014B     		ldr	r3, .L33
 414 0002 1880     		strh	r0, [r3]	@ movhi
 415 0004 7047     		bx	lr
 416              	.L34:
 417 0006 00BF     		.align	2
 418              	.L33:
 419 0008 18680040 		.word	1073768472
 420              		.cfi_endproc
 421              	.LFE4:
 422              		.size	PWM_Steer_WriteCounter, .-PWM_Steer_WriteCounter
 423              		.section	.text.PWM_Steer_ReadCounter,"ax",%progbits
 424              		.align	2
 425              		.global	PWM_Steer_ReadCounter
 426              		.thumb
 427              		.thumb_func
 428              		.type	PWM_Steer_ReadCounter, %function
 429              	PWM_Steer_ReadCounter:
 430              	.LFB5:
 426:Generated_Source\PSoC5/PWM_Steer.c ****         /* Force capture by reading Accumulator */
 431              		.loc 1 426 0
 432              		.cfi_startproc
 433              		@ args = 0, pretend = 0, frame = 0
 434              		@ frame_needed = 0, uses_anonymous_args = 0
 435              		@ link register save eliminated.
 433:Generated_Source\PSoC5/PWM_Steer.c ****     }
 436              		.loc 1 433 0
 437 0000 024B     		ldr	r3, .L36
 430:Generated_Source\PSoC5/PWM_Steer.c **** 
 438              		.loc 1 430 0
 439 0002 034A     		ldr	r2, .L36+4
 440 0004 1278     		ldrb	r2, [r2]	@ zero_extendqisi2
 433:Generated_Source\PSoC5/PWM_Steer.c ****     }
 441              		.loc 1 433 0
 442 0006 1888     		ldrh	r0, [r3]
 434:Generated_Source\PSoC5/PWM_Steer.c **** 
 443              		.loc 1 434 0
 444 0008 80B2     		uxth	r0, r0
 445 000a 7047     		bx	lr
 446              	.L37:
 447              		.align	2
 448              	.L36:
 449 000c B8680040 		.word	1073768632
 450 0010 1C640040 		.word	1073767452
 451              		.cfi_endproc
 452              	.LFE5:
 453              		.size	PWM_Steer_ReadCounter, .-PWM_Steer_ReadCounter
 454              		.section	.text.PWM_Steer_ClearFIFO,"ax",%progbits
 455              		.align	2
 456              		.global	PWM_Steer_ClearFIFO
 457              		.thumb
 458              		.thumb_func
 459              		.type	PWM_Steer_ClearFIFO, %function
 460              	PWM_Steer_ClearFIFO:
 461              	.LFB6:
 454:Generated_Source\PSoC5/PWM_Steer.c ****             while(0u != (PWM_Steer_ReadStatusRegister() & PWM_Steer_STATUS_FIFONEMPTY))
 462              		.loc 1 454 0
 463              		.cfi_startproc
ARM GAS  C:\Users\jon\AppData\Local\Temp\ccV7CjP2.s 			page 24


 464              		@ args = 0, pretend = 0, frame = 0
 465              		@ frame_needed = 0, uses_anonymous_args = 0
 466              		@ link register save eliminated.
 467              	.LBB90:
 468              	.LBB91:
 713:Generated_Source\PSoC5/PWM_Steer.c ****     }
 469              		.loc 1 713 0
 470 0000 044A     		ldr	r2, .L46
 471 0002 1378     		ldrb	r3, [r2]	@ zero_extendqisi2
 472              	.LBE91:
 473              	.LBE90:
 455:Generated_Source\PSoC5/PWM_Steer.c ****             {
 474              		.loc 1 455 0
 475 0004 D906     		lsls	r1, r3, #27
 476 0006 04D5     		bpl	.L38
 477              	.LBB93:
 478              	.LBB94:
 479              		.loc 1 792 0
 480 0008 0349     		ldr	r1, .L46+4
 481              	.L43:
 482 000a 0B88     		ldrh	r3, [r1]
 483              	.LBE94:
 484              	.LBE93:
 485              	.LBB95:
 486              	.LBB92:
 713:Generated_Source\PSoC5/PWM_Steer.c ****     }
 487              		.loc 1 713 0
 488 000c 1378     		ldrb	r3, [r2]	@ zero_extendqisi2
 489              	.LBE92:
 490              	.LBE95:
 455:Generated_Source\PSoC5/PWM_Steer.c ****             {
 491              		.loc 1 455 0
 492 000e DB06     		lsls	r3, r3, #27
 493 0010 FBD4     		bmi	.L43
 494              	.L38:
 495 0012 7047     		bx	lr
 496              	.L47:
 497              		.align	2
 498              	.L46:
 499 0014 6D640040 		.word	1073767533
 500 0018 B8680040 		.word	1073768632
 501              		.cfi_endproc
 502              	.LFE6:
 503              		.size	PWM_Steer_ClearFIFO, .-PWM_Steer_ClearFIFO
 504              		.section	.text.PWM_Steer_WritePeriod,"ax",%progbits
 505              		.align	2
 506              		.global	PWM_Steer_WritePeriod
 507              		.thumb
 508              		.thumb_func
 509              		.type	PWM_Steer_WritePeriod, %function
 510              	PWM_Steer_WritePeriod:
 511              	.LFB7:
 483:Generated_Source\PSoC5/PWM_Steer.c ****     #if(PWM_Steer_UsingFixedFunction)
 512              		.loc 1 483 0
 513              		.cfi_startproc
 514              		@ args = 0, pretend = 0, frame = 0
 515              		@ frame_needed = 0, uses_anonymous_args = 0
ARM GAS  C:\Users\jon\AppData\Local\Temp\ccV7CjP2.s 			page 25


 516              		@ link register save eliminated.
 517              	.LVL19:
 487:Generated_Source\PSoC5/PWM_Steer.c ****     #endif /* (PWM_Steer_UsingFixedFunction) */
 518              		.loc 1 487 0
 519 0000 014B     		ldr	r3, .L49
 520 0002 1880     		strh	r0, [r3]	@ movhi
 521 0004 7047     		bx	lr
 522              	.L50:
 523 0006 00BF     		.align	2
 524              	.L49:
 525 0008 98680040 		.word	1073768600
 526              		.cfi_endproc
 527              	.LFE7:
 528              		.size	PWM_Steer_WritePeriod, .-PWM_Steer_WritePeriod
 529              		.section	.text.PWM_Steer_WriteCompare,"ax",%progbits
 530              		.align	2
 531              		.global	PWM_Steer_WriteCompare
 532              		.thumb
 533              		.thumb_func
 534              		.type	PWM_Steer_WriteCompare, %function
 535              	PWM_Steer_WriteCompare:
 536              	.LFB8:
 518:Generated_Source\PSoC5/PWM_Steer.c ****         #if(PWM_Steer_UsingFixedFunction)
 537              		.loc 1 518 0
 538              		.cfi_startproc
 539              		@ args = 0, pretend = 0, frame = 0
 540              		@ frame_needed = 0, uses_anonymous_args = 0
 541              		@ link register save eliminated.
 542              	.LVL20:
 522:Generated_Source\PSoC5/PWM_Steer.c ****         #endif /* (PWM_Steer_UsingFixedFunction) */
 543              		.loc 1 522 0
 544 0000 014B     		ldr	r3, .L52
 545 0002 1880     		strh	r0, [r3]	@ movhi
 546 0004 7047     		bx	lr
 547              	.L53:
 548 0006 00BF     		.align	2
 549              	.L52:
 550 0008 58680040 		.word	1073768536
 551              		.cfi_endproc
 552              	.LFE8:
 553              		.size	PWM_Steer_WriteCompare, .-PWM_Steer_WriteCompare
 554              		.section	.text.PWM_Steer_SetInterruptMode,"ax",%progbits
 555              		.align	2
 556              		.global	PWM_Steer_SetInterruptMode
 557              		.thumb
 558              		.thumb_func
 559              		.type	PWM_Steer_SetInterruptMode, %function
 560              	PWM_Steer_SetInterruptMode:
 561              	.LFB9:
 685:Generated_Source\PSoC5/PWM_Steer.c ****         CY_SET_REG8(PWM_Steer_STATUS_MASK_PTR, interruptMode);
 562              		.loc 1 685 0
 563              		.cfi_startproc
 564              		@ args = 0, pretend = 0, frame = 0
 565              		@ frame_needed = 0, uses_anonymous_args = 0
 566              		@ link register save eliminated.
 567              	.LVL21:
 686:Generated_Source\PSoC5/PWM_Steer.c ****     }
ARM GAS  C:\Users\jon\AppData\Local\Temp\ccV7CjP2.s 			page 26


 568              		.loc 1 686 0
 569 0000 014B     		ldr	r3, .L55
 570 0002 1870     		strb	r0, [r3]
 571 0004 7047     		bx	lr
 572              	.L56:
 573 0006 00BF     		.align	2
 574              	.L55:
 575 0008 8D640040 		.word	1073767565
 576              		.cfi_endproc
 577              	.LFE9:
 578              		.size	PWM_Steer_SetInterruptMode, .-PWM_Steer_SetInterruptMode
 579              		.section	.text.PWM_Steer_ReadStatusRegister,"ax",%progbits
 580              		.align	2
 581              		.global	PWM_Steer_ReadStatusRegister
 582              		.thumb
 583              		.thumb_func
 584              		.type	PWM_Steer_ReadStatusRegister, %function
 585              	PWM_Steer_ReadStatusRegister:
 586              	.LFB10:
 712:Generated_Source\PSoC5/PWM_Steer.c ****         return (CY_GET_REG8(PWM_Steer_STATUS_PTR));
 587              		.loc 1 712 0
 588              		.cfi_startproc
 589              		@ args = 0, pretend = 0, frame = 0
 590              		@ frame_needed = 0, uses_anonymous_args = 0
 591              		@ link register save eliminated.
 713:Generated_Source\PSoC5/PWM_Steer.c ****     }
 592              		.loc 1 713 0
 593 0000 014B     		ldr	r3, .L58
 594 0002 1878     		ldrb	r0, [r3]	@ zero_extendqisi2
 714:Generated_Source\PSoC5/PWM_Steer.c **** 
 595              		.loc 1 714 0
 596 0004 7047     		bx	lr
 597              	.L59:
 598 0006 00BF     		.align	2
 599              	.L58:
 600 0008 6D640040 		.word	1073767533
 601              		.cfi_endproc
 602              	.LFE10:
 603              		.size	PWM_Steer_ReadStatusRegister, .-PWM_Steer_ReadStatusRegister
 604              		.section	.text.PWM_Steer_ReadControlRegister,"ax",%progbits
 605              		.align	2
 606              		.global	PWM_Steer_ReadControlRegister
 607              		.thumb
 608              		.thumb_func
 609              		.type	PWM_Steer_ReadControlRegister, %function
 610              	PWM_Steer_ReadControlRegister:
 611              	.LFB11:
 738:Generated_Source\PSoC5/PWM_Steer.c ****         uint8 result;
 612              		.loc 1 738 0
 613              		.cfi_startproc
 614              		@ args = 0, pretend = 0, frame = 0
 615              		@ frame_needed = 0, uses_anonymous_args = 0
 616              		@ link register save eliminated.
 741:Generated_Source\PSoC5/PWM_Steer.c ****         return (result);
 617              		.loc 1 741 0
 618 0000 014B     		ldr	r3, .L61
 619 0002 1878     		ldrb	r0, [r3]	@ zero_extendqisi2
ARM GAS  C:\Users\jon\AppData\Local\Temp\ccV7CjP2.s 			page 27


 620              	.LVL22:
 743:Generated_Source\PSoC5/PWM_Steer.c **** 
 621              		.loc 1 743 0
 622 0004 7047     		bx	lr
 623              	.L62:
 624 0006 00BF     		.align	2
 625              	.L61:
 626 0008 7D640040 		.word	1073767549
 627              		.cfi_endproc
 628              	.LFE11:
 629              		.size	PWM_Steer_ReadControlRegister, .-PWM_Steer_ReadControlRegister
 630              		.section	.text.PWM_Steer_WriteControlRegister,"ax",%progbits
 631              		.align	2
 632              		.global	PWM_Steer_WriteControlRegister
 633              		.thumb
 634              		.thumb_func
 635              		.type	PWM_Steer_WriteControlRegister, %function
 636              	PWM_Steer_WriteControlRegister:
 637              	.LFB12:
 766:Generated_Source\PSoC5/PWM_Steer.c ****         CY_SET_REG8(PWM_Steer_CONTROL_PTR, control);
 638              		.loc 1 766 0
 639              		.cfi_startproc
 640              		@ args = 0, pretend = 0, frame = 0
 641              		@ frame_needed = 0, uses_anonymous_args = 0
 642              		@ link register save eliminated.
 643              	.LVL23:
 767:Generated_Source\PSoC5/PWM_Steer.c ****     }
 644              		.loc 1 767 0
 645 0000 014B     		ldr	r3, .L64
 646 0002 1870     		strb	r0, [r3]
 647 0004 7047     		bx	lr
 648              	.L65:
 649 0006 00BF     		.align	2
 650              	.L64:
 651 0008 7D640040 		.word	1073767549
 652              		.cfi_endproc
 653              	.LFE12:
 654              		.size	PWM_Steer_WriteControlRegister, .-PWM_Steer_WriteControlRegister
 655              		.section	.text.PWM_Steer_ReadCapture,"ax",%progbits
 656              		.align	2
 657              		.global	PWM_Steer_ReadCapture
 658              		.thumb
 659              		.thumb_func
 660              		.type	PWM_Steer_ReadCapture, %function
 661              	PWM_Steer_ReadCapture:
 662              	.LFB13:
 791:Generated_Source\PSoC5/PWM_Steer.c ****         return (CY_GET_REG16(PWM_Steer_CAPTURE_LSB_PTR));
 663              		.loc 1 791 0
 664              		.cfi_startproc
 665              		@ args = 0, pretend = 0, frame = 0
 666              		@ frame_needed = 0, uses_anonymous_args = 0
 667              		@ link register save eliminated.
 668              		.loc 1 792 0
 669 0000 014B     		ldr	r3, .L67
 670 0002 1888     		ldrh	r0, [r3]
 793:Generated_Source\PSoC5/PWM_Steer.c ****     }
 671              		.loc 1 793 0
ARM GAS  C:\Users\jon\AppData\Local\Temp\ccV7CjP2.s 			page 28


 672 0004 80B2     		uxth	r0, r0
 673 0006 7047     		bx	lr
 674              	.L68:
 675              		.align	2
 676              	.L67:
 677 0008 B8680040 		.word	1073768632
 678              		.cfi_endproc
 679              	.LFE13:
 680              		.size	PWM_Steer_ReadCapture, .-PWM_Steer_ReadCapture
 681              		.section	.text.PWM_Steer_ReadCompare,"ax",%progbits
 682              		.align	2
 683              		.global	PWM_Steer_ReadCompare
 684              		.thumb
 685              		.thumb_func
 686              		.type	PWM_Steer_ReadCompare, %function
 687              	PWM_Steer_ReadCompare:
 688              	.LFB14:
 794:Generated_Source\PSoC5/PWM_Steer.c **** 
 795:Generated_Source\PSoC5/PWM_Steer.c **** #endif /* (!PWM_Steer_UsingFixedFunction) */
 796:Generated_Source\PSoC5/PWM_Steer.c **** 
 797:Generated_Source\PSoC5/PWM_Steer.c **** 
 798:Generated_Source\PSoC5/PWM_Steer.c **** #if (PWM_Steer_UseOneCompareMode)
 799:Generated_Source\PSoC5/PWM_Steer.c **** 
 800:Generated_Source\PSoC5/PWM_Steer.c **** 
 801:Generated_Source\PSoC5/PWM_Steer.c ****     /*******************************************************************************
 802:Generated_Source\PSoC5/PWM_Steer.c ****     * Function Name: PWM_Steer_ReadCompare
 803:Generated_Source\PSoC5/PWM_Steer.c ****     ********************************************************************************
 804:Generated_Source\PSoC5/PWM_Steer.c ****     *
 805:Generated_Source\PSoC5/PWM_Steer.c ****     * Summary:
 806:Generated_Source\PSoC5/PWM_Steer.c ****     *  Reads the compare value for the compare output when the PWM Mode parameter is
 807:Generated_Source\PSoC5/PWM_Steer.c ****     *  set to Dither mode, Center Aligned mode, or One Output mode.
 808:Generated_Source\PSoC5/PWM_Steer.c ****     *
 809:Generated_Source\PSoC5/PWM_Steer.c ****     * Parameters:
 810:Generated_Source\PSoC5/PWM_Steer.c ****     *  None
 811:Generated_Source\PSoC5/PWM_Steer.c ****     *
 812:Generated_Source\PSoC5/PWM_Steer.c ****     * Return:
 813:Generated_Source\PSoC5/PWM_Steer.c ****     *  uint8/uint16: Current compare value
 814:Generated_Source\PSoC5/PWM_Steer.c ****     *
 815:Generated_Source\PSoC5/PWM_Steer.c ****     *******************************************************************************/
 816:Generated_Source\PSoC5/PWM_Steer.c ****     uint16 PWM_Steer_ReadCompare(void) 
 817:Generated_Source\PSoC5/PWM_Steer.c ****     {
 689              		.loc 1 817 0
 690              		.cfi_startproc
 691              		@ args = 0, pretend = 0, frame = 0
 692              		@ frame_needed = 0, uses_anonymous_args = 0
 693              		@ link register save eliminated.
 818:Generated_Source\PSoC5/PWM_Steer.c ****         #if(PWM_Steer_UsingFixedFunction)
 819:Generated_Source\PSoC5/PWM_Steer.c ****             return ((uint16)CY_GET_REG16(PWM_Steer_COMPARE1_LSB_PTR));
 820:Generated_Source\PSoC5/PWM_Steer.c ****         #else
 821:Generated_Source\PSoC5/PWM_Steer.c ****             return (CY_GET_REG16(PWM_Steer_COMPARE1_LSB_PTR));
 694              		.loc 1 821 0
 695 0000 014B     		ldr	r3, .L70
 696 0002 1888     		ldrh	r0, [r3]
 822:Generated_Source\PSoC5/PWM_Steer.c ****         #endif /* (PWM_Steer_UsingFixedFunction) */
 823:Generated_Source\PSoC5/PWM_Steer.c ****     }
 697              		.loc 1 823 0
 698 0004 80B2     		uxth	r0, r0
ARM GAS  C:\Users\jon\AppData\Local\Temp\ccV7CjP2.s 			page 29


 699 0006 7047     		bx	lr
 700              	.L71:
 701              		.align	2
 702              	.L70:
 703 0008 58680040 		.word	1073768536
 704              		.cfi_endproc
 705              	.LFE14:
 706              		.size	PWM_Steer_ReadCompare, .-PWM_Steer_ReadCompare
 707              		.section	.text.PWM_Steer_ReadPeriod,"ax",%progbits
 708              		.align	2
 709              		.global	PWM_Steer_ReadPeriod
 710              		.thumb
 711              		.thumb_func
 712              		.type	PWM_Steer_ReadPeriod, %function
 713              	PWM_Steer_ReadPeriod:
 714              	.LFB15:
 824:Generated_Source\PSoC5/PWM_Steer.c **** 
 825:Generated_Source\PSoC5/PWM_Steer.c **** #else
 826:Generated_Source\PSoC5/PWM_Steer.c **** 
 827:Generated_Source\PSoC5/PWM_Steer.c **** 
 828:Generated_Source\PSoC5/PWM_Steer.c ****     /*******************************************************************************
 829:Generated_Source\PSoC5/PWM_Steer.c ****     * Function Name: PWM_Steer_ReadCompare1
 830:Generated_Source\PSoC5/PWM_Steer.c ****     ********************************************************************************
 831:Generated_Source\PSoC5/PWM_Steer.c ****     *
 832:Generated_Source\PSoC5/PWM_Steer.c ****     * Summary:
 833:Generated_Source\PSoC5/PWM_Steer.c ****     *  Reads the compare value for the compare1 output.
 834:Generated_Source\PSoC5/PWM_Steer.c ****     *
 835:Generated_Source\PSoC5/PWM_Steer.c ****     * Parameters:
 836:Generated_Source\PSoC5/PWM_Steer.c ****     *  None
 837:Generated_Source\PSoC5/PWM_Steer.c ****     *
 838:Generated_Source\PSoC5/PWM_Steer.c ****     * Return:
 839:Generated_Source\PSoC5/PWM_Steer.c ****     *  uint8/uint16: Current compare value.
 840:Generated_Source\PSoC5/PWM_Steer.c ****     *
 841:Generated_Source\PSoC5/PWM_Steer.c ****     *******************************************************************************/
 842:Generated_Source\PSoC5/PWM_Steer.c ****     uint16 PWM_Steer_ReadCompare1(void) 
 843:Generated_Source\PSoC5/PWM_Steer.c ****     {
 844:Generated_Source\PSoC5/PWM_Steer.c ****         return (CY_GET_REG16(PWM_Steer_COMPARE1_LSB_PTR));
 845:Generated_Source\PSoC5/PWM_Steer.c ****     }
 846:Generated_Source\PSoC5/PWM_Steer.c **** 
 847:Generated_Source\PSoC5/PWM_Steer.c **** 
 848:Generated_Source\PSoC5/PWM_Steer.c ****     /*******************************************************************************
 849:Generated_Source\PSoC5/PWM_Steer.c ****     * Function Name: PWM_Steer_ReadCompare2
 850:Generated_Source\PSoC5/PWM_Steer.c ****     ********************************************************************************
 851:Generated_Source\PSoC5/PWM_Steer.c ****     *
 852:Generated_Source\PSoC5/PWM_Steer.c ****     * Summary:
 853:Generated_Source\PSoC5/PWM_Steer.c ****     *  Reads the compare value for the compare2 output.
 854:Generated_Source\PSoC5/PWM_Steer.c ****     *
 855:Generated_Source\PSoC5/PWM_Steer.c ****     * Parameters:
 856:Generated_Source\PSoC5/PWM_Steer.c ****     *  None
 857:Generated_Source\PSoC5/PWM_Steer.c ****     *
 858:Generated_Source\PSoC5/PWM_Steer.c ****     * Return:
 859:Generated_Source\PSoC5/PWM_Steer.c ****     *  uint8/uint16: Current compare value.
 860:Generated_Source\PSoC5/PWM_Steer.c ****     *
 861:Generated_Source\PSoC5/PWM_Steer.c ****     *******************************************************************************/
 862:Generated_Source\PSoC5/PWM_Steer.c ****     uint16 PWM_Steer_ReadCompare2(void) 
 863:Generated_Source\PSoC5/PWM_Steer.c ****     {
 864:Generated_Source\PSoC5/PWM_Steer.c ****         return (CY_GET_REG16(PWM_Steer_COMPARE2_LSB_PTR));
ARM GAS  C:\Users\jon\AppData\Local\Temp\ccV7CjP2.s 			page 30


 865:Generated_Source\PSoC5/PWM_Steer.c ****     }
 866:Generated_Source\PSoC5/PWM_Steer.c **** 
 867:Generated_Source\PSoC5/PWM_Steer.c **** #endif /* (PWM_Steer_UseOneCompareMode) */
 868:Generated_Source\PSoC5/PWM_Steer.c **** 
 869:Generated_Source\PSoC5/PWM_Steer.c **** 
 870:Generated_Source\PSoC5/PWM_Steer.c **** /*******************************************************************************
 871:Generated_Source\PSoC5/PWM_Steer.c **** * Function Name: PWM_Steer_ReadPeriod
 872:Generated_Source\PSoC5/PWM_Steer.c **** ********************************************************************************
 873:Generated_Source\PSoC5/PWM_Steer.c **** *
 874:Generated_Source\PSoC5/PWM_Steer.c **** * Summary:
 875:Generated_Source\PSoC5/PWM_Steer.c **** *  Reads the period value used by the PWM hardware.
 876:Generated_Source\PSoC5/PWM_Steer.c **** *
 877:Generated_Source\PSoC5/PWM_Steer.c **** * Parameters:
 878:Generated_Source\PSoC5/PWM_Steer.c **** *  None
 879:Generated_Source\PSoC5/PWM_Steer.c **** *
 880:Generated_Source\PSoC5/PWM_Steer.c **** * Return:
 881:Generated_Source\PSoC5/PWM_Steer.c **** *  uint8/16: Period value
 882:Generated_Source\PSoC5/PWM_Steer.c **** *
 883:Generated_Source\PSoC5/PWM_Steer.c **** *******************************************************************************/
 884:Generated_Source\PSoC5/PWM_Steer.c **** uint16 PWM_Steer_ReadPeriod(void) 
 885:Generated_Source\PSoC5/PWM_Steer.c **** {
 715              		.loc 1 885 0
 716              		.cfi_startproc
 717              		@ args = 0, pretend = 0, frame = 0
 718              		@ frame_needed = 0, uses_anonymous_args = 0
 719              		@ link register save eliminated.
 886:Generated_Source\PSoC5/PWM_Steer.c ****     #if(PWM_Steer_UsingFixedFunction)
 887:Generated_Source\PSoC5/PWM_Steer.c ****         return ((uint16)CY_GET_REG16(PWM_Steer_PERIOD_LSB_PTR));
 888:Generated_Source\PSoC5/PWM_Steer.c ****     #else
 889:Generated_Source\PSoC5/PWM_Steer.c ****         return (CY_GET_REG16(PWM_Steer_PERIOD_LSB_PTR));
 720              		.loc 1 889 0
 721 0000 014B     		ldr	r3, .L73
 722 0002 1888     		ldrh	r0, [r3]
 890:Generated_Source\PSoC5/PWM_Steer.c ****     #endif /* (PWM_Steer_UsingFixedFunction) */
 891:Generated_Source\PSoC5/PWM_Steer.c **** }
 723              		.loc 1 891 0
 724 0004 80B2     		uxth	r0, r0
 725 0006 7047     		bx	lr
 726              	.L74:
 727              		.align	2
 728              	.L73:
 729 0008 98680040 		.word	1073768600
 730              		.cfi_endproc
 731              	.LFE15:
 732              		.size	PWM_Steer_ReadPeriod, .-PWM_Steer_ReadPeriod
 733              		.global	PWM_Steer_initVar
 734              		.bss
 735              		.set	.LANCHOR0,. + 0
 736              		.type	PWM_Steer_initVar, %object
 737              		.size	PWM_Steer_initVar, 1
 738              	PWM_Steer_initVar:
 739 0000 00       		.space	1
 740              		.text
 741              	.Letext0:
 742              		.file 2 "Generated_Source\\PSoC5\\cytypes.h"
 743              		.file 3 "Generated_Source\\PSoC5\\CyLib.h"