ARM GAS  C:\Users\jon\AppData\Local\Temp\ccwwK8t8.s 			page 1


   1              		.syntax unified
   2              		.cpu cortex-m3
   3              		.fpu softvfp
   4              		.eabi_attribute 20, 1
   5              		.eabi_attribute 21, 1
   6              		.eabi_attribute 23, 3
   7              		.eabi_attribute 24, 1
   8              		.eabi_attribute 25, 1
   9              		.eabi_attribute 26, 1
  10              		.eabi_attribute 30, 2
  11              		.eabi_attribute 34, 1
  12              		.eabi_attribute 18, 4
  13              		.thumb
  14              		.syntax unified
  15              		.file	"PWM_Steer_PM.c"
  16              		.text
  17              	.Ltext0:
  18              		.cfi_sections	.debug_frame
  19              		.section	.text.PWM_Steer_SaveConfig,"ax",%progbits
  20              		.align	2
  21              		.global	PWM_Steer_SaveConfig
  22              		.thumb
  23              		.thumb_func
  24              		.type	PWM_Steer_SaveConfig, %function
  25              	PWM_Steer_SaveConfig:
  26              	.LFB0:
  27              		.file 1 "Generated_Source\\PSoC5\\PWM_Steer_PM.c"
   1:Generated_Source\PSoC5/PWM_Steer_PM.c **** /*******************************************************************************
   2:Generated_Source\PSoC5/PWM_Steer_PM.c **** * File Name: PWM_Steer_PM.c
   3:Generated_Source\PSoC5/PWM_Steer_PM.c **** * Version 3.30
   4:Generated_Source\PSoC5/PWM_Steer_PM.c **** *
   5:Generated_Source\PSoC5/PWM_Steer_PM.c **** * Description:
   6:Generated_Source\PSoC5/PWM_Steer_PM.c **** *  This file provides the power management source code to API for the
   7:Generated_Source\PSoC5/PWM_Steer_PM.c **** *  PWM.
   8:Generated_Source\PSoC5/PWM_Steer_PM.c **** *
   9:Generated_Source\PSoC5/PWM_Steer_PM.c **** * Note:
  10:Generated_Source\PSoC5/PWM_Steer_PM.c **** *
  11:Generated_Source\PSoC5/PWM_Steer_PM.c **** ********************************************************************************
  12:Generated_Source\PSoC5/PWM_Steer_PM.c **** * Copyright 2008-2014, Cypress Semiconductor Corporation.  All rights reserved.
  13:Generated_Source\PSoC5/PWM_Steer_PM.c **** * You may use this file only in accordance with the license, terms, conditions,
  14:Generated_Source\PSoC5/PWM_Steer_PM.c **** * disclaimers, and limitations in the end user license agreement accompanying
  15:Generated_Source\PSoC5/PWM_Steer_PM.c **** * the software package with which this file was provided.
  16:Generated_Source\PSoC5/PWM_Steer_PM.c **** *******************************************************************************/
  17:Generated_Source\PSoC5/PWM_Steer_PM.c **** 
  18:Generated_Source\PSoC5/PWM_Steer_PM.c **** #include "PWM_Steer.h"
  19:Generated_Source\PSoC5/PWM_Steer_PM.c **** 
  20:Generated_Source\PSoC5/PWM_Steer_PM.c **** static PWM_Steer_backupStruct PWM_Steer_backup;
  21:Generated_Source\PSoC5/PWM_Steer_PM.c **** 
  22:Generated_Source\PSoC5/PWM_Steer_PM.c **** 
  23:Generated_Source\PSoC5/PWM_Steer_PM.c **** /*******************************************************************************
  24:Generated_Source\PSoC5/PWM_Steer_PM.c **** * Function Name: PWM_Steer_SaveConfig
  25:Generated_Source\PSoC5/PWM_Steer_PM.c **** ********************************************************************************
  26:Generated_Source\PSoC5/PWM_Steer_PM.c **** *
  27:Generated_Source\PSoC5/PWM_Steer_PM.c **** * Summary:
  28:Generated_Source\PSoC5/PWM_Steer_PM.c **** *  Saves the current user configuration of the component.
  29:Generated_Source\PSoC5/PWM_Steer_PM.c **** *
  30:Generated_Source\PSoC5/PWM_Steer_PM.c **** * Parameters:
ARM GAS  C:\Users\jon\AppData\Local\Temp\ccwwK8t8.s 			page 2


  31:Generated_Source\PSoC5/PWM_Steer_PM.c **** *  None
  32:Generated_Source\PSoC5/PWM_Steer_PM.c **** *
  33:Generated_Source\PSoC5/PWM_Steer_PM.c **** * Return:
  34:Generated_Source\PSoC5/PWM_Steer_PM.c **** *  None
  35:Generated_Source\PSoC5/PWM_Steer_PM.c **** *
  36:Generated_Source\PSoC5/PWM_Steer_PM.c **** * Global variables:
  37:Generated_Source\PSoC5/PWM_Steer_PM.c **** *  PWM_Steer_backup:  Variables of this global structure are modified to
  38:Generated_Source\PSoC5/PWM_Steer_PM.c **** *  store the values of non retention configuration registers when Sleep() API is
  39:Generated_Source\PSoC5/PWM_Steer_PM.c **** *  called.
  40:Generated_Source\PSoC5/PWM_Steer_PM.c **** *
  41:Generated_Source\PSoC5/PWM_Steer_PM.c **** *******************************************************************************/
  42:Generated_Source\PSoC5/PWM_Steer_PM.c **** void PWM_Steer_SaveConfig(void) 
  43:Generated_Source\PSoC5/PWM_Steer_PM.c **** {
  28              		.loc 1 43 0
  29              		.cfi_startproc
  30              		@ args = 0, pretend = 0, frame = 0
  31              		@ frame_needed = 0, uses_anonymous_args = 0
  32 0000 10B5     		push	{r4, lr}
  33              		.cfi_def_cfa_offset 8
  34              		.cfi_offset 4, -8
  35              		.cfi_offset 14, -4
  44:Generated_Source\PSoC5/PWM_Steer_PM.c **** 
  45:Generated_Source\PSoC5/PWM_Steer_PM.c ****     #if(!PWM_Steer_UsingFixedFunction)
  46:Generated_Source\PSoC5/PWM_Steer_PM.c ****         #if(!PWM_Steer_PWMModeIsCenterAligned)
  47:Generated_Source\PSoC5/PWM_Steer_PM.c ****             PWM_Steer_backup.PWMPeriod = PWM_Steer_ReadPeriod();
  36              		.loc 1 47 0
  37 0002 FFF7FEFF 		bl	PWM_Steer_ReadPeriod
  38              	.LVL0:
  39 0006 064C     		ldr	r4, .L3
  40 0008 A080     		strh	r0, [r4, #4]	@ movhi
  48:Generated_Source\PSoC5/PWM_Steer_PM.c ****         #endif /* (!PWM_Steer_PWMModeIsCenterAligned) */
  49:Generated_Source\PSoC5/PWM_Steer_PM.c ****         PWM_Steer_backup.PWMUdb = PWM_Steer_ReadCounter();
  41              		.loc 1 49 0
  42 000a FFF7FEFF 		bl	PWM_Steer_ReadCounter
  43              	.LVL1:
  50:Generated_Source\PSoC5/PWM_Steer_PM.c ****         #if (PWM_Steer_UseStatus)
  51:Generated_Source\PSoC5/PWM_Steer_PM.c ****             PWM_Steer_backup.InterruptMaskValue = PWM_Steer_STATUS_MASK;
  44              		.loc 1 51 0
  45 000e 054B     		ldr	r3, .L3+4
  49:Generated_Source\PSoC5/PWM_Steer_PM.c ****         #if (PWM_Steer_UseStatus)
  46              		.loc 1 49 0
  47 0010 6080     		strh	r0, [r4, #2]	@ movhi
  48              		.loc 1 51 0
  49 0012 1B78     		ldrb	r3, [r3]	@ zero_extendqisi2
  50 0014 A371     		strb	r3, [r4, #6]
  52:Generated_Source\PSoC5/PWM_Steer_PM.c ****         #endif /* (PWM_Steer_UseStatus) */
  53:Generated_Source\PSoC5/PWM_Steer_PM.c **** 
  54:Generated_Source\PSoC5/PWM_Steer_PM.c ****         #if(PWM_Steer_DeadBandMode == PWM_Steer__B_PWM__DBM_256_CLOCKS || \
  55:Generated_Source\PSoC5/PWM_Steer_PM.c ****             PWM_Steer_DeadBandMode == PWM_Steer__B_PWM__DBM_2_4_CLOCKS)
  56:Generated_Source\PSoC5/PWM_Steer_PM.c ****             PWM_Steer_backup.PWMdeadBandValue = PWM_Steer_ReadDeadTime();
  57:Generated_Source\PSoC5/PWM_Steer_PM.c ****         #endif /*  deadband count is either 2-4 clocks or 256 clocks */
  58:Generated_Source\PSoC5/PWM_Steer_PM.c **** 
  59:Generated_Source\PSoC5/PWM_Steer_PM.c ****         #if(PWM_Steer_KillModeMinTime)
  60:Generated_Source\PSoC5/PWM_Steer_PM.c ****              PWM_Steer_backup.PWMKillCounterPeriod = PWM_Steer_ReadKillTime();
  61:Generated_Source\PSoC5/PWM_Steer_PM.c ****         #endif /* (PWM_Steer_KillModeMinTime) */
  62:Generated_Source\PSoC5/PWM_Steer_PM.c **** 
  63:Generated_Source\PSoC5/PWM_Steer_PM.c ****         #if(PWM_Steer_UseControl)
ARM GAS  C:\Users\jon\AppData\Local\Temp\ccwwK8t8.s 			page 3


  64:Generated_Source\PSoC5/PWM_Steer_PM.c ****             PWM_Steer_backup.PWMControlRegister = PWM_Steer_ReadControlRegister();
  51              		.loc 1 64 0
  52 0016 FFF7FEFF 		bl	PWM_Steer_ReadControlRegister
  53              	.LVL2:
  54 001a E071     		strb	r0, [r4, #7]
  55 001c 10BD     		pop	{r4, pc}
  56              	.L4:
  57 001e 00BF     		.align	2
  58              	.L3:
  59 0020 00000000 		.word	.LANCHOR0
  60 0024 8D640040 		.word	1073767565
  61              		.cfi_endproc
  62              	.LFE0:
  63              		.size	PWM_Steer_SaveConfig, .-PWM_Steer_SaveConfig
  64              		.section	.text.PWM_Steer_RestoreConfig,"ax",%progbits
  65              		.align	2
  66              		.global	PWM_Steer_RestoreConfig
  67              		.thumb
  68              		.thumb_func
  69              		.type	PWM_Steer_RestoreConfig, %function
  70              	PWM_Steer_RestoreConfig:
  71              	.LFB1:
  65:Generated_Source\PSoC5/PWM_Steer_PM.c ****         #endif /* (PWM_Steer_UseControl) */
  66:Generated_Source\PSoC5/PWM_Steer_PM.c ****     #endif  /* (!PWM_Steer_UsingFixedFunction) */
  67:Generated_Source\PSoC5/PWM_Steer_PM.c **** }
  68:Generated_Source\PSoC5/PWM_Steer_PM.c **** 
  69:Generated_Source\PSoC5/PWM_Steer_PM.c **** 
  70:Generated_Source\PSoC5/PWM_Steer_PM.c **** /*******************************************************************************
  71:Generated_Source\PSoC5/PWM_Steer_PM.c **** * Function Name: PWM_Steer_RestoreConfig
  72:Generated_Source\PSoC5/PWM_Steer_PM.c **** ********************************************************************************
  73:Generated_Source\PSoC5/PWM_Steer_PM.c **** *
  74:Generated_Source\PSoC5/PWM_Steer_PM.c **** * Summary:
  75:Generated_Source\PSoC5/PWM_Steer_PM.c **** *  Restores the current user configuration of the component.
  76:Generated_Source\PSoC5/PWM_Steer_PM.c **** *
  77:Generated_Source\PSoC5/PWM_Steer_PM.c **** * Parameters:
  78:Generated_Source\PSoC5/PWM_Steer_PM.c **** *  None
  79:Generated_Source\PSoC5/PWM_Steer_PM.c **** *
  80:Generated_Source\PSoC5/PWM_Steer_PM.c **** * Return:
  81:Generated_Source\PSoC5/PWM_Steer_PM.c **** *  None
  82:Generated_Source\PSoC5/PWM_Steer_PM.c **** *
  83:Generated_Source\PSoC5/PWM_Steer_PM.c **** * Global variables:
  84:Generated_Source\PSoC5/PWM_Steer_PM.c **** *  PWM_Steer_backup:  Variables of this global structure are used to
  85:Generated_Source\PSoC5/PWM_Steer_PM.c **** *  restore the values of non retention registers on wakeup from sleep mode.
  86:Generated_Source\PSoC5/PWM_Steer_PM.c **** *
  87:Generated_Source\PSoC5/PWM_Steer_PM.c **** *******************************************************************************/
  88:Generated_Source\PSoC5/PWM_Steer_PM.c **** void PWM_Steer_RestoreConfig(void) 
  89:Generated_Source\PSoC5/PWM_Steer_PM.c **** {
  72              		.loc 1 89 0
  73              		.cfi_startproc
  74              		@ args = 0, pretend = 0, frame = 0
  75              		@ frame_needed = 0, uses_anonymous_args = 0
  76 0000 10B5     		push	{r4, lr}
  77              		.cfi_def_cfa_offset 8
  78              		.cfi_offset 4, -8
  79              		.cfi_offset 14, -4
  90:Generated_Source\PSoC5/PWM_Steer_PM.c ****         #if(!PWM_Steer_UsingFixedFunction)
  91:Generated_Source\PSoC5/PWM_Steer_PM.c ****             #if(!PWM_Steer_PWMModeIsCenterAligned)
ARM GAS  C:\Users\jon\AppData\Local\Temp\ccwwK8t8.s 			page 4


  92:Generated_Source\PSoC5/PWM_Steer_PM.c ****                 PWM_Steer_WritePeriod(PWM_Steer_backup.PWMPeriod);
  80              		.loc 1 92 0
  81 0002 074C     		ldr	r4, .L7
  82 0004 A088     		ldrh	r0, [r4, #4]
  83 0006 FFF7FEFF 		bl	PWM_Steer_WritePeriod
  84              	.LVL3:
  93:Generated_Source\PSoC5/PWM_Steer_PM.c ****             #endif /* (!PWM_Steer_PWMModeIsCenterAligned) */
  94:Generated_Source\PSoC5/PWM_Steer_PM.c **** 
  95:Generated_Source\PSoC5/PWM_Steer_PM.c ****             PWM_Steer_WriteCounter(PWM_Steer_backup.PWMUdb);
  85              		.loc 1 95 0
  86 000a 6088     		ldrh	r0, [r4, #2]
  87 000c FFF7FEFF 		bl	PWM_Steer_WriteCounter
  88              	.LVL4:
  96:Generated_Source\PSoC5/PWM_Steer_PM.c **** 
  97:Generated_Source\PSoC5/PWM_Steer_PM.c ****             #if (PWM_Steer_UseStatus)
  98:Generated_Source\PSoC5/PWM_Steer_PM.c ****                 PWM_Steer_STATUS_MASK = PWM_Steer_backup.InterruptMaskValue;
  89              		.loc 1 98 0
  90 0010 A279     		ldrb	r2, [r4, #6]	@ zero_extendqisi2
  91 0012 044B     		ldr	r3, .L7+4
  99:Generated_Source\PSoC5/PWM_Steer_PM.c ****             #endif /* (PWM_Steer_UseStatus) */
 100:Generated_Source\PSoC5/PWM_Steer_PM.c **** 
 101:Generated_Source\PSoC5/PWM_Steer_PM.c ****             #if(PWM_Steer_DeadBandMode == PWM_Steer__B_PWM__DBM_256_CLOCKS || \
 102:Generated_Source\PSoC5/PWM_Steer_PM.c ****                 PWM_Steer_DeadBandMode == PWM_Steer__B_PWM__DBM_2_4_CLOCKS)
 103:Generated_Source\PSoC5/PWM_Steer_PM.c ****                 PWM_Steer_WriteDeadTime(PWM_Steer_backup.PWMdeadBandValue);
 104:Generated_Source\PSoC5/PWM_Steer_PM.c ****             #endif /* deadband count is either 2-4 clocks or 256 clocks */
 105:Generated_Source\PSoC5/PWM_Steer_PM.c **** 
 106:Generated_Source\PSoC5/PWM_Steer_PM.c ****             #if(PWM_Steer_KillModeMinTime)
 107:Generated_Source\PSoC5/PWM_Steer_PM.c ****                 PWM_Steer_WriteKillTime(PWM_Steer_backup.PWMKillCounterPeriod);
 108:Generated_Source\PSoC5/PWM_Steer_PM.c ****             #endif /* (PWM_Steer_KillModeMinTime) */
 109:Generated_Source\PSoC5/PWM_Steer_PM.c **** 
 110:Generated_Source\PSoC5/PWM_Steer_PM.c ****             #if(PWM_Steer_UseControl)
 111:Generated_Source\PSoC5/PWM_Steer_PM.c ****                 PWM_Steer_WriteControlRegister(PWM_Steer_backup.PWMControlRegister);
  92              		.loc 1 111 0
  93 0014 E079     		ldrb	r0, [r4, #7]	@ zero_extendqisi2
  98:Generated_Source\PSoC5/PWM_Steer_PM.c ****             #endif /* (PWM_Steer_UseStatus) */
  94              		.loc 1 98 0
  95 0016 1A70     		strb	r2, [r3]
 112:Generated_Source\PSoC5/PWM_Steer_PM.c ****             #endif /* (PWM_Steer_UseControl) */
 113:Generated_Source\PSoC5/PWM_Steer_PM.c ****         #endif  /* (!PWM_Steer_UsingFixedFunction) */
 114:Generated_Source\PSoC5/PWM_Steer_PM.c ****     }
  96              		.loc 1 114 0
  97 0018 BDE81040 		pop	{r4, lr}
  98              		.cfi_restore 14
  99              		.cfi_restore 4
 100              		.cfi_def_cfa_offset 0
 111:Generated_Source\PSoC5/PWM_Steer_PM.c ****             #endif /* (PWM_Steer_UseControl) */
 101              		.loc 1 111 0
 102 001c FFF7FEBF 		b	PWM_Steer_WriteControlRegister
 103              	.LVL5:
 104              	.L8:
 105              		.align	2
 106              	.L7:
 107 0020 00000000 		.word	.LANCHOR0
 108 0024 8D640040 		.word	1073767565
 109              		.cfi_endproc
 110              	.LFE1:
 111              		.size	PWM_Steer_RestoreConfig, .-PWM_Steer_RestoreConfig
ARM GAS  C:\Users\jon\AppData\Local\Temp\ccwwK8t8.s 			page 5


 112              		.section	.text.PWM_Steer_Sleep,"ax",%progbits
 113              		.align	2
 114              		.global	PWM_Steer_Sleep
 115              		.thumb
 116              		.thumb_func
 117              		.type	PWM_Steer_Sleep, %function
 118              	PWM_Steer_Sleep:
 119              	.LFB2:
 115:Generated_Source\PSoC5/PWM_Steer_PM.c **** 
 116:Generated_Source\PSoC5/PWM_Steer_PM.c **** 
 117:Generated_Source\PSoC5/PWM_Steer_PM.c **** /*******************************************************************************
 118:Generated_Source\PSoC5/PWM_Steer_PM.c **** * Function Name: PWM_Steer_Sleep
 119:Generated_Source\PSoC5/PWM_Steer_PM.c **** ********************************************************************************
 120:Generated_Source\PSoC5/PWM_Steer_PM.c **** *
 121:Generated_Source\PSoC5/PWM_Steer_PM.c **** * Summary:
 122:Generated_Source\PSoC5/PWM_Steer_PM.c **** *  Disables block's operation and saves the user configuration. Should be called
 123:Generated_Source\PSoC5/PWM_Steer_PM.c **** *  just prior to entering sleep.
 124:Generated_Source\PSoC5/PWM_Steer_PM.c **** *
 125:Generated_Source\PSoC5/PWM_Steer_PM.c **** * Parameters:
 126:Generated_Source\PSoC5/PWM_Steer_PM.c **** *  None
 127:Generated_Source\PSoC5/PWM_Steer_PM.c **** *
 128:Generated_Source\PSoC5/PWM_Steer_PM.c **** * Return:
 129:Generated_Source\PSoC5/PWM_Steer_PM.c **** *  None
 130:Generated_Source\PSoC5/PWM_Steer_PM.c **** *
 131:Generated_Source\PSoC5/PWM_Steer_PM.c **** * Global variables:
 132:Generated_Source\PSoC5/PWM_Steer_PM.c **** *  PWM_Steer_backup.PWMEnableState:  Is modified depending on the enable
 133:Generated_Source\PSoC5/PWM_Steer_PM.c **** *  state of the block before entering sleep mode.
 134:Generated_Source\PSoC5/PWM_Steer_PM.c **** *
 135:Generated_Source\PSoC5/PWM_Steer_PM.c **** *******************************************************************************/
 136:Generated_Source\PSoC5/PWM_Steer_PM.c **** void PWM_Steer_Sleep(void) 
 137:Generated_Source\PSoC5/PWM_Steer_PM.c **** {
 120              		.loc 1 137 0
 121              		.cfi_startproc
 122              		@ args = 0, pretend = 0, frame = 0
 123              		@ frame_needed = 0, uses_anonymous_args = 0
 124 0000 10B5     		push	{r4, lr}
 125              		.cfi_def_cfa_offset 8
 126              		.cfi_offset 4, -8
 127              		.cfi_offset 14, -4
 138:Generated_Source\PSoC5/PWM_Steer_PM.c ****     #if(PWM_Steer_UseControl)
 139:Generated_Source\PSoC5/PWM_Steer_PM.c ****         if(PWM_Steer_CTRL_ENABLE == (PWM_Steer_CONTROL & PWM_Steer_CTRL_ENABLE))
 128              		.loc 1 139 0
 129 0002 0A4B     		ldr	r3, .L11
 130 0004 0A4C     		ldr	r4, .L11+4
 131 0006 1B78     		ldrb	r3, [r3]	@ zero_extendqisi2
 132 0008 DB09     		lsrs	r3, r3, #7
 133 000a 2370     		strb	r3, [r4]
 140:Generated_Source\PSoC5/PWM_Steer_PM.c ****         {
 141:Generated_Source\PSoC5/PWM_Steer_PM.c ****             /*Component is enabled */
 142:Generated_Source\PSoC5/PWM_Steer_PM.c ****             PWM_Steer_backup.PWMEnableState = 1u;
 143:Generated_Source\PSoC5/PWM_Steer_PM.c ****         }
 144:Generated_Source\PSoC5/PWM_Steer_PM.c ****         else
 145:Generated_Source\PSoC5/PWM_Steer_PM.c ****         {
 146:Generated_Source\PSoC5/PWM_Steer_PM.c ****             /* Component is disabled */
 147:Generated_Source\PSoC5/PWM_Steer_PM.c ****             PWM_Steer_backup.PWMEnableState = 0u;
 148:Generated_Source\PSoC5/PWM_Steer_PM.c ****         }
 149:Generated_Source\PSoC5/PWM_Steer_PM.c ****     #endif /* (PWM_Steer_UseControl) */
ARM GAS  C:\Users\jon\AppData\Local\Temp\ccwwK8t8.s 			page 6


 150:Generated_Source\PSoC5/PWM_Steer_PM.c **** 
 151:Generated_Source\PSoC5/PWM_Steer_PM.c ****     /* Stop component */
 152:Generated_Source\PSoC5/PWM_Steer_PM.c ****     PWM_Steer_Stop();
 134              		.loc 1 152 0
 135 000c FFF7FEFF 		bl	PWM_Steer_Stop
 136              	.LVL6:
 137              	.LBB4:
 138              	.LBB5:
  47:Generated_Source\PSoC5/PWM_Steer_PM.c ****         #endif /* (!PWM_Steer_PWMModeIsCenterAligned) */
 139              		.loc 1 47 0
 140 0010 FFF7FEFF 		bl	PWM_Steer_ReadPeriod
 141              	.LVL7:
 142 0014 A080     		strh	r0, [r4, #4]	@ movhi
  49:Generated_Source\PSoC5/PWM_Steer_PM.c ****         #if (PWM_Steer_UseStatus)
 143              		.loc 1 49 0
 144 0016 FFF7FEFF 		bl	PWM_Steer_ReadCounter
 145              	.LVL8:
  51:Generated_Source\PSoC5/PWM_Steer_PM.c ****         #endif /* (PWM_Steer_UseStatus) */
 146              		.loc 1 51 0
 147 001a 064B     		ldr	r3, .L11+8
  49:Generated_Source\PSoC5/PWM_Steer_PM.c ****         #if (PWM_Steer_UseStatus)
 148              		.loc 1 49 0
 149 001c 6080     		strh	r0, [r4, #2]	@ movhi
  51:Generated_Source\PSoC5/PWM_Steer_PM.c ****         #endif /* (PWM_Steer_UseStatus) */
 150              		.loc 1 51 0
 151 001e 1B78     		ldrb	r3, [r3]	@ zero_extendqisi2
 152 0020 A371     		strb	r3, [r4, #6]
  64:Generated_Source\PSoC5/PWM_Steer_PM.c ****         #endif /* (PWM_Steer_UseControl) */
 153              		.loc 1 64 0
 154 0022 FFF7FEFF 		bl	PWM_Steer_ReadControlRegister
 155              	.LVL9:
 156 0026 E071     		strb	r0, [r4, #7]
 157 0028 10BD     		pop	{r4, pc}
 158              	.L12:
 159 002a 00BF     		.align	2
 160              	.L11:
 161 002c 7D640040 		.word	1073767549
 162 0030 00000000 		.word	.LANCHOR0
 163 0034 8D640040 		.word	1073767565
 164              	.LBE5:
 165              	.LBE4:
 166              		.cfi_endproc
 167              	.LFE2:
 168              		.size	PWM_Steer_Sleep, .-PWM_Steer_Sleep
 169              		.section	.text.PWM_Steer_Wakeup,"ax",%progbits
 170              		.align	2
 171              		.global	PWM_Steer_Wakeup
 172              		.thumb
 173              		.thumb_func
 174              		.type	PWM_Steer_Wakeup, %function
 175              	PWM_Steer_Wakeup:
 176              	.LFB3:
 153:Generated_Source\PSoC5/PWM_Steer_PM.c **** 
 154:Generated_Source\PSoC5/PWM_Steer_PM.c ****     /* Save registers configuration */
 155:Generated_Source\PSoC5/PWM_Steer_PM.c ****     PWM_Steer_SaveConfig();
 156:Generated_Source\PSoC5/PWM_Steer_PM.c **** }
 157:Generated_Source\PSoC5/PWM_Steer_PM.c **** 
ARM GAS  C:\Users\jon\AppData\Local\Temp\ccwwK8t8.s 			page 7


 158:Generated_Source\PSoC5/PWM_Steer_PM.c **** 
 159:Generated_Source\PSoC5/PWM_Steer_PM.c **** /*******************************************************************************
 160:Generated_Source\PSoC5/PWM_Steer_PM.c **** * Function Name: PWM_Steer_Wakeup
 161:Generated_Source\PSoC5/PWM_Steer_PM.c **** ********************************************************************************
 162:Generated_Source\PSoC5/PWM_Steer_PM.c **** *
 163:Generated_Source\PSoC5/PWM_Steer_PM.c **** * Summary:
 164:Generated_Source\PSoC5/PWM_Steer_PM.c **** *  Restores and enables the user configuration. Should be called just after
 165:Generated_Source\PSoC5/PWM_Steer_PM.c **** *  awaking from sleep.
 166:Generated_Source\PSoC5/PWM_Steer_PM.c **** *
 167:Generated_Source\PSoC5/PWM_Steer_PM.c **** * Parameters:
 168:Generated_Source\PSoC5/PWM_Steer_PM.c **** *  None
 169:Generated_Source\PSoC5/PWM_Steer_PM.c **** *
 170:Generated_Source\PSoC5/PWM_Steer_PM.c **** * Return:
 171:Generated_Source\PSoC5/PWM_Steer_PM.c **** *  None
 172:Generated_Source\PSoC5/PWM_Steer_PM.c **** *
 173:Generated_Source\PSoC5/PWM_Steer_PM.c **** * Global variables:
 174:Generated_Source\PSoC5/PWM_Steer_PM.c **** *  PWM_Steer_backup.pwmEnable:  Is used to restore the enable state of
 175:Generated_Source\PSoC5/PWM_Steer_PM.c **** *  block on wakeup from sleep mode.
 176:Generated_Source\PSoC5/PWM_Steer_PM.c **** *
 177:Generated_Source\PSoC5/PWM_Steer_PM.c **** *******************************************************************************/
 178:Generated_Source\PSoC5/PWM_Steer_PM.c **** void PWM_Steer_Wakeup(void) 
 179:Generated_Source\PSoC5/PWM_Steer_PM.c **** {
 177              		.loc 1 179 0
 178              		.cfi_startproc
 179              		@ args = 0, pretend = 0, frame = 0
 180              		@ frame_needed = 0, uses_anonymous_args = 0
 181 0000 10B5     		push	{r4, lr}
 182              		.cfi_def_cfa_offset 8
 183              		.cfi_offset 4, -8
 184              		.cfi_offset 14, -4
 185              	.LBB8:
 186              	.LBB9:
  92:Generated_Source\PSoC5/PWM_Steer_PM.c ****             #endif /* (!PWM_Steer_PWMModeIsCenterAligned) */
 187              		.loc 1 92 0
 188 0002 0A4C     		ldr	r4, .L18
 189 0004 A088     		ldrh	r0, [r4, #4]
 190 0006 FFF7FEFF 		bl	PWM_Steer_WritePeriod
 191              	.LVL10:
  95:Generated_Source\PSoC5/PWM_Steer_PM.c **** 
 192              		.loc 1 95 0
 193 000a 6088     		ldrh	r0, [r4, #2]
 194 000c FFF7FEFF 		bl	PWM_Steer_WriteCounter
 195              	.LVL11:
  98:Generated_Source\PSoC5/PWM_Steer_PM.c ****             #endif /* (PWM_Steer_UseStatus) */
 196              		.loc 1 98 0
 197 0010 074B     		ldr	r3, .L18+4
 198 0012 A279     		ldrb	r2, [r4, #6]	@ zero_extendqisi2
 111:Generated_Source\PSoC5/PWM_Steer_PM.c ****             #endif /* (PWM_Steer_UseControl) */
 199              		.loc 1 111 0
 200 0014 E079     		ldrb	r0, [r4, #7]	@ zero_extendqisi2
  98:Generated_Source\PSoC5/PWM_Steer_PM.c ****             #endif /* (PWM_Steer_UseStatus) */
 201              		.loc 1 98 0
 202 0016 1A70     		strb	r2, [r3]
 111:Generated_Source\PSoC5/PWM_Steer_PM.c ****             #endif /* (PWM_Steer_UseControl) */
 203              		.loc 1 111 0
 204 0018 FFF7FEFF 		bl	PWM_Steer_WriteControlRegister
 205              	.LVL12:
ARM GAS  C:\Users\jon\AppData\Local\Temp\ccwwK8t8.s 			page 8


 206              	.LBE9:
 207              	.LBE8:
 180:Generated_Source\PSoC5/PWM_Steer_PM.c ****      /* Restore registers values */
 181:Generated_Source\PSoC5/PWM_Steer_PM.c ****     PWM_Steer_RestoreConfig();
 182:Generated_Source\PSoC5/PWM_Steer_PM.c **** 
 183:Generated_Source\PSoC5/PWM_Steer_PM.c ****     if(PWM_Steer_backup.PWMEnableState != 0u)
 208              		.loc 1 183 0
 209 001c 2378     		ldrb	r3, [r4]	@ zero_extendqisi2
 210 001e 03B9     		cbnz	r3, .L17
 211 0020 10BD     		pop	{r4, pc}
 212              	.L17:
 184:Generated_Source\PSoC5/PWM_Steer_PM.c ****     {
 185:Generated_Source\PSoC5/PWM_Steer_PM.c ****         /* Enable component's operation */
 186:Generated_Source\PSoC5/PWM_Steer_PM.c ****         PWM_Steer_Enable();
 187:Generated_Source\PSoC5/PWM_Steer_PM.c ****     } /* Do nothing if component's block was disabled before */
 188:Generated_Source\PSoC5/PWM_Steer_PM.c **** 
 189:Generated_Source\PSoC5/PWM_Steer_PM.c **** }
 213              		.loc 1 189 0
 214 0022 BDE81040 		pop	{r4, lr}
 215              		.cfi_restore 14
 216              		.cfi_restore 4
 217              		.cfi_def_cfa_offset 0
 186:Generated_Source\PSoC5/PWM_Steer_PM.c ****     } /* Do nothing if component's block was disabled before */
 218              		.loc 1 186 0
 219 0026 FFF7FEBF 		b	PWM_Steer_Enable
 220              	.LVL13:
 221              	.L19:
 222 002a 00BF     		.align	2
 223              	.L18:
 224 002c 00000000 		.word	.LANCHOR0
 225 0030 8D640040 		.word	1073767565
 226              		.cfi_endproc
 227              	.LFE3:
 228              		.size	PWM_Steer_Wakeup, .-PWM_Steer_Wakeup
 229              		.bss
 230              		.align	2
 231              		.set	.LANCHOR0,. + 0
 232              		.type	PWM_Steer_backup, %object
 233              		.size	PWM_Steer_backup, 8
 234              	PWM_Steer_backup:
 235 0000 00000000 		.space	8
 235      00000000 
 236              		.text
 237              	.Letext0:
 238              		.file 2 "Generated_Source\\PSoC5\\cytypes.h"
 239              		.file 3 "Generated_Source\\PSoC5\\PWM_Steer.h"