ARM GAS  C:\Users\jon\AppData\Local\Temp\cc6QkMGJ.s 			page 1


   1              		.syntax unified
   2              		.cpu cortex-m3
   3              		.fpu softvfp
   4              		.eabi_attribute 20, 1
   5              		.eabi_attribute 21, 1
   6              		.eabi_attribute 23, 3
   7              		.eabi_attribute 24, 1
   8              		.eabi_attribute 25, 1
   9              		.eabi_attribute 26, 1
  10              		.eabi_attribute 30, 2
  11              		.eabi_attribute 34, 1
  12              		.eabi_attribute 18, 4
  13              		.thumb
  14              		.syntax unified
  15              		.file	"RPi_UART_PM.c"
  16              		.text
  17              	.Ltext0:
  18              		.cfi_sections	.debug_frame
  19              		.section	.text.RPi_UART_SaveConfig,"ax",%progbits
  20              		.align	2
  21              		.global	RPi_UART_SaveConfig
  22              		.thumb
  23              		.thumb_func
  24              		.type	RPi_UART_SaveConfig, %function
  25              	RPi_UART_SaveConfig:
  26              	.LFB5:
  27              		.cfi_startproc
  28              		@ args = 0, pretend = 0, frame = 0
  29              		@ frame_needed = 0, uses_anonymous_args = 0
  30              		@ link register save eliminated.
  31 0000 7047     		bx	lr
  32              		.cfi_endproc
  33              	.LFE5:
  34              		.size	RPi_UART_SaveConfig, .-RPi_UART_SaveConfig
  35 0002 00BF     		.section	.text.RPi_UART_RestoreConfig,"ax",%progbits
  36              		.align	2
  37              		.global	RPi_UART_RestoreConfig
  38              		.thumb
  39              		.thumb_func
  40              		.type	RPi_UART_RestoreConfig, %function
  41              	RPi_UART_RestoreConfig:
  42              	.LFB1:
  43              		.file 1 "Generated_Source\\PSoC5\\RPi_UART_PM.c"
   1:Generated_Source\PSoC5/RPi_UART_PM.c **** /*******************************************************************************
   2:Generated_Source\PSoC5/RPi_UART_PM.c **** * File Name: RPi_UART_PM.c
   3:Generated_Source\PSoC5/RPi_UART_PM.c **** * Version 2.50
   4:Generated_Source\PSoC5/RPi_UART_PM.c **** *
   5:Generated_Source\PSoC5/RPi_UART_PM.c **** * Description:
   6:Generated_Source\PSoC5/RPi_UART_PM.c **** *  This file provides Sleep/WakeUp APIs functionality.
   7:Generated_Source\PSoC5/RPi_UART_PM.c **** *
   8:Generated_Source\PSoC5/RPi_UART_PM.c **** * Note:
   9:Generated_Source\PSoC5/RPi_UART_PM.c **** *
  10:Generated_Source\PSoC5/RPi_UART_PM.c **** ********************************************************************************
  11:Generated_Source\PSoC5/RPi_UART_PM.c **** * Copyright 2008-2015, Cypress Semiconductor Corporation.  All rights reserved.
  12:Generated_Source\PSoC5/RPi_UART_PM.c **** * You may use this file only in accordance with the license, terms, conditions,
  13:Generated_Source\PSoC5/RPi_UART_PM.c **** * disclaimers, and limitations in the end user license agreement accompanying
  14:Generated_Source\PSoC5/RPi_UART_PM.c **** * the software package with which this file was provided.
ARM GAS  C:\Users\jon\AppData\Local\Temp\cc6QkMGJ.s 			page 2


  15:Generated_Source\PSoC5/RPi_UART_PM.c **** *******************************************************************************/
  16:Generated_Source\PSoC5/RPi_UART_PM.c **** 
  17:Generated_Source\PSoC5/RPi_UART_PM.c **** #include "RPi_UART.h"
  18:Generated_Source\PSoC5/RPi_UART_PM.c **** 
  19:Generated_Source\PSoC5/RPi_UART_PM.c **** 
  20:Generated_Source\PSoC5/RPi_UART_PM.c **** /***************************************
  21:Generated_Source\PSoC5/RPi_UART_PM.c **** * Local data allocation
  22:Generated_Source\PSoC5/RPi_UART_PM.c **** ***************************************/
  23:Generated_Source\PSoC5/RPi_UART_PM.c **** 
  24:Generated_Source\PSoC5/RPi_UART_PM.c **** static RPi_UART_BACKUP_STRUCT  RPi_UART_backup =
  25:Generated_Source\PSoC5/RPi_UART_PM.c **** {
  26:Generated_Source\PSoC5/RPi_UART_PM.c ****     /* enableState - disabled */
  27:Generated_Source\PSoC5/RPi_UART_PM.c ****     0u,
  28:Generated_Source\PSoC5/RPi_UART_PM.c **** };
  29:Generated_Source\PSoC5/RPi_UART_PM.c **** 
  30:Generated_Source\PSoC5/RPi_UART_PM.c **** 
  31:Generated_Source\PSoC5/RPi_UART_PM.c **** 
  32:Generated_Source\PSoC5/RPi_UART_PM.c **** /*******************************************************************************
  33:Generated_Source\PSoC5/RPi_UART_PM.c **** * Function Name: RPi_UART_SaveConfig
  34:Generated_Source\PSoC5/RPi_UART_PM.c **** ********************************************************************************
  35:Generated_Source\PSoC5/RPi_UART_PM.c **** *
  36:Generated_Source\PSoC5/RPi_UART_PM.c **** * Summary:
  37:Generated_Source\PSoC5/RPi_UART_PM.c **** *  This function saves the component nonretention control register.
  38:Generated_Source\PSoC5/RPi_UART_PM.c **** *  Does not save the FIFO which is a set of nonretention registers.
  39:Generated_Source\PSoC5/RPi_UART_PM.c **** *  This function is called by the RPi_UART_Sleep() function.
  40:Generated_Source\PSoC5/RPi_UART_PM.c **** *
  41:Generated_Source\PSoC5/RPi_UART_PM.c **** * Parameters:
  42:Generated_Source\PSoC5/RPi_UART_PM.c **** *  None.
  43:Generated_Source\PSoC5/RPi_UART_PM.c **** *
  44:Generated_Source\PSoC5/RPi_UART_PM.c **** * Return:
  45:Generated_Source\PSoC5/RPi_UART_PM.c **** *  None.
  46:Generated_Source\PSoC5/RPi_UART_PM.c **** *
  47:Generated_Source\PSoC5/RPi_UART_PM.c **** * Global Variables:
  48:Generated_Source\PSoC5/RPi_UART_PM.c **** *  RPi_UART_backup - modified when non-retention registers are saved.
  49:Generated_Source\PSoC5/RPi_UART_PM.c **** *
  50:Generated_Source\PSoC5/RPi_UART_PM.c **** * Reentrant:
  51:Generated_Source\PSoC5/RPi_UART_PM.c **** *  No.
  52:Generated_Source\PSoC5/RPi_UART_PM.c **** *
  53:Generated_Source\PSoC5/RPi_UART_PM.c **** *******************************************************************************/
  54:Generated_Source\PSoC5/RPi_UART_PM.c **** void RPi_UART_SaveConfig(void)
  55:Generated_Source\PSoC5/RPi_UART_PM.c **** {
  56:Generated_Source\PSoC5/RPi_UART_PM.c ****     #if(RPi_UART_CONTROL_REG_REMOVED == 0u)
  57:Generated_Source\PSoC5/RPi_UART_PM.c ****         RPi_UART_backup.cr = RPi_UART_CONTROL_REG;
  58:Generated_Source\PSoC5/RPi_UART_PM.c ****     #endif /* End RPi_UART_CONTROL_REG_REMOVED */
  59:Generated_Source\PSoC5/RPi_UART_PM.c **** }
  60:Generated_Source\PSoC5/RPi_UART_PM.c **** 
  61:Generated_Source\PSoC5/RPi_UART_PM.c **** 
  62:Generated_Source\PSoC5/RPi_UART_PM.c **** /*******************************************************************************
  63:Generated_Source\PSoC5/RPi_UART_PM.c **** * Function Name: RPi_UART_RestoreConfig
  64:Generated_Source\PSoC5/RPi_UART_PM.c **** ********************************************************************************
  65:Generated_Source\PSoC5/RPi_UART_PM.c **** *
  66:Generated_Source\PSoC5/RPi_UART_PM.c **** * Summary:
  67:Generated_Source\PSoC5/RPi_UART_PM.c **** *  Restores the nonretention control register except FIFO.
  68:Generated_Source\PSoC5/RPi_UART_PM.c **** *  Does not restore the FIFO which is a set of nonretention registers.
  69:Generated_Source\PSoC5/RPi_UART_PM.c **** *
  70:Generated_Source\PSoC5/RPi_UART_PM.c **** * Parameters:
  71:Generated_Source\PSoC5/RPi_UART_PM.c **** *  None.
ARM GAS  C:\Users\jon\AppData\Local\Temp\cc6QkMGJ.s 			page 3


  72:Generated_Source\PSoC5/RPi_UART_PM.c **** *
  73:Generated_Source\PSoC5/RPi_UART_PM.c **** * Return:
  74:Generated_Source\PSoC5/RPi_UART_PM.c **** *  None.
  75:Generated_Source\PSoC5/RPi_UART_PM.c **** *
  76:Generated_Source\PSoC5/RPi_UART_PM.c **** * Global Variables:
  77:Generated_Source\PSoC5/RPi_UART_PM.c **** *  RPi_UART_backup - used when non-retention registers are restored.
  78:Generated_Source\PSoC5/RPi_UART_PM.c **** *
  79:Generated_Source\PSoC5/RPi_UART_PM.c **** * Reentrant:
  80:Generated_Source\PSoC5/RPi_UART_PM.c **** *  No.
  81:Generated_Source\PSoC5/RPi_UART_PM.c **** *
  82:Generated_Source\PSoC5/RPi_UART_PM.c **** * Notes:
  83:Generated_Source\PSoC5/RPi_UART_PM.c **** *  If this function is called without calling RPi_UART_SaveConfig() 
  84:Generated_Source\PSoC5/RPi_UART_PM.c **** *  first, the data loaded may be incorrect.
  85:Generated_Source\PSoC5/RPi_UART_PM.c **** *
  86:Generated_Source\PSoC5/RPi_UART_PM.c **** *******************************************************************************/
  87:Generated_Source\PSoC5/RPi_UART_PM.c **** void RPi_UART_RestoreConfig(void)
  88:Generated_Source\PSoC5/RPi_UART_PM.c **** {
  44              		.loc 1 88 0
  45              		.cfi_startproc
  46              		@ args = 0, pretend = 0, frame = 0
  47              		@ frame_needed = 0, uses_anonymous_args = 0
  48              		@ link register save eliminated.
  49 0000 7047     		bx	lr
  50              		.cfi_endproc
  51              	.LFE1:
  52              		.size	RPi_UART_RestoreConfig, .-RPi_UART_RestoreConfig
  53 0002 00BF     		.section	.text.RPi_UART_Sleep,"ax",%progbits
  54              		.align	2
  55              		.global	RPi_UART_Sleep
  56              		.thumb
  57              		.thumb_func
  58              		.type	RPi_UART_Sleep, %function
  59              	RPi_UART_Sleep:
  60              	.LFB2:
  89:Generated_Source\PSoC5/RPi_UART_PM.c ****     #if(RPi_UART_CONTROL_REG_REMOVED == 0u)
  90:Generated_Source\PSoC5/RPi_UART_PM.c ****         RPi_UART_CONTROL_REG = RPi_UART_backup.cr;
  91:Generated_Source\PSoC5/RPi_UART_PM.c ****     #endif /* End RPi_UART_CONTROL_REG_REMOVED */
  92:Generated_Source\PSoC5/RPi_UART_PM.c **** }
  93:Generated_Source\PSoC5/RPi_UART_PM.c **** 
  94:Generated_Source\PSoC5/RPi_UART_PM.c **** 
  95:Generated_Source\PSoC5/RPi_UART_PM.c **** /*******************************************************************************
  96:Generated_Source\PSoC5/RPi_UART_PM.c **** * Function Name: RPi_UART_Sleep
  97:Generated_Source\PSoC5/RPi_UART_PM.c **** ********************************************************************************
  98:Generated_Source\PSoC5/RPi_UART_PM.c **** *
  99:Generated_Source\PSoC5/RPi_UART_PM.c **** * Summary:
 100:Generated_Source\PSoC5/RPi_UART_PM.c **** *  This is the preferred API to prepare the component for sleep. 
 101:Generated_Source\PSoC5/RPi_UART_PM.c **** *  The RPi_UART_Sleep() API saves the current component state. Then it
 102:Generated_Source\PSoC5/RPi_UART_PM.c **** *  calls the RPi_UART_Stop() function and calls 
 103:Generated_Source\PSoC5/RPi_UART_PM.c **** *  RPi_UART_SaveConfig() to save the hardware configuration.
 104:Generated_Source\PSoC5/RPi_UART_PM.c **** *  Call the RPi_UART_Sleep() function before calling the CyPmSleep() 
 105:Generated_Source\PSoC5/RPi_UART_PM.c **** *  or the CyPmHibernate() function. 
 106:Generated_Source\PSoC5/RPi_UART_PM.c **** *
 107:Generated_Source\PSoC5/RPi_UART_PM.c **** * Parameters:
 108:Generated_Source\PSoC5/RPi_UART_PM.c **** *  None.
 109:Generated_Source\PSoC5/RPi_UART_PM.c **** *
 110:Generated_Source\PSoC5/RPi_UART_PM.c **** * Return:
 111:Generated_Source\PSoC5/RPi_UART_PM.c **** *  None.
ARM GAS  C:\Users\jon\AppData\Local\Temp\cc6QkMGJ.s 			page 4


 112:Generated_Source\PSoC5/RPi_UART_PM.c **** *
 113:Generated_Source\PSoC5/RPi_UART_PM.c **** * Global Variables:
 114:Generated_Source\PSoC5/RPi_UART_PM.c **** *  RPi_UART_backup - modified when non-retention registers are saved.
 115:Generated_Source\PSoC5/RPi_UART_PM.c **** *
 116:Generated_Source\PSoC5/RPi_UART_PM.c **** * Reentrant:
 117:Generated_Source\PSoC5/RPi_UART_PM.c **** *  No.
 118:Generated_Source\PSoC5/RPi_UART_PM.c **** *
 119:Generated_Source\PSoC5/RPi_UART_PM.c **** *******************************************************************************/
 120:Generated_Source\PSoC5/RPi_UART_PM.c **** void RPi_UART_Sleep(void)
 121:Generated_Source\PSoC5/RPi_UART_PM.c **** {
  61              		.loc 1 121 0
  62              		.cfi_startproc
  63              		@ args = 0, pretend = 0, frame = 0
  64              		@ frame_needed = 0, uses_anonymous_args = 0
  65              		@ link register save eliminated.
 122:Generated_Source\PSoC5/RPi_UART_PM.c ****     #if(RPi_UART_RX_ENABLED || RPi_UART_HD_ENABLED)
 123:Generated_Source\PSoC5/RPi_UART_PM.c ****         if((RPi_UART_RXSTATUS_ACTL_REG  & RPi_UART_INT_ENABLE) != 0u)
  66              		.loc 1 123 0
  67 0000 074B     		ldr	r3, .L8
  68 0002 1B78     		ldrb	r3, [r3]	@ zero_extendqisi2
  69 0004 03F01003 		and	r3, r3, #16
  70 0008 03F0FF02 		and	r2, r3, #255
  71 000c 1BB9     		cbnz	r3, .L7
 124:Generated_Source\PSoC5/RPi_UART_PM.c ****         {
 125:Generated_Source\PSoC5/RPi_UART_PM.c ****             RPi_UART_backup.enableState = 1u;
 126:Generated_Source\PSoC5/RPi_UART_PM.c ****         }
 127:Generated_Source\PSoC5/RPi_UART_PM.c ****         else
 128:Generated_Source\PSoC5/RPi_UART_PM.c ****         {
 129:Generated_Source\PSoC5/RPi_UART_PM.c ****             RPi_UART_backup.enableState = 0u;
  72              		.loc 1 129 0
  73 000e 054B     		ldr	r3, .L8+4
  74 0010 1A70     		strb	r2, [r3]
 130:Generated_Source\PSoC5/RPi_UART_PM.c ****         }
 131:Generated_Source\PSoC5/RPi_UART_PM.c ****     #else
 132:Generated_Source\PSoC5/RPi_UART_PM.c ****         if((RPi_UART_TXSTATUS_ACTL_REG  & RPi_UART_INT_ENABLE) !=0u)
 133:Generated_Source\PSoC5/RPi_UART_PM.c ****         {
 134:Generated_Source\PSoC5/RPi_UART_PM.c ****             RPi_UART_backup.enableState = 1u;
 135:Generated_Source\PSoC5/RPi_UART_PM.c ****         }
 136:Generated_Source\PSoC5/RPi_UART_PM.c ****         else
 137:Generated_Source\PSoC5/RPi_UART_PM.c ****         {
 138:Generated_Source\PSoC5/RPi_UART_PM.c ****             RPi_UART_backup.enableState = 0u;
 139:Generated_Source\PSoC5/RPi_UART_PM.c ****         }
 140:Generated_Source\PSoC5/RPi_UART_PM.c ****     #endif /* End RPi_UART_RX_ENABLED || RPi_UART_HD_ENABLED*/
 141:Generated_Source\PSoC5/RPi_UART_PM.c **** 
 142:Generated_Source\PSoC5/RPi_UART_PM.c ****     RPi_UART_Stop();
  75              		.loc 1 142 0
  76 0012 FFF7FEBF 		b	RPi_UART_Stop
  77              	.LVL0:
  78              	.L7:
 125:Generated_Source\PSoC5/RPi_UART_PM.c ****         }
  79              		.loc 1 125 0
  80 0016 034B     		ldr	r3, .L8+4
  81 0018 0122     		movs	r2, #1
  82 001a 1A70     		strb	r2, [r3]
  83              		.loc 1 142 0
  84 001c FFF7FEBF 		b	RPi_UART_Stop
  85              	.LVL1:
ARM GAS  C:\Users\jon\AppData\Local\Temp\cc6QkMGJ.s 			page 5


  86              	.L9:
  87              		.align	2
  88              	.L8:
  89 0020 96640040 		.word	1073767574
  90 0024 00000000 		.word	.LANCHOR0
  91              		.cfi_endproc
  92              	.LFE2:
  93              		.size	RPi_UART_Sleep, .-RPi_UART_Sleep
  94              		.section	.text.RPi_UART_Wakeup,"ax",%progbits
  95              		.align	2
  96              		.global	RPi_UART_Wakeup
  97              		.thumb
  98              		.thumb_func
  99              		.type	RPi_UART_Wakeup, %function
 100              	RPi_UART_Wakeup:
 101              	.LFB3:
 143:Generated_Source\PSoC5/RPi_UART_PM.c ****     RPi_UART_SaveConfig();
 144:Generated_Source\PSoC5/RPi_UART_PM.c **** }
 145:Generated_Source\PSoC5/RPi_UART_PM.c **** 
 146:Generated_Source\PSoC5/RPi_UART_PM.c **** 
 147:Generated_Source\PSoC5/RPi_UART_PM.c **** /*******************************************************************************
 148:Generated_Source\PSoC5/RPi_UART_PM.c **** * Function Name: RPi_UART_Wakeup
 149:Generated_Source\PSoC5/RPi_UART_PM.c **** ********************************************************************************
 150:Generated_Source\PSoC5/RPi_UART_PM.c **** *
 151:Generated_Source\PSoC5/RPi_UART_PM.c **** * Summary:
 152:Generated_Source\PSoC5/RPi_UART_PM.c **** *  This is the preferred API to restore the component to the state when 
 153:Generated_Source\PSoC5/RPi_UART_PM.c **** *  RPi_UART_Sleep() was called. The RPi_UART_Wakeup() function
 154:Generated_Source\PSoC5/RPi_UART_PM.c **** *  calls the RPi_UART_RestoreConfig() function to restore the 
 155:Generated_Source\PSoC5/RPi_UART_PM.c **** *  configuration. If the component was enabled before the 
 156:Generated_Source\PSoC5/RPi_UART_PM.c **** *  RPi_UART_Sleep() function was called, the RPi_UART_Wakeup()
 157:Generated_Source\PSoC5/RPi_UART_PM.c **** *  function will also re-enable the component.
 158:Generated_Source\PSoC5/RPi_UART_PM.c **** *
 159:Generated_Source\PSoC5/RPi_UART_PM.c **** * Parameters:
 160:Generated_Source\PSoC5/RPi_UART_PM.c **** *  None.
 161:Generated_Source\PSoC5/RPi_UART_PM.c **** *
 162:Generated_Source\PSoC5/RPi_UART_PM.c **** * Return:
 163:Generated_Source\PSoC5/RPi_UART_PM.c **** *  None.
 164:Generated_Source\PSoC5/RPi_UART_PM.c **** *
 165:Generated_Source\PSoC5/RPi_UART_PM.c **** * Global Variables:
 166:Generated_Source\PSoC5/RPi_UART_PM.c **** *  RPi_UART_backup - used when non-retention registers are restored.
 167:Generated_Source\PSoC5/RPi_UART_PM.c **** *
 168:Generated_Source\PSoC5/RPi_UART_PM.c **** * Reentrant:
 169:Generated_Source\PSoC5/RPi_UART_PM.c **** *  No.
 170:Generated_Source\PSoC5/RPi_UART_PM.c **** *
 171:Generated_Source\PSoC5/RPi_UART_PM.c **** *******************************************************************************/
 172:Generated_Source\PSoC5/RPi_UART_PM.c **** void RPi_UART_Wakeup(void)
 173:Generated_Source\PSoC5/RPi_UART_PM.c **** {
 102              		.loc 1 173 0
 103              		.cfi_startproc
 104              		@ args = 0, pretend = 0, frame = 0
 105              		@ frame_needed = 0, uses_anonymous_args = 0
 106 0000 08B5     		push	{r3, lr}
 107              		.cfi_def_cfa_offset 8
 108              		.cfi_offset 3, -8
 109              		.cfi_offset 14, -4
 174:Generated_Source\PSoC5/RPi_UART_PM.c ****     RPi_UART_RestoreConfig();
 175:Generated_Source\PSoC5/RPi_UART_PM.c ****     #if( (RPi_UART_RX_ENABLED) || (RPi_UART_HD_ENABLED) )
ARM GAS  C:\Users\jon\AppData\Local\Temp\cc6QkMGJ.s 			page 6


 176:Generated_Source\PSoC5/RPi_UART_PM.c ****         RPi_UART_ClearRxBuffer();
 110              		.loc 1 176 0
 111 0002 FFF7FEFF 		bl	RPi_UART_ClearRxBuffer
 112              	.LVL2:
 177:Generated_Source\PSoC5/RPi_UART_PM.c ****     #endif /* End (RPi_UART_RX_ENABLED) || (RPi_UART_HD_ENABLED) */
 178:Generated_Source\PSoC5/RPi_UART_PM.c ****     #if(RPi_UART_TX_ENABLED || RPi_UART_HD_ENABLED)
 179:Generated_Source\PSoC5/RPi_UART_PM.c ****         RPi_UART_ClearTxBuffer();
 113              		.loc 1 179 0
 114 0006 FFF7FEFF 		bl	RPi_UART_ClearTxBuffer
 115              	.LVL3:
 180:Generated_Source\PSoC5/RPi_UART_PM.c ****     #endif /* End RPi_UART_TX_ENABLED || RPi_UART_HD_ENABLED */
 181:Generated_Source\PSoC5/RPi_UART_PM.c **** 
 182:Generated_Source\PSoC5/RPi_UART_PM.c ****     if(RPi_UART_backup.enableState != 0u)
 116              		.loc 1 182 0
 117 000a 044B     		ldr	r3, .L14
 118 000c 1B78     		ldrb	r3, [r3]	@ zero_extendqisi2
 119 000e 03B9     		cbnz	r3, .L13
 120 0010 08BD     		pop	{r3, pc}
 121              	.L13:
 183:Generated_Source\PSoC5/RPi_UART_PM.c ****     {
 184:Generated_Source\PSoC5/RPi_UART_PM.c ****         RPi_UART_Enable();
 185:Generated_Source\PSoC5/RPi_UART_PM.c ****     }
 186:Generated_Source\PSoC5/RPi_UART_PM.c **** }
 122              		.loc 1 186 0
 123 0012 BDE80840 		pop	{r3, lr}
 124              		.cfi_restore 14
 125              		.cfi_restore 3
 126              		.cfi_def_cfa_offset 0
 184:Generated_Source\PSoC5/RPi_UART_PM.c ****     }
 127              		.loc 1 184 0
 128 0016 FFF7FEBF 		b	RPi_UART_Enable
 129              	.LVL4:
 130              	.L15:
 131 001a 00BF     		.align	2
 132              	.L14:
 133 001c 00000000 		.word	.LANCHOR0
 134              		.cfi_endproc
 135              	.LFE3:
 136              		.size	RPi_UART_Wakeup, .-RPi_UART_Wakeup
 137              		.bss
 138              		.align	2
 139              		.set	.LANCHOR0,. + 0
 140              		.type	RPi_UART_backup, %object
 141              		.size	RPi_UART_backup, 1
 142              	RPi_UART_backup:
 143 0000 00       		.space	1
 144              		.text
 145              	.Letext0:
 146              		.file 2 "Generated_Source\\PSoC5\\cytypes.h"
 147              		.file 3 "Generated_Source\\PSoC5\\RPi_UART.h"