ARM GAS  C:\Users\jon\AppData\Local\Temp\ccd8kafm.s 			page 1


   1              		.syntax unified
   2              		.cpu cortex-m3
   3              		.fpu softvfp
   4              		.eabi_attribute 20, 1
   5              		.eabi_attribute 21, 1
   6              		.eabi_attribute 23, 3
   7              		.eabi_attribute 24, 1
   8              		.eabi_attribute 25, 1
   9              		.eabi_attribute 26, 1
  10              		.eabi_attribute 30, 2
  11              		.eabi_attribute 34, 1
  12              		.eabi_attribute 18, 4
  13              		.thumb
  14              		.syntax unified
  15              		.file	"Timer_1.c"
  16              		.text
  17              	.Ltext0:
  18              		.cfi_sections	.debug_frame
  19              		.section	.text.Timer_1_Init,"ax",%progbits
  20              		.align	2
  21              		.global	Timer_1_Init
  22              		.thumb
  23              		.thumb_func
  24              		.type	Timer_1_Init, %function
  25              	Timer_1_Init:
  26              	.LFB0:
  27              		.file 1 "Generated_Source\\PSoC5\\Timer_1.c"
   1:Generated_Source\PSoC5/Timer_1.c **** /*******************************************************************************
   2:Generated_Source\PSoC5/Timer_1.c **** * File Name: Timer_1.c
   3:Generated_Source\PSoC5/Timer_1.c **** * Version 2.80
   4:Generated_Source\PSoC5/Timer_1.c **** *
   5:Generated_Source\PSoC5/Timer_1.c **** * Description:
   6:Generated_Source\PSoC5/Timer_1.c **** *  The Timer component consists of a 8, 16, 24 or 32-bit timer with
   7:Generated_Source\PSoC5/Timer_1.c **** *  a selectable period between 2 and 2^Width - 1.  The timer may free run
   8:Generated_Source\PSoC5/Timer_1.c **** *  or be used as a capture timer as well.  The capture can be initiated
   9:Generated_Source\PSoC5/Timer_1.c **** *  by a positive or negative edge signal as well as via software.
  10:Generated_Source\PSoC5/Timer_1.c **** *  A trigger input can be programmed to enable the timer on rising edge
  11:Generated_Source\PSoC5/Timer_1.c **** *  falling edge, either edge or continous run.
  12:Generated_Source\PSoC5/Timer_1.c **** *  Interrupts may be generated due to a terminal count condition
  13:Generated_Source\PSoC5/Timer_1.c **** *  or a capture event.
  14:Generated_Source\PSoC5/Timer_1.c **** *
  15:Generated_Source\PSoC5/Timer_1.c **** * Note:
  16:Generated_Source\PSoC5/Timer_1.c **** *
  17:Generated_Source\PSoC5/Timer_1.c **** ********************************************************************************
  18:Generated_Source\PSoC5/Timer_1.c **** * Copyright 2008-2017, Cypress Semiconductor Corporation.  All rights reserved.
  19:Generated_Source\PSoC5/Timer_1.c **** * You may use this file only in accordance with the license, terms, conditions,
  20:Generated_Source\PSoC5/Timer_1.c **** * disclaimers, and limitations in the end user license agreement accompanying
  21:Generated_Source\PSoC5/Timer_1.c **** * the software package with which this file was provided.
  22:Generated_Source\PSoC5/Timer_1.c **** ********************************************************************************/
  23:Generated_Source\PSoC5/Timer_1.c **** 
  24:Generated_Source\PSoC5/Timer_1.c **** #include "Timer_1.h"
  25:Generated_Source\PSoC5/Timer_1.c **** 
  26:Generated_Source\PSoC5/Timer_1.c **** uint8 Timer_1_initVar = 0u;
  27:Generated_Source\PSoC5/Timer_1.c **** 
  28:Generated_Source\PSoC5/Timer_1.c **** 
  29:Generated_Source\PSoC5/Timer_1.c **** /*******************************************************************************
  30:Generated_Source\PSoC5/Timer_1.c **** * Function Name: Timer_1_Init
ARM GAS  C:\Users\jon\AppData\Local\Temp\ccd8kafm.s 			page 2


  31:Generated_Source\PSoC5/Timer_1.c **** ********************************************************************************
  32:Generated_Source\PSoC5/Timer_1.c **** *
  33:Generated_Source\PSoC5/Timer_1.c **** * Summary:
  34:Generated_Source\PSoC5/Timer_1.c **** *  Initialize to the schematic state
  35:Generated_Source\PSoC5/Timer_1.c **** *
  36:Generated_Source\PSoC5/Timer_1.c **** * Parameters:
  37:Generated_Source\PSoC5/Timer_1.c **** *  void
  38:Generated_Source\PSoC5/Timer_1.c **** *
  39:Generated_Source\PSoC5/Timer_1.c **** * Return:
  40:Generated_Source\PSoC5/Timer_1.c **** *  void
  41:Generated_Source\PSoC5/Timer_1.c **** *
  42:Generated_Source\PSoC5/Timer_1.c **** *******************************************************************************/
  43:Generated_Source\PSoC5/Timer_1.c **** void Timer_1_Init(void) 
  44:Generated_Source\PSoC5/Timer_1.c **** {
  28              		.loc 1 44 0
  29              		.cfi_startproc
  30              		@ args = 0, pretend = 0, frame = 0
  31              		@ frame_needed = 0, uses_anonymous_args = 0
  32              		@ link register save eliminated.
  33 0000 70B4     		push	{r4, r5, r6}
  34              		.cfi_def_cfa_offset 12
  35              		.cfi_offset 4, -12
  36              		.cfi_offset 5, -8
  37              		.cfi_offset 6, -4
  45:Generated_Source\PSoC5/Timer_1.c ****     #if(!Timer_1_UsingFixedFunction)
  46:Generated_Source\PSoC5/Timer_1.c ****             /* Interrupt State Backup for Critical Region*/
  47:Generated_Source\PSoC5/Timer_1.c ****             uint8 Timer_1_interruptState;
  48:Generated_Source\PSoC5/Timer_1.c ****     #endif /* Interrupt state back up for Fixed Function only */
  49:Generated_Source\PSoC5/Timer_1.c **** 
  50:Generated_Source\PSoC5/Timer_1.c ****     #if (Timer_1_UsingFixedFunction)
  51:Generated_Source\PSoC5/Timer_1.c ****         /* Clear all bits but the enable bit (if it's already set) for Timer operation */
  52:Generated_Source\PSoC5/Timer_1.c ****         Timer_1_CONTROL &= Timer_1_CTRL_ENABLE;
  38              		.loc 1 52 0
  39 0002 1449     		ldr	r1, .L3
  53:Generated_Source\PSoC5/Timer_1.c **** 
  54:Generated_Source\PSoC5/Timer_1.c ****         /* Clear the mode bits for continuous run mode */
  55:Generated_Source\PSoC5/Timer_1.c ****         #if (CY_PSOC5A)
  56:Generated_Source\PSoC5/Timer_1.c ****             Timer_1_CONTROL2 &= ((uint8)(~Timer_1_CTRL_MODE_MASK));
  57:Generated_Source\PSoC5/Timer_1.c ****         #endif /* Clear bits in CONTROL2 only in PSOC5A */
  58:Generated_Source\PSoC5/Timer_1.c **** 
  59:Generated_Source\PSoC5/Timer_1.c ****         #if (CY_PSOC3 || CY_PSOC5LP)
  60:Generated_Source\PSoC5/Timer_1.c ****             Timer_1_CONTROL3 &= ((uint8)(~Timer_1_CTRL_MODE_MASK));
  40              		.loc 1 60 0
  41 0004 1448     		ldr	r0, .L3+4
  52:Generated_Source\PSoC5/Timer_1.c **** 
  42              		.loc 1 52 0
  43 0006 0A78     		ldrb	r2, [r1]	@ zero_extendqisi2
  61:Generated_Source\PSoC5/Timer_1.c ****         #endif /* CONTROL3 register exists only in PSoC3 OR PSoC5LP */
  62:Generated_Source\PSoC5/Timer_1.c **** 
  63:Generated_Source\PSoC5/Timer_1.c ****         /* Check if One Shot mode is enabled i.e. RunMode !=0*/
  64:Generated_Source\PSoC5/Timer_1.c ****         #if (Timer_1_RunModeUsed != 0x0u)
  65:Generated_Source\PSoC5/Timer_1.c ****             /* Set 3rd bit of Control register to enable one shot mode */
  66:Generated_Source\PSoC5/Timer_1.c ****             Timer_1_CONTROL |= 0x04u;
  67:Generated_Source\PSoC5/Timer_1.c ****         #endif /* One Shot enabled only when RunModeUsed is not Continuous*/
  68:Generated_Source\PSoC5/Timer_1.c **** 
  69:Generated_Source\PSoC5/Timer_1.c ****         #if (Timer_1_RunModeUsed == 2)
  70:Generated_Source\PSoC5/Timer_1.c ****             #if (CY_PSOC5A)
ARM GAS  C:\Users\jon\AppData\Local\Temp\ccd8kafm.s 			page 3


  71:Generated_Source\PSoC5/Timer_1.c ****                 /* Set last 2 bits of control2 register if one shot(halt on
  72:Generated_Source\PSoC5/Timer_1.c ****                 interrupt) is enabled*/
  73:Generated_Source\PSoC5/Timer_1.c ****                 Timer_1_CONTROL2 |= 0x03u;
  74:Generated_Source\PSoC5/Timer_1.c ****             #endif /* Set One-Shot Halt on Interrupt bit in CONTROL2 for PSoC5A */
  75:Generated_Source\PSoC5/Timer_1.c **** 
  76:Generated_Source\PSoC5/Timer_1.c ****             #if (CY_PSOC3 || CY_PSOC5LP)
  77:Generated_Source\PSoC5/Timer_1.c ****                 /* Set last 2 bits of control3 register if one shot(halt on
  78:Generated_Source\PSoC5/Timer_1.c ****                 interrupt) is enabled*/
  79:Generated_Source\PSoC5/Timer_1.c ****                 Timer_1_CONTROL3 |= 0x03u;
  80:Generated_Source\PSoC5/Timer_1.c ****             #endif /* Set One-Shot Halt on Interrupt bit in CONTROL3 for PSoC3 or PSoC5LP */
  81:Generated_Source\PSoC5/Timer_1.c **** 
  82:Generated_Source\PSoC5/Timer_1.c ****         #endif /* Remove section if One Shot Halt on Interrupt is not enabled */
  83:Generated_Source\PSoC5/Timer_1.c **** 
  84:Generated_Source\PSoC5/Timer_1.c ****         #if (Timer_1_UsingHWEnable != 0)
  85:Generated_Source\PSoC5/Timer_1.c ****             #if (CY_PSOC5A)
  86:Generated_Source\PSoC5/Timer_1.c ****                 /* Set the default Run Mode of the Timer to Continuous */
  87:Generated_Source\PSoC5/Timer_1.c ****                 Timer_1_CONTROL2 |= Timer_1_CTRL_MODE_PULSEWIDTH;
  88:Generated_Source\PSoC5/Timer_1.c ****             #endif /* Set Continuous Run Mode in CONTROL2 for PSoC5A */
  89:Generated_Source\PSoC5/Timer_1.c **** 
  90:Generated_Source\PSoC5/Timer_1.c ****             #if (CY_PSOC3 || CY_PSOC5LP)
  91:Generated_Source\PSoC5/Timer_1.c ****                 /* Clear and Set ROD and COD bits of CFG2 register */
  92:Generated_Source\PSoC5/Timer_1.c ****                 Timer_1_CONTROL3 &= ((uint8)(~Timer_1_CTRL_RCOD_MASK));
  93:Generated_Source\PSoC5/Timer_1.c ****                 Timer_1_CONTROL3 |= Timer_1_CTRL_RCOD;
  94:Generated_Source\PSoC5/Timer_1.c **** 
  95:Generated_Source\PSoC5/Timer_1.c ****                 /* Clear and Enable the HW enable bit in CFG2 register */
  96:Generated_Source\PSoC5/Timer_1.c ****                 Timer_1_CONTROL3 &= ((uint8)(~Timer_1_CTRL_ENBL_MASK));
  97:Generated_Source\PSoC5/Timer_1.c ****                 Timer_1_CONTROL3 |= Timer_1_CTRL_ENBL;
  98:Generated_Source\PSoC5/Timer_1.c **** 
  99:Generated_Source\PSoC5/Timer_1.c ****                 /* Set the default Run Mode of the Timer to Continuous */
 100:Generated_Source\PSoC5/Timer_1.c ****                 Timer_1_CONTROL3 |= Timer_1_CTRL_MODE_CONTINUOUS;
 101:Generated_Source\PSoC5/Timer_1.c ****             #endif /* Set Continuous Run Mode in CONTROL3 for PSoC3ES3 or PSoC5A */
 102:Generated_Source\PSoC5/Timer_1.c **** 
 103:Generated_Source\PSoC5/Timer_1.c ****         #endif /* Configure Run Mode with hardware enable */
 104:Generated_Source\PSoC5/Timer_1.c **** 
 105:Generated_Source\PSoC5/Timer_1.c ****         /* Clear and Set SYNCTC and SYNCCMP bits of RT1 register */
 106:Generated_Source\PSoC5/Timer_1.c ****         Timer_1_RT1 &= ((uint8)(~Timer_1_RT1_MASK));
  44              		.loc 1 106 0
  45 0008 144B     		ldr	r3, .L3+8
  52:Generated_Source\PSoC5/Timer_1.c **** 
  46              		.loc 1 52 0
  47 000a 02F00102 		and	r2, r2, #1
  48 000e 0A70     		strb	r2, [r1]
  60:Generated_Source\PSoC5/Timer_1.c ****         #endif /* CONTROL3 register exists only in PSoC3 OR PSoC5LP */
  49              		.loc 1 60 0
  50 0010 0278     		ldrb	r2, [r0]	@ zero_extendqisi2
  51              	.LBB16:
  52              	.LBB17:
 107:Generated_Source\PSoC5/Timer_1.c ****         Timer_1_RT1 |= Timer_1_SYNC;
 108:Generated_Source\PSoC5/Timer_1.c **** 
 109:Generated_Source\PSoC5/Timer_1.c ****         /*Enable DSI Sync all all inputs of the Timer*/
 110:Generated_Source\PSoC5/Timer_1.c ****         Timer_1_RT1 &= ((uint8)(~Timer_1_SYNCDSI_MASK));
 111:Generated_Source\PSoC5/Timer_1.c ****         Timer_1_RT1 |= Timer_1_SYNCDSI_EN;
 112:Generated_Source\PSoC5/Timer_1.c **** 
 113:Generated_Source\PSoC5/Timer_1.c ****         /* Set the IRQ to use the status register interrupts */
 114:Generated_Source\PSoC5/Timer_1.c ****         Timer_1_CONTROL2 |= Timer_1_CTRL2_IRQ_SEL;
 115:Generated_Source\PSoC5/Timer_1.c ****     #endif /* Configuring registers of fixed function implementation */
 116:Generated_Source\PSoC5/Timer_1.c **** 
ARM GAS  C:\Users\jon\AppData\Local\Temp\ccd8kafm.s 			page 4


 117:Generated_Source\PSoC5/Timer_1.c ****     /* Set Initial values from Configuration */
 118:Generated_Source\PSoC5/Timer_1.c ****     Timer_1_WritePeriod(Timer_1_INIT_PERIOD);
 119:Generated_Source\PSoC5/Timer_1.c ****     Timer_1_WriteCounter(Timer_1_INIT_PERIOD);
 120:Generated_Source\PSoC5/Timer_1.c **** 
 121:Generated_Source\PSoC5/Timer_1.c ****     #if (Timer_1_UsingHWCaptureCounter)/* Capture counter is enabled */
 122:Generated_Source\PSoC5/Timer_1.c ****         Timer_1_CAPTURE_COUNT_CTRL |= Timer_1_CNTR_ENABLE;
 123:Generated_Source\PSoC5/Timer_1.c ****         Timer_1_SetCaptureCount(Timer_1_INIT_CAPTURE_COUNT);
 124:Generated_Source\PSoC5/Timer_1.c ****     #endif /* Configure capture counter value */
 125:Generated_Source\PSoC5/Timer_1.c **** 
 126:Generated_Source\PSoC5/Timer_1.c ****     #if (!Timer_1_UsingFixedFunction)
 127:Generated_Source\PSoC5/Timer_1.c ****         #if (Timer_1_SoftwareCaptureMode)
 128:Generated_Source\PSoC5/Timer_1.c ****             Timer_1_SetCaptureMode(Timer_1_INIT_CAPTURE_MODE);
 129:Generated_Source\PSoC5/Timer_1.c ****         #endif /* Set Capture Mode for UDB implementation if capture mode is software controlled */
 130:Generated_Source\PSoC5/Timer_1.c **** 
 131:Generated_Source\PSoC5/Timer_1.c ****         #if (Timer_1_SoftwareTriggerMode)
 132:Generated_Source\PSoC5/Timer_1.c ****             #if (!Timer_1_UDB_CONTROL_REG_REMOVED)
 133:Generated_Source\PSoC5/Timer_1.c ****                 if (0u == (Timer_1_CONTROL & Timer_1__B_TIMER__TM_SOFTWARE))
 134:Generated_Source\PSoC5/Timer_1.c ****                 {
 135:Generated_Source\PSoC5/Timer_1.c ****                     Timer_1_SetTriggerMode(Timer_1_INIT_TRIGGER_MODE);
 136:Generated_Source\PSoC5/Timer_1.c ****                 }
 137:Generated_Source\PSoC5/Timer_1.c ****             #endif /* (!Timer_1_UDB_CONTROL_REG_REMOVED) */
 138:Generated_Source\PSoC5/Timer_1.c ****         #endif /* Set trigger mode for UDB Implementation if trigger mode is software controlled */
 139:Generated_Source\PSoC5/Timer_1.c **** 
 140:Generated_Source\PSoC5/Timer_1.c ****         /* CyEnterCriticalRegion and CyExitCriticalRegion are used to mark following region critica
 141:Generated_Source\PSoC5/Timer_1.c ****         /* Enter Critical Region*/
 142:Generated_Source\PSoC5/Timer_1.c ****         Timer_1_interruptState = CyEnterCriticalSection();
 143:Generated_Source\PSoC5/Timer_1.c **** 
 144:Generated_Source\PSoC5/Timer_1.c ****         /* Use the interrupt output of the status register for IRQ output */
 145:Generated_Source\PSoC5/Timer_1.c ****         Timer_1_STATUS_AUX_CTRL |= Timer_1_STATUS_ACTL_INT_EN_MASK;
 146:Generated_Source\PSoC5/Timer_1.c **** 
 147:Generated_Source\PSoC5/Timer_1.c ****         /* Exit Critical Region*/
 148:Generated_Source\PSoC5/Timer_1.c ****         CyExitCriticalSection(Timer_1_interruptState);
 149:Generated_Source\PSoC5/Timer_1.c **** 
 150:Generated_Source\PSoC5/Timer_1.c ****         #if (Timer_1_EnableTriggerMode)
 151:Generated_Source\PSoC5/Timer_1.c ****             Timer_1_EnableTrigger();
 152:Generated_Source\PSoC5/Timer_1.c ****         #endif /* Set Trigger enable bit for UDB implementation in the control register*/
 153:Generated_Source\PSoC5/Timer_1.c **** 		
 154:Generated_Source\PSoC5/Timer_1.c **** 		
 155:Generated_Source\PSoC5/Timer_1.c ****         #if (Timer_1_InterruptOnCaptureCount && !Timer_1_UDB_CONTROL_REG_REMOVED)
 156:Generated_Source\PSoC5/Timer_1.c ****             Timer_1_SetInterruptCount(Timer_1_INIT_INT_CAPTURE_COUNT);
 157:Generated_Source\PSoC5/Timer_1.c ****         #endif /* Set interrupt count in UDB implementation if interrupt count feature is checked.*
 158:Generated_Source\PSoC5/Timer_1.c **** 
 159:Generated_Source\PSoC5/Timer_1.c ****         Timer_1_ClearFIFO();
 160:Generated_Source\PSoC5/Timer_1.c ****     #endif /* Configure additional features of UDB implementation */
 161:Generated_Source\PSoC5/Timer_1.c **** 
 162:Generated_Source\PSoC5/Timer_1.c ****     Timer_1_SetInterruptMode(Timer_1_INIT_INTERRUPT_MODE);
 163:Generated_Source\PSoC5/Timer_1.c **** }
 164:Generated_Source\PSoC5/Timer_1.c **** 
 165:Generated_Source\PSoC5/Timer_1.c **** 
 166:Generated_Source\PSoC5/Timer_1.c **** /*******************************************************************************
 167:Generated_Source\PSoC5/Timer_1.c **** * Function Name: Timer_1_Enable
 168:Generated_Source\PSoC5/Timer_1.c **** ********************************************************************************
 169:Generated_Source\PSoC5/Timer_1.c **** *
 170:Generated_Source\PSoC5/Timer_1.c **** * Summary:
 171:Generated_Source\PSoC5/Timer_1.c **** *  Enable the Timer
 172:Generated_Source\PSoC5/Timer_1.c **** *
 173:Generated_Source\PSoC5/Timer_1.c **** * Parameters:
ARM GAS  C:\Users\jon\AppData\Local\Temp\ccd8kafm.s 			page 5


 174:Generated_Source\PSoC5/Timer_1.c **** *  void
 175:Generated_Source\PSoC5/Timer_1.c **** *
 176:Generated_Source\PSoC5/Timer_1.c **** * Return:
 177:Generated_Source\PSoC5/Timer_1.c **** *  void
 178:Generated_Source\PSoC5/Timer_1.c **** *
 179:Generated_Source\PSoC5/Timer_1.c **** *******************************************************************************/
 180:Generated_Source\PSoC5/Timer_1.c **** void Timer_1_Enable(void) 
 181:Generated_Source\PSoC5/Timer_1.c **** {
 182:Generated_Source\PSoC5/Timer_1.c ****     /* Globally Enable the Fixed Function Block chosen */
 183:Generated_Source\PSoC5/Timer_1.c ****     #if (Timer_1_UsingFixedFunction)
 184:Generated_Source\PSoC5/Timer_1.c ****         Timer_1_GLOBAL_ENABLE |= Timer_1_BLOCK_EN_MASK;
 185:Generated_Source\PSoC5/Timer_1.c ****         Timer_1_GLOBAL_STBY_ENABLE |= Timer_1_BLOCK_STBY_EN_MASK;
 186:Generated_Source\PSoC5/Timer_1.c ****     #endif /* Set Enable bit for enabling Fixed function timer*/
 187:Generated_Source\PSoC5/Timer_1.c **** 
 188:Generated_Source\PSoC5/Timer_1.c ****     /* Remove assignment if control register is removed */
 189:Generated_Source\PSoC5/Timer_1.c ****     #if (!Timer_1_UDB_CONTROL_REG_REMOVED || Timer_1_UsingFixedFunction)
 190:Generated_Source\PSoC5/Timer_1.c ****         Timer_1_CONTROL |= Timer_1_CTRL_ENABLE;
 191:Generated_Source\PSoC5/Timer_1.c ****     #endif /* Remove assignment if control register is removed */
 192:Generated_Source\PSoC5/Timer_1.c **** }
 193:Generated_Source\PSoC5/Timer_1.c **** 
 194:Generated_Source\PSoC5/Timer_1.c **** 
 195:Generated_Source\PSoC5/Timer_1.c **** /*******************************************************************************
 196:Generated_Source\PSoC5/Timer_1.c **** * Function Name: Timer_1_Start
 197:Generated_Source\PSoC5/Timer_1.c **** ********************************************************************************
 198:Generated_Source\PSoC5/Timer_1.c **** *
 199:Generated_Source\PSoC5/Timer_1.c **** * Summary:
 200:Generated_Source\PSoC5/Timer_1.c **** *  The start function initializes the timer with the default values, the
 201:Generated_Source\PSoC5/Timer_1.c **** *  enables the timerto begin counting.  It does not enable interrupts,
 202:Generated_Source\PSoC5/Timer_1.c **** *  the EnableInt command should be called if interrupt generation is required.
 203:Generated_Source\PSoC5/Timer_1.c **** *
 204:Generated_Source\PSoC5/Timer_1.c **** * Parameters:
 205:Generated_Source\PSoC5/Timer_1.c **** *  void
 206:Generated_Source\PSoC5/Timer_1.c **** *
 207:Generated_Source\PSoC5/Timer_1.c **** * Return:
 208:Generated_Source\PSoC5/Timer_1.c **** *  void
 209:Generated_Source\PSoC5/Timer_1.c **** *
 210:Generated_Source\PSoC5/Timer_1.c **** * Global variables:
 211:Generated_Source\PSoC5/Timer_1.c **** *  Timer_1_initVar: Is modified when this function is called for the
 212:Generated_Source\PSoC5/Timer_1.c **** *   first time. Is used to ensure that initialization happens only once.
 213:Generated_Source\PSoC5/Timer_1.c **** *
 214:Generated_Source\PSoC5/Timer_1.c **** *******************************************************************************/
 215:Generated_Source\PSoC5/Timer_1.c **** void Timer_1_Start(void) 
 216:Generated_Source\PSoC5/Timer_1.c **** {
 217:Generated_Source\PSoC5/Timer_1.c ****     if(Timer_1_initVar == 0u)
 218:Generated_Source\PSoC5/Timer_1.c ****     {
 219:Generated_Source\PSoC5/Timer_1.c ****         Timer_1_Init();
 220:Generated_Source\PSoC5/Timer_1.c **** 
 221:Generated_Source\PSoC5/Timer_1.c ****         Timer_1_initVar = 1u;   /* Clear this bit for Initialization */
 222:Generated_Source\PSoC5/Timer_1.c ****     }
 223:Generated_Source\PSoC5/Timer_1.c **** 
 224:Generated_Source\PSoC5/Timer_1.c ****     /* Enable the Timer */
 225:Generated_Source\PSoC5/Timer_1.c ****     Timer_1_Enable();
 226:Generated_Source\PSoC5/Timer_1.c **** }
 227:Generated_Source\PSoC5/Timer_1.c **** 
 228:Generated_Source\PSoC5/Timer_1.c **** 
 229:Generated_Source\PSoC5/Timer_1.c **** /*******************************************************************************
 230:Generated_Source\PSoC5/Timer_1.c **** * Function Name: Timer_1_Stop
ARM GAS  C:\Users\jon\AppData\Local\Temp\ccd8kafm.s 			page 6


 231:Generated_Source\PSoC5/Timer_1.c **** ********************************************************************************
 232:Generated_Source\PSoC5/Timer_1.c **** *
 233:Generated_Source\PSoC5/Timer_1.c **** * Summary:
 234:Generated_Source\PSoC5/Timer_1.c **** *  The stop function halts the timer, but does not change any modes or disable
 235:Generated_Source\PSoC5/Timer_1.c **** *  interrupts.
 236:Generated_Source\PSoC5/Timer_1.c **** *
 237:Generated_Source\PSoC5/Timer_1.c **** * Parameters:
 238:Generated_Source\PSoC5/Timer_1.c **** *  void
 239:Generated_Source\PSoC5/Timer_1.c **** *
 240:Generated_Source\PSoC5/Timer_1.c **** * Return:
 241:Generated_Source\PSoC5/Timer_1.c **** *  void
 242:Generated_Source\PSoC5/Timer_1.c **** *
 243:Generated_Source\PSoC5/Timer_1.c **** * Side Effects: If the Enable mode is set to Hardware only then this function
 244:Generated_Source\PSoC5/Timer_1.c **** *               has no effect on the operation of the timer.
 245:Generated_Source\PSoC5/Timer_1.c **** *
 246:Generated_Source\PSoC5/Timer_1.c **** *******************************************************************************/
 247:Generated_Source\PSoC5/Timer_1.c **** void Timer_1_Stop(void) 
 248:Generated_Source\PSoC5/Timer_1.c **** {
 249:Generated_Source\PSoC5/Timer_1.c ****     /* Disable Timer */
 250:Generated_Source\PSoC5/Timer_1.c ****     #if(!Timer_1_UDB_CONTROL_REG_REMOVED || Timer_1_UsingFixedFunction)
 251:Generated_Source\PSoC5/Timer_1.c ****         Timer_1_CONTROL &= ((uint8)(~Timer_1_CTRL_ENABLE));
 252:Generated_Source\PSoC5/Timer_1.c ****     #endif /* Remove assignment if control register is removed */
 253:Generated_Source\PSoC5/Timer_1.c **** 
 254:Generated_Source\PSoC5/Timer_1.c ****     /* Globally disable the Fixed Function Block chosen */
 255:Generated_Source\PSoC5/Timer_1.c ****     #if (Timer_1_UsingFixedFunction)
 256:Generated_Source\PSoC5/Timer_1.c ****         Timer_1_GLOBAL_ENABLE &= ((uint8)(~Timer_1_BLOCK_EN_MASK));
 257:Generated_Source\PSoC5/Timer_1.c ****         Timer_1_GLOBAL_STBY_ENABLE &= ((uint8)(~Timer_1_BLOCK_STBY_EN_MASK));
 258:Generated_Source\PSoC5/Timer_1.c ****     #endif /* Disable global enable for the Timer Fixed function block to stop the Timer*/
 259:Generated_Source\PSoC5/Timer_1.c **** }
 260:Generated_Source\PSoC5/Timer_1.c **** 
 261:Generated_Source\PSoC5/Timer_1.c **** 
 262:Generated_Source\PSoC5/Timer_1.c **** /*******************************************************************************
 263:Generated_Source\PSoC5/Timer_1.c **** * Function Name: Timer_1_SetInterruptMode
 264:Generated_Source\PSoC5/Timer_1.c **** ********************************************************************************
 265:Generated_Source\PSoC5/Timer_1.c **** *
 266:Generated_Source\PSoC5/Timer_1.c **** * Summary:
 267:Generated_Source\PSoC5/Timer_1.c **** *  This function selects which of the interrupt inputs may cause an interrupt.
 268:Generated_Source\PSoC5/Timer_1.c **** *  The twosources are caputure and terminal.  One, both or neither may
 269:Generated_Source\PSoC5/Timer_1.c **** *  be selected.
 270:Generated_Source\PSoC5/Timer_1.c **** *
 271:Generated_Source\PSoC5/Timer_1.c **** * Parameters:
 272:Generated_Source\PSoC5/Timer_1.c **** *  interruptMode:   This parameter is used to enable interrups on either/or
 273:Generated_Source\PSoC5/Timer_1.c **** *                   terminal count or capture.
 274:Generated_Source\PSoC5/Timer_1.c **** *
 275:Generated_Source\PSoC5/Timer_1.c **** * Return:
 276:Generated_Source\PSoC5/Timer_1.c **** *  void
 277:Generated_Source\PSoC5/Timer_1.c **** *
 278:Generated_Source\PSoC5/Timer_1.c **** *******************************************************************************/
 279:Generated_Source\PSoC5/Timer_1.c **** void Timer_1_SetInterruptMode(uint8 interruptMode) 
 280:Generated_Source\PSoC5/Timer_1.c **** {
 281:Generated_Source\PSoC5/Timer_1.c ****     Timer_1_STATUS_MASK = interruptMode;
 282:Generated_Source\PSoC5/Timer_1.c **** }
 283:Generated_Source\PSoC5/Timer_1.c **** 
 284:Generated_Source\PSoC5/Timer_1.c **** 
 285:Generated_Source\PSoC5/Timer_1.c **** /*******************************************************************************
 286:Generated_Source\PSoC5/Timer_1.c **** * Function Name: Timer_1_SoftwareCapture
 287:Generated_Source\PSoC5/Timer_1.c **** ********************************************************************************
ARM GAS  C:\Users\jon\AppData\Local\Temp\ccd8kafm.s 			page 7


 288:Generated_Source\PSoC5/Timer_1.c **** *
 289:Generated_Source\PSoC5/Timer_1.c **** * Summary:
 290:Generated_Source\PSoC5/Timer_1.c **** *  This function forces a capture independent of the capture signal.
 291:Generated_Source\PSoC5/Timer_1.c **** *
 292:Generated_Source\PSoC5/Timer_1.c **** * Parameters:
 293:Generated_Source\PSoC5/Timer_1.c **** *  void
 294:Generated_Source\PSoC5/Timer_1.c **** *
 295:Generated_Source\PSoC5/Timer_1.c **** * Return:
 296:Generated_Source\PSoC5/Timer_1.c **** *  void
 297:Generated_Source\PSoC5/Timer_1.c **** *
 298:Generated_Source\PSoC5/Timer_1.c **** * Side Effects:
 299:Generated_Source\PSoC5/Timer_1.c **** *  An existing hardware capture could be overwritten.
 300:Generated_Source\PSoC5/Timer_1.c **** *
 301:Generated_Source\PSoC5/Timer_1.c **** *******************************************************************************/
 302:Generated_Source\PSoC5/Timer_1.c **** void Timer_1_SoftwareCapture(void) 
 303:Generated_Source\PSoC5/Timer_1.c **** {
 304:Generated_Source\PSoC5/Timer_1.c ****     /* Generate a software capture by reading the counter register */
 305:Generated_Source\PSoC5/Timer_1.c ****     #if(Timer_1_UsingFixedFunction)
 306:Generated_Source\PSoC5/Timer_1.c ****         (void)CY_GET_REG16(Timer_1_COUNTER_LSB_PTR);
 307:Generated_Source\PSoC5/Timer_1.c ****     #else
 308:Generated_Source\PSoC5/Timer_1.c ****         (void)CY_GET_REG8(Timer_1_COUNTER_LSB_PTR_8BIT);
 309:Generated_Source\PSoC5/Timer_1.c ****     #endif/* (Timer_1_UsingFixedFunction) */
 310:Generated_Source\PSoC5/Timer_1.c ****     /* Capture Data is now in the FIFO */
 311:Generated_Source\PSoC5/Timer_1.c **** }
 312:Generated_Source\PSoC5/Timer_1.c **** 
 313:Generated_Source\PSoC5/Timer_1.c **** 
 314:Generated_Source\PSoC5/Timer_1.c **** /*******************************************************************************
 315:Generated_Source\PSoC5/Timer_1.c **** * Function Name: Timer_1_ReadStatusRegister
 316:Generated_Source\PSoC5/Timer_1.c **** ********************************************************************************
 317:Generated_Source\PSoC5/Timer_1.c **** *
 318:Generated_Source\PSoC5/Timer_1.c **** * Summary:
 319:Generated_Source\PSoC5/Timer_1.c **** *  Reads the status register and returns it's state. This function should use
 320:Generated_Source\PSoC5/Timer_1.c **** *  defined types for the bit-field information as the bits in this register may
 321:Generated_Source\PSoC5/Timer_1.c **** *  be permuteable.
 322:Generated_Source\PSoC5/Timer_1.c **** *
 323:Generated_Source\PSoC5/Timer_1.c **** * Parameters:
 324:Generated_Source\PSoC5/Timer_1.c **** *  void
 325:Generated_Source\PSoC5/Timer_1.c **** *
 326:Generated_Source\PSoC5/Timer_1.c **** * Return:
 327:Generated_Source\PSoC5/Timer_1.c **** *  The contents of the status register
 328:Generated_Source\PSoC5/Timer_1.c **** *
 329:Generated_Source\PSoC5/Timer_1.c **** * Side Effects:
 330:Generated_Source\PSoC5/Timer_1.c **** *  Status register bits may be clear on read.
 331:Generated_Source\PSoC5/Timer_1.c **** *
 332:Generated_Source\PSoC5/Timer_1.c **** *******************************************************************************/
 333:Generated_Source\PSoC5/Timer_1.c **** uint8   Timer_1_ReadStatusRegister(void) 
 334:Generated_Source\PSoC5/Timer_1.c **** {
 335:Generated_Source\PSoC5/Timer_1.c ****     return (Timer_1_STATUS);
 336:Generated_Source\PSoC5/Timer_1.c **** }
 337:Generated_Source\PSoC5/Timer_1.c **** 
 338:Generated_Source\PSoC5/Timer_1.c **** 
 339:Generated_Source\PSoC5/Timer_1.c **** #if (!Timer_1_UDB_CONTROL_REG_REMOVED) /* Remove API if control register is unused */
 340:Generated_Source\PSoC5/Timer_1.c **** 
 341:Generated_Source\PSoC5/Timer_1.c **** 
 342:Generated_Source\PSoC5/Timer_1.c **** /*******************************************************************************
 343:Generated_Source\PSoC5/Timer_1.c **** * Function Name: Timer_1_ReadControlRegister
 344:Generated_Source\PSoC5/Timer_1.c **** ********************************************************************************
ARM GAS  C:\Users\jon\AppData\Local\Temp\ccd8kafm.s 			page 8


 345:Generated_Source\PSoC5/Timer_1.c **** *
 346:Generated_Source\PSoC5/Timer_1.c **** * Summary:
 347:Generated_Source\PSoC5/Timer_1.c **** *  Reads the control register and returns it's value.
 348:Generated_Source\PSoC5/Timer_1.c **** *
 349:Generated_Source\PSoC5/Timer_1.c **** * Parameters:
 350:Generated_Source\PSoC5/Timer_1.c **** *  void
 351:Generated_Source\PSoC5/Timer_1.c **** *
 352:Generated_Source\PSoC5/Timer_1.c **** * Return:
 353:Generated_Source\PSoC5/Timer_1.c **** *  The contents of the control register
 354:Generated_Source\PSoC5/Timer_1.c **** *
 355:Generated_Source\PSoC5/Timer_1.c **** *******************************************************************************/
 356:Generated_Source\PSoC5/Timer_1.c **** uint8 Timer_1_ReadControlRegister(void) 
 357:Generated_Source\PSoC5/Timer_1.c **** {
 358:Generated_Source\PSoC5/Timer_1.c ****     #if (!Timer_1_UDB_CONTROL_REG_REMOVED) 
 359:Generated_Source\PSoC5/Timer_1.c ****         return ((uint8)Timer_1_CONTROL);
 360:Generated_Source\PSoC5/Timer_1.c ****     #else
 361:Generated_Source\PSoC5/Timer_1.c ****         return (0);
 362:Generated_Source\PSoC5/Timer_1.c ****     #endif /* (!Timer_1_UDB_CONTROL_REG_REMOVED) */
 363:Generated_Source\PSoC5/Timer_1.c **** }
 364:Generated_Source\PSoC5/Timer_1.c **** 
 365:Generated_Source\PSoC5/Timer_1.c **** 
 366:Generated_Source\PSoC5/Timer_1.c **** /*******************************************************************************
 367:Generated_Source\PSoC5/Timer_1.c **** * Function Name: Timer_1_WriteControlRegister
 368:Generated_Source\PSoC5/Timer_1.c **** ********************************************************************************
 369:Generated_Source\PSoC5/Timer_1.c **** *
 370:Generated_Source\PSoC5/Timer_1.c **** * Summary:
 371:Generated_Source\PSoC5/Timer_1.c **** *  Sets the bit-field of the control register.
 372:Generated_Source\PSoC5/Timer_1.c **** *
 373:Generated_Source\PSoC5/Timer_1.c **** * Parameters:
 374:Generated_Source\PSoC5/Timer_1.c **** *  control: The contents of the control register
 375:Generated_Source\PSoC5/Timer_1.c **** *
 376:Generated_Source\PSoC5/Timer_1.c **** * Return:
 377:Generated_Source\PSoC5/Timer_1.c **** *
 378:Generated_Source\PSoC5/Timer_1.c **** *******************************************************************************/
 379:Generated_Source\PSoC5/Timer_1.c **** void Timer_1_WriteControlRegister(uint8 control) 
 380:Generated_Source\PSoC5/Timer_1.c **** {
 381:Generated_Source\PSoC5/Timer_1.c ****     #if (!Timer_1_UDB_CONTROL_REG_REMOVED) 
 382:Generated_Source\PSoC5/Timer_1.c ****         Timer_1_CONTROL = control;
 383:Generated_Source\PSoC5/Timer_1.c ****     #else
 384:Generated_Source\PSoC5/Timer_1.c ****         control = 0u;
 385:Generated_Source\PSoC5/Timer_1.c ****     #endif /* (!Timer_1_UDB_CONTROL_REG_REMOVED) */
 386:Generated_Source\PSoC5/Timer_1.c **** }
 387:Generated_Source\PSoC5/Timer_1.c **** 
 388:Generated_Source\PSoC5/Timer_1.c **** #endif /* Remove API if control register is unused */
 389:Generated_Source\PSoC5/Timer_1.c **** 
 390:Generated_Source\PSoC5/Timer_1.c **** 
 391:Generated_Source\PSoC5/Timer_1.c **** /*******************************************************************************
 392:Generated_Source\PSoC5/Timer_1.c **** * Function Name: Timer_1_ReadPeriod
 393:Generated_Source\PSoC5/Timer_1.c **** ********************************************************************************
 394:Generated_Source\PSoC5/Timer_1.c **** *
 395:Generated_Source\PSoC5/Timer_1.c **** * Summary:
 396:Generated_Source\PSoC5/Timer_1.c **** *  This function returns the current value of the Period.
 397:Generated_Source\PSoC5/Timer_1.c **** *
 398:Generated_Source\PSoC5/Timer_1.c **** * Parameters:
 399:Generated_Source\PSoC5/Timer_1.c **** *  void
 400:Generated_Source\PSoC5/Timer_1.c **** *
 401:Generated_Source\PSoC5/Timer_1.c **** * Return:
ARM GAS  C:\Users\jon\AppData\Local\Temp\ccd8kafm.s 			page 9


 402:Generated_Source\PSoC5/Timer_1.c **** *  The present value of the counter.
 403:Generated_Source\PSoC5/Timer_1.c **** *
 404:Generated_Source\PSoC5/Timer_1.c **** *******************************************************************************/
 405:Generated_Source\PSoC5/Timer_1.c **** uint8 Timer_1_ReadPeriod(void) 
 406:Generated_Source\PSoC5/Timer_1.c **** {
 407:Generated_Source\PSoC5/Timer_1.c ****    #if(Timer_1_UsingFixedFunction)
 408:Generated_Source\PSoC5/Timer_1.c ****        return ((uint8)CY_GET_REG16(Timer_1_PERIOD_LSB_PTR));
 409:Generated_Source\PSoC5/Timer_1.c ****    #else
 410:Generated_Source\PSoC5/Timer_1.c ****        return (CY_GET_REG8(Timer_1_PERIOD_LSB_PTR));
 411:Generated_Source\PSoC5/Timer_1.c ****    #endif /* (Timer_1_UsingFixedFunction) */
 412:Generated_Source\PSoC5/Timer_1.c **** }
 413:Generated_Source\PSoC5/Timer_1.c **** 
 414:Generated_Source\PSoC5/Timer_1.c **** 
 415:Generated_Source\PSoC5/Timer_1.c **** /*******************************************************************************
 416:Generated_Source\PSoC5/Timer_1.c **** * Function Name: Timer_1_WritePeriod
 417:Generated_Source\PSoC5/Timer_1.c **** ********************************************************************************
 418:Generated_Source\PSoC5/Timer_1.c **** *
 419:Generated_Source\PSoC5/Timer_1.c **** * Summary:
 420:Generated_Source\PSoC5/Timer_1.c **** *  This function is used to change the period of the counter.  The new period
 421:Generated_Source\PSoC5/Timer_1.c **** *  will be loaded the next time terminal count is detected.
 422:Generated_Source\PSoC5/Timer_1.c **** *
 423:Generated_Source\PSoC5/Timer_1.c **** * Parameters:
 424:Generated_Source\PSoC5/Timer_1.c **** *  period: This value may be between 1 and (2^Resolution)-1.  A value of 0 will
 425:Generated_Source\PSoC5/Timer_1.c **** *          result in the counter remaining at zero.
 426:Generated_Source\PSoC5/Timer_1.c **** *
 427:Generated_Source\PSoC5/Timer_1.c **** * Return:
 428:Generated_Source\PSoC5/Timer_1.c **** *  void
 429:Generated_Source\PSoC5/Timer_1.c **** *
 430:Generated_Source\PSoC5/Timer_1.c **** *******************************************************************************/
 431:Generated_Source\PSoC5/Timer_1.c **** void Timer_1_WritePeriod(uint8 period) 
 432:Generated_Source\PSoC5/Timer_1.c **** {
 433:Generated_Source\PSoC5/Timer_1.c ****     #if(Timer_1_UsingFixedFunction)
 434:Generated_Source\PSoC5/Timer_1.c ****         uint16 period_temp = (uint16)period;
 435:Generated_Source\PSoC5/Timer_1.c ****         CY_SET_REG16(Timer_1_PERIOD_LSB_PTR, period_temp);
  53              		.loc 1 435 0
  54 0012 134C     		ldr	r4, .L3+12
  55              	.LBE17:
  56              	.LBE16:
  60:Generated_Source\PSoC5/Timer_1.c ****         #endif /* CONTROL3 register exists only in PSoC3 OR PSoC5LP */
  57              		.loc 1 60 0
  58 0014 02F0FC02 		and	r2, r2, #252
  59 0018 0270     		strb	r2, [r0]
 106:Generated_Source\PSoC5/Timer_1.c ****         Timer_1_RT1 |= Timer_1_SYNC;
  60              		.loc 1 106 0
  61 001a 1A78     		ldrb	r2, [r3]	@ zero_extendqisi2
  62              	.LBB20:
  63              	.LBB21:
 436:Generated_Source\PSoC5/Timer_1.c ****     #else
 437:Generated_Source\PSoC5/Timer_1.c ****         CY_SET_REG8(Timer_1_PERIOD_LSB_PTR, period);
 438:Generated_Source\PSoC5/Timer_1.c ****     #endif /*Write Period value with appropriate resolution suffix depending on UDB or fixed functi
 439:Generated_Source\PSoC5/Timer_1.c **** }
 440:Generated_Source\PSoC5/Timer_1.c **** 
 441:Generated_Source\PSoC5/Timer_1.c **** 
 442:Generated_Source\PSoC5/Timer_1.c **** /*******************************************************************************
 443:Generated_Source\PSoC5/Timer_1.c **** * Function Name: Timer_1_ReadCapture
 444:Generated_Source\PSoC5/Timer_1.c **** ********************************************************************************
 445:Generated_Source\PSoC5/Timer_1.c **** *
ARM GAS  C:\Users\jon\AppData\Local\Temp\ccd8kafm.s 			page 10


 446:Generated_Source\PSoC5/Timer_1.c **** * Summary:
 447:Generated_Source\PSoC5/Timer_1.c **** *  This function returns the last value captured.
 448:Generated_Source\PSoC5/Timer_1.c **** *
 449:Generated_Source\PSoC5/Timer_1.c **** * Parameters:
 450:Generated_Source\PSoC5/Timer_1.c **** *  void
 451:Generated_Source\PSoC5/Timer_1.c **** *
 452:Generated_Source\PSoC5/Timer_1.c **** * Return:
 453:Generated_Source\PSoC5/Timer_1.c **** *  Present Capture value.
 454:Generated_Source\PSoC5/Timer_1.c **** *
 455:Generated_Source\PSoC5/Timer_1.c **** *******************************************************************************/
 456:Generated_Source\PSoC5/Timer_1.c **** uint8 Timer_1_ReadCapture(void) 
 457:Generated_Source\PSoC5/Timer_1.c **** {
 458:Generated_Source\PSoC5/Timer_1.c ****    #if(Timer_1_UsingFixedFunction)
 459:Generated_Source\PSoC5/Timer_1.c ****        return ((uint8)CY_GET_REG16(Timer_1_CAPTURE_LSB_PTR));
 460:Generated_Source\PSoC5/Timer_1.c ****    #else
 461:Generated_Source\PSoC5/Timer_1.c ****        return (CY_GET_REG8(Timer_1_CAPTURE_LSB_PTR));
 462:Generated_Source\PSoC5/Timer_1.c ****    #endif /* (Timer_1_UsingFixedFunction) */
 463:Generated_Source\PSoC5/Timer_1.c **** }
 464:Generated_Source\PSoC5/Timer_1.c **** 
 465:Generated_Source\PSoC5/Timer_1.c **** 
 466:Generated_Source\PSoC5/Timer_1.c **** /*******************************************************************************
 467:Generated_Source\PSoC5/Timer_1.c **** * Function Name: Timer_1_WriteCounter
 468:Generated_Source\PSoC5/Timer_1.c **** ********************************************************************************
 469:Generated_Source\PSoC5/Timer_1.c **** *
 470:Generated_Source\PSoC5/Timer_1.c **** * Summary:
 471:Generated_Source\PSoC5/Timer_1.c **** *  This funtion is used to set the counter to a specific value
 472:Generated_Source\PSoC5/Timer_1.c **** *
 473:Generated_Source\PSoC5/Timer_1.c **** * Parameters:
 474:Generated_Source\PSoC5/Timer_1.c **** *  counter:  New counter value.
 475:Generated_Source\PSoC5/Timer_1.c **** *
 476:Generated_Source\PSoC5/Timer_1.c **** * Return:
 477:Generated_Source\PSoC5/Timer_1.c **** *  void
 478:Generated_Source\PSoC5/Timer_1.c **** *
 479:Generated_Source\PSoC5/Timer_1.c **** *******************************************************************************/
 480:Generated_Source\PSoC5/Timer_1.c **** void Timer_1_WriteCounter(uint8 counter) 
 481:Generated_Source\PSoC5/Timer_1.c **** {
 482:Generated_Source\PSoC5/Timer_1.c ****    #if(Timer_1_UsingFixedFunction)
 483:Generated_Source\PSoC5/Timer_1.c ****         /* This functionality is removed until a FixedFunction HW update to
 484:Generated_Source\PSoC5/Timer_1.c ****          * allow this register to be written
 485:Generated_Source\PSoC5/Timer_1.c ****          */
 486:Generated_Source\PSoC5/Timer_1.c ****         CY_SET_REG16(Timer_1_COUNTER_LSB_PTR, (uint16)counter);
  64              		.loc 1 486 0
  65 001c 114E     		ldr	r6, .L3+16
  66              	.LBE21:
  67              	.LBE20:
 106:Generated_Source\PSoC5/Timer_1.c ****         Timer_1_RT1 |= Timer_1_SYNC;
  68              		.loc 1 106 0
  69 001e 02F0CF02 		and	r2, r2, #207
  70 0022 1A70     		strb	r2, [r3]
 107:Generated_Source\PSoC5/Timer_1.c **** 
  71              		.loc 1 107 0
  72 0024 1A78     		ldrb	r2, [r3]	@ zero_extendqisi2
  73              	.LBB23:
  74              	.LBB24:
 281:Generated_Source\PSoC5/Timer_1.c **** }
  75              		.loc 1 281 0
  76 0026 104D     		ldr	r5, .L3+20
ARM GAS  C:\Users\jon\AppData\Local\Temp\ccd8kafm.s 			page 11


  77              	.LBE24:
  78              	.LBE23:
 107:Generated_Source\PSoC5/Timer_1.c **** 
  79              		.loc 1 107 0
  80 0028 42F03002 		orr	r2, r2, #48
  81 002c 1A70     		strb	r2, [r3]
 110:Generated_Source\PSoC5/Timer_1.c ****         Timer_1_RT1 |= Timer_1_SYNCDSI_EN;
  82              		.loc 1 110 0
  83 002e 1A78     		ldrb	r2, [r3]	@ zero_extendqisi2
  84              	.LBB27:
  85              	.LBB18:
 435:Generated_Source\PSoC5/Timer_1.c ****     #else
  86              		.loc 1 435 0
  87 0030 1320     		movs	r0, #19
  88              	.LBE18:
  89              	.LBE27:
 110:Generated_Source\PSoC5/Timer_1.c ****         Timer_1_RT1 |= Timer_1_SYNCDSI_EN;
  90              		.loc 1 110 0
  91 0032 02F0F002 		and	r2, r2, #240
  92 0036 1A70     		strb	r2, [r3]
 111:Generated_Source\PSoC5/Timer_1.c **** 
  93              		.loc 1 111 0
  94 0038 1A78     		ldrb	r2, [r3]	@ zero_extendqisi2
  95 003a 42F00F02 		orr	r2, r2, #15
  96 003e 1A70     		strb	r2, [r3]
 114:Generated_Source\PSoC5/Timer_1.c ****     #endif /* Configuring registers of fixed function implementation */
  97              		.loc 1 114 0
  98 0040 4B78     		ldrb	r3, [r1, #1]	@ zero_extendqisi2
  99              	.LBB28:
 100              	.LBB25:
 281:Generated_Source\PSoC5/Timer_1.c **** }
 101              		.loc 1 281 0
 102 0042 0822     		movs	r2, #8
 103              	.LBE25:
 104              	.LBE28:
 114:Generated_Source\PSoC5/Timer_1.c ****     #endif /* Configuring registers of fixed function implementation */
 105              		.loc 1 114 0
 106 0044 43F00103 		orr	r3, r3, #1
 107 0048 4B70     		strb	r3, [r1, #1]
 108              	.LVL0:
 109              	.LBB29:
 110              	.LBB19:
 435:Generated_Source\PSoC5/Timer_1.c ****     #else
 111              		.loc 1 435 0
 112 004a 2080     		strh	r0, [r4]	@ movhi
 113              	.LVL1:
 114              	.LBE19:
 115              	.LBE29:
 116              	.LBB30:
 117              	.LBB22:
 118              		.loc 1 486 0
 119 004c 3080     		strh	r0, [r6]	@ movhi
 120              	.LVL2:
 121              	.LBE22:
 122              	.LBE30:
 123              	.LBB31:
 124              	.LBB26:
ARM GAS  C:\Users\jon\AppData\Local\Temp\ccd8kafm.s 			page 12


 281:Generated_Source\PSoC5/Timer_1.c **** }
 125              		.loc 1 281 0
 126 004e 2A70     		strb	r2, [r5]
 127              	.LVL3:
 128              	.LBE26:
 129              	.LBE31:
 163:Generated_Source\PSoC5/Timer_1.c **** 
 130              		.loc 1 163 0
 131 0050 70BC     		pop	{r4, r5, r6}
 132              		.cfi_restore 6
 133              		.cfi_restore 5
 134              		.cfi_restore 4
 135              		.cfi_def_cfa_offset 0
 136 0052 7047     		bx	lr
 137              	.L4:
 138              		.align	2
 139              	.L3:
 140 0054 004F0040 		.word	1073762048
 141 0058 024F0040 		.word	1073762050
 142 005c 0B4F0040 		.word	1073762059
 143 0060 044F0040 		.word	1073762052
 144 0064 064F0040 		.word	1073762054
 145 0068 034F0040 		.word	1073762051
 146              		.cfi_endproc
 147              	.LFE0:
 148              		.size	Timer_1_Init, .-Timer_1_Init
 149              		.section	.text.Timer_1_Enable,"ax",%progbits
 150              		.align	2
 151              		.global	Timer_1_Enable
 152              		.thumb
 153              		.thumb_func
 154              		.type	Timer_1_Enable, %function
 155              	Timer_1_Enable:
 156              	.LFB1:
 181:Generated_Source\PSoC5/Timer_1.c ****     /* Globally Enable the Fixed Function Block chosen */
 157              		.loc 1 181 0
 158              		.cfi_startproc
 159              		@ args = 0, pretend = 0, frame = 0
 160              		@ frame_needed = 0, uses_anonymous_args = 0
 161              		@ link register save eliminated.
 184:Generated_Source\PSoC5/Timer_1.c ****         Timer_1_GLOBAL_STBY_ENABLE |= Timer_1_BLOCK_STBY_EN_MASK;
 162              		.loc 1 184 0
 163 0000 0748     		ldr	r0, .L6
 185:Generated_Source\PSoC5/Timer_1.c ****     #endif /* Set Enable bit for enabling Fixed function timer*/
 164              		.loc 1 185 0
 165 0002 0849     		ldr	r1, .L6+4
 184:Generated_Source\PSoC5/Timer_1.c ****         Timer_1_GLOBAL_STBY_ENABLE |= Timer_1_BLOCK_STBY_EN_MASK;
 166              		.loc 1 184 0
 167 0004 0378     		ldrb	r3, [r0]	@ zero_extendqisi2
 190:Generated_Source\PSoC5/Timer_1.c ****     #endif /* Remove assignment if control register is removed */
 168              		.loc 1 190 0
 169 0006 084A     		ldr	r2, .L6+8
 184:Generated_Source\PSoC5/Timer_1.c ****         Timer_1_GLOBAL_STBY_ENABLE |= Timer_1_BLOCK_STBY_EN_MASK;
 170              		.loc 1 184 0
 171 0008 43F00103 		orr	r3, r3, #1
 172 000c 0370     		strb	r3, [r0]
 185:Generated_Source\PSoC5/Timer_1.c ****     #endif /* Set Enable bit for enabling Fixed function timer*/
ARM GAS  C:\Users\jon\AppData\Local\Temp\ccd8kafm.s 			page 13


 173              		.loc 1 185 0
 174 000e 0B78     		ldrb	r3, [r1]	@ zero_extendqisi2
 175 0010 43F00103 		orr	r3, r3, #1
 176 0014 0B70     		strb	r3, [r1]
 190:Generated_Source\PSoC5/Timer_1.c ****     #endif /* Remove assignment if control register is removed */
 177              		.loc 1 190 0
 178 0016 1378     		ldrb	r3, [r2]	@ zero_extendqisi2
 179 0018 43F00103 		orr	r3, r3, #1
 180 001c 1370     		strb	r3, [r2]
 181 001e 7047     		bx	lr
 182              	.L7:
 183              		.align	2
 184              	.L6:
 185 0020 A3430040 		.word	1073759139
 186 0024 B3430040 		.word	1073759155
 187 0028 004F0040 		.word	1073762048
 188              		.cfi_endproc
 189              	.LFE1:
 190              		.size	Timer_1_Enable, .-Timer_1_Enable
 191              		.section	.text.Timer_1_Start,"ax",%progbits
 192              		.align	2
 193              		.global	Timer_1_Start
 194              		.thumb
 195              		.thumb_func
 196              		.type	Timer_1_Start, %function
 197              	Timer_1_Start:
 198              	.LFB2:
 216:Generated_Source\PSoC5/Timer_1.c ****     if(Timer_1_initVar == 0u)
 199              		.loc 1 216 0
 200              		.cfi_startproc
 201              		@ args = 0, pretend = 0, frame = 0
 202              		@ frame_needed = 0, uses_anonymous_args = 0
 203              		@ link register save eliminated.
 204 0000 F0B4     		push	{r4, r5, r6, r7}
 205              		.cfi_def_cfa_offset 16
 206              		.cfi_offset 4, -16
 207              		.cfi_offset 5, -12
 208              		.cfi_offset 6, -8
 209              		.cfi_offset 7, -4
 217:Generated_Source\PSoC5/Timer_1.c ****     {
 210              		.loc 1 217 0
 211 0002 1E4A     		ldr	r2, .L12
 212 0004 1378     		ldrb	r3, [r2]	@ zero_extendqisi2
 213 0006 3BBB     		cbnz	r3, .L9
 214              	.LBB42:
 215              	.LBB43:
  52:Generated_Source\PSoC5/Timer_1.c **** 
 216              		.loc 1 52 0
 217 0008 1D48     		ldr	r0, .L12+4
  60:Generated_Source\PSoC5/Timer_1.c ****         #endif /* CONTROL3 register exists only in PSoC3 OR PSoC5LP */
 218              		.loc 1 60 0
 219 000a 1E4C     		ldr	r4, .L12+8
  52:Generated_Source\PSoC5/Timer_1.c **** 
 220              		.loc 1 52 0
 221 000c 0178     		ldrb	r1, [r0]	@ zero_extendqisi2
 106:Generated_Source\PSoC5/Timer_1.c ****         Timer_1_RT1 |= Timer_1_SYNC;
 222              		.loc 1 106 0
ARM GAS  C:\Users\jon\AppData\Local\Temp\ccd8kafm.s 			page 14


 223 000e 1E4B     		ldr	r3, .L12+12
  52:Generated_Source\PSoC5/Timer_1.c **** 
 224              		.loc 1 52 0
 225 0010 01F00101 		and	r1, r1, #1
 226 0014 0170     		strb	r1, [r0]
  60:Generated_Source\PSoC5/Timer_1.c ****         #endif /* CONTROL3 register exists only in PSoC3 OR PSoC5LP */
 227              		.loc 1 60 0
 228 0016 2178     		ldrb	r1, [r4]	@ zero_extendqisi2
 229              	.LBB44:
 230              	.LBB45:
 231              		.loc 1 486 0
 232 0018 1C4E     		ldr	r6, .L12+16
 233              	.LBE45:
 234              	.LBE44:
  60:Generated_Source\PSoC5/Timer_1.c ****         #endif /* CONTROL3 register exists only in PSoC3 OR PSoC5LP */
 235              		.loc 1 60 0
 236 001a 01F0FC01 		and	r1, r1, #252
 237 001e 2170     		strb	r1, [r4]
 106:Generated_Source\PSoC5/Timer_1.c ****         Timer_1_RT1 |= Timer_1_SYNC;
 238              		.loc 1 106 0
 239 0020 1978     		ldrb	r1, [r3]	@ zero_extendqisi2
 240              	.LBB47:
 241              	.LBB48:
 281:Generated_Source\PSoC5/Timer_1.c **** }
 242              		.loc 1 281 0
 243 0022 1B4F     		ldr	r7, .L12+20
 244              	.LBE48:
 245              	.LBE47:
 106:Generated_Source\PSoC5/Timer_1.c ****         Timer_1_RT1 |= Timer_1_SYNC;
 246              		.loc 1 106 0
 247 0024 01F0CF01 		and	r1, r1, #207
 248 0028 1970     		strb	r1, [r3]
 107:Generated_Source\PSoC5/Timer_1.c **** 
 249              		.loc 1 107 0
 250 002a 1978     		ldrb	r1, [r3]	@ zero_extendqisi2
 251              	.LBB51:
 252              	.LBB52:
 435:Generated_Source\PSoC5/Timer_1.c ****     #else
 253              		.loc 1 435 0
 254 002c 1325     		movs	r5, #19
 255              	.LBE52:
 256              	.LBE51:
 107:Generated_Source\PSoC5/Timer_1.c **** 
 257              		.loc 1 107 0
 258 002e 41F03001 		orr	r1, r1, #48
 259 0032 1970     		strb	r1, [r3]
 110:Generated_Source\PSoC5/Timer_1.c ****         Timer_1_RT1 |= Timer_1_SYNCDSI_EN;
 260              		.loc 1 110 0
 261 0034 1978     		ldrb	r1, [r3]	@ zero_extendqisi2
 262 0036 01F0F001 		and	r1, r1, #240
 263 003a 1970     		strb	r1, [r3]
 111:Generated_Source\PSoC5/Timer_1.c **** 
 264              		.loc 1 111 0
 265 003c 1978     		ldrb	r1, [r3]	@ zero_extendqisi2
 266 003e 41F00F01 		orr	r1, r1, #15
 267 0042 1970     		strb	r1, [r3]
 114:Generated_Source\PSoC5/Timer_1.c ****     #endif /* Configuring registers of fixed function implementation */
ARM GAS  C:\Users\jon\AppData\Local\Temp\ccd8kafm.s 			page 15


 268              		.loc 1 114 0
 269 0044 4378     		ldrb	r3, [r0, #1]	@ zero_extendqisi2
 270              	.LBB54:
 271              	.LBB49:
 281:Generated_Source\PSoC5/Timer_1.c **** }
 272              		.loc 1 281 0
 273 0046 0821     		movs	r1, #8
 274              	.LBE49:
 275              	.LBE54:
 114:Generated_Source\PSoC5/Timer_1.c ****     #endif /* Configuring registers of fixed function implementation */
 276              		.loc 1 114 0
 277 0048 43F00103 		orr	r3, r3, #1
 278 004c 4370     		strb	r3, [r0, #1]
 279              	.LVL4:
 280              	.LBE43:
 281              	.LBE42:
 221:Generated_Source\PSoC5/Timer_1.c ****     }
 282              		.loc 1 221 0
 283 004e 0123     		movs	r3, #1
 284              	.LBB59:
 285              	.LBB58:
 286              	.LBB55:
 287              	.LBB53:
 435:Generated_Source\PSoC5/Timer_1.c ****     #else
 288              		.loc 1 435 0
 289 0050 6580     		strh	r5, [r4, #2]	@ movhi
 290              	.LVL5:
 291              	.LBE53:
 292              	.LBE55:
 293              	.LBB56:
 294              	.LBB46:
 295              		.loc 1 486 0
 296 0052 3580     		strh	r5, [r6]	@ movhi
 297              	.LVL6:
 298              	.LBE46:
 299              	.LBE56:
 300              	.LBB57:
 301              	.LBB50:
 281:Generated_Source\PSoC5/Timer_1.c **** }
 302              		.loc 1 281 0
 303 0054 3970     		strb	r1, [r7]
 304              	.LVL7:
 305              	.LBE50:
 306              	.LBE57:
 307              	.LBE58:
 308              	.LBE59:
 221:Generated_Source\PSoC5/Timer_1.c ****     }
 309              		.loc 1 221 0
 310 0056 1370     		strb	r3, [r2]
 311              	.L9:
 312              	.LBB60:
 313              	.LBB61:
 184:Generated_Source\PSoC5/Timer_1.c ****         Timer_1_GLOBAL_STBY_ENABLE |= Timer_1_BLOCK_STBY_EN_MASK;
 314              		.loc 1 184 0
 315 0058 0E48     		ldr	r0, .L12+24
 185:Generated_Source\PSoC5/Timer_1.c ****     #endif /* Set Enable bit for enabling Fixed function timer*/
 316              		.loc 1 185 0
ARM GAS  C:\Users\jon\AppData\Local\Temp\ccd8kafm.s 			page 16


 317 005a 0F49     		ldr	r1, .L12+28
 184:Generated_Source\PSoC5/Timer_1.c ****         Timer_1_GLOBAL_STBY_ENABLE |= Timer_1_BLOCK_STBY_EN_MASK;
 318              		.loc 1 184 0
 319 005c 0378     		ldrb	r3, [r0]	@ zero_extendqisi2
 190:Generated_Source\PSoC5/Timer_1.c ****     #endif /* Remove assignment if control register is removed */
 320              		.loc 1 190 0
 321 005e 084A     		ldr	r2, .L12+4
 184:Generated_Source\PSoC5/Timer_1.c ****         Timer_1_GLOBAL_STBY_ENABLE |= Timer_1_BLOCK_STBY_EN_MASK;
 322              		.loc 1 184 0
 323 0060 43F00103 		orr	r3, r3, #1
 324 0064 0370     		strb	r3, [r0]
 185:Generated_Source\PSoC5/Timer_1.c ****     #endif /* Set Enable bit for enabling Fixed function timer*/
 325              		.loc 1 185 0
 326 0066 0B78     		ldrb	r3, [r1]	@ zero_extendqisi2
 327 0068 43F00103 		orr	r3, r3, #1
 328 006c 0B70     		strb	r3, [r1]
 190:Generated_Source\PSoC5/Timer_1.c ****     #endif /* Remove assignment if control register is removed */
 329              		.loc 1 190 0
 330 006e 1378     		ldrb	r3, [r2]	@ zero_extendqisi2
 331 0070 43F00103 		orr	r3, r3, #1
 332 0074 1370     		strb	r3, [r2]
 333              	.LBE61:
 334              	.LBE60:
 226:Generated_Source\PSoC5/Timer_1.c **** 
 335              		.loc 1 226 0
 336 0076 F0BC     		pop	{r4, r5, r6, r7}
 337              		.cfi_restore 7
 338              		.cfi_restore 6
 339              		.cfi_restore 5
 340              		.cfi_restore 4
 341              		.cfi_def_cfa_offset 0
 342 0078 7047     		bx	lr
 343              	.L13:
 344 007a 00BF     		.align	2
 345              	.L12:
 346 007c 00000000 		.word	.LANCHOR0
 347 0080 004F0040 		.word	1073762048
 348 0084 024F0040 		.word	1073762050
 349 0088 0B4F0040 		.word	1073762059
 350 008c 064F0040 		.word	1073762054
 351 0090 034F0040 		.word	1073762051
 352 0094 A3430040 		.word	1073759139
 353 0098 B3430040 		.word	1073759155
 354              		.cfi_endproc
 355              	.LFE2:
 356              		.size	Timer_1_Start, .-Timer_1_Start
 357              		.section	.text.Timer_1_Stop,"ax",%progbits
 358              		.align	2
 359              		.global	Timer_1_Stop
 360              		.thumb
 361              		.thumb_func
 362              		.type	Timer_1_Stop, %function
 363              	Timer_1_Stop:
 364              	.LFB3:
 248:Generated_Source\PSoC5/Timer_1.c ****     /* Disable Timer */
 365              		.loc 1 248 0
 366              		.cfi_startproc
ARM GAS  C:\Users\jon\AppData\Local\Temp\ccd8kafm.s 			page 17


 367              		@ args = 0, pretend = 0, frame = 0
 368              		@ frame_needed = 0, uses_anonymous_args = 0
 369              		@ link register save eliminated.
 251:Generated_Source\PSoC5/Timer_1.c ****     #endif /* Remove assignment if control register is removed */
 370              		.loc 1 251 0
 371 0000 0748     		ldr	r0, .L15
 256:Generated_Source\PSoC5/Timer_1.c ****         Timer_1_GLOBAL_STBY_ENABLE &= ((uint8)(~Timer_1_BLOCK_STBY_EN_MASK));
 372              		.loc 1 256 0
 373 0002 0849     		ldr	r1, .L15+4
 251:Generated_Source\PSoC5/Timer_1.c ****     #endif /* Remove assignment if control register is removed */
 374              		.loc 1 251 0
 375 0004 0378     		ldrb	r3, [r0]	@ zero_extendqisi2
 257:Generated_Source\PSoC5/Timer_1.c ****     #endif /* Disable global enable for the Timer Fixed function block to stop the Timer*/
 376              		.loc 1 257 0
 377 0006 084A     		ldr	r2, .L15+8
 251:Generated_Source\PSoC5/Timer_1.c ****     #endif /* Remove assignment if control register is removed */
 378              		.loc 1 251 0
 379 0008 03F0FE03 		and	r3, r3, #254
 380 000c 0370     		strb	r3, [r0]
 256:Generated_Source\PSoC5/Timer_1.c ****         Timer_1_GLOBAL_STBY_ENABLE &= ((uint8)(~Timer_1_BLOCK_STBY_EN_MASK));
 381              		.loc 1 256 0
 382 000e 0B78     		ldrb	r3, [r1]	@ zero_extendqisi2
 383 0010 03F0FE03 		and	r3, r3, #254
 384 0014 0B70     		strb	r3, [r1]
 257:Generated_Source\PSoC5/Timer_1.c ****     #endif /* Disable global enable for the Timer Fixed function block to stop the Timer*/
 385              		.loc 1 257 0
 386 0016 1378     		ldrb	r3, [r2]	@ zero_extendqisi2
 387 0018 03F0FE03 		and	r3, r3, #254
 388 001c 1370     		strb	r3, [r2]
 389 001e 7047     		bx	lr
 390              	.L16:
 391              		.align	2
 392              	.L15:
 393 0020 004F0040 		.word	1073762048
 394 0024 A3430040 		.word	1073759139
 395 0028 B3430040 		.word	1073759155
 396              		.cfi_endproc
 397              	.LFE3:
 398              		.size	Timer_1_Stop, .-Timer_1_Stop
 399              		.section	.text.Timer_1_SetInterruptMode,"ax",%progbits
 400              		.align	2
 401              		.global	Timer_1_SetInterruptMode
 402              		.thumb
 403              		.thumb_func
 404              		.type	Timer_1_SetInterruptMode, %function
 405              	Timer_1_SetInterruptMode:
 406              	.LFB4:
 280:Generated_Source\PSoC5/Timer_1.c ****     Timer_1_STATUS_MASK = interruptMode;
 407              		.loc 1 280 0
 408              		.cfi_startproc
 409              		@ args = 0, pretend = 0, frame = 0
 410              		@ frame_needed = 0, uses_anonymous_args = 0
 411              		@ link register save eliminated.
 412              	.LVL8:
 281:Generated_Source\PSoC5/Timer_1.c **** }
 413              		.loc 1 281 0
 414 0000 014B     		ldr	r3, .L18
ARM GAS  C:\Users\jon\AppData\Local\Temp\ccd8kafm.s 			page 18


 415 0002 1870     		strb	r0, [r3]
 416 0004 7047     		bx	lr
 417              	.L19:
 418 0006 00BF     		.align	2
 419              	.L18:
 420 0008 034F0040 		.word	1073762051
 421              		.cfi_endproc
 422              	.LFE4:
 423              		.size	Timer_1_SetInterruptMode, .-Timer_1_SetInterruptMode
 424              		.section	.text.Timer_1_SoftwareCapture,"ax",%progbits
 425              		.align	2
 426              		.global	Timer_1_SoftwareCapture
 427              		.thumb
 428              		.thumb_func
 429              		.type	Timer_1_SoftwareCapture, %function
 430              	Timer_1_SoftwareCapture:
 431              	.LFB5:
 303:Generated_Source\PSoC5/Timer_1.c ****     /* Generate a software capture by reading the counter register */
 432              		.loc 1 303 0
 433              		.cfi_startproc
 434              		@ args = 0, pretend = 0, frame = 0
 435              		@ frame_needed = 0, uses_anonymous_args = 0
 436              		@ link register save eliminated.
 306:Generated_Source\PSoC5/Timer_1.c ****     #else
 437              		.loc 1 306 0
 438 0000 014B     		ldr	r3, .L21
 439 0002 1B88     		ldrh	r3, [r3]
 440 0004 7047     		bx	lr
 441              	.L22:
 442 0006 00BF     		.align	2
 443              	.L21:
 444 0008 064F0040 		.word	1073762054
 445              		.cfi_endproc
 446              	.LFE5:
 447              		.size	Timer_1_SoftwareCapture, .-Timer_1_SoftwareCapture
 448              		.section	.text.Timer_1_ReadStatusRegister,"ax",%progbits
 449              		.align	2
 450              		.global	Timer_1_ReadStatusRegister
 451              		.thumb
 452              		.thumb_func
 453              		.type	Timer_1_ReadStatusRegister, %function
 454              	Timer_1_ReadStatusRegister:
 455              	.LFB6:
 334:Generated_Source\PSoC5/Timer_1.c ****     return (Timer_1_STATUS);
 456              		.loc 1 334 0
 457              		.cfi_startproc
 458              		@ args = 0, pretend = 0, frame = 0
 459              		@ frame_needed = 0, uses_anonymous_args = 0
 460              		@ link register save eliminated.
 335:Generated_Source\PSoC5/Timer_1.c **** }
 461              		.loc 1 335 0
 462 0000 014B     		ldr	r3, .L24
 463 0002 1878     		ldrb	r0, [r3]	@ zero_extendqisi2
 336:Generated_Source\PSoC5/Timer_1.c **** 
 464              		.loc 1 336 0
 465 0004 7047     		bx	lr
 466              	.L25:
ARM GAS  C:\Users\jon\AppData\Local\Temp\ccd8kafm.s 			page 19


 467 0006 00BF     		.align	2
 468              	.L24:
 469 0008 034F0040 		.word	1073762051
 470              		.cfi_endproc
 471              	.LFE6:
 472              		.size	Timer_1_ReadStatusRegister, .-Timer_1_ReadStatusRegister
 473              		.section	.text.Timer_1_ReadControlRegister,"ax",%progbits
 474              		.align	2
 475              		.global	Timer_1_ReadControlRegister
 476              		.thumb
 477              		.thumb_func
 478              		.type	Timer_1_ReadControlRegister, %function
 479              	Timer_1_ReadControlRegister:
 480              	.LFB7:
 357:Generated_Source\PSoC5/Timer_1.c ****     #if (!Timer_1_UDB_CONTROL_REG_REMOVED) 
 481              		.loc 1 357 0
 482              		.cfi_startproc
 483              		@ args = 0, pretend = 0, frame = 0
 484              		@ frame_needed = 0, uses_anonymous_args = 0
 485              		@ link register save eliminated.
 359:Generated_Source\PSoC5/Timer_1.c ****     #else
 486              		.loc 1 359 0
 487 0000 014B     		ldr	r3, .L27
 488 0002 1878     		ldrb	r0, [r3]	@ zero_extendqisi2
 363:Generated_Source\PSoC5/Timer_1.c **** 
 489              		.loc 1 363 0
 490 0004 7047     		bx	lr
 491              	.L28:
 492 0006 00BF     		.align	2
 493              	.L27:
 494 0008 004F0040 		.word	1073762048
 495              		.cfi_endproc
 496              	.LFE7:
 497              		.size	Timer_1_ReadControlRegister, .-Timer_1_ReadControlRegister
 498              		.section	.text.Timer_1_WriteControlRegister,"ax",%progbits
 499              		.align	2
 500              		.global	Timer_1_WriteControlRegister
 501              		.thumb
 502              		.thumb_func
 503              		.type	Timer_1_WriteControlRegister, %function
 504              	Timer_1_WriteControlRegister:
 505              	.LFB8:
 380:Generated_Source\PSoC5/Timer_1.c ****     #if (!Timer_1_UDB_CONTROL_REG_REMOVED) 
 506              		.loc 1 380 0
 507              		.cfi_startproc
 508              		@ args = 0, pretend = 0, frame = 0
 509              		@ frame_needed = 0, uses_anonymous_args = 0
 510              		@ link register save eliminated.
 511              	.LVL9:
 382:Generated_Source\PSoC5/Timer_1.c ****     #else
 512              		.loc 1 382 0
 513 0000 014B     		ldr	r3, .L30
 514 0002 1870     		strb	r0, [r3]
 515 0004 7047     		bx	lr
 516              	.L31:
 517 0006 00BF     		.align	2
 518              	.L30:
ARM GAS  C:\Users\jon\AppData\Local\Temp\ccd8kafm.s 			page 20


 519 0008 004F0040 		.word	1073762048
 520              		.cfi_endproc
 521              	.LFE8:
 522              		.size	Timer_1_WriteControlRegister, .-Timer_1_WriteControlRegister
 523              		.section	.text.Timer_1_ReadPeriod,"ax",%progbits
 524              		.align	2
 525              		.global	Timer_1_ReadPeriod
 526              		.thumb
 527              		.thumb_func
 528              		.type	Timer_1_ReadPeriod, %function
 529              	Timer_1_ReadPeriod:
 530              	.LFB9:
 406:Generated_Source\PSoC5/Timer_1.c ****    #if(Timer_1_UsingFixedFunction)
 531              		.loc 1 406 0
 532              		.cfi_startproc
 533              		@ args = 0, pretend = 0, frame = 0
 534              		@ frame_needed = 0, uses_anonymous_args = 0
 535              		@ link register save eliminated.
 408:Generated_Source\PSoC5/Timer_1.c ****    #else
 536              		.loc 1 408 0
 537 0000 014B     		ldr	r3, .L33
 538 0002 1888     		ldrh	r0, [r3]
 412:Generated_Source\PSoC5/Timer_1.c **** 
 539              		.loc 1 412 0
 540 0004 C0B2     		uxtb	r0, r0
 541 0006 7047     		bx	lr
 542              	.L34:
 543              		.align	2
 544              	.L33:
 545 0008 044F0040 		.word	1073762052
 546              		.cfi_endproc
 547              	.LFE9:
 548              		.size	Timer_1_ReadPeriod, .-Timer_1_ReadPeriod
 549              		.section	.text.Timer_1_WritePeriod,"ax",%progbits
 550              		.align	2
 551              		.global	Timer_1_WritePeriod
 552              		.thumb
 553              		.thumb_func
 554              		.type	Timer_1_WritePeriod, %function
 555              	Timer_1_WritePeriod:
 556              	.LFB10:
 432:Generated_Source\PSoC5/Timer_1.c ****     #if(Timer_1_UsingFixedFunction)
 557              		.loc 1 432 0
 558              		.cfi_startproc
 559              		@ args = 0, pretend = 0, frame = 0
 560              		@ frame_needed = 0, uses_anonymous_args = 0
 561              		@ link register save eliminated.
 562              	.LVL10:
 435:Generated_Source\PSoC5/Timer_1.c ****     #else
 563              		.loc 1 435 0
 564 0000 014B     		ldr	r3, .L36
 565 0002 1880     		strh	r0, [r3]	@ movhi
 566 0004 7047     		bx	lr
 567              	.L37:
 568 0006 00BF     		.align	2
 569              	.L36:
 570 0008 044F0040 		.word	1073762052
ARM GAS  C:\Users\jon\AppData\Local\Temp\ccd8kafm.s 			page 21


 571              		.cfi_endproc
 572              	.LFE10:
 573              		.size	Timer_1_WritePeriod, .-Timer_1_WritePeriod
 574              		.section	.text.Timer_1_ReadCapture,"ax",%progbits
 575              		.align	2
 576              		.global	Timer_1_ReadCapture
 577              		.thumb
 578              		.thumb_func
 579              		.type	Timer_1_ReadCapture, %function
 580              	Timer_1_ReadCapture:
 581              	.LFB11:
 457:Generated_Source\PSoC5/Timer_1.c ****    #if(Timer_1_UsingFixedFunction)
 582              		.loc 1 457 0
 583              		.cfi_startproc
 584              		@ args = 0, pretend = 0, frame = 0
 585              		@ frame_needed = 0, uses_anonymous_args = 0
 586              		@ link register save eliminated.
 459:Generated_Source\PSoC5/Timer_1.c ****    #else
 587              		.loc 1 459 0
 588 0000 014B     		ldr	r3, .L39
 589 0002 1888     		ldrh	r0, [r3]
 463:Generated_Source\PSoC5/Timer_1.c **** 
 590              		.loc 1 463 0
 591 0004 C0B2     		uxtb	r0, r0
 592 0006 7047     		bx	lr
 593              	.L40:
 594              		.align	2
 595              	.L39:
 596 0008 084F0040 		.word	1073762056
 597              		.cfi_endproc
 598              	.LFE11:
 599              		.size	Timer_1_ReadCapture, .-Timer_1_ReadCapture
 600              		.section	.text.Timer_1_WriteCounter,"ax",%progbits
 601              		.align	2
 602              		.global	Timer_1_WriteCounter
 603              		.thumb
 604              		.thumb_func
 605              		.type	Timer_1_WriteCounter, %function
 606              	Timer_1_WriteCounter:
 607              	.LFB12:
 481:Generated_Source\PSoC5/Timer_1.c ****    #if(Timer_1_UsingFixedFunction)
 608              		.loc 1 481 0
 609              		.cfi_startproc
 610              		@ args = 0, pretend = 0, frame = 0
 611              		@ frame_needed = 0, uses_anonymous_args = 0
 612              		@ link register save eliminated.
 613              	.LVL11:
 614              		.loc 1 486 0
 615 0000 014B     		ldr	r3, .L42
 616 0002 1880     		strh	r0, [r3]	@ movhi
 617 0004 7047     		bx	lr
 618              	.L43:
 619 0006 00BF     		.align	2
 620              	.L42:
 621 0008 064F0040 		.word	1073762054
 622              		.cfi_endproc
 623              	.LFE12:
ARM GAS  C:\Users\jon\AppData\Local\Temp\ccd8kafm.s 			page 22


 624              		.size	Timer_1_WriteCounter, .-Timer_1_WriteCounter
 625              		.section	.text.Timer_1_ReadCounter,"ax",%progbits
 626              		.align	2
 627              		.global	Timer_1_ReadCounter
 628              		.thumb
 629              		.thumb_func
 630              		.type	Timer_1_ReadCounter, %function
 631              	Timer_1_ReadCounter:
 632              	.LFB13:
 487:Generated_Source\PSoC5/Timer_1.c ****         
 488:Generated_Source\PSoC5/Timer_1.c ****     #else
 489:Generated_Source\PSoC5/Timer_1.c ****         CY_SET_REG8(Timer_1_COUNTER_LSB_PTR, counter);
 490:Generated_Source\PSoC5/Timer_1.c ****     #endif /* Set Write Counter only for the UDB implementation (Write Counter not available in fix
 491:Generated_Source\PSoC5/Timer_1.c **** }
 492:Generated_Source\PSoC5/Timer_1.c **** 
 493:Generated_Source\PSoC5/Timer_1.c **** 
 494:Generated_Source\PSoC5/Timer_1.c **** /*******************************************************************************
 495:Generated_Source\PSoC5/Timer_1.c **** * Function Name: Timer_1_ReadCounter
 496:Generated_Source\PSoC5/Timer_1.c **** ********************************************************************************
 497:Generated_Source\PSoC5/Timer_1.c **** *
 498:Generated_Source\PSoC5/Timer_1.c **** * Summary:
 499:Generated_Source\PSoC5/Timer_1.c **** *  This function returns the current counter value.
 500:Generated_Source\PSoC5/Timer_1.c **** *
 501:Generated_Source\PSoC5/Timer_1.c **** * Parameters:
 502:Generated_Source\PSoC5/Timer_1.c **** *  void
 503:Generated_Source\PSoC5/Timer_1.c **** *
 504:Generated_Source\PSoC5/Timer_1.c **** * Return:
 505:Generated_Source\PSoC5/Timer_1.c **** *  Present compare value.
 506:Generated_Source\PSoC5/Timer_1.c **** *
 507:Generated_Source\PSoC5/Timer_1.c **** *******************************************************************************/
 508:Generated_Source\PSoC5/Timer_1.c **** uint8 Timer_1_ReadCounter(void) 
 509:Generated_Source\PSoC5/Timer_1.c **** {
 633              		.loc 1 509 0
 634              		.cfi_startproc
 635              		@ args = 0, pretend = 0, frame = 0
 636              		@ frame_needed = 0, uses_anonymous_args = 0
 637              		@ link register save eliminated.
 510:Generated_Source\PSoC5/Timer_1.c ****     /* Force capture by reading Accumulator */
 511:Generated_Source\PSoC5/Timer_1.c ****     /* Must first do a software capture to be able to read the counter */
 512:Generated_Source\PSoC5/Timer_1.c ****     /* It is up to the user code to make sure there isn't already captured data in the FIFO */
 513:Generated_Source\PSoC5/Timer_1.c ****     #if(Timer_1_UsingFixedFunction)
 514:Generated_Source\PSoC5/Timer_1.c ****         (void)CY_GET_REG16(Timer_1_COUNTER_LSB_PTR);
 515:Generated_Source\PSoC5/Timer_1.c ****     #else
 516:Generated_Source\PSoC5/Timer_1.c ****         (void)CY_GET_REG8(Timer_1_COUNTER_LSB_PTR_8BIT);
 517:Generated_Source\PSoC5/Timer_1.c ****     #endif/* (Timer_1_UsingFixedFunction) */
 518:Generated_Source\PSoC5/Timer_1.c **** 
 519:Generated_Source\PSoC5/Timer_1.c ****     /* Read the data from the FIFO (or capture register for Fixed Function)*/
 520:Generated_Source\PSoC5/Timer_1.c ****     #if(Timer_1_UsingFixedFunction)
 521:Generated_Source\PSoC5/Timer_1.c ****         return ((uint8)CY_GET_REG16(Timer_1_CAPTURE_LSB_PTR));
 638              		.loc 1 521 0
 639 0000 024B     		ldr	r3, .L45
 514:Generated_Source\PSoC5/Timer_1.c ****     #else
 640              		.loc 1 514 0
 641 0002 034A     		ldr	r2, .L45+4
 642 0004 1288     		ldrh	r2, [r2]
 643              		.loc 1 521 0
 644 0006 1888     		ldrh	r0, [r3]
ARM GAS  C:\Users\jon\AppData\Local\Temp\ccd8kafm.s 			page 23


 522:Generated_Source\PSoC5/Timer_1.c ****     #else
 523:Generated_Source\PSoC5/Timer_1.c ****         return (CY_GET_REG8(Timer_1_CAPTURE_LSB_PTR));
 524:Generated_Source\PSoC5/Timer_1.c ****     #endif /* (Timer_1_UsingFixedFunction) */
 525:Generated_Source\PSoC5/Timer_1.c **** }
 645              		.loc 1 525 0
 646 0008 C0B2     		uxtb	r0, r0
 647 000a 7047     		bx	lr
 648              	.L46:
 649              		.align	2
 650              	.L45:
 651 000c 084F0040 		.word	1073762056
 652 0010 064F0040 		.word	1073762054
 653              		.cfi_endproc
 654              	.LFE13:
 655              		.size	Timer_1_ReadCounter, .-Timer_1_ReadCounter
 656              		.global	Timer_1_initVar
 657              		.bss
 658              		.set	.LANCHOR0,. + 0
 659              		.type	Timer_1_initVar, %object
 660              		.size	Timer_1_initVar, 1
 661              	Timer_1_initVar:
 662 0000 00       		.space	1
 663              		.text
 664              	.Letext0:
 665              		.file 2 "Generated_Source\\PSoC5\\cytypes.h"