ARM GAS  C:\Users\jon\AppData\Local\Temp\ccCLAX4y.s 			page 1


   1              		.syntax unified
   2              		.cpu cortex-m3
   3              		.fpu softvfp
   4              		.eabi_attribute 20, 1
   5              		.eabi_attribute 21, 1
   6              		.eabi_attribute 23, 3
   7              		.eabi_attribute 24, 1
   8              		.eabi_attribute 25, 1
   9              		.eabi_attribute 26, 1
  10              		.eabi_attribute 30, 2
  11              		.eabi_attribute 34, 1
  12              		.eabi_attribute 18, 4
  13              		.thumb
  14              		.syntax unified
  15              		.file	"USBUART_1_std.c"
  16              		.text
  17              	.Ltext0:
  18              		.cfi_sections	.debug_frame
  19              		.section	.text.USBUART_1_ConfigAltChanged.part.0,"ax",%progbits
  20              		.align	2
  21              		.thumb
  22              		.thumb_func
  23              		.type	USBUART_1_ConfigAltChanged.part.0, %function
  24              	USBUART_1_ConfigAltChanged.part.0:
  25              	.LFB13:
  26              		.file 1 "Generated_Source\\PSoC5\\USBUART_1_std.c"
   1:Generated_Source\PSoC5/USBUART_1_std.c **** /***************************************************************************//**
   2:Generated_Source\PSoC5/USBUART_1_std.c **** * \file USBUART_1_std.c
   3:Generated_Source\PSoC5/USBUART_1_std.c **** * \version 3.20
   4:Generated_Source\PSoC5/USBUART_1_std.c **** *
   5:Generated_Source\PSoC5/USBUART_1_std.c **** * \brief
   6:Generated_Source\PSoC5/USBUART_1_std.c **** *  This file contains the USB Standard request handler.
   7:Generated_Source\PSoC5/USBUART_1_std.c **** *
   8:Generated_Source\PSoC5/USBUART_1_std.c **** ********************************************************************************
   9:Generated_Source\PSoC5/USBUART_1_std.c **** * \copyright
  10:Generated_Source\PSoC5/USBUART_1_std.c **** * Copyright 2008-2016, Cypress Semiconductor Corporation.  All rights reserved.
  11:Generated_Source\PSoC5/USBUART_1_std.c **** * You may use this file only in accordance with the license, terms, conditions,
  12:Generated_Source\PSoC5/USBUART_1_std.c **** * disclaimers, and limitations in the end user license agreement accompanying
  13:Generated_Source\PSoC5/USBUART_1_std.c **** * the software package with which this file was provided.
  14:Generated_Source\PSoC5/USBUART_1_std.c **** *******************************************************************************/
  15:Generated_Source\PSoC5/USBUART_1_std.c **** 
  16:Generated_Source\PSoC5/USBUART_1_std.c **** #include "USBUART_1_pvt.h"
  17:Generated_Source\PSoC5/USBUART_1_std.c **** 
  18:Generated_Source\PSoC5/USBUART_1_std.c **** /***************************************
  19:Generated_Source\PSoC5/USBUART_1_std.c **** *   Static data allocation
  20:Generated_Source\PSoC5/USBUART_1_std.c **** ***************************************/
  21:Generated_Source\PSoC5/USBUART_1_std.c **** 
  22:Generated_Source\PSoC5/USBUART_1_std.c **** #if defined(USBUART_1_ENABLE_FWSN_STRING)
  23:Generated_Source\PSoC5/USBUART_1_std.c ****     static volatile uint8* USBUART_1_fwSerialNumberStringDescriptor;
  24:Generated_Source\PSoC5/USBUART_1_std.c ****     static volatile uint8  USBUART_1_snStringConfirm = USBUART_1_FALSE;
  25:Generated_Source\PSoC5/USBUART_1_std.c **** #endif  /* (USBUART_1_ENABLE_FWSN_STRING) */
  26:Generated_Source\PSoC5/USBUART_1_std.c **** 
  27:Generated_Source\PSoC5/USBUART_1_std.c **** #if defined(USBUART_1_ENABLE_FWSN_STRING)
  28:Generated_Source\PSoC5/USBUART_1_std.c ****     /***************************************************************************
  29:Generated_Source\PSoC5/USBUART_1_std.c ****     * Function Name: USBUART_1_SerialNumString
  30:Generated_Source\PSoC5/USBUART_1_std.c ****     ************************************************************************//**
  31:Generated_Source\PSoC5/USBUART_1_std.c ****     *
ARM GAS  C:\Users\jon\AppData\Local\Temp\ccCLAX4y.s 			page 2


  32:Generated_Source\PSoC5/USBUART_1_std.c ****     *  This function is available only when the User Call Back option in the 
  33:Generated_Source\PSoC5/USBUART_1_std.c ****     *  Serial Number String descriptor properties is selected. Application 
  34:Generated_Source\PSoC5/USBUART_1_std.c ****     *  firmware can provide the source of the USB device serial number string 
  35:Generated_Source\PSoC5/USBUART_1_std.c ****     *  descriptor during run time. The default string is used if the application 
  36:Generated_Source\PSoC5/USBUART_1_std.c ****     *  firmware does not use this function or sets the wrong string descriptor.
  37:Generated_Source\PSoC5/USBUART_1_std.c ****     *
  38:Generated_Source\PSoC5/USBUART_1_std.c ****     *  \param snString:  Pointer to the user-defined string descriptor. The 
  39:Generated_Source\PSoC5/USBUART_1_std.c ****     *  string descriptor should meet the Universal Serial Bus Specification 
  40:Generated_Source\PSoC5/USBUART_1_std.c ****     *  revision 2.0 chapter 9.6.7
  41:Generated_Source\PSoC5/USBUART_1_std.c ****     *  Offset|Size|Value|Description
  42:Generated_Source\PSoC5/USBUART_1_std.c ****     *  ------|----|------|---------------------------------
  43:Generated_Source\PSoC5/USBUART_1_std.c ****     *  0     |1   |N     |Size of this descriptor in bytes
  44:Generated_Source\PSoC5/USBUART_1_std.c ****     *  1     |1   |0x03  |STRING Descriptor Type
  45:Generated_Source\PSoC5/USBUART_1_std.c ****     *  2     |N-2 |Number|UNICODE encoded string
  46:Generated_Source\PSoC5/USBUART_1_std.c ****     *  
  47:Generated_Source\PSoC5/USBUART_1_std.c ****     * *For example:* uint8 snString[16]={0x0E,0x03,'F',0,'W',0,'S',0,'N',0,'0',0,'1',0};
  48:Generated_Source\PSoC5/USBUART_1_std.c ****     *
  49:Generated_Source\PSoC5/USBUART_1_std.c ****     * \reentrant
  50:Generated_Source\PSoC5/USBUART_1_std.c ****     *  No.
  51:Generated_Source\PSoC5/USBUART_1_std.c ****     *
  52:Generated_Source\PSoC5/USBUART_1_std.c ****     ***************************************************************************/
  53:Generated_Source\PSoC5/USBUART_1_std.c ****     void  USBUART_1_SerialNumString(uint8 snString[]) 
  54:Generated_Source\PSoC5/USBUART_1_std.c ****     {
  55:Generated_Source\PSoC5/USBUART_1_std.c ****         USBUART_1_snStringConfirm = USBUART_1_FALSE;
  56:Generated_Source\PSoC5/USBUART_1_std.c ****         
  57:Generated_Source\PSoC5/USBUART_1_std.c ****         if (snString != NULL)
  58:Generated_Source\PSoC5/USBUART_1_std.c ****         {
  59:Generated_Source\PSoC5/USBUART_1_std.c ****             /* Check descriptor validation */
  60:Generated_Source\PSoC5/USBUART_1_std.c ****             if ((snString[0u] > 1u) && (snString[1u] == USBUART_1_DESCR_STRING))
  61:Generated_Source\PSoC5/USBUART_1_std.c ****             {
  62:Generated_Source\PSoC5/USBUART_1_std.c ****                 USBUART_1_fwSerialNumberStringDescriptor = snString;
  63:Generated_Source\PSoC5/USBUART_1_std.c ****                 USBUART_1_snStringConfirm = USBUART_1_TRUE;
  64:Generated_Source\PSoC5/USBUART_1_std.c ****             }
  65:Generated_Source\PSoC5/USBUART_1_std.c ****         }
  66:Generated_Source\PSoC5/USBUART_1_std.c ****     }
  67:Generated_Source\PSoC5/USBUART_1_std.c **** #endif  /* USBUART_1_ENABLE_FWSN_STRING */
  68:Generated_Source\PSoC5/USBUART_1_std.c **** 
  69:Generated_Source\PSoC5/USBUART_1_std.c **** 
  70:Generated_Source\PSoC5/USBUART_1_std.c **** /*******************************************************************************
  71:Generated_Source\PSoC5/USBUART_1_std.c **** * Function Name: USBUART_1_HandleStandardRqst
  72:Generated_Source\PSoC5/USBUART_1_std.c **** ****************************************************************************//**
  73:Generated_Source\PSoC5/USBUART_1_std.c **** *
  74:Generated_Source\PSoC5/USBUART_1_std.c **** *  This Routine dispatches standard requests
  75:Generated_Source\PSoC5/USBUART_1_std.c **** *
  76:Generated_Source\PSoC5/USBUART_1_std.c **** *
  77:Generated_Source\PSoC5/USBUART_1_std.c **** * \return
  78:Generated_Source\PSoC5/USBUART_1_std.c **** *  TRUE if request handled.
  79:Generated_Source\PSoC5/USBUART_1_std.c **** *
  80:Generated_Source\PSoC5/USBUART_1_std.c **** * \reentrant
  81:Generated_Source\PSoC5/USBUART_1_std.c **** *  No.
  82:Generated_Source\PSoC5/USBUART_1_std.c **** *
  83:Generated_Source\PSoC5/USBUART_1_std.c **** *******************************************************************************/
  84:Generated_Source\PSoC5/USBUART_1_std.c **** uint8 USBUART_1_HandleStandardRqst(void) 
  85:Generated_Source\PSoC5/USBUART_1_std.c **** {
  86:Generated_Source\PSoC5/USBUART_1_std.c ****     uint8 requestHandled = USBUART_1_FALSE;
  87:Generated_Source\PSoC5/USBUART_1_std.c ****     uint8 interfaceNumber;
  88:Generated_Source\PSoC5/USBUART_1_std.c ****     uint8 configurationN;
ARM GAS  C:\Users\jon\AppData\Local\Temp\ccCLAX4y.s 			page 3


  89:Generated_Source\PSoC5/USBUART_1_std.c ****     uint8 bmRequestType = USBUART_1_bmRequestTypeReg;
  90:Generated_Source\PSoC5/USBUART_1_std.c **** 
  91:Generated_Source\PSoC5/USBUART_1_std.c **** #if defined(USBUART_1_ENABLE_STRINGS)
  92:Generated_Source\PSoC5/USBUART_1_std.c ****     volatile uint8 *pStr = 0u;
  93:Generated_Source\PSoC5/USBUART_1_std.c ****     #if defined(USBUART_1_ENABLE_DESCRIPTOR_STRINGS)
  94:Generated_Source\PSoC5/USBUART_1_std.c ****         uint8 nStr;
  95:Generated_Source\PSoC5/USBUART_1_std.c ****         uint8 descrLength;
  96:Generated_Source\PSoC5/USBUART_1_std.c ****     #endif /* (USBUART_1_ENABLE_DESCRIPTOR_STRINGS) */
  97:Generated_Source\PSoC5/USBUART_1_std.c **** #endif /* (USBUART_1_ENABLE_STRINGS) */
  98:Generated_Source\PSoC5/USBUART_1_std.c ****     
  99:Generated_Source\PSoC5/USBUART_1_std.c ****     static volatile uint8 USBUART_1_tBuffer[USBUART_1_STATUS_LENGTH_MAX];
 100:Generated_Source\PSoC5/USBUART_1_std.c ****     const T_USBUART_1_LUT CYCODE *pTmp;
 101:Generated_Source\PSoC5/USBUART_1_std.c **** 
 102:Generated_Source\PSoC5/USBUART_1_std.c ****     USBUART_1_currentTD.count = 0u;
 103:Generated_Source\PSoC5/USBUART_1_std.c **** 
 104:Generated_Source\PSoC5/USBUART_1_std.c ****     if (USBUART_1_RQST_DIR_D2H == (bmRequestType & USBUART_1_RQST_DIR_MASK))
 105:Generated_Source\PSoC5/USBUART_1_std.c ****     {
 106:Generated_Source\PSoC5/USBUART_1_std.c ****         /* Control Read */
 107:Generated_Source\PSoC5/USBUART_1_std.c ****         switch (USBUART_1_bRequestReg)
 108:Generated_Source\PSoC5/USBUART_1_std.c ****         {
 109:Generated_Source\PSoC5/USBUART_1_std.c ****             case USBUART_1_GET_DESCRIPTOR:
 110:Generated_Source\PSoC5/USBUART_1_std.c ****                 if (USBUART_1_DESCR_DEVICE ==USBUART_1_wValueHiReg)
 111:Generated_Source\PSoC5/USBUART_1_std.c ****                 {
 112:Generated_Source\PSoC5/USBUART_1_std.c ****                     pTmp = USBUART_1_GetDeviceTablePtr();
 113:Generated_Source\PSoC5/USBUART_1_std.c ****                     USBUART_1_currentTD.pData = (volatile uint8 *)pTmp->p_list;
 114:Generated_Source\PSoC5/USBUART_1_std.c ****                     USBUART_1_currentTD.count = USBUART_1_DEVICE_DESCR_LENGTH;
 115:Generated_Source\PSoC5/USBUART_1_std.c ****                     
 116:Generated_Source\PSoC5/USBUART_1_std.c ****                     requestHandled  = USBUART_1_InitControlRead();
 117:Generated_Source\PSoC5/USBUART_1_std.c ****                 }
 118:Generated_Source\PSoC5/USBUART_1_std.c ****                 else if (USBUART_1_DESCR_CONFIG == USBUART_1_wValueHiReg)
 119:Generated_Source\PSoC5/USBUART_1_std.c ****                 {
 120:Generated_Source\PSoC5/USBUART_1_std.c ****                     pTmp = USBUART_1_GetConfigTablePtr((uint8) USBUART_1_wValueLoReg);
 121:Generated_Source\PSoC5/USBUART_1_std.c ****                     
 122:Generated_Source\PSoC5/USBUART_1_std.c ****                     /* Verify that requested descriptor exists */
 123:Generated_Source\PSoC5/USBUART_1_std.c ****                     if (pTmp != NULL)
 124:Generated_Source\PSoC5/USBUART_1_std.c ****                     {
 125:Generated_Source\PSoC5/USBUART_1_std.c ****                         USBUART_1_currentTD.pData = (volatile uint8 *)pTmp->p_list;
 126:Generated_Source\PSoC5/USBUART_1_std.c ****                         USBUART_1_currentTD.count = (uint16)((uint16)(USBUART_1_currentTD.pData)[US
 127:Generated_Source\PSoC5/USBUART_1_std.c ****                                                                             (USBUART_1_currentTD.pD
 128:Generated_Source\PSoC5/USBUART_1_std.c ****                         requestHandled  = USBUART_1_InitControlRead();
 129:Generated_Source\PSoC5/USBUART_1_std.c ****                     }
 130:Generated_Source\PSoC5/USBUART_1_std.c ****                 }
 131:Generated_Source\PSoC5/USBUART_1_std.c ****                 
 132:Generated_Source\PSoC5/USBUART_1_std.c ****             #if(USBUART_1_BOS_ENABLE)
 133:Generated_Source\PSoC5/USBUART_1_std.c ****                 else if (USBUART_1_DESCR_BOS == USBUART_1_wValueHiReg)
 134:Generated_Source\PSoC5/USBUART_1_std.c ****                 {
 135:Generated_Source\PSoC5/USBUART_1_std.c ****                     pTmp = USBUART_1_GetBOSPtr();
 136:Generated_Source\PSoC5/USBUART_1_std.c ****                     
 137:Generated_Source\PSoC5/USBUART_1_std.c ****                     /* Verify that requested descriptor exists */
 138:Generated_Source\PSoC5/USBUART_1_std.c ****                     if (pTmp != NULL)
 139:Generated_Source\PSoC5/USBUART_1_std.c ****                     {
 140:Generated_Source\PSoC5/USBUART_1_std.c ****                         USBUART_1_currentTD.pData = (volatile uint8 *)pTmp;
 141:Generated_Source\PSoC5/USBUART_1_std.c ****                         USBUART_1_currentTD.count = ((uint16)((uint16)(USBUART_1_currentTD.pData)[U
 142:Generated_Source\PSoC5/USBUART_1_std.c ****                                                                              (USBUART_1_currentTD.p
 143:Generated_Source\PSoC5/USBUART_1_std.c ****                         requestHandled  = USBUART_1_InitControlRead();
 144:Generated_Source\PSoC5/USBUART_1_std.c ****                     }
 145:Generated_Source\PSoC5/USBUART_1_std.c ****                 }
ARM GAS  C:\Users\jon\AppData\Local\Temp\ccCLAX4y.s 			page 4


 146:Generated_Source\PSoC5/USBUART_1_std.c ****             #endif /*(USBUART_1_BOS_ENABLE)*/
 147:Generated_Source\PSoC5/USBUART_1_std.c ****             
 148:Generated_Source\PSoC5/USBUART_1_std.c ****             #if defined(USBUART_1_ENABLE_STRINGS)
 149:Generated_Source\PSoC5/USBUART_1_std.c ****                 else if (USBUART_1_DESCR_STRING == USBUART_1_wValueHiReg)
 150:Generated_Source\PSoC5/USBUART_1_std.c ****                 {
 151:Generated_Source\PSoC5/USBUART_1_std.c ****                 /* Descriptor Strings */
 152:Generated_Source\PSoC5/USBUART_1_std.c ****                 #if defined(USBUART_1_ENABLE_DESCRIPTOR_STRINGS)
 153:Generated_Source\PSoC5/USBUART_1_std.c ****                     nStr = 0u;
 154:Generated_Source\PSoC5/USBUART_1_std.c ****                     pStr = (volatile uint8 *) &USBUART_1_STRING_DESCRIPTORS[0u];
 155:Generated_Source\PSoC5/USBUART_1_std.c ****                     
 156:Generated_Source\PSoC5/USBUART_1_std.c ****                     while ((USBUART_1_wValueLoReg > nStr) && (*pStr != 0u))
 157:Generated_Source\PSoC5/USBUART_1_std.c ****                     {
 158:Generated_Source\PSoC5/USBUART_1_std.c ****                         /* Read descriptor length from 1st byte */
 159:Generated_Source\PSoC5/USBUART_1_std.c ****                         descrLength = *pStr;
 160:Generated_Source\PSoC5/USBUART_1_std.c ****                         /* Move to next string descriptor */
 161:Generated_Source\PSoC5/USBUART_1_std.c ****                         pStr = &pStr[descrLength];
 162:Generated_Source\PSoC5/USBUART_1_std.c ****                         nStr++;
 163:Generated_Source\PSoC5/USBUART_1_std.c ****                     }
 164:Generated_Source\PSoC5/USBUART_1_std.c ****                 #endif /* (USBUART_1_ENABLE_DESCRIPTOR_STRINGS) */
 165:Generated_Source\PSoC5/USBUART_1_std.c ****                 
 166:Generated_Source\PSoC5/USBUART_1_std.c ****                 /* Microsoft OS String */
 167:Generated_Source\PSoC5/USBUART_1_std.c ****                 #if defined(USBUART_1_ENABLE_MSOS_STRING)
 168:Generated_Source\PSoC5/USBUART_1_std.c ****                     if (USBUART_1_STRING_MSOS == USBUART_1_wValueLoReg)
 169:Generated_Source\PSoC5/USBUART_1_std.c ****                     {
 170:Generated_Source\PSoC5/USBUART_1_std.c ****                         pStr = (volatile uint8 *)& USBUART_1_MSOS_DESCRIPTOR[0u];
 171:Generated_Source\PSoC5/USBUART_1_std.c ****                     }
 172:Generated_Source\PSoC5/USBUART_1_std.c ****                 #endif /* (USBUART_1_ENABLE_MSOS_STRING) */
 173:Generated_Source\PSoC5/USBUART_1_std.c ****                 
 174:Generated_Source\PSoC5/USBUART_1_std.c ****                 /* SN string */
 175:Generated_Source\PSoC5/USBUART_1_std.c ****                 #if defined(USBUART_1_ENABLE_SN_STRING)
 176:Generated_Source\PSoC5/USBUART_1_std.c ****                     if ((USBUART_1_wValueLoReg != 0u) && 
 177:Generated_Source\PSoC5/USBUART_1_std.c ****                         (USBUART_1_wValueLoReg == USBUART_1_DEVICE0_DESCR[USBUART_1_DEVICE_DESCR_SN
 178:Generated_Source\PSoC5/USBUART_1_std.c ****                     {
 179:Generated_Source\PSoC5/USBUART_1_std.c ****                     #if defined(USBUART_1_ENABLE_IDSN_STRING)
 180:Generated_Source\PSoC5/USBUART_1_std.c ****                         /* Read DIE ID and generate string descriptor in RAM */
 181:Generated_Source\PSoC5/USBUART_1_std.c ****                         USBUART_1_ReadDieID(USBUART_1_idSerialNumberStringDescriptor);
 182:Generated_Source\PSoC5/USBUART_1_std.c ****                         pStr = USBUART_1_idSerialNumberStringDescriptor;
 183:Generated_Source\PSoC5/USBUART_1_std.c ****                     #elif defined(USBUART_1_ENABLE_FWSN_STRING)
 184:Generated_Source\PSoC5/USBUART_1_std.c ****                         
 185:Generated_Source\PSoC5/USBUART_1_std.c ****                         if(USBUART_1_snStringConfirm != USBUART_1_FALSE)
 186:Generated_Source\PSoC5/USBUART_1_std.c ****                         {
 187:Generated_Source\PSoC5/USBUART_1_std.c ****                             pStr = USBUART_1_fwSerialNumberStringDescriptor;
 188:Generated_Source\PSoC5/USBUART_1_std.c ****                         }
 189:Generated_Source\PSoC5/USBUART_1_std.c ****                         else
 190:Generated_Source\PSoC5/USBUART_1_std.c ****                         {
 191:Generated_Source\PSoC5/USBUART_1_std.c ****                             pStr = (volatile uint8 *)&USBUART_1_SN_STRING_DESCRIPTOR[0u];
 192:Generated_Source\PSoC5/USBUART_1_std.c ****                         }
 193:Generated_Source\PSoC5/USBUART_1_std.c ****                     #else
 194:Generated_Source\PSoC5/USBUART_1_std.c ****                         pStr = (volatile uint8 *)&USBUART_1_SN_STRING_DESCRIPTOR[0u];
 195:Generated_Source\PSoC5/USBUART_1_std.c ****                     #endif  /* (USBUART_1_ENABLE_IDSN_STRING) */
 196:Generated_Source\PSoC5/USBUART_1_std.c ****                     }
 197:Generated_Source\PSoC5/USBUART_1_std.c ****                 #endif /* (USBUART_1_ENABLE_SN_STRING) */
 198:Generated_Source\PSoC5/USBUART_1_std.c ****                 
 199:Generated_Source\PSoC5/USBUART_1_std.c ****                     if (*pStr != 0u)
 200:Generated_Source\PSoC5/USBUART_1_std.c ****                     {
 201:Generated_Source\PSoC5/USBUART_1_std.c ****                         USBUART_1_currentTD.count = *pStr;
 202:Generated_Source\PSoC5/USBUART_1_std.c ****                         USBUART_1_currentTD.pData = pStr;
ARM GAS  C:\Users\jon\AppData\Local\Temp\ccCLAX4y.s 			page 5


 203:Generated_Source\PSoC5/USBUART_1_std.c ****                         requestHandled  = USBUART_1_InitControlRead();
 204:Generated_Source\PSoC5/USBUART_1_std.c ****                     }
 205:Generated_Source\PSoC5/USBUART_1_std.c ****                 }
 206:Generated_Source\PSoC5/USBUART_1_std.c ****             #endif /*  USBUART_1_ENABLE_STRINGS */
 207:Generated_Source\PSoC5/USBUART_1_std.c ****                 else
 208:Generated_Source\PSoC5/USBUART_1_std.c ****                 {
 209:Generated_Source\PSoC5/USBUART_1_std.c ****                     requestHandled = USBUART_1_DispatchClassRqst();
 210:Generated_Source\PSoC5/USBUART_1_std.c ****                 }
 211:Generated_Source\PSoC5/USBUART_1_std.c ****                 break;
 212:Generated_Source\PSoC5/USBUART_1_std.c ****                 
 213:Generated_Source\PSoC5/USBUART_1_std.c ****             case USBUART_1_GET_STATUS:
 214:Generated_Source\PSoC5/USBUART_1_std.c ****                 switch (bmRequestType & USBUART_1_RQST_RCPT_MASK)
 215:Generated_Source\PSoC5/USBUART_1_std.c ****                 {
 216:Generated_Source\PSoC5/USBUART_1_std.c ****                     case USBUART_1_RQST_RCPT_EP:
 217:Generated_Source\PSoC5/USBUART_1_std.c ****                         USBUART_1_currentTD.count = USBUART_1_EP_STATUS_LENGTH;
 218:Generated_Source\PSoC5/USBUART_1_std.c ****                         USBUART_1_tBuffer[0u]     = USBUART_1_EP[USBUART_1_wIndexLoReg & USBUART_1_
 219:Generated_Source\PSoC5/USBUART_1_std.c ****                         USBUART_1_tBuffer[1u]     = 0u;
 220:Generated_Source\PSoC5/USBUART_1_std.c ****                         USBUART_1_currentTD.pData = &USBUART_1_tBuffer[0u];
 221:Generated_Source\PSoC5/USBUART_1_std.c ****                         
 222:Generated_Source\PSoC5/USBUART_1_std.c ****                         requestHandled  = USBUART_1_InitControlRead();
 223:Generated_Source\PSoC5/USBUART_1_std.c ****                         break;
 224:Generated_Source\PSoC5/USBUART_1_std.c ****                     case USBUART_1_RQST_RCPT_DEV:
 225:Generated_Source\PSoC5/USBUART_1_std.c ****                         USBUART_1_currentTD.count = USBUART_1_DEVICE_STATUS_LENGTH;
 226:Generated_Source\PSoC5/USBUART_1_std.c ****                         USBUART_1_tBuffer[0u]     = USBUART_1_deviceStatus;
 227:Generated_Source\PSoC5/USBUART_1_std.c ****                         USBUART_1_tBuffer[1u]     = 0u;
 228:Generated_Source\PSoC5/USBUART_1_std.c ****                         USBUART_1_currentTD.pData = &USBUART_1_tBuffer[0u];
 229:Generated_Source\PSoC5/USBUART_1_std.c ****                         
 230:Generated_Source\PSoC5/USBUART_1_std.c ****                         requestHandled  = USBUART_1_InitControlRead();
 231:Generated_Source\PSoC5/USBUART_1_std.c ****                         break;
 232:Generated_Source\PSoC5/USBUART_1_std.c ****                     default:    /* requestHandled is initialized as FALSE by default */
 233:Generated_Source\PSoC5/USBUART_1_std.c ****                         break;
 234:Generated_Source\PSoC5/USBUART_1_std.c ****                 }
 235:Generated_Source\PSoC5/USBUART_1_std.c ****                 break;
 236:Generated_Source\PSoC5/USBUART_1_std.c ****                 
 237:Generated_Source\PSoC5/USBUART_1_std.c ****             case USBUART_1_GET_CONFIGURATION:
 238:Generated_Source\PSoC5/USBUART_1_std.c ****                 USBUART_1_currentTD.count = 1u;
 239:Generated_Source\PSoC5/USBUART_1_std.c ****                 USBUART_1_currentTD.pData = (volatile uint8 *) &USBUART_1_configuration;
 240:Generated_Source\PSoC5/USBUART_1_std.c ****                 requestHandled  = USBUART_1_InitControlRead();
 241:Generated_Source\PSoC5/USBUART_1_std.c ****                 break;
 242:Generated_Source\PSoC5/USBUART_1_std.c ****                 
 243:Generated_Source\PSoC5/USBUART_1_std.c ****             case USBUART_1_GET_INTERFACE:
 244:Generated_Source\PSoC5/USBUART_1_std.c ****                 USBUART_1_currentTD.count = 1u;
 245:Generated_Source\PSoC5/USBUART_1_std.c ****                 USBUART_1_currentTD.pData = (volatile uint8 *) &USBUART_1_interfaceSetting[USBUART_
 246:Generated_Source\PSoC5/USBUART_1_std.c ****                 requestHandled  = USBUART_1_InitControlRead();
 247:Generated_Source\PSoC5/USBUART_1_std.c ****                 break;
 248:Generated_Source\PSoC5/USBUART_1_std.c ****                 
 249:Generated_Source\PSoC5/USBUART_1_std.c ****             default: /* requestHandled is initialized as FALSE by default */
 250:Generated_Source\PSoC5/USBUART_1_std.c ****                 break;
 251:Generated_Source\PSoC5/USBUART_1_std.c ****         }
 252:Generated_Source\PSoC5/USBUART_1_std.c ****     }
 253:Generated_Source\PSoC5/USBUART_1_std.c ****     else
 254:Generated_Source\PSoC5/USBUART_1_std.c ****     {
 255:Generated_Source\PSoC5/USBUART_1_std.c ****         /* Control Write */
 256:Generated_Source\PSoC5/USBUART_1_std.c ****         switch (USBUART_1_bRequestReg)
 257:Generated_Source\PSoC5/USBUART_1_std.c ****         {
 258:Generated_Source\PSoC5/USBUART_1_std.c ****             case USBUART_1_SET_ADDRESS:
 259:Generated_Source\PSoC5/USBUART_1_std.c ****                 /* Store address to be set in USBUART_1_NoDataControlStatusStage(). */
ARM GAS  C:\Users\jon\AppData\Local\Temp\ccCLAX4y.s 			page 6


 260:Generated_Source\PSoC5/USBUART_1_std.c ****                 USBUART_1_deviceAddress = (uint8) USBUART_1_wValueLoReg;
 261:Generated_Source\PSoC5/USBUART_1_std.c ****                 requestHandled = USBUART_1_InitNoDataControlTransfer();
 262:Generated_Source\PSoC5/USBUART_1_std.c ****                 break;
 263:Generated_Source\PSoC5/USBUART_1_std.c ****                 
 264:Generated_Source\PSoC5/USBUART_1_std.c ****             case USBUART_1_SET_CONFIGURATION:
 265:Generated_Source\PSoC5/USBUART_1_std.c ****                 configurationN = USBUART_1_wValueLoReg;
 266:Generated_Source\PSoC5/USBUART_1_std.c ****                 
 267:Generated_Source\PSoC5/USBUART_1_std.c ****                 /* Verify that configuration descriptor exists */
 268:Generated_Source\PSoC5/USBUART_1_std.c ****                 if(configurationN > 0u)
 269:Generated_Source\PSoC5/USBUART_1_std.c ****                 {
 270:Generated_Source\PSoC5/USBUART_1_std.c ****                     pTmp = USBUART_1_GetConfigTablePtr((uint8) configurationN - 1u);
 271:Generated_Source\PSoC5/USBUART_1_std.c ****                 }
 272:Generated_Source\PSoC5/USBUART_1_std.c ****                 
 273:Generated_Source\PSoC5/USBUART_1_std.c ****                 /* Responds with a Request Error when configuration number is invalid */
 274:Generated_Source\PSoC5/USBUART_1_std.c ****                 if (((configurationN > 0u) && (pTmp != NULL)) || (configurationN == 0u))
 275:Generated_Source\PSoC5/USBUART_1_std.c ****                 {
 276:Generated_Source\PSoC5/USBUART_1_std.c ****                     /* Set new configuration if it has been changed */
 277:Generated_Source\PSoC5/USBUART_1_std.c ****                     if(configurationN != USBUART_1_configuration)
 278:Generated_Source\PSoC5/USBUART_1_std.c ****                     {
 279:Generated_Source\PSoC5/USBUART_1_std.c ****                         USBUART_1_configuration = (uint8) configurationN;
 280:Generated_Source\PSoC5/USBUART_1_std.c ****                         USBUART_1_configurationChanged = USBUART_1_TRUE;
 281:Generated_Source\PSoC5/USBUART_1_std.c ****                         USBUART_1_Config(USBUART_1_TRUE);
 282:Generated_Source\PSoC5/USBUART_1_std.c ****                     }
 283:Generated_Source\PSoC5/USBUART_1_std.c ****                     requestHandled = USBUART_1_InitNoDataControlTransfer();
 284:Generated_Source\PSoC5/USBUART_1_std.c ****                 }
 285:Generated_Source\PSoC5/USBUART_1_std.c ****                 break;
 286:Generated_Source\PSoC5/USBUART_1_std.c ****                 
 287:Generated_Source\PSoC5/USBUART_1_std.c ****             case USBUART_1_SET_INTERFACE:
 288:Generated_Source\PSoC5/USBUART_1_std.c ****                 if (0u != USBUART_1_ValidateAlternateSetting())
 289:Generated_Source\PSoC5/USBUART_1_std.c ****                 {
 290:Generated_Source\PSoC5/USBUART_1_std.c ****                     /* Get interface number from the request. */
 291:Generated_Source\PSoC5/USBUART_1_std.c ****                     interfaceNumber = USBUART_1_wIndexLoReg;
 292:Generated_Source\PSoC5/USBUART_1_std.c ****                     USBUART_1_interfaceNumber = (uint8) USBUART_1_wIndexLoReg;
 293:Generated_Source\PSoC5/USBUART_1_std.c ****                      
 294:Generated_Source\PSoC5/USBUART_1_std.c ****                     /* Check if alternate settings is changed for interface. */
 295:Generated_Source\PSoC5/USBUART_1_std.c ****                     if (USBUART_1_interfaceSettingLast[interfaceNumber] != USBUART_1_interfaceSetti
 296:Generated_Source\PSoC5/USBUART_1_std.c ****                     {
 297:Generated_Source\PSoC5/USBUART_1_std.c ****                         USBUART_1_configurationChanged = USBUART_1_TRUE;
 298:Generated_Source\PSoC5/USBUART_1_std.c ****                     
 299:Generated_Source\PSoC5/USBUART_1_std.c ****                         /* Change alternate setting for the endpoints. */
 300:Generated_Source\PSoC5/USBUART_1_std.c ****                     #if (USBUART_1_EP_MANAGEMENT_MANUAL && USBUART_1_EP_ALLOC_DYNAMIC)
 301:Generated_Source\PSoC5/USBUART_1_std.c ****                         USBUART_1_Config(USBUART_1_FALSE);
 302:Generated_Source\PSoC5/USBUART_1_std.c ****                     #else
 303:Generated_Source\PSoC5/USBUART_1_std.c ****                         USBUART_1_ConfigAltChanged();
 304:Generated_Source\PSoC5/USBUART_1_std.c ****                     #endif /* (USBUART_1_EP_MANAGEMENT_MANUAL && USBUART_1_EP_ALLOC_DYNAMIC) */
 305:Generated_Source\PSoC5/USBUART_1_std.c ****                     }
 306:Generated_Source\PSoC5/USBUART_1_std.c ****                     
 307:Generated_Source\PSoC5/USBUART_1_std.c ****                     requestHandled = USBUART_1_InitNoDataControlTransfer();
 308:Generated_Source\PSoC5/USBUART_1_std.c ****                 }
 309:Generated_Source\PSoC5/USBUART_1_std.c ****                 break;
 310:Generated_Source\PSoC5/USBUART_1_std.c ****                 
 311:Generated_Source\PSoC5/USBUART_1_std.c ****             case USBUART_1_CLEAR_FEATURE:
 312:Generated_Source\PSoC5/USBUART_1_std.c ****                 switch (bmRequestType & USBUART_1_RQST_RCPT_MASK)
 313:Generated_Source\PSoC5/USBUART_1_std.c ****                 {
 314:Generated_Source\PSoC5/USBUART_1_std.c ****                     case USBUART_1_RQST_RCPT_EP:
 315:Generated_Source\PSoC5/USBUART_1_std.c ****                         if (USBUART_1_wValueLoReg == USBUART_1_ENDPOINT_HALT)
 316:Generated_Source\PSoC5/USBUART_1_std.c ****                         {
ARM GAS  C:\Users\jon\AppData\Local\Temp\ccCLAX4y.s 			page 7


 317:Generated_Source\PSoC5/USBUART_1_std.c ****                             requestHandled = USBUART_1_ClearEndpointHalt();
 318:Generated_Source\PSoC5/USBUART_1_std.c ****                         }
 319:Generated_Source\PSoC5/USBUART_1_std.c ****                         break;
 320:Generated_Source\PSoC5/USBUART_1_std.c ****                     case USBUART_1_RQST_RCPT_DEV:
 321:Generated_Source\PSoC5/USBUART_1_std.c ****                         /* Clear device REMOTE_WAKEUP */
 322:Generated_Source\PSoC5/USBUART_1_std.c ****                         if (USBUART_1_wValueLoReg == USBUART_1_DEVICE_REMOTE_WAKEUP)
 323:Generated_Source\PSoC5/USBUART_1_std.c ****                         {
 324:Generated_Source\PSoC5/USBUART_1_std.c ****                             USBUART_1_deviceStatus &= (uint8)~USBUART_1_DEVICE_STATUS_REMOTE_WAKEUP
 325:Generated_Source\PSoC5/USBUART_1_std.c ****                             requestHandled = USBUART_1_InitNoDataControlTransfer();
 326:Generated_Source\PSoC5/USBUART_1_std.c ****                         }
 327:Generated_Source\PSoC5/USBUART_1_std.c ****                         break;
 328:Generated_Source\PSoC5/USBUART_1_std.c ****                     case USBUART_1_RQST_RCPT_IFC:
 329:Generated_Source\PSoC5/USBUART_1_std.c ****                         /* Validate interfaceNumber */
 330:Generated_Source\PSoC5/USBUART_1_std.c ****                         if (USBUART_1_wIndexLoReg < USBUART_1_MAX_INTERFACES_NUMBER)
 331:Generated_Source\PSoC5/USBUART_1_std.c ****                         {
 332:Generated_Source\PSoC5/USBUART_1_std.c ****                             USBUART_1_interfaceStatus[USBUART_1_wIndexLoReg] &= (uint8) ~USBUART_1_
 333:Generated_Source\PSoC5/USBUART_1_std.c ****                             requestHandled = USBUART_1_InitNoDataControlTransfer();
 334:Generated_Source\PSoC5/USBUART_1_std.c ****                         }
 335:Generated_Source\PSoC5/USBUART_1_std.c ****                         break;
 336:Generated_Source\PSoC5/USBUART_1_std.c ****                     default:    /* requestHandled is initialized as FALSE by default */
 337:Generated_Source\PSoC5/USBUART_1_std.c ****                         break;
 338:Generated_Source\PSoC5/USBUART_1_std.c ****                 }
 339:Generated_Source\PSoC5/USBUART_1_std.c ****                 break;
 340:Generated_Source\PSoC5/USBUART_1_std.c ****                 
 341:Generated_Source\PSoC5/USBUART_1_std.c ****             case USBUART_1_SET_FEATURE:
 342:Generated_Source\PSoC5/USBUART_1_std.c ****                 switch (bmRequestType & USBUART_1_RQST_RCPT_MASK)
 343:Generated_Source\PSoC5/USBUART_1_std.c ****                 {
 344:Generated_Source\PSoC5/USBUART_1_std.c ****                     case USBUART_1_RQST_RCPT_EP:
 345:Generated_Source\PSoC5/USBUART_1_std.c ****                         if (USBUART_1_wValueLoReg == USBUART_1_ENDPOINT_HALT)
 346:Generated_Source\PSoC5/USBUART_1_std.c ****                         {
 347:Generated_Source\PSoC5/USBUART_1_std.c ****                             requestHandled = USBUART_1_SetEndpointHalt();
 348:Generated_Source\PSoC5/USBUART_1_std.c ****                         }
 349:Generated_Source\PSoC5/USBUART_1_std.c ****                         break;
 350:Generated_Source\PSoC5/USBUART_1_std.c ****                         
 351:Generated_Source\PSoC5/USBUART_1_std.c ****                     case USBUART_1_RQST_RCPT_DEV:
 352:Generated_Source\PSoC5/USBUART_1_std.c ****                         /* Set device REMOTE_WAKEUP */
 353:Generated_Source\PSoC5/USBUART_1_std.c ****                         if (USBUART_1_wValueLoReg == USBUART_1_DEVICE_REMOTE_WAKEUP)
 354:Generated_Source\PSoC5/USBUART_1_std.c ****                         {
 355:Generated_Source\PSoC5/USBUART_1_std.c ****                             USBUART_1_deviceStatus |= USBUART_1_DEVICE_STATUS_REMOTE_WAKEUP;
 356:Generated_Source\PSoC5/USBUART_1_std.c ****                             requestHandled = USBUART_1_InitNoDataControlTransfer();
 357:Generated_Source\PSoC5/USBUART_1_std.c ****                         }
 358:Generated_Source\PSoC5/USBUART_1_std.c ****                         break;
 359:Generated_Source\PSoC5/USBUART_1_std.c ****                         
 360:Generated_Source\PSoC5/USBUART_1_std.c ****                     case USBUART_1_RQST_RCPT_IFC:
 361:Generated_Source\PSoC5/USBUART_1_std.c ****                         /* Validate interfaceNumber */
 362:Generated_Source\PSoC5/USBUART_1_std.c ****                         if (USBUART_1_wIndexLoReg < USBUART_1_MAX_INTERFACES_NUMBER)
 363:Generated_Source\PSoC5/USBUART_1_std.c ****                         {
 364:Generated_Source\PSoC5/USBUART_1_std.c ****                             USBUART_1_interfaceStatus[USBUART_1_wIndexLoReg] &= (uint8) ~USBUART_1_
 365:Generated_Source\PSoC5/USBUART_1_std.c ****                             requestHandled = USBUART_1_InitNoDataControlTransfer();
 366:Generated_Source\PSoC5/USBUART_1_std.c ****                         }
 367:Generated_Source\PSoC5/USBUART_1_std.c ****                         break;
 368:Generated_Source\PSoC5/USBUART_1_std.c ****                     
 369:Generated_Source\PSoC5/USBUART_1_std.c ****                     default:    /* requestHandled is initialized as FALSE by default */
 370:Generated_Source\PSoC5/USBUART_1_std.c ****                         break;
 371:Generated_Source\PSoC5/USBUART_1_std.c ****                 }
 372:Generated_Source\PSoC5/USBUART_1_std.c ****                 break;
 373:Generated_Source\PSoC5/USBUART_1_std.c ****                 
ARM GAS  C:\Users\jon\AppData\Local\Temp\ccCLAX4y.s 			page 8


 374:Generated_Source\PSoC5/USBUART_1_std.c ****             default:    /* requestHandled is initialized as FALSE by default */
 375:Generated_Source\PSoC5/USBUART_1_std.c ****                 break;
 376:Generated_Source\PSoC5/USBUART_1_std.c ****         }
 377:Generated_Source\PSoC5/USBUART_1_std.c ****     }
 378:Generated_Source\PSoC5/USBUART_1_std.c ****     
 379:Generated_Source\PSoC5/USBUART_1_std.c ****     return (requestHandled);
 380:Generated_Source\PSoC5/USBUART_1_std.c **** }
 381:Generated_Source\PSoC5/USBUART_1_std.c **** 
 382:Generated_Source\PSoC5/USBUART_1_std.c **** 
 383:Generated_Source\PSoC5/USBUART_1_std.c **** #if defined(USBUART_1_ENABLE_IDSN_STRING)
 384:Generated_Source\PSoC5/USBUART_1_std.c ****     /***************************************************************************
 385:Generated_Source\PSoC5/USBUART_1_std.c ****     * Function Name: USBUART_1_ReadDieID
 386:Generated_Source\PSoC5/USBUART_1_std.c ****     ************************************************************************//**
 387:Generated_Source\PSoC5/USBUART_1_std.c ****     *
 388:Generated_Source\PSoC5/USBUART_1_std.c ****     *  This routine read Die ID and generate Serial Number string descriptor.
 389:Generated_Source\PSoC5/USBUART_1_std.c ****     *
 390:Generated_Source\PSoC5/USBUART_1_std.c ****     *  \param descr:  pointer on string descriptor. This string size has to be equal or
 391:Generated_Source\PSoC5/USBUART_1_std.c ****     *          greater than USBUART_1_IDSN_DESCR_LENGTH.
 392:Generated_Source\PSoC5/USBUART_1_std.c ****     *
 393:Generated_Source\PSoC5/USBUART_1_std.c ****     *
 394:Generated_Source\PSoC5/USBUART_1_std.c ****     * \reentrant
 395:Generated_Source\PSoC5/USBUART_1_std.c ****     *  No.
 396:Generated_Source\PSoC5/USBUART_1_std.c ****     *
 397:Generated_Source\PSoC5/USBUART_1_std.c ****     ***************************************************************************/
 398:Generated_Source\PSoC5/USBUART_1_std.c ****     void USBUART_1_ReadDieID(uint8 descr[]) 
 399:Generated_Source\PSoC5/USBUART_1_std.c ****     {
 400:Generated_Source\PSoC5/USBUART_1_std.c ****         const char8 CYCODE hex[] = "0123456789ABCDEF";
 401:Generated_Source\PSoC5/USBUART_1_std.c ****         uint8 i;
 402:Generated_Source\PSoC5/USBUART_1_std.c ****         uint8 j = 0u;
 403:Generated_Source\PSoC5/USBUART_1_std.c ****         uint8 uniqueId[8u];
 404:Generated_Source\PSoC5/USBUART_1_std.c **** 
 405:Generated_Source\PSoC5/USBUART_1_std.c ****         if (NULL != descr)
 406:Generated_Source\PSoC5/USBUART_1_std.c ****         {
 407:Generated_Source\PSoC5/USBUART_1_std.c ****             /* Initialize descriptor header. */
 408:Generated_Source\PSoC5/USBUART_1_std.c ****             descr[0u] = USBUART_1_IDSN_DESCR_LENGTH;
 409:Generated_Source\PSoC5/USBUART_1_std.c ****             descr[1u] = USBUART_1_DESCR_STRING;
 410:Generated_Source\PSoC5/USBUART_1_std.c ****             
 411:Generated_Source\PSoC5/USBUART_1_std.c ****             /* Unique ID size is 8 bytes. */
 412:Generated_Source\PSoC5/USBUART_1_std.c ****             CyGetUniqueId((uint32 *) uniqueId);
 413:Generated_Source\PSoC5/USBUART_1_std.c **** 
 414:Generated_Source\PSoC5/USBUART_1_std.c ****             /* Fill descriptor with unique device ID. */
 415:Generated_Source\PSoC5/USBUART_1_std.c ****             for (i = 2u; i < USBUART_1_IDSN_DESCR_LENGTH; i += 4u)
 416:Generated_Source\PSoC5/USBUART_1_std.c ****             {
 417:Generated_Source\PSoC5/USBUART_1_std.c ****                 descr[i]      = (uint8) hex[(uniqueId[j] >> 4u)];
 418:Generated_Source\PSoC5/USBUART_1_std.c ****                 descr[i + 1u] = 0u;
 419:Generated_Source\PSoC5/USBUART_1_std.c ****                 descr[i + 2u] = (uint8) hex[(uniqueId[j] & 0x0Fu)];
 420:Generated_Source\PSoC5/USBUART_1_std.c ****                 descr[i + 3u] = 0u;
 421:Generated_Source\PSoC5/USBUART_1_std.c ****                 ++j;
 422:Generated_Source\PSoC5/USBUART_1_std.c ****             }
 423:Generated_Source\PSoC5/USBUART_1_std.c ****         }
 424:Generated_Source\PSoC5/USBUART_1_std.c ****     }
 425:Generated_Source\PSoC5/USBUART_1_std.c **** #endif /* (USBUART_1_ENABLE_IDSN_STRING) */
 426:Generated_Source\PSoC5/USBUART_1_std.c **** 
 427:Generated_Source\PSoC5/USBUART_1_std.c **** 
 428:Generated_Source\PSoC5/USBUART_1_std.c **** /*******************************************************************************
 429:Generated_Source\PSoC5/USBUART_1_std.c **** * Function Name: USBUART_1_ConfigReg
 430:Generated_Source\PSoC5/USBUART_1_std.c **** ****************************************************************************//**
ARM GAS  C:\Users\jon\AppData\Local\Temp\ccCLAX4y.s 			page 9


 431:Generated_Source\PSoC5/USBUART_1_std.c **** *
 432:Generated_Source\PSoC5/USBUART_1_std.c **** *  This routine configures hardware registers from the variables.
 433:Generated_Source\PSoC5/USBUART_1_std.c **** *  It is called from USBUART_1_Config() function and from RestoreConfig
 434:Generated_Source\PSoC5/USBUART_1_std.c **** *  after Wakeup.
 435:Generated_Source\PSoC5/USBUART_1_std.c **** *
 436:Generated_Source\PSoC5/USBUART_1_std.c **** *******************************************************************************/
 437:Generated_Source\PSoC5/USBUART_1_std.c **** void USBUART_1_ConfigReg(void) 
 438:Generated_Source\PSoC5/USBUART_1_std.c **** {
 439:Generated_Source\PSoC5/USBUART_1_std.c ****     uint8 ep;
 440:Generated_Source\PSoC5/USBUART_1_std.c **** 
 441:Generated_Source\PSoC5/USBUART_1_std.c **** #if (USBUART_1_EP_MANAGEMENT_DMA_AUTO)
 442:Generated_Source\PSoC5/USBUART_1_std.c ****     uint8 epType = 0u;
 443:Generated_Source\PSoC5/USBUART_1_std.c **** #endif /* (USBUART_1_EP_MANAGEMENT_DMA_AUTO) */
 444:Generated_Source\PSoC5/USBUART_1_std.c **** 
 445:Generated_Source\PSoC5/USBUART_1_std.c ****     /* Go thought all endpoints and set hardware configuration */
 446:Generated_Source\PSoC5/USBUART_1_std.c ****     for (ep = USBUART_1_EP1; ep < USBUART_1_MAX_EP; ++ep)
 447:Generated_Source\PSoC5/USBUART_1_std.c ****     {
 448:Generated_Source\PSoC5/USBUART_1_std.c ****         USBUART_1_ARB_EP_BASE.arbEp[ep].epCfg = USBUART_1_ARB_EPX_CFG_DEFAULT;
 449:Generated_Source\PSoC5/USBUART_1_std.c ****         
 450:Generated_Source\PSoC5/USBUART_1_std.c ****     #if (USBUART_1_EP_MANAGEMENT_DMA)
 451:Generated_Source\PSoC5/USBUART_1_std.c ****         /* Enable arbiter endpoint interrupt sources */
 452:Generated_Source\PSoC5/USBUART_1_std.c ****         USBUART_1_ARB_EP_BASE.arbEp[ep].epIntEn = USBUART_1_ARB_EPX_INT_MASK;
 453:Generated_Source\PSoC5/USBUART_1_std.c ****     #endif /* (USBUART_1_EP_MANAGEMENT_DMA) */
 454:Generated_Source\PSoC5/USBUART_1_std.c ****     
 455:Generated_Source\PSoC5/USBUART_1_std.c ****         if (USBUART_1_EP[ep].epMode != USBUART_1_MODE_DISABLE)
 456:Generated_Source\PSoC5/USBUART_1_std.c ****         {
 457:Generated_Source\PSoC5/USBUART_1_std.c ****             if (0u != (USBUART_1_EP[ep].addr & USBUART_1_DIR_IN))
 458:Generated_Source\PSoC5/USBUART_1_std.c ****             {
 459:Generated_Source\PSoC5/USBUART_1_std.c ****                 USBUART_1_SIE_EP_BASE.sieEp[ep].epCr0 = USBUART_1_MODE_NAK_IN;
 460:Generated_Source\PSoC5/USBUART_1_std.c ****                 
 461:Generated_Source\PSoC5/USBUART_1_std.c ****             #if (USBUART_1_EP_MANAGEMENT_DMA_AUTO && CY_PSOC4)
 462:Generated_Source\PSoC5/USBUART_1_std.c ****                 /* Clear DMA_TERMIN for IN endpoint. */
 463:Generated_Source\PSoC5/USBUART_1_std.c ****                 USBUART_1_ARB_EP_BASE.arbEp[ep].epIntEn &= (uint32) ~USBUART_1_ARB_EPX_INT_DMA_TERM
 464:Generated_Source\PSoC5/USBUART_1_std.c ****             #endif /* (USBUART_1_EP_MANAGEMENT_DMA_AUTO && CY_PSOC4) */
 465:Generated_Source\PSoC5/USBUART_1_std.c ****             }
 466:Generated_Source\PSoC5/USBUART_1_std.c ****             else
 467:Generated_Source\PSoC5/USBUART_1_std.c ****             {
 468:Generated_Source\PSoC5/USBUART_1_std.c ****                 USBUART_1_SIE_EP_BASE.sieEp[ep].epCr0 = USBUART_1_MODE_NAK_OUT;
 469:Generated_Source\PSoC5/USBUART_1_std.c **** 
 470:Generated_Source\PSoC5/USBUART_1_std.c ****             #if (USBUART_1_EP_MANAGEMENT_DMA_AUTO)
 471:Generated_Source\PSoC5/USBUART_1_std.c ****                 /* (CY_PSOC4): DMA_TERMIN for OUT endpoint is set above. */
 472:Generated_Source\PSoC5/USBUART_1_std.c ****                 
 473:Generated_Source\PSoC5/USBUART_1_std.c ****                 /* Prepare endpoint type mask. */
 474:Generated_Source\PSoC5/USBUART_1_std.c ****                 epType |= (uint8) (0x01u << (ep - USBUART_1_EP1));
 475:Generated_Source\PSoC5/USBUART_1_std.c ****             #endif /* (USBUART_1_EP_MANAGEMENT_DMA_AUTO) */
 476:Generated_Source\PSoC5/USBUART_1_std.c ****             }
 477:Generated_Source\PSoC5/USBUART_1_std.c ****         }
 478:Generated_Source\PSoC5/USBUART_1_std.c ****         else
 479:Generated_Source\PSoC5/USBUART_1_std.c ****         {
 480:Generated_Source\PSoC5/USBUART_1_std.c ****             USBUART_1_SIE_EP_BASE.sieEp[ep].epCr0 = USBUART_1_MODE_STALL_DATA_EP;
 481:Generated_Source\PSoC5/USBUART_1_std.c ****         }
 482:Generated_Source\PSoC5/USBUART_1_std.c ****         
 483:Generated_Source\PSoC5/USBUART_1_std.c ****     #if (!USBUART_1_EP_MANAGEMENT_DMA_AUTO)
 484:Generated_Source\PSoC5/USBUART_1_std.c ****         #if (CY_PSOC4)
 485:Generated_Source\PSoC5/USBUART_1_std.c ****             USBUART_1_ARB_EP16_BASE.arbEp[ep].rwRa16  = (uint32) USBUART_1_EP[ep].buffOffset;
 486:Generated_Source\PSoC5/USBUART_1_std.c ****             USBUART_1_ARB_EP16_BASE.arbEp[ep].rwWa16  = (uint32) USBUART_1_EP[ep].buffOffset;
 487:Generated_Source\PSoC5/USBUART_1_std.c ****         #else
ARM GAS  C:\Users\jon\AppData\Local\Temp\ccCLAX4y.s 			page 10


 488:Generated_Source\PSoC5/USBUART_1_std.c ****             USBUART_1_ARB_EP_BASE.arbEp[ep].rwRa    = LO8(USBUART_1_EP[ep].buffOffset);
 489:Generated_Source\PSoC5/USBUART_1_std.c ****             USBUART_1_ARB_EP_BASE.arbEp[ep].rwRaMsb = HI8(USBUART_1_EP[ep].buffOffset);
 490:Generated_Source\PSoC5/USBUART_1_std.c ****             USBUART_1_ARB_EP_BASE.arbEp[ep].rwWa    = LO8(USBUART_1_EP[ep].buffOffset);
 491:Generated_Source\PSoC5/USBUART_1_std.c ****             USBUART_1_ARB_EP_BASE.arbEp[ep].rwWaMsb = HI8(USBUART_1_EP[ep].buffOffset);
 492:Generated_Source\PSoC5/USBUART_1_std.c ****         #endif /* (CY_PSOC4) */
 493:Generated_Source\PSoC5/USBUART_1_std.c ****     #endif /* (!USBUART_1_EP_MANAGEMENT_DMA_AUTO) */
 494:Generated_Source\PSoC5/USBUART_1_std.c ****     }
 495:Generated_Source\PSoC5/USBUART_1_std.c **** 
 496:Generated_Source\PSoC5/USBUART_1_std.c **** #if (USBUART_1_EP_MANAGEMENT_DMA_AUTO)
 497:Generated_Source\PSoC5/USBUART_1_std.c ****      /* BUF_SIZE depend on DMA_THRESS value:0x55-32 bytes  0x44-16 bytes 0x33-8 bytes 0x22-4 bytes 
 498:Generated_Source\PSoC5/USBUART_1_std.c ****     USBUART_1_BUF_SIZE_REG = USBUART_1_DMA_BUF_SIZE;
 499:Generated_Source\PSoC5/USBUART_1_std.c **** 
 500:Generated_Source\PSoC5/USBUART_1_std.c ****     /* Configure DMA burst threshold */
 501:Generated_Source\PSoC5/USBUART_1_std.c **** #if (CY_PSOC4)
 502:Generated_Source\PSoC5/USBUART_1_std.c ****     USBUART_1_DMA_THRES16_REG   = USBUART_1_DMA_BYTES_PER_BURST;
 503:Generated_Source\PSoC5/USBUART_1_std.c **** #else
 504:Generated_Source\PSoC5/USBUART_1_std.c ****     USBUART_1_DMA_THRES_REG     = USBUART_1_DMA_BYTES_PER_BURST;
 505:Generated_Source\PSoC5/USBUART_1_std.c ****     USBUART_1_DMA_THRES_MSB_REG = 0u;
 506:Generated_Source\PSoC5/USBUART_1_std.c **** #endif /* (CY_PSOC4) */
 507:Generated_Source\PSoC5/USBUART_1_std.c ****     USBUART_1_EP_ACTIVE_REG = USBUART_1_DEFAULT_ARB_INT_EN;
 508:Generated_Source\PSoC5/USBUART_1_std.c ****     USBUART_1_EP_TYPE_REG   = epType;
 509:Generated_Source\PSoC5/USBUART_1_std.c ****     
 510:Generated_Source\PSoC5/USBUART_1_std.c ****     /* Cfg_cmp bit set to 1 once configuration is complete. */
 511:Generated_Source\PSoC5/USBUART_1_std.c ****     /* Lock arbiter configtuation */
 512:Generated_Source\PSoC5/USBUART_1_std.c ****     USBUART_1_ARB_CFG_REG |= (uint8)  USBUART_1_ARB_CFG_CFG_CMP;
 513:Generated_Source\PSoC5/USBUART_1_std.c ****     /* Cfg_cmp bit set to 0 during configuration of PFSUSB Registers. */
 514:Generated_Source\PSoC5/USBUART_1_std.c ****     USBUART_1_ARB_CFG_REG &= (uint8) ~USBUART_1_ARB_CFG_CFG_CMP;
 515:Generated_Source\PSoC5/USBUART_1_std.c **** 
 516:Generated_Source\PSoC5/USBUART_1_std.c **** #endif /* (USBUART_1_EP_MANAGEMENT_DMA_AUTO) */
 517:Generated_Source\PSoC5/USBUART_1_std.c **** 
 518:Generated_Source\PSoC5/USBUART_1_std.c ****     /* Enable interrupt SIE interurpt source from EP0-EP1 */
 519:Generated_Source\PSoC5/USBUART_1_std.c ****     USBUART_1_SIE_EP_INT_EN_REG = (uint8) USBUART_1_DEFAULT_SIE_EP_INT_EN;
 520:Generated_Source\PSoC5/USBUART_1_std.c **** }
 521:Generated_Source\PSoC5/USBUART_1_std.c **** 
 522:Generated_Source\PSoC5/USBUART_1_std.c **** 
 523:Generated_Source\PSoC5/USBUART_1_std.c **** /*******************************************************************************
 524:Generated_Source\PSoC5/USBUART_1_std.c **** * Function Name: USBUART_1_EpStateInit
 525:Generated_Source\PSoC5/USBUART_1_std.c **** ****************************************************************************//**
 526:Generated_Source\PSoC5/USBUART_1_std.c **** *
 527:Generated_Source\PSoC5/USBUART_1_std.c **** *  This routine initialize state of Data end points based of its type: 
 528:Generated_Source\PSoC5/USBUART_1_std.c **** *   IN  - USBUART_1_IN_BUFFER_EMPTY (USBUART_1_EVENT_PENDING)
 529:Generated_Source\PSoC5/USBUART_1_std.c **** *   OUT - USBUART_1_OUT_BUFFER_EMPTY (USBUART_1_NO_EVENT_PENDING)
 530:Generated_Source\PSoC5/USBUART_1_std.c **** *
 531:Generated_Source\PSoC5/USBUART_1_std.c **** *******************************************************************************/
 532:Generated_Source\PSoC5/USBUART_1_std.c **** void USBUART_1_EpStateInit(void) 
 533:Generated_Source\PSoC5/USBUART_1_std.c **** {
 534:Generated_Source\PSoC5/USBUART_1_std.c ****     uint8 i;
 535:Generated_Source\PSoC5/USBUART_1_std.c **** 
 536:Generated_Source\PSoC5/USBUART_1_std.c ****     for (i = USBUART_1_EP1; i < USBUART_1_MAX_EP; i++)
 537:Generated_Source\PSoC5/USBUART_1_std.c ****     { 
 538:Generated_Source\PSoC5/USBUART_1_std.c ****         if (0u != (USBUART_1_EP[i].addr & USBUART_1_DIR_IN))
 539:Generated_Source\PSoC5/USBUART_1_std.c ****         {
 540:Generated_Source\PSoC5/USBUART_1_std.c ****             /* IN Endpoint */
 541:Generated_Source\PSoC5/USBUART_1_std.c ****             USBUART_1_EP[i].apiEpState = USBUART_1_EVENT_PENDING;
 542:Generated_Source\PSoC5/USBUART_1_std.c ****         }
 543:Generated_Source\PSoC5/USBUART_1_std.c ****         else
 544:Generated_Source\PSoC5/USBUART_1_std.c ****         {
ARM GAS  C:\Users\jon\AppData\Local\Temp\ccCLAX4y.s 			page 11


 545:Generated_Source\PSoC5/USBUART_1_std.c ****             /* OUT Endpoint */
 546:Generated_Source\PSoC5/USBUART_1_std.c ****             USBUART_1_EP[i].apiEpState = USBUART_1_NO_EVENT_PENDING;
 547:Generated_Source\PSoC5/USBUART_1_std.c ****         }
 548:Generated_Source\PSoC5/USBUART_1_std.c ****     }
 549:Generated_Source\PSoC5/USBUART_1_std.c ****                     
 550:Generated_Source\PSoC5/USBUART_1_std.c **** }
 551:Generated_Source\PSoC5/USBUART_1_std.c **** 
 552:Generated_Source\PSoC5/USBUART_1_std.c **** 
 553:Generated_Source\PSoC5/USBUART_1_std.c **** /*******************************************************************************
 554:Generated_Source\PSoC5/USBUART_1_std.c **** * Function Name: USBUART_1_Config
 555:Generated_Source\PSoC5/USBUART_1_std.c **** ****************************************************************************//**
 556:Generated_Source\PSoC5/USBUART_1_std.c **** *
 557:Generated_Source\PSoC5/USBUART_1_std.c **** *  This routine configures endpoints for the entire configuration by scanning
 558:Generated_Source\PSoC5/USBUART_1_std.c **** *  the configuration descriptor.
 559:Generated_Source\PSoC5/USBUART_1_std.c **** *
 560:Generated_Source\PSoC5/USBUART_1_std.c **** *  \param clearAltSetting: It configures the bAlternateSetting 0 for each interface.
 561:Generated_Source\PSoC5/USBUART_1_std.c **** *
 562:Generated_Source\PSoC5/USBUART_1_std.c **** * USBUART_1_interfaceClass - Initialized class array for each interface.
 563:Generated_Source\PSoC5/USBUART_1_std.c **** *   It is used for handling Class specific requests depend on interface class.
 564:Generated_Source\PSoC5/USBUART_1_std.c **** *   Different classes in multiple Alternate settings does not supported.
 565:Generated_Source\PSoC5/USBUART_1_std.c **** *
 566:Generated_Source\PSoC5/USBUART_1_std.c **** * \reentrant
 567:Generated_Source\PSoC5/USBUART_1_std.c **** *  No.
 568:Generated_Source\PSoC5/USBUART_1_std.c **** *
 569:Generated_Source\PSoC5/USBUART_1_std.c **** *******************************************************************************/
 570:Generated_Source\PSoC5/USBUART_1_std.c **** void USBUART_1_Config(uint8 clearAltSetting) 
 571:Generated_Source\PSoC5/USBUART_1_std.c **** {
 572:Generated_Source\PSoC5/USBUART_1_std.c ****     uint8 ep;
 573:Generated_Source\PSoC5/USBUART_1_std.c ****     uint8 curEp;
 574:Generated_Source\PSoC5/USBUART_1_std.c ****     uint8 i;
 575:Generated_Source\PSoC5/USBUART_1_std.c ****     uint8 epType;
 576:Generated_Source\PSoC5/USBUART_1_std.c ****     const uint8 *pDescr;
 577:Generated_Source\PSoC5/USBUART_1_std.c ****     
 578:Generated_Source\PSoC5/USBUART_1_std.c ****     #if (!USBUART_1_EP_MANAGEMENT_DMA_AUTO)
 579:Generated_Source\PSoC5/USBUART_1_std.c ****         uint16 buffCount = 0u;
 580:Generated_Source\PSoC5/USBUART_1_std.c ****     #endif /* (!USBUART_1_EP_MANAGEMENT_DMA_AUTO) */
 581:Generated_Source\PSoC5/USBUART_1_std.c **** 
 582:Generated_Source\PSoC5/USBUART_1_std.c ****     const T_USBUART_1_LUT CYCODE *pTmp;
 583:Generated_Source\PSoC5/USBUART_1_std.c ****     const T_USBUART_1_EP_SETTINGS_BLOCK CYCODE *pEP;
 584:Generated_Source\PSoC5/USBUART_1_std.c **** 
 585:Generated_Source\PSoC5/USBUART_1_std.c ****     /* Clear endpoints settings */
 586:Generated_Source\PSoC5/USBUART_1_std.c ****     for (ep = 0u; ep < USBUART_1_MAX_EP; ++ep)
 587:Generated_Source\PSoC5/USBUART_1_std.c ****     {
 588:Generated_Source\PSoC5/USBUART_1_std.c ****         USBUART_1_EP[ep].attrib     = 0u;
 589:Generated_Source\PSoC5/USBUART_1_std.c ****         USBUART_1_EP[ep].hwEpState  = 0u;
 590:Generated_Source\PSoC5/USBUART_1_std.c ****         USBUART_1_EP[ep].epToggle   = 0u;
 591:Generated_Source\PSoC5/USBUART_1_std.c ****         USBUART_1_EP[ep].bufferSize = 0u;
 592:Generated_Source\PSoC5/USBUART_1_std.c ****         USBUART_1_EP[ep].interface  = 0u;
 593:Generated_Source\PSoC5/USBUART_1_std.c ****         USBUART_1_EP[ep].apiEpState = USBUART_1_NO_EVENT_PENDING;
 594:Generated_Source\PSoC5/USBUART_1_std.c ****         USBUART_1_EP[ep].epMode     = USBUART_1_MODE_DISABLE;   
 595:Generated_Source\PSoC5/USBUART_1_std.c ****     }
 596:Generated_Source\PSoC5/USBUART_1_std.c **** 
 597:Generated_Source\PSoC5/USBUART_1_std.c ****     /* Clear Alternate settings for all interfaces. */
 598:Generated_Source\PSoC5/USBUART_1_std.c ****     if (0u != clearAltSetting)
 599:Generated_Source\PSoC5/USBUART_1_std.c ****     {
 600:Generated_Source\PSoC5/USBUART_1_std.c ****         for (i = 0u; i < USBUART_1_MAX_INTERFACES_NUMBER; ++i)
 601:Generated_Source\PSoC5/USBUART_1_std.c ****         {
ARM GAS  C:\Users\jon\AppData\Local\Temp\ccCLAX4y.s 			page 12


 602:Generated_Source\PSoC5/USBUART_1_std.c ****             USBUART_1_interfaceSetting[i]     = 0u;
 603:Generated_Source\PSoC5/USBUART_1_std.c ****             USBUART_1_interfaceSettingLast[i] = 0u;
 604:Generated_Source\PSoC5/USBUART_1_std.c ****         }
 605:Generated_Source\PSoC5/USBUART_1_std.c ****     }
 606:Generated_Source\PSoC5/USBUART_1_std.c **** 
 607:Generated_Source\PSoC5/USBUART_1_std.c ****     /* Init Endpoints and Device Status if configured */
 608:Generated_Source\PSoC5/USBUART_1_std.c ****     if (USBUART_1_configuration > 0u)
 609:Generated_Source\PSoC5/USBUART_1_std.c ****     {
 610:Generated_Source\PSoC5/USBUART_1_std.c ****         #if defined(USBUART_1_ENABLE_CDC_CLASS)
 611:Generated_Source\PSoC5/USBUART_1_std.c ****             uint8 cdcComNums = 0u;
 612:Generated_Source\PSoC5/USBUART_1_std.c ****         #endif  /* (USBUART_1_ENABLE_CDC_CLASS) */  
 613:Generated_Source\PSoC5/USBUART_1_std.c **** 
 614:Generated_Source\PSoC5/USBUART_1_std.c ****         pTmp = USBUART_1_GetConfigTablePtr(USBUART_1_configuration - 1u);
 615:Generated_Source\PSoC5/USBUART_1_std.c ****         
 616:Generated_Source\PSoC5/USBUART_1_std.c ****         /* Set Power status for current configuration */
 617:Generated_Source\PSoC5/USBUART_1_std.c ****         pDescr = (const uint8 *)pTmp->p_list;
 618:Generated_Source\PSoC5/USBUART_1_std.c ****         if ((pDescr[USBUART_1_CONFIG_DESCR_ATTRIB] & USBUART_1_CONFIG_DESCR_ATTRIB_SELF_POWERED) !=
 619:Generated_Source\PSoC5/USBUART_1_std.c ****         {
 620:Generated_Source\PSoC5/USBUART_1_std.c ****             USBUART_1_deviceStatus |= (uint8)  USBUART_1_DEVICE_STATUS_SELF_POWERED;
 621:Generated_Source\PSoC5/USBUART_1_std.c ****         }
 622:Generated_Source\PSoC5/USBUART_1_std.c ****         else
 623:Generated_Source\PSoC5/USBUART_1_std.c ****         {
 624:Generated_Source\PSoC5/USBUART_1_std.c ****             USBUART_1_deviceStatus &= (uint8) ~USBUART_1_DEVICE_STATUS_SELF_POWERED;
 625:Generated_Source\PSoC5/USBUART_1_std.c ****         }
 626:Generated_Source\PSoC5/USBUART_1_std.c ****         
 627:Generated_Source\PSoC5/USBUART_1_std.c ****         /* Move to next element */
 628:Generated_Source\PSoC5/USBUART_1_std.c ****         pTmp = &pTmp[1u];
 629:Generated_Source\PSoC5/USBUART_1_std.c ****         ep = pTmp->c;  /* For this table, c is the number of endpoints configurations  */
 630:Generated_Source\PSoC5/USBUART_1_std.c **** 
 631:Generated_Source\PSoC5/USBUART_1_std.c ****         #if (USBUART_1_EP_MANAGEMENT_MANUAL && USBUART_1_EP_ALLOC_DYNAMIC)
 632:Generated_Source\PSoC5/USBUART_1_std.c ****             /* Configure for dynamic EP memory allocation */
 633:Generated_Source\PSoC5/USBUART_1_std.c ****             /* p_list points the endpoint setting table. */
 634:Generated_Source\PSoC5/USBUART_1_std.c ****             pEP = (T_USBUART_1_EP_SETTINGS_BLOCK *) pTmp->p_list;
 635:Generated_Source\PSoC5/USBUART_1_std.c ****             
 636:Generated_Source\PSoC5/USBUART_1_std.c ****             for (i = 0u; i < ep; i++)
 637:Generated_Source\PSoC5/USBUART_1_std.c ****             {     
 638:Generated_Source\PSoC5/USBUART_1_std.c ****                 /* Compare current Alternate setting with EP Alt */
 639:Generated_Source\PSoC5/USBUART_1_std.c ****                 if (USBUART_1_interfaceSetting[pEP->interface] == pEP->altSetting)
 640:Generated_Source\PSoC5/USBUART_1_std.c ****                 {                                                          
 641:Generated_Source\PSoC5/USBUART_1_std.c ****                     curEp  = pEP->addr & USBUART_1_DIR_UNUSED;
 642:Generated_Source\PSoC5/USBUART_1_std.c ****                     epType = pEP->attributes & USBUART_1_EP_TYPE_MASK;
 643:Generated_Source\PSoC5/USBUART_1_std.c ****                     
 644:Generated_Source\PSoC5/USBUART_1_std.c ****                     USBUART_1_EP[curEp].addr       = pEP->addr;
 645:Generated_Source\PSoC5/USBUART_1_std.c ****                     USBUART_1_EP[curEp].attrib     = pEP->attributes;
 646:Generated_Source\PSoC5/USBUART_1_std.c ****                     USBUART_1_EP[curEp].bufferSize = pEP->bufferSize;
 647:Generated_Source\PSoC5/USBUART_1_std.c **** 
 648:Generated_Source\PSoC5/USBUART_1_std.c ****                     if (0u != (pEP->addr & USBUART_1_DIR_IN))
 649:Generated_Source\PSoC5/USBUART_1_std.c ****                     {
 650:Generated_Source\PSoC5/USBUART_1_std.c ****                         /* IN Endpoint */
 651:Generated_Source\PSoC5/USBUART_1_std.c ****                         USBUART_1_EP[curEp].epMode     = USBUART_1_GET_ACTIVE_IN_EP_CR0_MODE(epType
 652:Generated_Source\PSoC5/USBUART_1_std.c ****                         USBUART_1_EP[curEp].apiEpState = USBUART_1_EVENT_PENDING;
 653:Generated_Source\PSoC5/USBUART_1_std.c ****                     
 654:Generated_Source\PSoC5/USBUART_1_std.c ****                     #if (defined(USBUART_1_ENABLE_MIDI_STREAMING) && (USBUART_1_MIDI_IN_BUFF_SIZE >
 655:Generated_Source\PSoC5/USBUART_1_std.c ****                         if ((pEP->bMisc == USBUART_1_CLASS_AUDIO) && (epType == USBUART_1_EP_TYPE_B
 656:Generated_Source\PSoC5/USBUART_1_std.c ****                         {
 657:Generated_Source\PSoC5/USBUART_1_std.c ****                             USBUART_1_midi_in_ep = curEp;
 658:Generated_Source\PSoC5/USBUART_1_std.c ****                         }
ARM GAS  C:\Users\jon\AppData\Local\Temp\ccCLAX4y.s 			page 13


 659:Generated_Source\PSoC5/USBUART_1_std.c ****                     #endif  /* (USBUART_1_ENABLE_MIDI_STREAMING) */
 660:Generated_Source\PSoC5/USBUART_1_std.c ****                     }
 661:Generated_Source\PSoC5/USBUART_1_std.c ****                     else
 662:Generated_Source\PSoC5/USBUART_1_std.c ****                     {
 663:Generated_Source\PSoC5/USBUART_1_std.c ****                         /* OUT Endpoint */
 664:Generated_Source\PSoC5/USBUART_1_std.c ****                         USBUART_1_EP[curEp].epMode     = USBUART_1_GET_ACTIVE_OUT_EP_CR0_MODE(epTyp
 665:Generated_Source\PSoC5/USBUART_1_std.c ****                         USBUART_1_EP[curEp].apiEpState = USBUART_1_NO_EVENT_PENDING;
 666:Generated_Source\PSoC5/USBUART_1_std.c ****                         
 667:Generated_Source\PSoC5/USBUART_1_std.c ****                     #if (defined(USBUART_1_ENABLE_MIDI_STREAMING) && (USBUART_1_MIDI_OUT_BUFF_SIZE 
 668:Generated_Source\PSoC5/USBUART_1_std.c ****                         if ((pEP->bMisc == USBUART_1_CLASS_AUDIO) && (epType == USBUART_1_EP_TYPE_B
 669:Generated_Source\PSoC5/USBUART_1_std.c ****                         {
 670:Generated_Source\PSoC5/USBUART_1_std.c ****                             USBUART_1_midi_out_ep = curEp;
 671:Generated_Source\PSoC5/USBUART_1_std.c ****                         }
 672:Generated_Source\PSoC5/USBUART_1_std.c ****                     #endif  /* (USBUART_1_ENABLE_MIDI_STREAMING) */
 673:Generated_Source\PSoC5/USBUART_1_std.c ****                     }
 674:Generated_Source\PSoC5/USBUART_1_std.c **** 
 675:Generated_Source\PSoC5/USBUART_1_std.c ****                 #if(defined (USBUART_1_ENABLE_CDC_CLASS))
 676:Generated_Source\PSoC5/USBUART_1_std.c ****                     if((pEP->bMisc == USBUART_1_CLASS_CDC_DATA) ||(pEP->bMisc == USBUART_1_CLASS_CD
 677:Generated_Source\PSoC5/USBUART_1_std.c ****                     {
 678:Generated_Source\PSoC5/USBUART_1_std.c ****                         cdcComNums = USBUART_1_Cdc_EpInit(pEP, curEp, cdcComNums);
 679:Generated_Source\PSoC5/USBUART_1_std.c ****                     }
 680:Generated_Source\PSoC5/USBUART_1_std.c ****                 #endif  /* (USBUART_1_ENABLE_CDC_CLASS) */
 681:Generated_Source\PSoC5/USBUART_1_std.c ****                 }
 682:Generated_Source\PSoC5/USBUART_1_std.c ****                 
 683:Generated_Source\PSoC5/USBUART_1_std.c ****                 pEP = &pEP[1u];
 684:Generated_Source\PSoC5/USBUART_1_std.c ****             }
 685:Generated_Source\PSoC5/USBUART_1_std.c ****             
 686:Generated_Source\PSoC5/USBUART_1_std.c ****         #else
 687:Generated_Source\PSoC5/USBUART_1_std.c ****             for (i = USBUART_1_EP1; i < USBUART_1_MAX_EP; ++i)
 688:Generated_Source\PSoC5/USBUART_1_std.c ****             {
 689:Generated_Source\PSoC5/USBUART_1_std.c ****                 /* p_list points the endpoint setting table. */
 690:Generated_Source\PSoC5/USBUART_1_std.c ****                 pEP = (const T_USBUART_1_EP_SETTINGS_BLOCK CYCODE *) pTmp->p_list;
 691:Generated_Source\PSoC5/USBUART_1_std.c ****                 /* Find max length for each EP and select it (length could be different in differen
 692:Generated_Source\PSoC5/USBUART_1_std.c ****                 /* but other settings should be correct with regards to Interface alt Setting */
 693:Generated_Source\PSoC5/USBUART_1_std.c ****                 
 694:Generated_Source\PSoC5/USBUART_1_std.c ****                 for (curEp = 0u; curEp < ep; ++curEp)
 695:Generated_Source\PSoC5/USBUART_1_std.c ****                 {
 696:Generated_Source\PSoC5/USBUART_1_std.c ****                     if (i == (pEP->addr & USBUART_1_DIR_UNUSED))
 697:Generated_Source\PSoC5/USBUART_1_std.c ****                     {
 698:Generated_Source\PSoC5/USBUART_1_std.c ****                         /* Compare endpoint buffers size with current size to find greater. */
 699:Generated_Source\PSoC5/USBUART_1_std.c ****                         if (USBUART_1_EP[i].bufferSize < pEP->bufferSize)
 700:Generated_Source\PSoC5/USBUART_1_std.c ****                         {
 701:Generated_Source\PSoC5/USBUART_1_std.c ****                             USBUART_1_EP[i].bufferSize = pEP->bufferSize;
 702:Generated_Source\PSoC5/USBUART_1_std.c ****                         }
 703:Generated_Source\PSoC5/USBUART_1_std.c ****                         
 704:Generated_Source\PSoC5/USBUART_1_std.c ****                         /* Compare current Alternate setting with EP Alt */
 705:Generated_Source\PSoC5/USBUART_1_std.c ****                         if (USBUART_1_interfaceSetting[pEP->interface] == pEP->altSetting)
 706:Generated_Source\PSoC5/USBUART_1_std.c ****                         {                            
 707:Generated_Source\PSoC5/USBUART_1_std.c ****                             USBUART_1_EP[i].addr = pEP->addr;
 708:Generated_Source\PSoC5/USBUART_1_std.c ****                             USBUART_1_EP[i].attrib = pEP->attributes;
 709:Generated_Source\PSoC5/USBUART_1_std.c ****                             
 710:Generated_Source\PSoC5/USBUART_1_std.c ****                             epType = pEP->attributes & USBUART_1_EP_TYPE_MASK;
 711:Generated_Source\PSoC5/USBUART_1_std.c ****                             
 712:Generated_Source\PSoC5/USBUART_1_std.c ****                             if (0u != (pEP->addr & USBUART_1_DIR_IN))
 713:Generated_Source\PSoC5/USBUART_1_std.c ****                             {
 714:Generated_Source\PSoC5/USBUART_1_std.c ****                                 /* IN Endpoint */
 715:Generated_Source\PSoC5/USBUART_1_std.c ****                                 USBUART_1_EP[i].epMode     = USBUART_1_GET_ACTIVE_IN_EP_CR0_MODE(ep
ARM GAS  C:\Users\jon\AppData\Local\Temp\ccCLAX4y.s 			page 14


 716:Generated_Source\PSoC5/USBUART_1_std.c ****                                 USBUART_1_EP[i].apiEpState = USBUART_1_EVENT_PENDING;
 717:Generated_Source\PSoC5/USBUART_1_std.c ****                                 
 718:Generated_Source\PSoC5/USBUART_1_std.c ****                             #if (defined(USBUART_1_ENABLE_MIDI_STREAMING) && (USBUART_1_MIDI_IN_BUF
 719:Generated_Source\PSoC5/USBUART_1_std.c ****                                 if ((pEP->bMisc == USBUART_1_CLASS_AUDIO) && (epType == USBUART_1_E
 720:Generated_Source\PSoC5/USBUART_1_std.c ****                                 {
 721:Generated_Source\PSoC5/USBUART_1_std.c ****                                     USBUART_1_midi_in_ep = i;
 722:Generated_Source\PSoC5/USBUART_1_std.c ****                                 }
 723:Generated_Source\PSoC5/USBUART_1_std.c ****                             #endif  /* (USBUART_1_ENABLE_MIDI_STREAMING) */
 724:Generated_Source\PSoC5/USBUART_1_std.c ****                             }
 725:Generated_Source\PSoC5/USBUART_1_std.c ****                             else
 726:Generated_Source\PSoC5/USBUART_1_std.c ****                             {
 727:Generated_Source\PSoC5/USBUART_1_std.c ****                                 /* OUT Endpoint */
 728:Generated_Source\PSoC5/USBUART_1_std.c ****                                 USBUART_1_EP[i].epMode     = USBUART_1_GET_ACTIVE_OUT_EP_CR0_MODE(e
 729:Generated_Source\PSoC5/USBUART_1_std.c ****                                 USBUART_1_EP[i].apiEpState = USBUART_1_NO_EVENT_PENDING;
 730:Generated_Source\PSoC5/USBUART_1_std.c ****                                 
 731:Generated_Source\PSoC5/USBUART_1_std.c ****                             #if (defined(USBUART_1_ENABLE_MIDI_STREAMING) && (USBUART_1_MIDI_OUT_BU
 732:Generated_Source\PSoC5/USBUART_1_std.c ****                                 if ((pEP->bMisc == USBUART_1_CLASS_AUDIO) && (epType == USBUART_1_E
 733:Generated_Source\PSoC5/USBUART_1_std.c ****                                 {
 734:Generated_Source\PSoC5/USBUART_1_std.c ****                                     USBUART_1_midi_out_ep = i;
 735:Generated_Source\PSoC5/USBUART_1_std.c ****                                 }
 736:Generated_Source\PSoC5/USBUART_1_std.c ****                             #endif  /* (USBUART_1_ENABLE_MIDI_STREAMING) */
 737:Generated_Source\PSoC5/USBUART_1_std.c ****                             }
 738:Generated_Source\PSoC5/USBUART_1_std.c **** 
 739:Generated_Source\PSoC5/USBUART_1_std.c ****                         #if (defined(USBUART_1_ENABLE_CDC_CLASS))
 740:Generated_Source\PSoC5/USBUART_1_std.c ****                             if((pEP->bMisc == USBUART_1_CLASS_CDC_DATA) ||(pEP->bMisc == USBUART_1_
 741:Generated_Source\PSoC5/USBUART_1_std.c ****                             {
 742:Generated_Source\PSoC5/USBUART_1_std.c ****                                 cdcComNums = USBUART_1_Cdc_EpInit(pEP, i, cdcComNums);
 743:Generated_Source\PSoC5/USBUART_1_std.c ****                             }
 744:Generated_Source\PSoC5/USBUART_1_std.c ****                         #endif  /* (USBUART_1_ENABLE_CDC_CLASS) */
 745:Generated_Source\PSoC5/USBUART_1_std.c **** 
 746:Generated_Source\PSoC5/USBUART_1_std.c ****                             #if (USBUART_1_EP_MANAGEMENT_DMA_AUTO)
 747:Generated_Source\PSoC5/USBUART_1_std.c ****                                 break;  /* Use first EP setting in Auto memory management */
 748:Generated_Source\PSoC5/USBUART_1_std.c ****                             #endif /* (USBUART_1_EP_MANAGEMENT_DMA_AUTO) */
 749:Generated_Source\PSoC5/USBUART_1_std.c ****                         }
 750:Generated_Source\PSoC5/USBUART_1_std.c ****                     }
 751:Generated_Source\PSoC5/USBUART_1_std.c ****                     
 752:Generated_Source\PSoC5/USBUART_1_std.c ****                     pEP = &pEP[1u];
 753:Generated_Source\PSoC5/USBUART_1_std.c ****                 }
 754:Generated_Source\PSoC5/USBUART_1_std.c ****             }
 755:Generated_Source\PSoC5/USBUART_1_std.c ****         #endif /*  (USBUART_1_EP_MANAGEMENT_MANUAL && USBUART_1_EP_ALLOC_DYNAMIC) */
 756:Generated_Source\PSoC5/USBUART_1_std.c **** 
 757:Generated_Source\PSoC5/USBUART_1_std.c ****         /* Init class array for each interface and interface number for each EP.
 758:Generated_Source\PSoC5/USBUART_1_std.c ****         *  It is used for handling Class specific requests directed to either an
 759:Generated_Source\PSoC5/USBUART_1_std.c ****         *  interface or the endpoint.
 760:Generated_Source\PSoC5/USBUART_1_std.c ****         */
 761:Generated_Source\PSoC5/USBUART_1_std.c ****         /* p_list points the endpoint setting table. */
 762:Generated_Source\PSoC5/USBUART_1_std.c ****         pEP = (const T_USBUART_1_EP_SETTINGS_BLOCK CYCODE *) pTmp->p_list;
 763:Generated_Source\PSoC5/USBUART_1_std.c ****         for (i = 0u; i < ep; i++)
 764:Generated_Source\PSoC5/USBUART_1_std.c ****         {
 765:Generated_Source\PSoC5/USBUART_1_std.c ****             /* Configure interface number for each EP */
 766:Generated_Source\PSoC5/USBUART_1_std.c ****             USBUART_1_EP[pEP->addr & USBUART_1_DIR_UNUSED].interface = pEP->interface;
 767:Generated_Source\PSoC5/USBUART_1_std.c ****             pEP = &pEP[1u];
 768:Generated_Source\PSoC5/USBUART_1_std.c ****         }
 769:Generated_Source\PSoC5/USBUART_1_std.c ****         
 770:Generated_Source\PSoC5/USBUART_1_std.c ****         /* Init pointer on interface class table */
 771:Generated_Source\PSoC5/USBUART_1_std.c ****         USBUART_1_interfaceClass = USBUART_1_GetInterfaceClassTablePtr();
 772:Generated_Source\PSoC5/USBUART_1_std.c ****         
ARM GAS  C:\Users\jon\AppData\Local\Temp\ccCLAX4y.s 			page 15


 773:Generated_Source\PSoC5/USBUART_1_std.c ****     /* Set the endpoint buffer addresses */
 774:Generated_Source\PSoC5/USBUART_1_std.c ****     #if (!USBUART_1_EP_MANAGEMENT_DMA_AUTO)
 775:Generated_Source\PSoC5/USBUART_1_std.c ****         buffCount = 0u;
 776:Generated_Source\PSoC5/USBUART_1_std.c ****         for (ep = USBUART_1_EP1; ep < USBUART_1_MAX_EP; ++ep)
 777:Generated_Source\PSoC5/USBUART_1_std.c ****         {
 778:Generated_Source\PSoC5/USBUART_1_std.c ****             USBUART_1_EP[ep].buffOffset = buffCount;        
 779:Generated_Source\PSoC5/USBUART_1_std.c ****             buffCount += USBUART_1_EP[ep].bufferSize;
 780:Generated_Source\PSoC5/USBUART_1_std.c ****             
 781:Generated_Source\PSoC5/USBUART_1_std.c ****         #if (USBUART_1_GEN_16BITS_EP_ACCESS)
 782:Generated_Source\PSoC5/USBUART_1_std.c ****             /* Align EP buffers to be event size to access 16-bits DR register. */
 783:Generated_Source\PSoC5/USBUART_1_std.c ****             buffCount += (0u != (buffCount & 0x01u)) ? 1u : 0u;
 784:Generated_Source\PSoC5/USBUART_1_std.c ****         #endif /* (USBUART_1_GEN_16BITS_EP_ACCESS) */            
 785:Generated_Source\PSoC5/USBUART_1_std.c ****         }
 786:Generated_Source\PSoC5/USBUART_1_std.c ****     #endif /* (!USBUART_1_EP_MANAGEMENT_DMA_AUTO) */
 787:Generated_Source\PSoC5/USBUART_1_std.c **** 
 788:Generated_Source\PSoC5/USBUART_1_std.c ****         /* Configure hardware registers */
 789:Generated_Source\PSoC5/USBUART_1_std.c ****         USBUART_1_ConfigReg();
 790:Generated_Source\PSoC5/USBUART_1_std.c ****     }
 791:Generated_Source\PSoC5/USBUART_1_std.c **** }
 792:Generated_Source\PSoC5/USBUART_1_std.c **** 
 793:Generated_Source\PSoC5/USBUART_1_std.c **** 
 794:Generated_Source\PSoC5/USBUART_1_std.c **** /*******************************************************************************
 795:Generated_Source\PSoC5/USBUART_1_std.c **** * Function Name: USBUART_1_ConfigAltChanged
 796:Generated_Source\PSoC5/USBUART_1_std.c **** ****************************************************************************//**
 797:Generated_Source\PSoC5/USBUART_1_std.c **** *
 798:Generated_Source\PSoC5/USBUART_1_std.c **** *  This routine update configuration for the required endpoints only.
 799:Generated_Source\PSoC5/USBUART_1_std.c **** *  It is called after SET_INTERFACE request when Static memory allocation used.
 800:Generated_Source\PSoC5/USBUART_1_std.c **** *
 801:Generated_Source\PSoC5/USBUART_1_std.c **** * \reentrant
 802:Generated_Source\PSoC5/USBUART_1_std.c **** *  No.
 803:Generated_Source\PSoC5/USBUART_1_std.c **** *
 804:Generated_Source\PSoC5/USBUART_1_std.c **** *******************************************************************************/
 805:Generated_Source\PSoC5/USBUART_1_std.c **** void USBUART_1_ConfigAltChanged(void) 
  27              		.loc 1 805 0
  28              		.cfi_startproc
  29              		@ args = 0, pretend = 0, frame = 0
  30              		@ frame_needed = 0, uses_anonymous_args = 0
 806:Generated_Source\PSoC5/USBUART_1_std.c **** {
 807:Generated_Source\PSoC5/USBUART_1_std.c ****     uint8 ep;
 808:Generated_Source\PSoC5/USBUART_1_std.c ****     uint8 curEp;
 809:Generated_Source\PSoC5/USBUART_1_std.c ****     uint8 epType;
 810:Generated_Source\PSoC5/USBUART_1_std.c ****     uint8 i;
 811:Generated_Source\PSoC5/USBUART_1_std.c ****     uint8 interfaceNum;
 812:Generated_Source\PSoC5/USBUART_1_std.c **** 
 813:Generated_Source\PSoC5/USBUART_1_std.c ****     const T_USBUART_1_LUT CYCODE *pTmp;
 814:Generated_Source\PSoC5/USBUART_1_std.c ****     const T_USBUART_1_EP_SETTINGS_BLOCK CYCODE *pEP;
 815:Generated_Source\PSoC5/USBUART_1_std.c **** 
 816:Generated_Source\PSoC5/USBUART_1_std.c ****     /* Init Endpoints and Device Status if configured */
 817:Generated_Source\PSoC5/USBUART_1_std.c ****     if (USBUART_1_configuration > 0u)
 818:Generated_Source\PSoC5/USBUART_1_std.c ****     {
 819:Generated_Source\PSoC5/USBUART_1_std.c ****         /* Get number of endpoints configurations (ep). */
 820:Generated_Source\PSoC5/USBUART_1_std.c ****         pTmp = USBUART_1_GetConfigTablePtr(USBUART_1_configuration - 1u);
  31              		.loc 1 820 0
  32 0000 4F4B     		ldr	r3, .L19
  33              	.LBB24:
  34              	.LBB25:
 821:Generated_Source\PSoC5/USBUART_1_std.c ****         pTmp = &pTmp[1u];
ARM GAS  C:\Users\jon\AppData\Local\Temp\ccCLAX4y.s 			page 16


 822:Generated_Source\PSoC5/USBUART_1_std.c ****         ep = pTmp->c;
 823:Generated_Source\PSoC5/USBUART_1_std.c **** 
 824:Generated_Source\PSoC5/USBUART_1_std.c ****         /* Get pointer to endpoints setting table (pEP). */
 825:Generated_Source\PSoC5/USBUART_1_std.c ****         pEP = (const T_USBUART_1_EP_SETTINGS_BLOCK CYCODE *) pTmp->p_list;
 826:Generated_Source\PSoC5/USBUART_1_std.c ****         
 827:Generated_Source\PSoC5/USBUART_1_std.c ****         /* Look through all possible endpoint configurations. Find endpoints 
 828:Generated_Source\PSoC5/USBUART_1_std.c ****         * which belong to current interface and alternate settings for 
 829:Generated_Source\PSoC5/USBUART_1_std.c ****         * re-configuration.
 830:Generated_Source\PSoC5/USBUART_1_std.c ****         */
 831:Generated_Source\PSoC5/USBUART_1_std.c ****         interfaceNum = USBUART_1_interfaceNumber;
 832:Generated_Source\PSoC5/USBUART_1_std.c ****         for (i = 0u; i < ep; i++)
 833:Generated_Source\PSoC5/USBUART_1_std.c ****         {
 834:Generated_Source\PSoC5/USBUART_1_std.c ****             /* Find endpoints which belong to current interface and alternate settings. */
 835:Generated_Source\PSoC5/USBUART_1_std.c ****             if ((interfaceNum == pEP->interface) && 
 836:Generated_Source\PSoC5/USBUART_1_std.c ****                 (USBUART_1_interfaceSetting[interfaceNum] == pEP->altSetting))
 837:Generated_Source\PSoC5/USBUART_1_std.c ****             {
 838:Generated_Source\PSoC5/USBUART_1_std.c ****                 curEp  = ((uint8) pEP->addr & USBUART_1_DIR_UNUSED);
 839:Generated_Source\PSoC5/USBUART_1_std.c ****                 epType = ((uint8) pEP->attributes & USBUART_1_EP_TYPE_MASK);
 840:Generated_Source\PSoC5/USBUART_1_std.c ****                 
 841:Generated_Source\PSoC5/USBUART_1_std.c ****                 /* Change the SIE mode for the selected EP to NAK ALL */
 842:Generated_Source\PSoC5/USBUART_1_std.c ****                 USBUART_1_EP[curEp].epToggle   = 0u;
 843:Generated_Source\PSoC5/USBUART_1_std.c ****                 USBUART_1_EP[curEp].addr       = pEP->addr;
 844:Generated_Source\PSoC5/USBUART_1_std.c ****                 USBUART_1_EP[curEp].attrib     = pEP->attributes;
 845:Generated_Source\PSoC5/USBUART_1_std.c ****                 USBUART_1_EP[curEp].bufferSize = pEP->bufferSize;
 846:Generated_Source\PSoC5/USBUART_1_std.c **** 
 847:Generated_Source\PSoC5/USBUART_1_std.c ****                 if (0u != (pEP->addr & USBUART_1_DIR_IN))
 848:Generated_Source\PSoC5/USBUART_1_std.c ****                 {
 849:Generated_Source\PSoC5/USBUART_1_std.c ****                     /* IN Endpoint */
 850:Generated_Source\PSoC5/USBUART_1_std.c ****                     USBUART_1_EP[curEp].epMode     = USBUART_1_GET_ACTIVE_IN_EP_CR0_MODE(epType);
 851:Generated_Source\PSoC5/USBUART_1_std.c ****                     USBUART_1_EP[curEp].apiEpState = USBUART_1_EVENT_PENDING;
 852:Generated_Source\PSoC5/USBUART_1_std.c ****                 }
 853:Generated_Source\PSoC5/USBUART_1_std.c ****                 else
 854:Generated_Source\PSoC5/USBUART_1_std.c ****                 {
 855:Generated_Source\PSoC5/USBUART_1_std.c ****                     /* OUT Endpoint */
 856:Generated_Source\PSoC5/USBUART_1_std.c ****                     USBUART_1_EP[curEp].epMode     = USBUART_1_GET_ACTIVE_OUT_EP_CR0_MODE(epType);
 857:Generated_Source\PSoC5/USBUART_1_std.c ****                     USBUART_1_EP[curEp].apiEpState = USBUART_1_NO_EVENT_PENDING;
 858:Generated_Source\PSoC5/USBUART_1_std.c ****                 }
 859:Generated_Source\PSoC5/USBUART_1_std.c ****                 
 860:Generated_Source\PSoC5/USBUART_1_std.c ****                 /* Make SIE to NAK any endpoint requests */
 861:Generated_Source\PSoC5/USBUART_1_std.c ****                 USBUART_1_SIE_EP_BASE.sieEp[curEp].epCr0 = USBUART_1_MODE_NAK_IN_OUT;
 862:Generated_Source\PSoC5/USBUART_1_std.c **** 
 863:Generated_Source\PSoC5/USBUART_1_std.c ****             #if (USBUART_1_EP_MANAGEMENT_DMA_AUTO)
 864:Generated_Source\PSoC5/USBUART_1_std.c ****                 /* Clear IN data ready. */
 865:Generated_Source\PSoC5/USBUART_1_std.c ****                 USBUART_1_ARB_EP_BASE.arbEp[curEp].epCfg &= (uint8) ~USBUART_1_ARB_EPX_CFG_IN_DATA_
 866:Generated_Source\PSoC5/USBUART_1_std.c **** 
 867:Generated_Source\PSoC5/USBUART_1_std.c ****                 /* Select endpoint number of reconfiguration */
 868:Generated_Source\PSoC5/USBUART_1_std.c ****                 USBUART_1_DYN_RECONFIG_REG = (uint8) ((curEp - 1u) << USBUART_1_DYN_RECONFIG_EP_SHI
 869:Generated_Source\PSoC5/USBUART_1_std.c ****                 
 870:Generated_Source\PSoC5/USBUART_1_std.c ****                 /* Request for dynamic re-configuration of endpoint. */
 871:Generated_Source\PSoC5/USBUART_1_std.c ****                 USBUART_1_DYN_RECONFIG_REG |= USBUART_1_DYN_RECONFIG_ENABLE;
 872:Generated_Source\PSoC5/USBUART_1_std.c ****                 
 873:Generated_Source\PSoC5/USBUART_1_std.c ****                 /* Wait until block is ready for re-configuration */
 874:Generated_Source\PSoC5/USBUART_1_std.c ****                 while (0u == (USBUART_1_DYN_RECONFIG_REG & USBUART_1_DYN_RECONFIG_RDY_STS))
 875:Generated_Source\PSoC5/USBUART_1_std.c ****                 {
 876:Generated_Source\PSoC5/USBUART_1_std.c ****                 }
 877:Generated_Source\PSoC5/USBUART_1_std.c ****                 
 878:Generated_Source\PSoC5/USBUART_1_std.c ****                 /* Once DYN_RECONFIG_RDY_STS bit is set, FW can change the EP configuration. */
ARM GAS  C:\Users\jon\AppData\Local\Temp\ccCLAX4y.s 			page 17


 879:Generated_Source\PSoC5/USBUART_1_std.c ****                 /* Change EP Type with new direction */
 880:Generated_Source\PSoC5/USBUART_1_std.c ****                 if (0u != (pEP->addr & USBUART_1_DIR_IN))
 881:Generated_Source\PSoC5/USBUART_1_std.c ****                 {
 882:Generated_Source\PSoC5/USBUART_1_std.c ****                     /* Set endpoint type: 0 - IN and 1 - OUT. */
 883:Generated_Source\PSoC5/USBUART_1_std.c ****                     USBUART_1_EP_TYPE_REG &= (uint8) ~(uint8)((uint8) 0x01u << (curEp - 1u));
 884:Generated_Source\PSoC5/USBUART_1_std.c ****                     
 885:Generated_Source\PSoC5/USBUART_1_std.c ****                 #if (CY_PSOC4)
 886:Generated_Source\PSoC5/USBUART_1_std.c ****                     /* Clear DMA_TERMIN for IN endpoint */
 887:Generated_Source\PSoC5/USBUART_1_std.c ****                     USBUART_1_ARB_EP_BASE.arbEp[curEp].epIntEn &= (uint32) ~USBUART_1_ARB_EPX_INT_D
 888:Generated_Source\PSoC5/USBUART_1_std.c ****                 #endif /* (CY_PSOC4) */
 889:Generated_Source\PSoC5/USBUART_1_std.c ****                 }
 890:Generated_Source\PSoC5/USBUART_1_std.c ****                 else
 891:Generated_Source\PSoC5/USBUART_1_std.c ****                 {
 892:Generated_Source\PSoC5/USBUART_1_std.c ****                     /* Set endpoint type: 0 - IN and 1- OUT. */
 893:Generated_Source\PSoC5/USBUART_1_std.c ****                     USBUART_1_EP_TYPE_REG |= (uint8) ((uint8) 0x01u << (curEp - 1u));
 894:Generated_Source\PSoC5/USBUART_1_std.c ****                     
 895:Generated_Source\PSoC5/USBUART_1_std.c ****                 #if (CY_PSOC4)
 896:Generated_Source\PSoC5/USBUART_1_std.c ****                     /* Set DMA_TERMIN for OUT endpoint */
 897:Generated_Source\PSoC5/USBUART_1_std.c ****                     USBUART_1_ARB_EP_BASE.arbEp[curEp].epIntEn |= (uint32) USBUART_1_ARB_EPX_INT_DM
 898:Generated_Source\PSoC5/USBUART_1_std.c ****                 #endif /* (CY_PSOC4) */
 899:Generated_Source\PSoC5/USBUART_1_std.c ****                 }
 900:Generated_Source\PSoC5/USBUART_1_std.c ****                 
 901:Generated_Source\PSoC5/USBUART_1_std.c ****                 /* Complete dynamic re-configuration: all endpoint related status and signals 
 902:Generated_Source\PSoC5/USBUART_1_std.c ****                 * are set into the default state.
 903:Generated_Source\PSoC5/USBUART_1_std.c ****                 */
 904:Generated_Source\PSoC5/USBUART_1_std.c ****                 USBUART_1_DYN_RECONFIG_REG &= (uint8) ~USBUART_1_DYN_RECONFIG_ENABLE;
 905:Generated_Source\PSoC5/USBUART_1_std.c **** 
 906:Generated_Source\PSoC5/USBUART_1_std.c ****             #else
 907:Generated_Source\PSoC5/USBUART_1_std.c ****                 USBUART_1_SIE_EP_BASE.sieEp[curEp].epCnt0 = HI8(USBUART_1_EP[curEp].bufferSize);
 908:Generated_Source\PSoC5/USBUART_1_std.c ****                 USBUART_1_SIE_EP_BASE.sieEp[curEp].epCnt1 = LO8(USBUART_1_EP[curEp].bufferSize);
 909:Generated_Source\PSoC5/USBUART_1_std.c ****                 
 910:Generated_Source\PSoC5/USBUART_1_std.c ****                 #if (CY_PSOC4)
 911:Generated_Source\PSoC5/USBUART_1_std.c ****                     USBUART_1_ARB_EP16_BASE.arbEp[curEp].rwRa16  = (uint32) USBUART_1_EP[curEp].buf
 912:Generated_Source\PSoC5/USBUART_1_std.c ****                     USBUART_1_ARB_EP16_BASE.arbEp[curEp].rwWa16  = (uint32) USBUART_1_EP[curEp].buf
 913:Generated_Source\PSoC5/USBUART_1_std.c ****                 #else
 914:Generated_Source\PSoC5/USBUART_1_std.c ****                     USBUART_1_ARB_EP_BASE.arbEp[curEp].rwRa    = LO8(USBUART_1_EP[curEp].buffOffset
 915:Generated_Source\PSoC5/USBUART_1_std.c ****                     USBUART_1_ARB_EP_BASE.arbEp[curEp].rwRaMsb = HI8(USBUART_1_EP[curEp].buffOffset
 916:Generated_Source\PSoC5/USBUART_1_std.c ****                     USBUART_1_ARB_EP_BASE.arbEp[curEp].rwWa    = LO8(USBUART_1_EP[curEp].buffOffset
 917:Generated_Source\PSoC5/USBUART_1_std.c ****                     USBUART_1_ARB_EP_BASE.arbEp[curEp].rwWaMsb = HI8(USBUART_1_EP[curEp].buffOffset
 918:Generated_Source\PSoC5/USBUART_1_std.c ****                 #endif /* (CY_PSOC4) */                
 919:Generated_Source\PSoC5/USBUART_1_std.c ****             #endif /* (USBUART_1_EP_MANAGEMENT_DMA_AUTO) */
 920:Generated_Source\PSoC5/USBUART_1_std.c ****             }
 921:Generated_Source\PSoC5/USBUART_1_std.c ****             
 922:Generated_Source\PSoC5/USBUART_1_std.c ****             pEP = &pEP[1u]; /* Get next EP element */
 923:Generated_Source\PSoC5/USBUART_1_std.c ****         }
 924:Generated_Source\PSoC5/USBUART_1_std.c ****         
 925:Generated_Source\PSoC5/USBUART_1_std.c ****         /* The main loop has to re-enable DMA and OUT endpoint */
 926:Generated_Source\PSoC5/USBUART_1_std.c ****     }
 927:Generated_Source\PSoC5/USBUART_1_std.c **** }
 928:Generated_Source\PSoC5/USBUART_1_std.c **** 
 929:Generated_Source\PSoC5/USBUART_1_std.c **** 
 930:Generated_Source\PSoC5/USBUART_1_std.c **** /*******************************************************************************
 931:Generated_Source\PSoC5/USBUART_1_std.c **** * Function Name: USBUART_1_GetConfigTablePtr
 932:Generated_Source\PSoC5/USBUART_1_std.c **** ****************************************************************************//**
 933:Generated_Source\PSoC5/USBUART_1_std.c **** *
 934:Generated_Source\PSoC5/USBUART_1_std.c **** *  This routine returns a pointer a configuration table entry
 935:Generated_Source\PSoC5/USBUART_1_std.c **** *
ARM GAS  C:\Users\jon\AppData\Local\Temp\ccCLAX4y.s 			page 18


 936:Generated_Source\PSoC5/USBUART_1_std.c **** *  \param confIndex:  Configuration Index
 937:Generated_Source\PSoC5/USBUART_1_std.c **** *
 938:Generated_Source\PSoC5/USBUART_1_std.c **** * \return
 939:Generated_Source\PSoC5/USBUART_1_std.c **** *  Device Descriptor pointer or NULL when descriptor does not exist.
 940:Generated_Source\PSoC5/USBUART_1_std.c **** *
 941:Generated_Source\PSoC5/USBUART_1_std.c **** *******************************************************************************/
 942:Generated_Source\PSoC5/USBUART_1_std.c **** const T_USBUART_1_LUT CYCODE *USBUART_1_GetConfigTablePtr(uint8 confIndex)
 943:Generated_Source\PSoC5/USBUART_1_std.c ****                                                         
 944:Generated_Source\PSoC5/USBUART_1_std.c **** {
 945:Generated_Source\PSoC5/USBUART_1_std.c ****     /* Device Table */
 946:Generated_Source\PSoC5/USBUART_1_std.c ****     const T_USBUART_1_LUT CYCODE *pTmp;
 947:Generated_Source\PSoC5/USBUART_1_std.c **** 
 948:Generated_Source\PSoC5/USBUART_1_std.c ****     pTmp = (const T_USBUART_1_LUT CYCODE *) USBUART_1_TABLE[USBUART_1_device].p_list;
  35              		.loc 1 948 0
  36 0002 5049     		ldr	r1, .L19+4
  37              	.LBE25:
  38              	.LBE24:
 820:Generated_Source\PSoC5/USBUART_1_std.c ****         pTmp = &pTmp[1u];
  39              		.loc 1 820 0
  40 0004 1B78     		ldrb	r3, [r3]	@ zero_extendqisi2
  41              	.LBB29:
  42              	.LBB26:
  43              		.loc 1 948 0
  44 0006 504A     		ldr	r2, .L19+8
  45 0008 0978     		ldrb	r1, [r1]	@ zero_extendqisi2
  46              	.LBE26:
  47              	.LBE29:
 820:Generated_Source\PSoC5/USBUART_1_std.c ****         pTmp = &pTmp[1u];
  48              		.loc 1 820 0
  49 000a 013B     		subs	r3, r3, #1
  50              	.LBB30:
  51              	.LBB27:
  52              		.loc 1 948 0
  53 000c 02EBC102 		add	r2, r2, r1, lsl #3
  54 0010 5268     		ldr	r2, [r2, #4]
  55              	.LBE27:
  56              	.LBE30:
 820:Generated_Source\PSoC5/USBUART_1_std.c ****         pTmp = &pTmp[1u];
  57              		.loc 1 820 0
  58 0012 DBB2     		uxtb	r3, r3
  59              	.LVL0:
  60              	.LBB31:
  61              	.LBB28:
 949:Generated_Source\PSoC5/USBUART_1_std.c **** 
 950:Generated_Source\PSoC5/USBUART_1_std.c ****     /* The first entry points to the Device Descriptor,
 951:Generated_Source\PSoC5/USBUART_1_std.c ****     *  the second entry point to the BOS Descriptor
 952:Generated_Source\PSoC5/USBUART_1_std.c ****     *  the rest configuration entries.
 953:Generated_Source\PSoC5/USBUART_1_std.c ****     *  Set pointer to the first Configuration Descriptor
 954:Generated_Source\PSoC5/USBUART_1_std.c ****     */
 955:Generated_Source\PSoC5/USBUART_1_std.c ****     pTmp = &pTmp[2u];
 956:Generated_Source\PSoC5/USBUART_1_std.c ****     /* For this table, c is the number of configuration descriptors  */
 957:Generated_Source\PSoC5/USBUART_1_std.c ****     if(confIndex >= pTmp->c)   /* Verify that required configuration descriptor exists */
  62              		.loc 1 957 0
  63 0014 117C     		ldrb	r1, [r2, #16]	@ zero_extendqisi2
  64 0016 9942     		cmp	r1, r3
  65 0018 40F28280 		bls	.L2
 958:Generated_Source\PSoC5/USBUART_1_std.c ****     {
ARM GAS  C:\Users\jon\AppData\Local\Temp\ccCLAX4y.s 			page 19


 959:Generated_Source\PSoC5/USBUART_1_std.c ****         pTmp = (const T_USBUART_1_LUT CYCODE *) NULL;
 960:Generated_Source\PSoC5/USBUART_1_std.c ****     }
 961:Generated_Source\PSoC5/USBUART_1_std.c ****     else
 962:Generated_Source\PSoC5/USBUART_1_std.c ****     {
 963:Generated_Source\PSoC5/USBUART_1_std.c ****         pTmp = (const T_USBUART_1_LUT CYCODE *) pTmp[confIndex].p_list;
  66              		.loc 1 963 0
  67 001c 02EBC303 		add	r3, r2, r3, lsl #3
  68              	.LVL1:
  69 0020 5B69     		ldr	r3, [r3, #20]
  70              	.LVL2:
  71              	.LBE28:
  72              	.LBE31:
 831:Generated_Source\PSoC5/USBUART_1_std.c ****         for (i = 0u; i < ep; i++)
  73              		.loc 1 831 0
  74 0022 4A49     		ldr	r1, .L19+12
 822:Generated_Source\PSoC5/USBUART_1_std.c **** 
  75              		.loc 1 822 0
  76 0024 1A7A     		ldrb	r2, [r3, #8]	@ zero_extendqisi2
  77              	.LVL3:
 831:Generated_Source\PSoC5/USBUART_1_std.c ****         for (i = 0u; i < ep; i++)
  78              		.loc 1 831 0
  79 0026 0878     		ldrb	r0, [r1]	@ zero_extendqisi2
 825:Generated_Source\PSoC5/USBUART_1_std.c ****         
  80              		.loc 1 825 0
  81 0028 DB68     		ldr	r3, [r3, #12]
  82              	.LVL4:
 831:Generated_Source\PSoC5/USBUART_1_std.c ****         for (i = 0u; i < ep; i++)
  83              		.loc 1 831 0
  84 002a C0B2     		uxtb	r0, r0
  85              	.LVL5:
 832:Generated_Source\PSoC5/USBUART_1_std.c ****         {
  86              		.loc 1 832 0
  87 002c 002A     		cmp	r2, #0
  88 002e 00F08680 		beq	.L15
  89 0032 511E     		subs	r1, r2, #1
  90 0034 C9B2     		uxtb	r1, r1
  91 0036 0231     		adds	r1, r1, #2
 805:Generated_Source\PSoC5/USBUART_1_std.c **** {
  92              		.loc 1 805 0
  93 0038 2DE9F047 		push	{r4, r5, r6, r7, r8, r9, r10, lr}
  94              		.cfi_def_cfa_offset 32
  95              		.cfi_offset 4, -32
  96              		.cfi_offset 5, -28
  97              		.cfi_offset 6, -24
  98              		.cfi_offset 7, -20
  99              		.cfi_offset 8, -16
 100              		.cfi_offset 9, -12
 101              		.cfi_offset 10, -8
 102              		.cfi_offset 14, -4
 103 003c 03EBC101 		add	r1, r3, r1, lsl #3
 836:Generated_Source\PSoC5/USBUART_1_std.c ****             {
 104              		.loc 1 836 0
 105 0040 434D     		ldr	r5, .L19+16
 842:Generated_Source\PSoC5/USBUART_1_std.c ****                 USBUART_1_EP[curEp].addr       = pEP->addr;
 106              		.loc 1 842 0
 107 0042 444E     		ldr	r6, .L19+20
 108 0044 0833     		adds	r3, r3, #8
ARM GAS  C:\Users\jon\AppData\Local\Temp\ccCLAX4y.s 			page 20


 109              	.LVL6:
 110 0046 0027     		movs	r7, #0
 861:Generated_Source\PSoC5/USBUART_1_std.c **** 
 111              		.loc 1 861 0
 112 0048 4FF0010E 		mov	lr, #1
 113 004c 02E0     		b	.L9
 114              	.LVL7:
 115              	.L4:
 116 004e 0833     		adds	r3, r3, #8
 117              	.LVL8:
 832:Generated_Source\PSoC5/USBUART_1_std.c ****         {
 118              		.loc 1 832 0
 119 0050 8B42     		cmp	r3, r1
 120 0052 63D0     		beq	.L17
 121              	.LVL9:
 122              	.L9:
 835:Generated_Source\PSoC5/USBUART_1_std.c ****                 (USBUART_1_interfaceSetting[interfaceNum] == pEP->altSetting))
 123              		.loc 1 835 0
 124 0054 13F8082C 		ldrb	r2, [r3, #-8]	@ zero_extendqisi2
 125 0058 8242     		cmp	r2, r0
 126 005a F8D1     		bne	.L4
 836:Generated_Source\PSoC5/USBUART_1_std.c ****             {
 127              		.loc 1 836 0
 128 005c 2A5C     		ldrb	r2, [r5, r0]	@ zero_extendqisi2
 835:Generated_Source\PSoC5/USBUART_1_std.c ****                 (USBUART_1_interfaceSetting[interfaceNum] == pEP->altSetting))
 129              		.loc 1 835 0
 130 005e 13F8074C 		ldrb	r4, [r3, #-7]	@ zero_extendqisi2
 131 0062 9442     		cmp	r4, r2
 132 0064 F3D1     		bne	.L4
 838:Generated_Source\PSoC5/USBUART_1_std.c ****                 epType = ((uint8) pEP->attributes & USBUART_1_EP_TYPE_MASK);
 133              		.loc 1 838 0
 134 0066 13F8062C 		ldrb	r2, [r3, #-6]	@ zero_extendqisi2
 839:Generated_Source\PSoC5/USBUART_1_std.c ****                 
 135              		.loc 1 839 0
 136 006a 13F805CC 		ldrb	ip, [r3, #-5]	@ zero_extendqisi2
 838:Generated_Source\PSoC5/USBUART_1_std.c ****                 epType = ((uint8) pEP->attributes & USBUART_1_EP_TYPE_MASK);
 137              		.loc 1 838 0
 138 006e 02F07F02 		and	r2, r2, #127
 139              	.LVL10:
 842:Generated_Source\PSoC5/USBUART_1_std.c ****                 USBUART_1_EP[curEp].addr       = pEP->addr;
 140              		.loc 1 842 0
 141 0072 4FEA4208 		lsl	r8, r2, #1
 142 0076 08EB0209 		add	r9, r8, r2
 143 007a 06EB8904 		add	r4, r6, r9, lsl #2
 144 007e E770     		strb	r7, [r4, #3]
 843:Generated_Source\PSoC5/USBUART_1_std.c ****                 USBUART_1_EP[curEp].attrib     = pEP->attributes;
 145              		.loc 1 843 0
 146 0080 13F806AC 		ldrb	r10, [r3, #-6]	@ zero_extendqisi2
 839:Generated_Source\PSoC5/USBUART_1_std.c ****                 
 147              		.loc 1 839 0
 148 0084 0CF0030C 		and	ip, ip, #3
 149              	.LVL11:
 843:Generated_Source\PSoC5/USBUART_1_std.c ****                 USBUART_1_EP[curEp].attrib     = pEP->attributes;
 150              		.loc 1 843 0
 151 0088 84F804A0 		strb	r10, [r4, #4]
 844:Generated_Source\PSoC5/USBUART_1_std.c ****                 USBUART_1_EP[curEp].bufferSize = pEP->bufferSize;
 152              		.loc 1 844 0
ARM GAS  C:\Users\jon\AppData\Local\Temp\ccCLAX4y.s 			page 21


 153 008c 13F805AC 		ldrb	r10, [r3, #-5]	@ zero_extendqisi2
 154 0090 06F829A0 		strb	r10, [r6, r9, lsl #2]
 845:Generated_Source\PSoC5/USBUART_1_std.c **** 
 155              		.loc 1 845 0
 156 0094 33F8049C 		ldrh	r9, [r3, #-4]
 157 0098 A4F80890 		strh	r9, [r4, #8]	@ movhi
 847:Generated_Source\PSoC5/USBUART_1_std.c ****                 {
 158              		.loc 1 847 0
 159 009c 13F9069C 		ldrsb	r9, [r3, #-6]
 160 00a0 B9F1000F 		cmp	r9, #0
 161 00a4 3FDB     		blt	.L18
 856:Generated_Source\PSoC5/USBUART_1_std.c ****                     USBUART_1_EP[curEp].apiEpState = USBUART_1_NO_EVENT_PENDING;
 162              		.loc 1 856 0
 163 00a6 BCF1010F 		cmp	ip, #1
 164 00aa 0CBF     		ite	eq
 165 00ac 4FF0050C 		moveq	ip, #5
 166              	.LVL12:
 167 00b0 4FF0090C 		movne	ip, #9
 168 00b4 84F805C0 		strb	ip, [r4, #5]
 857:Generated_Source\PSoC5/USBUART_1_std.c ****                 }
 169              		.loc 1 857 0
 170 00b8 6770     		strb	r7, [r4, #1]
 171              	.L7:
 172 00ba DFF8A0C0 		ldr	ip, .L19+28
 173 00be 4FEA0219 		lsl	r9, r2, #4
 174 00c2 CC44     		add	ip, ip, r9
 907:Generated_Source\PSoC5/USBUART_1_std.c ****                 USBUART_1_SIE_EP_BASE.sieEp[curEp].epCnt1 = LO8(USBUART_1_EP[curEp].bufferSize);
 175              		.loc 1 907 0
 176 00c4 4244     		add	r2, r2, r8
 177              	.LVL13:
 861:Generated_Source\PSoC5/USBUART_1_std.c **** 
 178              		.loc 1 861 0
 179 00c6 8CF802E0 		strb	lr, [ip, #2]
 907:Generated_Source\PSoC5/USBUART_1_std.c ****                 USBUART_1_SIE_EP_BASE.sieEp[curEp].epCnt1 = LO8(USBUART_1_EP[curEp].bufferSize);
 180              		.loc 1 907 0
 181 00ca 06EB8202 		add	r2, r6, r2, lsl #2
 182 00ce B2F80880 		ldrh	r8, [r2, #8]
 183 00d2 214C     		ldr	r4, .L19+24
 184 00d4 C8F30728 		ubfx	r8, r8, #8, #8
 185 00d8 8CF80080 		strb	r8, [ip]
 908:Generated_Source\PSoC5/USBUART_1_std.c ****                 
 186              		.loc 1 908 0
 187 00dc B2F80880 		ldrh	r8, [r2, #8]
 188 00e0 4C44     		add	r4, r4, r9
 189 00e2 5FFA88F8 		uxtb	r8, r8
 190 00e6 8CF80180 		strb	r8, [ip, #1]
 914:Generated_Source\PSoC5/USBUART_1_std.c ****                     USBUART_1_ARB_EP_BASE.arbEp[curEp].rwRaMsb = HI8(USBUART_1_EP[curEp].buffOffset
 191              		.loc 1 914 0
 192 00ea B2F806C0 		ldrh	ip, [r2, #6]
 193 00ee 0833     		adds	r3, r3, #8
 194              	.LVL14:
 195 00f0 5FFA8CFC 		uxtb	ip, ip
 196 00f4 84F806C0 		strb	ip, [r4, #6]
 915:Generated_Source\PSoC5/USBUART_1_std.c ****                     USBUART_1_ARB_EP_BASE.arbEp[curEp].rwWa    = LO8(USBUART_1_EP[curEp].buffOffset
 197              		.loc 1 915 0
 198 00f8 B2F806C0 		ldrh	ip, [r2, #6]
 832:Generated_Source\PSoC5/USBUART_1_std.c ****         {
ARM GAS  C:\Users\jon\AppData\Local\Temp\ccCLAX4y.s 			page 22


 199              		.loc 1 832 0
 200 00fc 8B42     		cmp	r3, r1
 915:Generated_Source\PSoC5/USBUART_1_std.c ****                     USBUART_1_ARB_EP_BASE.arbEp[curEp].rwWa    = LO8(USBUART_1_EP[curEp].buffOffset
 201              		.loc 1 915 0
 202 00fe CCF3072C 		ubfx	ip, ip, #8, #8
 203 0102 84F807C0 		strb	ip, [r4, #7]
 916:Generated_Source\PSoC5/USBUART_1_std.c ****                     USBUART_1_ARB_EP_BASE.arbEp[curEp].rwWaMsb = HI8(USBUART_1_EP[curEp].buffOffset
 204              		.loc 1 916 0
 205 0106 B2F806C0 		ldrh	ip, [r2, #6]
 206 010a 5FFA8CFC 		uxtb	ip, ip
 207 010e 84F804C0 		strb	ip, [r4, #4]
 917:Generated_Source\PSoC5/USBUART_1_std.c ****                 #endif /* (CY_PSOC4) */                
 208              		.loc 1 917 0
 209 0112 D288     		ldrh	r2, [r2, #6]
 210 0114 C2F30722 		ubfx	r2, r2, #8, #8
 211 0118 6271     		strb	r2, [r4, #5]
 212              	.LVL15:
 832:Generated_Source\PSoC5/USBUART_1_std.c ****         {
 213              		.loc 1 832 0
 214 011a 9BD1     		bne	.L9
 215              	.L17:
 216 011c BDE8F087 		pop	{r4, r5, r6, r7, r8, r9, r10, pc}
 217              	.LVL16:
 218              	.L2:
 219              		.cfi_def_cfa_offset 0
 220              		.cfi_restore 4
 221              		.cfi_restore 5
 222              		.cfi_restore 6
 223              		.cfi_restore 7
 224              		.cfi_restore 8
 225              		.cfi_restore 9
 226              		.cfi_restore 10
 227              		.cfi_restore 14
 822:Generated_Source\PSoC5/USBUART_1_std.c **** 
 228              		.loc 1 822 0
 229 0120 0023     		movs	r3, #0
 230 0122 1B7A     		ldrb	r3, [r3, #8]	@ zero_extendqisi2
 231 0124 FFDE     		.inst	0xdeff
 232              	.LVL17:
 233              	.L18:
 234              		.cfi_def_cfa_offset 32
 235              		.cfi_offset 4, -32
 236              		.cfi_offset 5, -28
 237              		.cfi_offset 6, -24
 238              		.cfi_offset 7, -20
 239              		.cfi_offset 8, -16
 240              		.cfi_offset 9, -12
 241              		.cfi_offset 10, -8
 242              		.cfi_offset 14, -4
 850:Generated_Source\PSoC5/USBUART_1_std.c ****                     USBUART_1_EP[curEp].apiEpState = USBUART_1_EVENT_PENDING;
 243              		.loc 1 850 0
 244 0126 BCF1010F 		cmp	ip, #1
 245 012a 0CBF     		ite	eq
 246 012c 4FF0070C 		moveq	ip, #7
 247              	.LVL18:
 248 0130 4FF00D0C 		movne	ip, #13
 249 0134 84F805C0 		strb	ip, [r4, #5]
ARM GAS  C:\Users\jon\AppData\Local\Temp\ccCLAX4y.s 			page 23


 851:Generated_Source\PSoC5/USBUART_1_std.c ****                 }
 250              		.loc 1 851 0
 251 0138 84F801E0 		strb	lr, [r4, #1]
 252 013c BDE7     		b	.L7
 253              	.LVL19:
 254              	.L15:
 255              		.cfi_def_cfa_offset 0
 256              		.cfi_restore 4
 257              		.cfi_restore 5
 258              		.cfi_restore 6
 259              		.cfi_restore 7
 260              		.cfi_restore 8
 261              		.cfi_restore 9
 262              		.cfi_restore 10
 263              		.cfi_restore 14
 264 013e 7047     		bx	lr
 265              	.L20:
 266              		.align	2
 267              	.L19:
 268 0140 00000000 		.word	USBUART_1_configuration
 269 0144 00000000 		.word	USBUART_1_device
 270 0148 00000000 		.word	USBUART_1_TABLE
 271 014c 00000000 		.word	USBUART_1_interfaceNumber
 272 0150 00000000 		.word	USBUART_1_interfaceSetting
 273 0154 00000000 		.word	USBUART_1_EP
 274 0158 70600040 		.word	1073766512
 275 015c FC5F0040 		.word	1073766396
 276              		.cfi_endproc
 277              	.LFE13:
 278              		.size	USBUART_1_ConfigAltChanged.part.0, .-USBUART_1_ConfigAltChanged.part.0
 279              		.section	.text.USBUART_1_ReadDieID,"ax",%progbits
 280              		.align	2
 281              		.global	USBUART_1_ReadDieID
 282              		.thumb
 283              		.thumb_func
 284              		.type	USBUART_1_ReadDieID, %function
 285              	USBUART_1_ReadDieID:
 286              	.LFB1:
 399:Generated_Source\PSoC5/USBUART_1_std.c ****         const char8 CYCODE hex[] = "0123456789ABCDEF";
 287              		.loc 1 399 0
 288              		.cfi_startproc
 289              		@ args = 0, pretend = 0, frame = 32
 290              		@ frame_needed = 0, uses_anonymous_args = 0
 291              	.LVL20:
 292 0000 2DE9F043 		push	{r4, r5, r6, r7, r8, r9, lr}
 293              		.cfi_def_cfa_offset 28
 294              		.cfi_offset 4, -28
 295              		.cfi_offset 5, -24
 296              		.cfi_offset 6, -20
 297              		.cfi_offset 7, -16
 298              		.cfi_offset 8, -12
 299              		.cfi_offset 9, -8
 300              		.cfi_offset 14, -4
 301 0004 0446     		mov	r4, r0
 302 0006 89B0     		sub	sp, sp, #36
 303              		.cfi_def_cfa_offset 64
 400:Generated_Source\PSoC5/USBUART_1_std.c ****         uint8 i;
ARM GAS  C:\Users\jon\AppData\Local\Temp\ccCLAX4y.s 			page 24


 304              		.loc 1 400 0
 305 0008 4E4E     		ldr	r6, .L25
 306 000a 03AD     		add	r5, sp, #12
 307 000c 0FCE     		ldmia	r6!, {r0, r1, r2, r3}
 308              	.LVL21:
 309 000e 0FC5     		stmia	r5!, {r0, r1, r2, r3}
 310 0010 3368     		ldr	r3, [r6]
 311 0012 2B70     		strb	r3, [r5]
 312              	.LVL22:
 405:Generated_Source\PSoC5/USBUART_1_std.c ****         {
 313              		.loc 1 405 0
 314 0014 002C     		cmp	r4, #0
 315 0016 00F09180 		beq	.L21
 408:Generated_Source\PSoC5/USBUART_1_std.c ****             descr[1u] = USBUART_1_DESCR_STRING;
 316              		.loc 1 408 0
 317 001a 2222     		movs	r2, #34
 409:Generated_Source\PSoC5/USBUART_1_std.c ****             
 318              		.loc 1 409 0
 319 001c 0323     		movs	r3, #3
 408:Generated_Source\PSoC5/USBUART_1_std.c ****             descr[1u] = USBUART_1_DESCR_STRING;
 320              		.loc 1 408 0
 321 001e 2270     		strb	r2, [r4]
 409:Generated_Source\PSoC5/USBUART_1_std.c ****             
 322              		.loc 1 409 0
 323 0020 6370     		strb	r3, [r4, #1]
 412:Generated_Source\PSoC5/USBUART_1_std.c **** 
 324              		.loc 1 412 0
 325 0022 01A8     		add	r0, sp, #4
 326 0024 FFF7FEFF 		bl	CyGetUniqueId
 327              	.LVL23:
 417:Generated_Source\PSoC5/USBUART_1_std.c ****                 descr[i + 1u] = 0u;
 328              		.loc 1 417 0
 329 0028 9DF80610 		ldrb	r1, [sp, #6]	@ zero_extendqisi2
 330 002c 9DF80450 		ldrb	r5, [sp, #4]	@ zero_extendqisi2
 331 0030 9DF80500 		ldrb	r0, [sp, #5]	@ zero_extendqisi2
 419:Generated_Source\PSoC5/USBUART_1_std.c ****                 descr[i + 3u] = 0u;
 332              		.loc 1 419 0
 333 0034 0DF1200E 		add	lr, sp, #32
 334 0038 01F00F08 		and	r8, r1, #15
 417:Generated_Source\PSoC5/USBUART_1_std.c ****                 descr[i + 1u] = 0u;
 335              		.loc 1 417 0
 336 003c 9DF80720 		ldrb	r2, [sp, #7]	@ zero_extendqisi2
 419:Generated_Source\PSoC5/USBUART_1_std.c ****                 descr[i + 3u] = 0u;
 337              		.loc 1 419 0
 338 0040 F044     		add	r8, r8, lr
 339 0042 05F00F07 		and	r7, r5, #15
 340 0046 00F00F06 		and	r6, r0, #15
 417:Generated_Source\PSoC5/USBUART_1_std.c ****                 descr[i + 1u] = 0u;
 341              		.loc 1 417 0
 342 004a 0EEB1515 		add	r5, lr, r5, lsr #4
 343 004e 15F814CC 		ldrb	ip, [r5, #-20]	@ zero_extendqisi2
 419:Generated_Source\PSoC5/USBUART_1_std.c ****                 descr[i + 3u] = 0u;
 344              		.loc 1 419 0
 345 0052 7644     		add	r6, r6, lr
 346 0054 18F8145C 		ldrb	r5, [r8, #-20]	@ zero_extendqisi2
 417:Generated_Source\PSoC5/USBUART_1_std.c ****                 descr[i + 1u] = 0u;
 347              		.loc 1 417 0
ARM GAS  C:\Users\jon\AppData\Local\Temp\ccCLAX4y.s 			page 25


 348 0058 0EEB1010 		add	r0, lr, r0, lsr #4
 349 005c 0EEB1111 		add	r1, lr, r1, lsr #4
 419:Generated_Source\PSoC5/USBUART_1_std.c ****                 descr[i + 3u] = 0u;
 350              		.loc 1 419 0
 351 0060 0DF12008 		add	r8, sp, #32
 352 0064 7744     		add	r7, r7, lr
 417:Generated_Source\PSoC5/USBUART_1_std.c ****                 descr[i + 1u] = 0u;
 353              		.loc 1 417 0
 354 0066 9DF80830 		ldrb	r3, [sp, #8]	@ zero_extendqisi2
 419:Generated_Source\PSoC5/USBUART_1_std.c ****                 descr[i + 3u] = 0u;
 355              		.loc 1 419 0
 356 006a 17F814EC 		ldrb	lr, [r7, #-20]	@ zero_extendqisi2
 357 006e 16F8147C 		ldrb	r7, [r6, #-20]	@ zero_extendqisi2
 417:Generated_Source\PSoC5/USBUART_1_std.c ****                 descr[i + 1u] = 0u;
 358              		.loc 1 417 0
 359 0072 10F8146C 		ldrb	r6, [r0, #-20]	@ zero_extendqisi2
 360 0076 11F8140C 		ldrb	r0, [r1, #-20]	@ zero_extendqisi2
 419:Generated_Source\PSoC5/USBUART_1_std.c ****                 descr[i + 3u] = 0u;
 361              		.loc 1 419 0
 362 007a 02F00F01 		and	r1, r2, #15
 417:Generated_Source\PSoC5/USBUART_1_std.c ****                 descr[i + 1u] = 0u;
 363              		.loc 1 417 0
 364 007e 08EB1212 		add	r2, r8, r2, lsr #4
 365 0082 12F8149C 		ldrb	r9, [r2, #-20]	@ zero_extendqisi2
 366 0086 08AA     		add	r2, sp, #32
 367 0088 02EB1312 		add	r2, r2, r3, lsr #4
 419:Generated_Source\PSoC5/USBUART_1_std.c ****                 descr[i + 3u] = 0u;
 368              		.loc 1 419 0
 369 008c 4144     		add	r1, r1, r8
 370 008e 11F8148C 		ldrb	r8, [r1, #-20]	@ zero_extendqisi2
 371 0092 03F00F03 		and	r3, r3, #15
 417:Generated_Source\PSoC5/USBUART_1_std.c ****                 descr[i + 1u] = 0u;
 372              		.loc 1 417 0
 373 0096 12F8141C 		ldrb	r1, [r2, #-20]	@ zero_extendqisi2
 419:Generated_Source\PSoC5/USBUART_1_std.c ****                 descr[i + 3u] = 0u;
 374              		.loc 1 419 0
 375 009a 08AA     		add	r2, sp, #32
 376 009c 1A44     		add	r2, r2, r3
 418:Generated_Source\PSoC5/USBUART_1_std.c ****                 descr[i + 2u] = (uint8) hex[(uniqueId[j] & 0x0Fu)];
 377              		.loc 1 418 0
 378 009e 0023     		movs	r3, #0
 417:Generated_Source\PSoC5/USBUART_1_std.c ****                 descr[i + 1u] = 0u;
 379              		.loc 1 417 0
 380 00a0 84F802C0 		strb	ip, [r4, #2]
 419:Generated_Source\PSoC5/USBUART_1_std.c ****                 descr[i + 3u] = 0u;
 381              		.loc 1 419 0
 382 00a4 2772     		strb	r7, [r4, #8]
 417:Generated_Source\PSoC5/USBUART_1_std.c ****                 descr[i + 1u] = 0u;
 383              		.loc 1 417 0
 384 00a6 A671     		strb	r6, [r4, #6]
 419:Generated_Source\PSoC5/USBUART_1_std.c ****                 descr[i + 3u] = 0u;
 385              		.loc 1 419 0
 386 00a8 2573     		strb	r5, [r4, #12]
 417:Generated_Source\PSoC5/USBUART_1_std.c ****                 descr[i + 1u] = 0u;
 387              		.loc 1 417 0
 388 00aa A072     		strb	r0, [r4, #10]
 389 00ac A174     		strb	r1, [r4, #18]
ARM GAS  C:\Users\jon\AppData\Local\Temp\ccCLAX4y.s 			page 26


 419:Generated_Source\PSoC5/USBUART_1_std.c ****                 descr[i + 3u] = 0u;
 390              		.loc 1 419 0
 391 00ae 84F804E0 		strb	lr, [r4, #4]
 392 00b2 84F81080 		strb	r8, [r4, #16]
 417:Generated_Source\PSoC5/USBUART_1_std.c ****                 descr[i + 1u] = 0u;
 393              		.loc 1 417 0
 394 00b6 84F80E90 		strb	r9, [r4, #14]
 418:Generated_Source\PSoC5/USBUART_1_std.c ****                 descr[i + 2u] = (uint8) hex[(uniqueId[j] & 0x0Fu)];
 395              		.loc 1 418 0
 396 00ba E370     		strb	r3, [r4, #3]
 420:Generated_Source\PSoC5/USBUART_1_std.c ****                 ++j;
 397              		.loc 1 420 0
 398 00bc 6371     		strb	r3, [r4, #5]
 399              	.LVL24:
 418:Generated_Source\PSoC5/USBUART_1_std.c ****                 descr[i + 2u] = (uint8) hex[(uniqueId[j] & 0x0Fu)];
 400              		.loc 1 418 0
 401 00be E371     		strb	r3, [r4, #7]
 420:Generated_Source\PSoC5/USBUART_1_std.c ****                 ++j;
 402              		.loc 1 420 0
 403 00c0 6372     		strb	r3, [r4, #9]
 404              	.LVL25:
 418:Generated_Source\PSoC5/USBUART_1_std.c ****                 descr[i + 2u] = (uint8) hex[(uniqueId[j] & 0x0Fu)];
 405              		.loc 1 418 0
 406 00c2 E372     		strb	r3, [r4, #11]
 420:Generated_Source\PSoC5/USBUART_1_std.c ****                 ++j;
 407              		.loc 1 420 0
 408 00c4 6373     		strb	r3, [r4, #13]
 409              	.LVL26:
 418:Generated_Source\PSoC5/USBUART_1_std.c ****                 descr[i + 2u] = (uint8) hex[(uniqueId[j] & 0x0Fu)];
 410              		.loc 1 418 0
 411 00c6 E373     		strb	r3, [r4, #15]
 420:Generated_Source\PSoC5/USBUART_1_std.c ****                 ++j;
 412              		.loc 1 420 0
 413 00c8 6374     		strb	r3, [r4, #17]
 414              	.LVL27:
 418:Generated_Source\PSoC5/USBUART_1_std.c ****                 descr[i + 2u] = (uint8) hex[(uniqueId[j] & 0x0Fu)];
 415              		.loc 1 418 0
 416 00ca E374     		strb	r3, [r4, #19]
 419:Generated_Source\PSoC5/USBUART_1_std.c ****                 descr[i + 3u] = 0u;
 417              		.loc 1 419 0
 418 00cc 12F814EC 		ldrb	lr, [r2, #-20]	@ zero_extendqisi2
 417:Generated_Source\PSoC5/USBUART_1_std.c ****                 descr[i + 1u] = 0u;
 419              		.loc 1 417 0
 420 00d0 9DF80900 		ldrb	r0, [sp, #9]	@ zero_extendqisi2
 421 00d4 9DF80A10 		ldrb	r1, [sp, #10]	@ zero_extendqisi2
 422 00d8 9DF80B20 		ldrb	r2, [sp, #11]	@ zero_extendqisi2
 419:Generated_Source\PSoC5/USBUART_1_std.c ****                 descr[i + 3u] = 0u;
 423              		.loc 1 419 0
 424 00dc 08AD     		add	r5, sp, #32
 425 00de 00F00F07 		and	r7, r0, #15
 426 00e2 01F00F06 		and	r6, r1, #15
 427 00e6 2F44     		add	r7, r7, r5
 417:Generated_Source\PSoC5/USBUART_1_std.c ****                 descr[i + 1u] = 0u;
 428              		.loc 1 417 0
 429 00e8 05EB1010 		add	r0, r5, r0, lsr #4
 430 00ec 05EB1111 		add	r1, r5, r1, lsr #4
 419:Generated_Source\PSoC5/USBUART_1_std.c ****                 descr[i + 3u] = 0u;
ARM GAS  C:\Users\jon\AppData\Local\Temp\ccCLAX4y.s 			page 27


 431              		.loc 1 419 0
 432 00f0 0DF1200C 		add	ip, sp, #32
 433 00f4 2E44     		add	r6, r6, r5
 434 00f6 02F00F05 		and	r5, r2, #15
 435 00fa 6544     		add	r5, r5, ip
 417:Generated_Source\PSoC5/USBUART_1_std.c ****                 descr[i + 1u] = 0u;
 436              		.loc 1 417 0
 437 00fc 0CEB1212 		add	r2, ip, r2, lsr #4
 419:Generated_Source\PSoC5/USBUART_1_std.c ****                 descr[i + 3u] = 0u;
 438              		.loc 1 419 0
 439 0100 16F8146C 		ldrb	r6, [r6, #-20]	@ zero_extendqisi2
 440 0104 17F814CC 		ldrb	ip, [r7, #-20]	@ zero_extendqisi2
 417:Generated_Source\PSoC5/USBUART_1_std.c ****                 descr[i + 1u] = 0u;
 441              		.loc 1 417 0
 442 0108 12F8142C 		ldrb	r2, [r2, #-20]	@ zero_extendqisi2
 443 010c 10F8147C 		ldrb	r7, [r0, #-20]	@ zero_extendqisi2
 444 0110 11F8140C 		ldrb	r0, [r1, #-20]	@ zero_extendqisi2
 419:Generated_Source\PSoC5/USBUART_1_std.c ****                 descr[i + 3u] = 0u;
 445              		.loc 1 419 0
 446 0114 15F8141C 		ldrb	r1, [r5, #-20]	@ zero_extendqisi2
 447 0118 84F814E0 		strb	lr, [r4, #20]
 420:Generated_Source\PSoC5/USBUART_1_std.c ****                 ++j;
 448              		.loc 1 420 0
 449 011c 6375     		strb	r3, [r4, #21]
 450              	.LVL28:
 418:Generated_Source\PSoC5/USBUART_1_std.c ****                 descr[i + 2u] = (uint8) hex[(uniqueId[j] & 0x0Fu)];
 451              		.loc 1 418 0
 452 011e E375     		strb	r3, [r4, #23]
 420:Generated_Source\PSoC5/USBUART_1_std.c ****                 ++j;
 453              		.loc 1 420 0
 454 0120 6376     		strb	r3, [r4, #25]
 455              	.LVL29:
 418:Generated_Source\PSoC5/USBUART_1_std.c ****                 descr[i + 2u] = (uint8) hex[(uniqueId[j] & 0x0Fu)];
 456              		.loc 1 418 0
 457 0122 E376     		strb	r3, [r4, #27]
 420:Generated_Source\PSoC5/USBUART_1_std.c ****                 ++j;
 458              		.loc 1 420 0
 459 0124 6377     		strb	r3, [r4, #29]
 460              	.LVL30:
 418:Generated_Source\PSoC5/USBUART_1_std.c ****                 descr[i + 2u] = (uint8) hex[(uniqueId[j] & 0x0Fu)];
 461              		.loc 1 418 0
 462 0126 E377     		strb	r3, [r4, #31]
 420:Generated_Source\PSoC5/USBUART_1_std.c ****                 ++j;
 463              		.loc 1 420 0
 464 0128 84F82130 		strb	r3, [r4, #33]
 465              	.LVL31:
 419:Generated_Source\PSoC5/USBUART_1_std.c ****                 descr[i + 3u] = 0u;
 466              		.loc 1 419 0
 467 012c 84F818C0 		strb	ip, [r4, #24]
 417:Generated_Source\PSoC5/USBUART_1_std.c ****                 descr[i + 1u] = 0u;
 468              		.loc 1 417 0
 469 0130 A775     		strb	r7, [r4, #22]
 419:Generated_Source\PSoC5/USBUART_1_std.c ****                 descr[i + 3u] = 0u;
 470              		.loc 1 419 0
 471 0132 2677     		strb	r6, [r4, #28]
 417:Generated_Source\PSoC5/USBUART_1_std.c ****                 descr[i + 1u] = 0u;
 472              		.loc 1 417 0
ARM GAS  C:\Users\jon\AppData\Local\Temp\ccCLAX4y.s 			page 28


 473 0134 A076     		strb	r0, [r4, #26]
 419:Generated_Source\PSoC5/USBUART_1_std.c ****                 descr[i + 3u] = 0u;
 474              		.loc 1 419 0
 475 0136 84F82010 		strb	r1, [r4, #32]
 417:Generated_Source\PSoC5/USBUART_1_std.c ****                 descr[i + 1u] = 0u;
 476              		.loc 1 417 0
 477 013a A277     		strb	r2, [r4, #30]
 478              	.LVL32:
 479              	.L21:
 424:Generated_Source\PSoC5/USBUART_1_std.c **** #endif /* (USBUART_1_ENABLE_IDSN_STRING) */
 480              		.loc 1 424 0
 481 013c 09B0     		add	sp, sp, #36
 482              		.cfi_def_cfa_offset 28
 483              		@ sp needed
 484 013e BDE8F083 		pop	{r4, r5, r6, r7, r8, r9, pc}
 485              	.LVL33:
 486              	.L26:
 487 0142 00BF     		.align	2
 488              	.L25:
 489 0144 00000000 		.word	.LC0
 490              		.cfi_endproc
 491              	.LFE1:
 492              		.size	USBUART_1_ReadDieID, .-USBUART_1_ReadDieID
 493              		.section	.text.USBUART_1_ConfigReg,"ax",%progbits
 494              		.align	2
 495              		.global	USBUART_1_ConfigReg
 496              		.thumb
 497              		.thumb_func
 498              		.type	USBUART_1_ConfigReg, %function
 499              	USBUART_1_ConfigReg:
 500              	.LFB2:
 438:Generated_Source\PSoC5/USBUART_1_std.c ****     uint8 ep;
 501              		.loc 1 438 0
 502              		.cfi_startproc
 503              		@ args = 0, pretend = 0, frame = 0
 504              		@ frame_needed = 0, uses_anonymous_args = 0
 505              		@ link register save eliminated.
 506              	.LVL34:
 507 0000 30B4     		push	{r4, r5}
 508              		.cfi_def_cfa_offset 8
 509              		.cfi_offset 4, -8
 510              		.cfi_offset 5, -4
 448:Generated_Source\PSoC5/USBUART_1_std.c ****         
 511              		.loc 1 448 0
 512 0002 9C49     		ldr	r1, .L53
 513 0004 0C22     		movs	r2, #12
 455:Generated_Source\PSoC5/USBUART_1_std.c ****         {
 514              		.loc 1 455 0
 515 0006 9C4B     		ldr	r3, .L53+4
 448:Generated_Source\PSoC5/USBUART_1_std.c ****         
 516              		.loc 1 448 0
 517 0008 0A70     		strb	r2, [r1]
 455:Generated_Source\PSoC5/USBUART_1_std.c ****         {
 518              		.loc 1 455 0
 519 000a 597C     		ldrb	r1, [r3, #17]	@ zero_extendqisi2
 520 000c 0029     		cmp	r1, #0
 521 000e 40F0E880 		bne	.L28
ARM GAS  C:\Users\jon\AppData\Local\Temp\ccCLAX4y.s 			page 29


 480:Generated_Source\PSoC5/USBUART_1_std.c ****         }
 522              		.loc 1 480 0
 523 0012 02F18042 		add	r2, r2, #1073741824
 524 0016 02F5C042 		add	r2, r2, #24576
 525 001a 8021     		movs	r1, #128
 526 001c 9170     		strb	r1, [r2, #2]
 527              	.L29:
 488:Generated_Source\PSoC5/USBUART_1_std.c ****             USBUART_1_ARB_EP_BASE.arbEp[ep].rwRaMsb = HI8(USBUART_1_EP[ep].buffOffset);
 528              		.loc 1 488 0
 529 001e 598A     		ldrh	r1, [r3, #18]
 530 0020 944A     		ldr	r2, .L53
 531 0022 C9B2     		uxtb	r1, r1
 532 0024 9171     		strb	r1, [r2, #6]
 489:Generated_Source\PSoC5/USBUART_1_std.c ****             USBUART_1_ARB_EP_BASE.arbEp[ep].rwWa    = LO8(USBUART_1_EP[ep].buffOffset);
 533              		.loc 1 489 0
 534 0026 598A     		ldrh	r1, [r3, #18]
 448:Generated_Source\PSoC5/USBUART_1_std.c ****         
 535              		.loc 1 448 0
 536 0028 944C     		ldr	r4, .L53+8
 489:Generated_Source\PSoC5/USBUART_1_std.c ****             USBUART_1_ARB_EP_BASE.arbEp[ep].rwWa    = LO8(USBUART_1_EP[ep].buffOffset);
 537              		.loc 1 489 0
 538 002a C1F30721 		ubfx	r1, r1, #8, #8
 539 002e D171     		strb	r1, [r2, #7]
 490:Generated_Source\PSoC5/USBUART_1_std.c ****             USBUART_1_ARB_EP_BASE.arbEp[ep].rwWaMsb = HI8(USBUART_1_EP[ep].buffOffset);
 540              		.loc 1 490 0
 541 0030 598A     		ldrh	r1, [r3, #18]
 448:Generated_Source\PSoC5/USBUART_1_std.c ****         
 542              		.loc 1 448 0
 543 0032 0C20     		movs	r0, #12
 490:Generated_Source\PSoC5/USBUART_1_std.c ****             USBUART_1_ARB_EP_BASE.arbEp[ep].rwWaMsb = HI8(USBUART_1_EP[ep].buffOffset);
 544              		.loc 1 490 0
 545 0034 C9B2     		uxtb	r1, r1
 546 0036 1171     		strb	r1, [r2, #4]
 491:Generated_Source\PSoC5/USBUART_1_std.c ****         #endif /* (CY_PSOC4) */
 547              		.loc 1 491 0
 548 0038 598A     		ldrh	r1, [r3, #18]
 488:Generated_Source\PSoC5/USBUART_1_std.c ****             USBUART_1_ARB_EP_BASE.arbEp[ep].rwRaMsb = HI8(USBUART_1_EP[ep].buffOffset);
 549              		.loc 1 488 0
 550 003a 8F4D     		ldr	r5, .L53+4
 491:Generated_Source\PSoC5/USBUART_1_std.c ****         #endif /* (CY_PSOC4) */
 551              		.loc 1 491 0
 552 003c C1F30721 		ubfx	r1, r1, #8, #8
 553 0040 5171     		strb	r1, [r2, #5]
 554              	.LVL35:
 448:Generated_Source\PSoC5/USBUART_1_std.c ****         
 555              		.loc 1 448 0
 556 0042 2070     		strb	r0, [r4]
 455:Generated_Source\PSoC5/USBUART_1_std.c ****         {
 557              		.loc 1 455 0
 558 0044 5A7F     		ldrb	r2, [r3, #29]	@ zero_extendqisi2
 559 0046 002A     		cmp	r2, #0
 560 0048 40F00881 		bne	.L31
 480:Generated_Source\PSoC5/USBUART_1_std.c ****         }
 561              		.loc 1 480 0
 562 004c 8C4A     		ldr	r2, .L53+12
 563 004e 8021     		movs	r1, #128
 564 0050 9170     		strb	r1, [r2, #2]
ARM GAS  C:\Users\jon\AppData\Local\Temp\ccCLAX4y.s 			page 30


 565              	.L32:
 488:Generated_Source\PSoC5/USBUART_1_std.c ****             USBUART_1_ARB_EP_BASE.arbEp[ep].rwRaMsb = HI8(USBUART_1_EP[ep].buffOffset);
 566              		.loc 1 488 0
 567 0052 D98B     		ldrh	r1, [r3, #30]
 568 0054 894A     		ldr	r2, .L53+8
 569 0056 C9B2     		uxtb	r1, r1
 570 0058 9171     		strb	r1, [r2, #6]
 489:Generated_Source\PSoC5/USBUART_1_std.c ****             USBUART_1_ARB_EP_BASE.arbEp[ep].rwWa    = LO8(USBUART_1_EP[ep].buffOffset);
 571              		.loc 1 489 0
 572 005a D98B     		ldrh	r1, [r3, #30]
 448:Generated_Source\PSoC5/USBUART_1_std.c ****         
 573              		.loc 1 448 0
 574 005c 894C     		ldr	r4, .L53+16
 489:Generated_Source\PSoC5/USBUART_1_std.c ****             USBUART_1_ARB_EP_BASE.arbEp[ep].rwWa    = LO8(USBUART_1_EP[ep].buffOffset);
 575              		.loc 1 489 0
 576 005e C1F30721 		ubfx	r1, r1, #8, #8
 577 0062 D171     		strb	r1, [r2, #7]
 490:Generated_Source\PSoC5/USBUART_1_std.c ****             USBUART_1_ARB_EP_BASE.arbEp[ep].rwWaMsb = HI8(USBUART_1_EP[ep].buffOffset);
 578              		.loc 1 490 0
 579 0064 D98B     		ldrh	r1, [r3, #30]
 448:Generated_Source\PSoC5/USBUART_1_std.c ****         
 580              		.loc 1 448 0
 581 0066 0C20     		movs	r0, #12
 490:Generated_Source\PSoC5/USBUART_1_std.c ****             USBUART_1_ARB_EP_BASE.arbEp[ep].rwWaMsb = HI8(USBUART_1_EP[ep].buffOffset);
 582              		.loc 1 490 0
 583 0068 C9B2     		uxtb	r1, r1
 584 006a 1171     		strb	r1, [r2, #4]
 491:Generated_Source\PSoC5/USBUART_1_std.c ****         #endif /* (CY_PSOC4) */
 585              		.loc 1 491 0
 586 006c D98B     		ldrh	r1, [r3, #30]
 488:Generated_Source\PSoC5/USBUART_1_std.c ****             USBUART_1_ARB_EP_BASE.arbEp[ep].rwRaMsb = HI8(USBUART_1_EP[ep].buffOffset);
 587              		.loc 1 488 0
 588 006e 824D     		ldr	r5, .L53+4
 491:Generated_Source\PSoC5/USBUART_1_std.c ****         #endif /* (CY_PSOC4) */
 589              		.loc 1 491 0
 590 0070 C1F30721 		ubfx	r1, r1, #8, #8
 591 0074 5171     		strb	r1, [r2, #5]
 592              	.LVL36:
 448:Generated_Source\PSoC5/USBUART_1_std.c ****         
 593              		.loc 1 448 0
 594 0076 2070     		strb	r0, [r4]
 455:Generated_Source\PSoC5/USBUART_1_std.c ****         {
 595              		.loc 1 455 0
 596 0078 93F82920 		ldrb	r2, [r3, #41]	@ zero_extendqisi2
 597 007c 002A     		cmp	r2, #0
 598 007e 40F0E380 		bne	.L34
 480:Generated_Source\PSoC5/USBUART_1_std.c ****         }
 599              		.loc 1 480 0
 600 0082 814A     		ldr	r2, .L53+20
 601 0084 8021     		movs	r1, #128
 602 0086 9170     		strb	r1, [r2, #2]
 603              	.L35:
 488:Generated_Source\PSoC5/USBUART_1_std.c ****             USBUART_1_ARB_EP_BASE.arbEp[ep].rwRaMsb = HI8(USBUART_1_EP[ep].buffOffset);
 604              		.loc 1 488 0
 605 0088 598D     		ldrh	r1, [r3, #42]
 606 008a 7E4A     		ldr	r2, .L53+16
 607 008c C9B2     		uxtb	r1, r1
ARM GAS  C:\Users\jon\AppData\Local\Temp\ccCLAX4y.s 			page 31


 608 008e 9171     		strb	r1, [r2, #6]
 489:Generated_Source\PSoC5/USBUART_1_std.c ****             USBUART_1_ARB_EP_BASE.arbEp[ep].rwWa    = LO8(USBUART_1_EP[ep].buffOffset);
 609              		.loc 1 489 0
 610 0090 598D     		ldrh	r1, [r3, #42]
 448:Generated_Source\PSoC5/USBUART_1_std.c ****         
 611              		.loc 1 448 0
 612 0092 7E4C     		ldr	r4, .L53+24
 489:Generated_Source\PSoC5/USBUART_1_std.c ****             USBUART_1_ARB_EP_BASE.arbEp[ep].rwWa    = LO8(USBUART_1_EP[ep].buffOffset);
 613              		.loc 1 489 0
 614 0094 C1F30721 		ubfx	r1, r1, #8, #8
 615 0098 D171     		strb	r1, [r2, #7]
 490:Generated_Source\PSoC5/USBUART_1_std.c ****             USBUART_1_ARB_EP_BASE.arbEp[ep].rwWaMsb = HI8(USBUART_1_EP[ep].buffOffset);
 616              		.loc 1 490 0
 617 009a 598D     		ldrh	r1, [r3, #42]
 448:Generated_Source\PSoC5/USBUART_1_std.c ****         
 618              		.loc 1 448 0
 619 009c 0C20     		movs	r0, #12
 490:Generated_Source\PSoC5/USBUART_1_std.c ****             USBUART_1_ARB_EP_BASE.arbEp[ep].rwWaMsb = HI8(USBUART_1_EP[ep].buffOffset);
 620              		.loc 1 490 0
 621 009e C9B2     		uxtb	r1, r1
 622 00a0 1171     		strb	r1, [r2, #4]
 491:Generated_Source\PSoC5/USBUART_1_std.c ****         #endif /* (CY_PSOC4) */
 623              		.loc 1 491 0
 624 00a2 598D     		ldrh	r1, [r3, #42]
 488:Generated_Source\PSoC5/USBUART_1_std.c ****             USBUART_1_ARB_EP_BASE.arbEp[ep].rwRaMsb = HI8(USBUART_1_EP[ep].buffOffset);
 625              		.loc 1 488 0
 626 00a4 744D     		ldr	r5, .L53+4
 491:Generated_Source\PSoC5/USBUART_1_std.c ****         #endif /* (CY_PSOC4) */
 627              		.loc 1 491 0
 628 00a6 C1F30721 		ubfx	r1, r1, #8, #8
 629 00aa 5171     		strb	r1, [r2, #5]
 630              	.LVL37:
 448:Generated_Source\PSoC5/USBUART_1_std.c ****         
 631              		.loc 1 448 0
 632 00ac 2070     		strb	r0, [r4]
 455:Generated_Source\PSoC5/USBUART_1_std.c ****         {
 633              		.loc 1 455 0
 634 00ae 93F83520 		ldrb	r2, [r3, #53]	@ zero_extendqisi2
 635 00b2 002A     		cmp	r2, #0
 636 00b4 40F0BE80 		bne	.L37
 480:Generated_Source\PSoC5/USBUART_1_std.c ****         }
 637              		.loc 1 480 0
 638 00b8 754A     		ldr	r2, .L53+28
 639 00ba 8021     		movs	r1, #128
 640 00bc 9170     		strb	r1, [r2, #2]
 641              	.L38:
 488:Generated_Source\PSoC5/USBUART_1_std.c ****             USBUART_1_ARB_EP_BASE.arbEp[ep].rwRaMsb = HI8(USBUART_1_EP[ep].buffOffset);
 642              		.loc 1 488 0
 643 00be D98E     		ldrh	r1, [r3, #54]
 644 00c0 724A     		ldr	r2, .L53+24
 645 00c2 C9B2     		uxtb	r1, r1
 646 00c4 9171     		strb	r1, [r2, #6]
 489:Generated_Source\PSoC5/USBUART_1_std.c ****             USBUART_1_ARB_EP_BASE.arbEp[ep].rwWa    = LO8(USBUART_1_EP[ep].buffOffset);
 647              		.loc 1 489 0
 648 00c6 D98E     		ldrh	r1, [r3, #54]
 448:Generated_Source\PSoC5/USBUART_1_std.c ****         
 649              		.loc 1 448 0
ARM GAS  C:\Users\jon\AppData\Local\Temp\ccCLAX4y.s 			page 32


 650 00c8 724C     		ldr	r4, .L53+32
 489:Generated_Source\PSoC5/USBUART_1_std.c ****             USBUART_1_ARB_EP_BASE.arbEp[ep].rwWa    = LO8(USBUART_1_EP[ep].buffOffset);
 651              		.loc 1 489 0
 652 00ca C1F30721 		ubfx	r1, r1, #8, #8
 653 00ce D171     		strb	r1, [r2, #7]
 490:Generated_Source\PSoC5/USBUART_1_std.c ****             USBUART_1_ARB_EP_BASE.arbEp[ep].rwWaMsb = HI8(USBUART_1_EP[ep].buffOffset);
 654              		.loc 1 490 0
 655 00d0 D98E     		ldrh	r1, [r3, #54]
 448:Generated_Source\PSoC5/USBUART_1_std.c ****         
 656              		.loc 1 448 0
 657 00d2 0C20     		movs	r0, #12
 490:Generated_Source\PSoC5/USBUART_1_std.c ****             USBUART_1_ARB_EP_BASE.arbEp[ep].rwWaMsb = HI8(USBUART_1_EP[ep].buffOffset);
 658              		.loc 1 490 0
 659 00d4 C9B2     		uxtb	r1, r1
 660 00d6 1171     		strb	r1, [r2, #4]
 491:Generated_Source\PSoC5/USBUART_1_std.c ****         #endif /* (CY_PSOC4) */
 661              		.loc 1 491 0
 662 00d8 D98E     		ldrh	r1, [r3, #54]
 488:Generated_Source\PSoC5/USBUART_1_std.c ****             USBUART_1_ARB_EP_BASE.arbEp[ep].rwRaMsb = HI8(USBUART_1_EP[ep].buffOffset);
 663              		.loc 1 488 0
 664 00da 674D     		ldr	r5, .L53+4
 491:Generated_Source\PSoC5/USBUART_1_std.c ****         #endif /* (CY_PSOC4) */
 665              		.loc 1 491 0
 666 00dc C1F30721 		ubfx	r1, r1, #8, #8
 667 00e0 5171     		strb	r1, [r2, #5]
 668              	.LVL38:
 448:Generated_Source\PSoC5/USBUART_1_std.c ****         
 669              		.loc 1 448 0
 670 00e2 2070     		strb	r0, [r4]
 455:Generated_Source\PSoC5/USBUART_1_std.c ****         {
 671              		.loc 1 455 0
 672 00e4 93F84120 		ldrb	r2, [r3, #65]	@ zero_extendqisi2
 673 00e8 002A     		cmp	r2, #0
 674 00ea 40F09980 		bne	.L40
 480:Generated_Source\PSoC5/USBUART_1_std.c ****         }
 675              		.loc 1 480 0
 676 00ee 6A4A     		ldr	r2, .L53+36
 677 00f0 8021     		movs	r1, #128
 678 00f2 9170     		strb	r1, [r2, #2]
 679              	.L41:
 488:Generated_Source\PSoC5/USBUART_1_std.c ****             USBUART_1_ARB_EP_BASE.arbEp[ep].rwRaMsb = HI8(USBUART_1_EP[ep].buffOffset);
 680              		.loc 1 488 0
 681 00f4 B3F84210 		ldrh	r1, [r3, #66]
 682 00f8 664A     		ldr	r2, .L53+32
 683 00fa C9B2     		uxtb	r1, r1
 684 00fc 9171     		strb	r1, [r2, #6]
 489:Generated_Source\PSoC5/USBUART_1_std.c ****             USBUART_1_ARB_EP_BASE.arbEp[ep].rwWa    = LO8(USBUART_1_EP[ep].buffOffset);
 685              		.loc 1 489 0
 686 00fe B3F84210 		ldrh	r1, [r3, #66]
 448:Generated_Source\PSoC5/USBUART_1_std.c ****         
 687              		.loc 1 448 0
 688 0102 664C     		ldr	r4, .L53+40
 489:Generated_Source\PSoC5/USBUART_1_std.c ****             USBUART_1_ARB_EP_BASE.arbEp[ep].rwWa    = LO8(USBUART_1_EP[ep].buffOffset);
 689              		.loc 1 489 0
 690 0104 C1F30721 		ubfx	r1, r1, #8, #8
 691 0108 D171     		strb	r1, [r2, #7]
 490:Generated_Source\PSoC5/USBUART_1_std.c ****             USBUART_1_ARB_EP_BASE.arbEp[ep].rwWaMsb = HI8(USBUART_1_EP[ep].buffOffset);
ARM GAS  C:\Users\jon\AppData\Local\Temp\ccCLAX4y.s 			page 33


 692              		.loc 1 490 0
 693 010a B3F84210 		ldrh	r1, [r3, #66]
 448:Generated_Source\PSoC5/USBUART_1_std.c ****         
 694              		.loc 1 448 0
 695 010e 0C20     		movs	r0, #12
 490:Generated_Source\PSoC5/USBUART_1_std.c ****             USBUART_1_ARB_EP_BASE.arbEp[ep].rwWaMsb = HI8(USBUART_1_EP[ep].buffOffset);
 696              		.loc 1 490 0
 697 0110 C9B2     		uxtb	r1, r1
 698 0112 1171     		strb	r1, [r2, #4]
 491:Generated_Source\PSoC5/USBUART_1_std.c ****         #endif /* (CY_PSOC4) */
 699              		.loc 1 491 0
 700 0114 B3F84210 		ldrh	r1, [r3, #66]
 488:Generated_Source\PSoC5/USBUART_1_std.c ****             USBUART_1_ARB_EP_BASE.arbEp[ep].rwRaMsb = HI8(USBUART_1_EP[ep].buffOffset);
 701              		.loc 1 488 0
 702 0118 574D     		ldr	r5, .L53+4
 491:Generated_Source\PSoC5/USBUART_1_std.c ****         #endif /* (CY_PSOC4) */
 703              		.loc 1 491 0
 704 011a C1F30721 		ubfx	r1, r1, #8, #8
 705 011e 5171     		strb	r1, [r2, #5]
 706              	.LVL39:
 448:Generated_Source\PSoC5/USBUART_1_std.c ****         
 707              		.loc 1 448 0
 708 0120 2070     		strb	r0, [r4]
 455:Generated_Source\PSoC5/USBUART_1_std.c ****         {
 709              		.loc 1 455 0
 710 0122 93F84D20 		ldrb	r2, [r3, #77]	@ zero_extendqisi2
 711 0126 002A     		cmp	r2, #0
 712 0128 70D1     		bne	.L43
 480:Generated_Source\PSoC5/USBUART_1_std.c ****         }
 713              		.loc 1 480 0
 714 012a 5D4A     		ldr	r2, .L53+44
 715 012c 8021     		movs	r1, #128
 716 012e 9170     		strb	r1, [r2, #2]
 717              	.L44:
 488:Generated_Source\PSoC5/USBUART_1_std.c ****             USBUART_1_ARB_EP_BASE.arbEp[ep].rwRaMsb = HI8(USBUART_1_EP[ep].buffOffset);
 718              		.loc 1 488 0
 719 0130 B3F84E10 		ldrh	r1, [r3, #78]
 720 0134 594A     		ldr	r2, .L53+40
 721 0136 C9B2     		uxtb	r1, r1
 722 0138 9171     		strb	r1, [r2, #6]
 489:Generated_Source\PSoC5/USBUART_1_std.c ****             USBUART_1_ARB_EP_BASE.arbEp[ep].rwWa    = LO8(USBUART_1_EP[ep].buffOffset);
 723              		.loc 1 489 0
 724 013a B3F84E10 		ldrh	r1, [r3, #78]
 448:Generated_Source\PSoC5/USBUART_1_std.c ****         
 725              		.loc 1 448 0
 726 013e 594C     		ldr	r4, .L53+48
 489:Generated_Source\PSoC5/USBUART_1_std.c ****             USBUART_1_ARB_EP_BASE.arbEp[ep].rwWa    = LO8(USBUART_1_EP[ep].buffOffset);
 727              		.loc 1 489 0
 728 0140 C1F30721 		ubfx	r1, r1, #8, #8
 729 0144 D171     		strb	r1, [r2, #7]
 490:Generated_Source\PSoC5/USBUART_1_std.c ****             USBUART_1_ARB_EP_BASE.arbEp[ep].rwWaMsb = HI8(USBUART_1_EP[ep].buffOffset);
 730              		.loc 1 490 0
 731 0146 B3F84E10 		ldrh	r1, [r3, #78]
 448:Generated_Source\PSoC5/USBUART_1_std.c ****         
 732              		.loc 1 448 0
 733 014a 0C20     		movs	r0, #12
 490:Generated_Source\PSoC5/USBUART_1_std.c ****             USBUART_1_ARB_EP_BASE.arbEp[ep].rwWaMsb = HI8(USBUART_1_EP[ep].buffOffset);
ARM GAS  C:\Users\jon\AppData\Local\Temp\ccCLAX4y.s 			page 34


 734              		.loc 1 490 0
 735 014c C9B2     		uxtb	r1, r1
 736 014e 1171     		strb	r1, [r2, #4]
 491:Generated_Source\PSoC5/USBUART_1_std.c ****         #endif /* (CY_PSOC4) */
 737              		.loc 1 491 0
 738 0150 B3F84E10 		ldrh	r1, [r3, #78]
 488:Generated_Source\PSoC5/USBUART_1_std.c ****             USBUART_1_ARB_EP_BASE.arbEp[ep].rwRaMsb = HI8(USBUART_1_EP[ep].buffOffset);
 739              		.loc 1 488 0
 740 0154 484D     		ldr	r5, .L53+4
 491:Generated_Source\PSoC5/USBUART_1_std.c ****         #endif /* (CY_PSOC4) */
 741              		.loc 1 491 0
 742 0156 C1F30721 		ubfx	r1, r1, #8, #8
 743 015a 5171     		strb	r1, [r2, #5]
 744              	.LVL40:
 448:Generated_Source\PSoC5/USBUART_1_std.c ****         
 745              		.loc 1 448 0
 746 015c 2070     		strb	r0, [r4]
 455:Generated_Source\PSoC5/USBUART_1_std.c ****         {
 747              		.loc 1 455 0
 748 015e 93F85920 		ldrb	r2, [r3, #89]	@ zero_extendqisi2
 749 0162 002A     		cmp	r2, #0
 750 0164 48D1     		bne	.L46
 480:Generated_Source\PSoC5/USBUART_1_std.c ****         }
 751              		.loc 1 480 0
 752 0166 504A     		ldr	r2, .L53+52
 753 0168 8021     		movs	r1, #128
 754 016a 9170     		strb	r1, [r2, #2]
 755              	.L47:
 488:Generated_Source\PSoC5/USBUART_1_std.c ****             USBUART_1_ARB_EP_BASE.arbEp[ep].rwRaMsb = HI8(USBUART_1_EP[ep].buffOffset);
 756              		.loc 1 488 0
 757 016c B3F85A10 		ldrh	r1, [r3, #90]
 758 0170 4C4A     		ldr	r2, .L53+48
 759 0172 C9B2     		uxtb	r1, r1
 760 0174 9171     		strb	r1, [r2, #6]
 489:Generated_Source\PSoC5/USBUART_1_std.c ****             USBUART_1_ARB_EP_BASE.arbEp[ep].rwWa    = LO8(USBUART_1_EP[ep].buffOffset);
 761              		.loc 1 489 0
 762 0176 B3F85A10 		ldrh	r1, [r3, #90]
 448:Generated_Source\PSoC5/USBUART_1_std.c ****         
 763              		.loc 1 448 0
 764 017a 4C4C     		ldr	r4, .L53+56
 489:Generated_Source\PSoC5/USBUART_1_std.c ****             USBUART_1_ARB_EP_BASE.arbEp[ep].rwWa    = LO8(USBUART_1_EP[ep].buffOffset);
 765              		.loc 1 489 0
 766 017c C1F30721 		ubfx	r1, r1, #8, #8
 767 0180 D171     		strb	r1, [r2, #7]
 490:Generated_Source\PSoC5/USBUART_1_std.c ****             USBUART_1_ARB_EP_BASE.arbEp[ep].rwWaMsb = HI8(USBUART_1_EP[ep].buffOffset);
 768              		.loc 1 490 0
 769 0182 B3F85A10 		ldrh	r1, [r3, #90]
 448:Generated_Source\PSoC5/USBUART_1_std.c ****         
 770              		.loc 1 448 0
 771 0186 0C20     		movs	r0, #12
 490:Generated_Source\PSoC5/USBUART_1_std.c ****             USBUART_1_ARB_EP_BASE.arbEp[ep].rwWaMsb = HI8(USBUART_1_EP[ep].buffOffset);
 772              		.loc 1 490 0
 773 0188 C9B2     		uxtb	r1, r1
 774 018a 1171     		strb	r1, [r2, #4]
 491:Generated_Source\PSoC5/USBUART_1_std.c ****         #endif /* (CY_PSOC4) */
 775              		.loc 1 491 0
 776 018c B3F85A10 		ldrh	r1, [r3, #90]
ARM GAS  C:\Users\jon\AppData\Local\Temp\ccCLAX4y.s 			page 35


 488:Generated_Source\PSoC5/USBUART_1_std.c ****             USBUART_1_ARB_EP_BASE.arbEp[ep].rwRaMsb = HI8(USBUART_1_EP[ep].buffOffset);
 777              		.loc 1 488 0
 778 0190 394D     		ldr	r5, .L53+4
 491:Generated_Source\PSoC5/USBUART_1_std.c ****         #endif /* (CY_PSOC4) */
 779              		.loc 1 491 0
 780 0192 C1F30721 		ubfx	r1, r1, #8, #8
 781 0196 5171     		strb	r1, [r2, #5]
 782              	.LVL41:
 448:Generated_Source\PSoC5/USBUART_1_std.c ****         
 783              		.loc 1 448 0
 784 0198 2070     		strb	r0, [r4]
 455:Generated_Source\PSoC5/USBUART_1_std.c ****         {
 785              		.loc 1 455 0
 786 019a 93F86520 		ldrb	r2, [r3, #101]	@ zero_extendqisi2
 787 019e 3AB3     		cbz	r2, .L49
 457:Generated_Source\PSoC5/USBUART_1_std.c ****             {
 788              		.loc 1 457 0
 789 01a0 95F86420 		ldrb	r2, [r5, #100]	@ zero_extendqisi2
 790 01a4 12F0800F 		tst	r2, #128
 459:Generated_Source\PSoC5/USBUART_1_std.c ****                 
 791              		.loc 1 459 0
 792 01a8 414A     		ldr	r2, .L53+60
 468:Generated_Source\PSoC5/USBUART_1_std.c **** 
 793              		.loc 1 468 0
 794 01aa 0ABF     		itet	eq
 795 01ac 0821     		moveq	r1, #8
 459:Generated_Source\PSoC5/USBUART_1_std.c ****                 
 796              		.loc 1 459 0
 797 01ae 9070     		strbne	r0, [r2, #2]
 468:Generated_Source\PSoC5/USBUART_1_std.c **** 
 798              		.loc 1 468 0
 799 01b0 9170     		strbeq	r1, [r2, #2]
 800              	.L51:
 488:Generated_Source\PSoC5/USBUART_1_std.c ****             USBUART_1_ARB_EP_BASE.arbEp[ep].rwRaMsb = HI8(USBUART_1_EP[ep].buffOffset);
 801              		.loc 1 488 0 discriminator 2
 802 01b2 B3F86610 		ldrh	r1, [r3, #102]
 803 01b6 3D4A     		ldr	r2, .L53+56
 804 01b8 C9B2     		uxtb	r1, r1
 805 01ba 9171     		strb	r1, [r2, #6]
 489:Generated_Source\PSoC5/USBUART_1_std.c ****             USBUART_1_ARB_EP_BASE.arbEp[ep].rwWa    = LO8(USBUART_1_EP[ep].buffOffset);
 806              		.loc 1 489 0 discriminator 2
 807 01bc B3F86610 		ldrh	r1, [r3, #102]
 519:Generated_Source\PSoC5/USBUART_1_std.c **** }
 808              		.loc 1 519 0 discriminator 2
 809 01c0 3C48     		ldr	r0, .L53+64
 489:Generated_Source\PSoC5/USBUART_1_std.c ****             USBUART_1_ARB_EP_BASE.arbEp[ep].rwWa    = LO8(USBUART_1_EP[ep].buffOffset);
 810              		.loc 1 489 0 discriminator 2
 811 01c2 C1F30721 		ubfx	r1, r1, #8, #8
 812 01c6 D171     		strb	r1, [r2, #7]
 490:Generated_Source\PSoC5/USBUART_1_std.c ****             USBUART_1_ARB_EP_BASE.arbEp[ep].rwWaMsb = HI8(USBUART_1_EP[ep].buffOffset);
 813              		.loc 1 490 0 discriminator 2
 814 01c8 B3F86610 		ldrh	r1, [r3, #102]
 519:Generated_Source\PSoC5/USBUART_1_std.c **** }
 815              		.loc 1 519 0 discriminator 2
 816 01cc FF24     		movs	r4, #255
 490:Generated_Source\PSoC5/USBUART_1_std.c ****             USBUART_1_ARB_EP_BASE.arbEp[ep].rwWaMsb = HI8(USBUART_1_EP[ep].buffOffset);
 817              		.loc 1 490 0 discriminator 2
ARM GAS  C:\Users\jon\AppData\Local\Temp\ccCLAX4y.s 			page 36


 818 01ce C9B2     		uxtb	r1, r1
 819 01d0 1171     		strb	r1, [r2, #4]
 491:Generated_Source\PSoC5/USBUART_1_std.c ****         #endif /* (CY_PSOC4) */
 820              		.loc 1 491 0 discriminator 2
 821 01d2 B3F86630 		ldrh	r3, [r3, #102]
 822 01d6 C3F30723 		ubfx	r3, r3, #8, #8
 823 01da 5371     		strb	r3, [r2, #5]
 824              	.LVL42:
 519:Generated_Source\PSoC5/USBUART_1_std.c **** }
 825              		.loc 1 519 0 discriminator 2
 826 01dc 0470     		strb	r4, [r0]
 520:Generated_Source\PSoC5/USBUART_1_std.c **** 
 827              		.loc 1 520 0 discriminator 2
 828 01de 30BC     		pop	{r4, r5}
 829              		.cfi_remember_state
 830              		.cfi_restore 5
 831              		.cfi_restore 4
 832              		.cfi_def_cfa_offset 0
 833 01e0 7047     		bx	lr
 834              	.LVL43:
 835              	.L28:
 836              		.cfi_restore_state
 457:Generated_Source\PSoC5/USBUART_1_std.c ****             {
 837              		.loc 1 457 0
 838 01e2 197C     		ldrb	r1, [r3, #16]	@ zero_extendqisi2
 839 01e4 0906     		lsls	r1, r1, #24
 840 01e6 42D4     		bmi	.L30
 468:Generated_Source\PSoC5/USBUART_1_std.c **** 
 841              		.loc 1 468 0
 842 01e8 334A     		ldr	r2, .L53+68
 843 01ea 0821     		movs	r1, #8
 844 01ec 9170     		strb	r1, [r2, #2]
 845 01ee 16E7     		b	.L29
 846              	.LVL44:
 847              	.L49:
 480:Generated_Source\PSoC5/USBUART_1_std.c ****         }
 848              		.loc 1 480 0
 849 01f0 2F4A     		ldr	r2, .L53+60
 850 01f2 8021     		movs	r1, #128
 851 01f4 9170     		strb	r1, [r2, #2]
 852 01f6 DCE7     		b	.L51
 853              	.LVL45:
 854              	.L46:
 457:Generated_Source\PSoC5/USBUART_1_std.c ****             {
 855              		.loc 1 457 0
 856 01f8 95F85820 		ldrb	r2, [r5, #88]	@ zero_extendqisi2
 857 01fc 12F0800F 		tst	r2, #128
 459:Generated_Source\PSoC5/USBUART_1_std.c ****                 
 858              		.loc 1 459 0
 859 0200 294A     		ldr	r2, .L53+52
 468:Generated_Source\PSoC5/USBUART_1_std.c **** 
 860              		.loc 1 468 0
 861 0202 06BF     		itte	eq
 862 0204 0821     		moveq	r1, #8
 863 0206 9170     		strbeq	r1, [r2, #2]
 459:Generated_Source\PSoC5/USBUART_1_std.c ****                 
 864              		.loc 1 459 0
ARM GAS  C:\Users\jon\AppData\Local\Temp\ccCLAX4y.s 			page 37


 865 0208 9070     		strbne	r0, [r2, #2]
 866 020a AFE7     		b	.L47
 867              	.LVL46:
 868              	.L43:
 457:Generated_Source\PSoC5/USBUART_1_std.c ****             {
 869              		.loc 1 457 0
 870 020c 95F84C20 		ldrb	r2, [r5, #76]	@ zero_extendqisi2
 871 0210 12F0800F 		tst	r2, #128
 459:Generated_Source\PSoC5/USBUART_1_std.c ****                 
 872              		.loc 1 459 0
 873 0214 224A     		ldr	r2, .L53+44
 468:Generated_Source\PSoC5/USBUART_1_std.c **** 
 874              		.loc 1 468 0
 875 0216 06BF     		itte	eq
 876 0218 0821     		moveq	r1, #8
 877 021a 9170     		strbeq	r1, [r2, #2]
 459:Generated_Source\PSoC5/USBUART_1_std.c ****                 
 878              		.loc 1 459 0
 879 021c 9070     		strbne	r0, [r2, #2]
 880 021e 87E7     		b	.L44
 881              	.LVL47:
 882              	.L40:
 457:Generated_Source\PSoC5/USBUART_1_std.c ****             {
 883              		.loc 1 457 0
 884 0220 95F84020 		ldrb	r2, [r5, #64]	@ zero_extendqisi2
 885 0224 12F0800F 		tst	r2, #128
 459:Generated_Source\PSoC5/USBUART_1_std.c ****                 
 886              		.loc 1 459 0
 887 0228 1B4A     		ldr	r2, .L53+36
 468:Generated_Source\PSoC5/USBUART_1_std.c **** 
 888              		.loc 1 468 0
 889 022a 06BF     		itte	eq
 890 022c 0821     		moveq	r1, #8
 891 022e 9170     		strbeq	r1, [r2, #2]
 459:Generated_Source\PSoC5/USBUART_1_std.c ****                 
 892              		.loc 1 459 0
 893 0230 9070     		strbne	r0, [r2, #2]
 894 0232 5FE7     		b	.L41
 895              	.LVL48:
 896              	.L37:
 457:Generated_Source\PSoC5/USBUART_1_std.c ****             {
 897              		.loc 1 457 0
 898 0234 95F83420 		ldrb	r2, [r5, #52]	@ zero_extendqisi2
 899 0238 12F0800F 		tst	r2, #128
 459:Generated_Source\PSoC5/USBUART_1_std.c ****                 
 900              		.loc 1 459 0
 901 023c 144A     		ldr	r2, .L53+28
 468:Generated_Source\PSoC5/USBUART_1_std.c **** 
 902              		.loc 1 468 0
 903 023e 06BF     		itte	eq
 904 0240 0821     		moveq	r1, #8
 905 0242 9170     		strbeq	r1, [r2, #2]
 459:Generated_Source\PSoC5/USBUART_1_std.c ****                 
 906              		.loc 1 459 0
 907 0244 9070     		strbne	r0, [r2, #2]
 908 0246 3AE7     		b	.L38
 909              	.LVL49:
ARM GAS  C:\Users\jon\AppData\Local\Temp\ccCLAX4y.s 			page 38


 910              	.L34:
 457:Generated_Source\PSoC5/USBUART_1_std.c ****             {
 911              		.loc 1 457 0
 912 0248 95F82820 		ldrb	r2, [r5, #40]	@ zero_extendqisi2
 913 024c 12F0800F 		tst	r2, #128
 459:Generated_Source\PSoC5/USBUART_1_std.c ****                 
 914              		.loc 1 459 0
 915 0250 0D4A     		ldr	r2, .L53+20
 468:Generated_Source\PSoC5/USBUART_1_std.c **** 
 916              		.loc 1 468 0
 917 0252 06BF     		itte	eq
 918 0254 0821     		moveq	r1, #8
 919 0256 9170     		strbeq	r1, [r2, #2]
 459:Generated_Source\PSoC5/USBUART_1_std.c ****                 
 920              		.loc 1 459 0
 921 0258 9070     		strbne	r0, [r2, #2]
 922 025a 15E7     		b	.L35
 923              	.LVL50:
 924              	.L31:
 457:Generated_Source\PSoC5/USBUART_1_std.c ****             {
 925              		.loc 1 457 0
 926 025c 2A7F     		ldrb	r2, [r5, #28]	@ zero_extendqisi2
 927 025e 12F0800F 		tst	r2, #128
 459:Generated_Source\PSoC5/USBUART_1_std.c ****                 
 928              		.loc 1 459 0
 929 0262 074A     		ldr	r2, .L53+12
 468:Generated_Source\PSoC5/USBUART_1_std.c **** 
 930              		.loc 1 468 0
 931 0264 06BF     		itte	eq
 932 0266 0821     		moveq	r1, #8
 933 0268 9170     		strbeq	r1, [r2, #2]
 459:Generated_Source\PSoC5/USBUART_1_std.c ****                 
 934              		.loc 1 459 0
 935 026a 9070     		strbne	r0, [r2, #2]
 936 026c F1E6     		b	.L32
 937              	.LVL51:
 938              	.L30:
 939 026e 1249     		ldr	r1, .L53+68
 940 0270 8A70     		strb	r2, [r1, #2]
 941 0272 D4E6     		b	.L29
 942              	.L54:
 943              		.align	2
 944              	.L53:
 945 0274 80600040 		.word	1073766528
 946 0278 00000000 		.word	USBUART_1_EP
 947 027c 90600040 		.word	1073766544
 948 0280 1C600040 		.word	1073766428
 949 0284 A0600040 		.word	1073766560
 950 0288 2C600040 		.word	1073766444
 951 028c B0600040 		.word	1073766576
 952 0290 3C600040 		.word	1073766460
 953 0294 C0600040 		.word	1073766592
 954 0298 4C600040 		.word	1073766476
 955 029c D0600040 		.word	1073766608
 956 02a0 5C600040 		.word	1073766492
 957 02a4 E0600040 		.word	1073766624
 958 02a8 6C600040 		.word	1073766508
ARM GAS  C:\Users\jon\AppData\Local\Temp\ccCLAX4y.s 			page 39


 959 02ac F0600040 		.word	1073766640
 960 02b0 7C600040 		.word	1073766524
 961 02b4 0A600040 		.word	1073766410
 962 02b8 0C600040 		.word	1073766412
 963              		.cfi_endproc
 964              	.LFE2:
 965              		.size	USBUART_1_ConfigReg, .-USBUART_1_ConfigReg
 966              		.section	.text.USBUART_1_EpStateInit,"ax",%progbits
 967              		.align	2
 968              		.global	USBUART_1_EpStateInit
 969              		.thumb
 970              		.thumb_func
 971              		.type	USBUART_1_EpStateInit, %function
 972              	USBUART_1_EpStateInit:
 973              	.LFB3:
 533:Generated_Source\PSoC5/USBUART_1_std.c ****     uint8 i;
 974              		.loc 1 533 0
 975              		.cfi_startproc
 976              		@ args = 0, pretend = 0, frame = 0
 977              		@ frame_needed = 0, uses_anonymous_args = 0
 978              		@ link register save eliminated.
 979              	.LVL52:
 538:Generated_Source\PSoC5/USBUART_1_std.c ****         {
 980              		.loc 1 538 0
 981 0000 224B     		ldr	r3, .L72
 982 0002 1A7C     		ldrb	r2, [r3, #16]	@ zero_extendqisi2
 983 0004 1206     		lsls	r2, r2, #24
 546:Generated_Source\PSoC5/USBUART_1_std.c ****         }
 984              		.loc 1 546 0
 985 0006 54BF     		ite	pl
 986 0008 0022     		movpl	r2, #0
 541:Generated_Source\PSoC5/USBUART_1_std.c ****         }
 987              		.loc 1 541 0
 988 000a 0122     		movmi	r2, #1
 989 000c 5A73     		strb	r2, [r3, #13]
 538:Generated_Source\PSoC5/USBUART_1_std.c ****         {
 990              		.loc 1 538 0
 991 000e 197F     		ldrb	r1, [r3, #28]	@ zero_extendqisi2
 992 0010 1E4A     		ldr	r2, .L72
 993 0012 0806     		lsls	r0, r1, #24
 546:Generated_Source\PSoC5/USBUART_1_std.c ****         }
 994              		.loc 1 546 0
 995 0014 54BF     		ite	pl
 996 0016 0021     		movpl	r1, #0
 541:Generated_Source\PSoC5/USBUART_1_std.c ****         }
 997              		.loc 1 541 0
 998 0018 0121     		movmi	r1, #1
 999 001a 5176     		strb	r1, [r2, #25]
 538:Generated_Source\PSoC5/USBUART_1_std.c ****         {
 1000              		.loc 1 538 0
 1001 001c 93F82810 		ldrb	r1, [r3, #40]	@ zero_extendqisi2
 1002 0020 1A4A     		ldr	r2, .L72
 1003 0022 0906     		lsls	r1, r1, #24
 546:Generated_Source\PSoC5/USBUART_1_std.c ****         }
 1004              		.loc 1 546 0
 1005 0024 54BF     		ite	pl
 1006 0026 0021     		movpl	r1, #0
ARM GAS  C:\Users\jon\AppData\Local\Temp\ccCLAX4y.s 			page 40


 541:Generated_Source\PSoC5/USBUART_1_std.c ****         }
 1007              		.loc 1 541 0
 1008 0028 0121     		movmi	r1, #1
 1009 002a 82F82510 		strb	r1, [r2, #37]
 538:Generated_Source\PSoC5/USBUART_1_std.c ****         {
 1010              		.loc 1 538 0
 1011 002e 93F83410 		ldrb	r1, [r3, #52]	@ zero_extendqisi2
 1012 0032 164A     		ldr	r2, .L72
 1013 0034 0806     		lsls	r0, r1, #24
 546:Generated_Source\PSoC5/USBUART_1_std.c ****         }
 1014              		.loc 1 546 0
 1015 0036 54BF     		ite	pl
 1016 0038 0021     		movpl	r1, #0
 541:Generated_Source\PSoC5/USBUART_1_std.c ****         }
 1017              		.loc 1 541 0
 1018 003a 0121     		movmi	r1, #1
 1019 003c 82F83110 		strb	r1, [r2, #49]
 538:Generated_Source\PSoC5/USBUART_1_std.c ****         {
 1020              		.loc 1 538 0
 1021 0040 93F84010 		ldrb	r1, [r3, #64]	@ zero_extendqisi2
 1022 0044 114A     		ldr	r2, .L72
 1023 0046 0906     		lsls	r1, r1, #24
 546:Generated_Source\PSoC5/USBUART_1_std.c ****         }
 1024              		.loc 1 546 0
 1025 0048 54BF     		ite	pl
 1026 004a 0021     		movpl	r1, #0
 541:Generated_Source\PSoC5/USBUART_1_std.c ****         }
 1027              		.loc 1 541 0
 1028 004c 0121     		movmi	r1, #1
 1029 004e 82F83D10 		strb	r1, [r2, #61]
 538:Generated_Source\PSoC5/USBUART_1_std.c ****         {
 1030              		.loc 1 538 0
 1031 0052 93F84C10 		ldrb	r1, [r3, #76]	@ zero_extendqisi2
 1032 0056 0D4A     		ldr	r2, .L72
 1033 0058 0806     		lsls	r0, r1, #24
 546:Generated_Source\PSoC5/USBUART_1_std.c ****         }
 1034              		.loc 1 546 0
 1035 005a 54BF     		ite	pl
 1036 005c 0021     		movpl	r1, #0
 541:Generated_Source\PSoC5/USBUART_1_std.c ****         }
 1037              		.loc 1 541 0
 1038 005e 0121     		movmi	r1, #1
 1039 0060 82F84910 		strb	r1, [r2, #73]
 538:Generated_Source\PSoC5/USBUART_1_std.c ****         {
 1040              		.loc 1 538 0
 1041 0064 93F85810 		ldrb	r1, [r3, #88]	@ zero_extendqisi2
 1042 0068 084A     		ldr	r2, .L72
 1043 006a 0906     		lsls	r1, r1, #24
 546:Generated_Source\PSoC5/USBUART_1_std.c ****         }
 1044              		.loc 1 546 0
 1045 006c 54BF     		ite	pl
 1046 006e 0021     		movpl	r1, #0
 541:Generated_Source\PSoC5/USBUART_1_std.c ****         }
 1047              		.loc 1 541 0
 1048 0070 0121     		movmi	r1, #1
 1049 0072 82F85510 		strb	r1, [r2, #85]
 538:Generated_Source\PSoC5/USBUART_1_std.c ****         {
ARM GAS  C:\Users\jon\AppData\Local\Temp\ccCLAX4y.s 			page 41


 1050              		.loc 1 538 0
 1051 0076 93F86420 		ldrb	r2, [r3, #100]	@ zero_extendqisi2
 1052 007a 044B     		ldr	r3, .L72
 1053 007c 1206     		lsls	r2, r2, #24
 541:Generated_Source\PSoC5/USBUART_1_std.c ****         }
 1054              		.loc 1 541 0
 1055 007e 4CBF     		ite	mi
 1056 0080 0122     		movmi	r2, #1
 546:Generated_Source\PSoC5/USBUART_1_std.c ****         }
 1057              		.loc 1 546 0
 1058 0082 0022     		movpl	r2, #0
 1059 0084 83F86120 		strb	r2, [r3, #97]
 1060              	.LVL53:
 1061 0088 7047     		bx	lr
 1062              	.L73:
 1063 008a 00BF     		.align	2
 1064              	.L72:
 1065 008c 00000000 		.word	USBUART_1_EP
 1066              		.cfi_endproc
 1067              	.LFE3:
 1068              		.size	USBUART_1_EpStateInit, .-USBUART_1_EpStateInit
 1069              		.section	.text.USBUART_1_Config,"ax",%progbits
 1070              		.align	2
 1071              		.global	USBUART_1_Config
 1072              		.thumb
 1073              		.thumb_func
 1074              		.type	USBUART_1_Config, %function
 1075              	USBUART_1_Config:
 1076              	.LFB4:
 571:Generated_Source\PSoC5/USBUART_1_std.c ****     uint8 ep;
 1077              		.loc 1 571 0
 1078              		.cfi_startproc
 1079              		@ args = 0, pretend = 0, frame = 16
 1080              		@ frame_needed = 0, uses_anonymous_args = 0
 1081              	.LVL54:
 1082 0000 2DE9F04F 		push	{r4, r5, r6, r7, r8, r9, r10, fp, lr}
 1083              		.cfi_def_cfa_offset 36
 1084              		.cfi_offset 4, -36
 1085              		.cfi_offset 5, -32
 1086              		.cfi_offset 6, -28
 1087              		.cfi_offset 7, -24
 1088              		.cfi_offset 8, -20
 1089              		.cfi_offset 9, -16
 1090              		.cfi_offset 10, -12
 1091              		.cfi_offset 11, -8
 1092              		.cfi_offset 14, -4
 588:Generated_Source\PSoC5/USBUART_1_std.c ****         USBUART_1_EP[ep].hwEpState  = 0u;
 1093              		.loc 1 588 0
 1094 0004 594D     		ldr	r5, .L137
 1095 0006 0023     		movs	r3, #0
 1096 0008 2B70     		strb	r3, [r5]
 571:Generated_Source\PSoC5/USBUART_1_std.c ****     uint8 ep;
 1097              		.loc 1 571 0
 1098 000a 85B0     		sub	sp, sp, #20
 1099              		.cfi_def_cfa_offset 56
 589:Generated_Source\PSoC5/USBUART_1_std.c ****         USBUART_1_EP[ep].epToggle   = 0u;
 1100              		.loc 1 589 0
ARM GAS  C:\Users\jon\AppData\Local\Temp\ccCLAX4y.s 			page 42


 1101 000c AB70     		strb	r3, [r5, #2]
 590:Generated_Source\PSoC5/USBUART_1_std.c ****         USBUART_1_EP[ep].bufferSize = 0u;
 1102              		.loc 1 590 0
 1103 000e EB70     		strb	r3, [r5, #3]
 591:Generated_Source\PSoC5/USBUART_1_std.c ****         USBUART_1_EP[ep].interface  = 0u;
 1104              		.loc 1 591 0
 1105 0010 2B81     		strh	r3, [r5, #8]	@ movhi
 592:Generated_Source\PSoC5/USBUART_1_std.c ****         USBUART_1_EP[ep].apiEpState = USBUART_1_NO_EVENT_PENDING;
 1106              		.loc 1 592 0
 1107 0012 AB72     		strb	r3, [r5, #10]
 593:Generated_Source\PSoC5/USBUART_1_std.c ****         USBUART_1_EP[ep].epMode     = USBUART_1_MODE_DISABLE;   
 1108              		.loc 1 593 0
 1109 0014 6B70     		strb	r3, [r5, #1]
 594:Generated_Source\PSoC5/USBUART_1_std.c ****     }
 1110              		.loc 1 594 0
 1111 0016 6B71     		strb	r3, [r5, #5]
 1112              	.LVL55:
 588:Generated_Source\PSoC5/USBUART_1_std.c ****         USBUART_1_EP[ep].hwEpState  = 0u;
 1113              		.loc 1 588 0
 1114 0018 2B73     		strb	r3, [r5, #12]
 589:Generated_Source\PSoC5/USBUART_1_std.c ****         USBUART_1_EP[ep].epToggle   = 0u;
 1115              		.loc 1 589 0
 1116 001a AB73     		strb	r3, [r5, #14]
 590:Generated_Source\PSoC5/USBUART_1_std.c ****         USBUART_1_EP[ep].bufferSize = 0u;
 1117              		.loc 1 590 0
 1118 001c EB73     		strb	r3, [r5, #15]
 591:Generated_Source\PSoC5/USBUART_1_std.c ****         USBUART_1_EP[ep].interface  = 0u;
 1119              		.loc 1 591 0
 1120 001e AB82     		strh	r3, [r5, #20]	@ movhi
 592:Generated_Source\PSoC5/USBUART_1_std.c ****         USBUART_1_EP[ep].apiEpState = USBUART_1_NO_EVENT_PENDING;
 1121              		.loc 1 592 0
 1122 0020 AB75     		strb	r3, [r5, #22]
 593:Generated_Source\PSoC5/USBUART_1_std.c ****         USBUART_1_EP[ep].epMode     = USBUART_1_MODE_DISABLE;   
 1123              		.loc 1 593 0
 1124 0022 6B73     		strb	r3, [r5, #13]
 594:Generated_Source\PSoC5/USBUART_1_std.c ****     }
 1125              		.loc 1 594 0
 1126 0024 6B74     		strb	r3, [r5, #17]
 1127              	.LVL56:
 588:Generated_Source\PSoC5/USBUART_1_std.c ****         USBUART_1_EP[ep].hwEpState  = 0u;
 1128              		.loc 1 588 0
 1129 0026 2B76     		strb	r3, [r5, #24]
 589:Generated_Source\PSoC5/USBUART_1_std.c ****         USBUART_1_EP[ep].epToggle   = 0u;
 1130              		.loc 1 589 0
 1131 0028 AB76     		strb	r3, [r5, #26]
 590:Generated_Source\PSoC5/USBUART_1_std.c ****         USBUART_1_EP[ep].bufferSize = 0u;
 1132              		.loc 1 590 0
 1133 002a EB76     		strb	r3, [r5, #27]
 591:Generated_Source\PSoC5/USBUART_1_std.c ****         USBUART_1_EP[ep].interface  = 0u;
 1134              		.loc 1 591 0
 1135 002c 2B84     		strh	r3, [r5, #32]	@ movhi
 592:Generated_Source\PSoC5/USBUART_1_std.c ****         USBUART_1_EP[ep].apiEpState = USBUART_1_NO_EVENT_PENDING;
 1136              		.loc 1 592 0
 1137 002e 85F82230 		strb	r3, [r5, #34]
 593:Generated_Source\PSoC5/USBUART_1_std.c ****         USBUART_1_EP[ep].epMode     = USBUART_1_MODE_DISABLE;   
 1138              		.loc 1 593 0
 1139 0032 6B76     		strb	r3, [r5, #25]
ARM GAS  C:\Users\jon\AppData\Local\Temp\ccCLAX4y.s 			page 43


 594:Generated_Source\PSoC5/USBUART_1_std.c ****     }
 1140              		.loc 1 594 0
 1141 0034 6B77     		strb	r3, [r5, #29]
 1142              	.LVL57:
 588:Generated_Source\PSoC5/USBUART_1_std.c ****         USBUART_1_EP[ep].hwEpState  = 0u;
 1143              		.loc 1 588 0
 1144 0036 85F82430 		strb	r3, [r5, #36]
 589:Generated_Source\PSoC5/USBUART_1_std.c ****         USBUART_1_EP[ep].epToggle   = 0u;
 1145              		.loc 1 589 0
 1146 003a 85F82630 		strb	r3, [r5, #38]
 590:Generated_Source\PSoC5/USBUART_1_std.c ****         USBUART_1_EP[ep].bufferSize = 0u;
 1147              		.loc 1 590 0
 1148 003e 85F82730 		strb	r3, [r5, #39]
 591:Generated_Source\PSoC5/USBUART_1_std.c ****         USBUART_1_EP[ep].interface  = 0u;
 1149              		.loc 1 591 0
 1150 0042 AB85     		strh	r3, [r5, #44]	@ movhi
 592:Generated_Source\PSoC5/USBUART_1_std.c ****         USBUART_1_EP[ep].apiEpState = USBUART_1_NO_EVENT_PENDING;
 1151              		.loc 1 592 0
 1152 0044 85F82E30 		strb	r3, [r5, #46]
 593:Generated_Source\PSoC5/USBUART_1_std.c ****         USBUART_1_EP[ep].epMode     = USBUART_1_MODE_DISABLE;   
 1153              		.loc 1 593 0
 1154 0048 85F82530 		strb	r3, [r5, #37]
 594:Generated_Source\PSoC5/USBUART_1_std.c ****     }
 1155              		.loc 1 594 0
 1156 004c 85F82930 		strb	r3, [r5, #41]
 1157              	.LVL58:
 588:Generated_Source\PSoC5/USBUART_1_std.c ****         USBUART_1_EP[ep].hwEpState  = 0u;
 1158              		.loc 1 588 0
 1159 0050 85F83030 		strb	r3, [r5, #48]
 589:Generated_Source\PSoC5/USBUART_1_std.c ****         USBUART_1_EP[ep].epToggle   = 0u;
 1160              		.loc 1 589 0
 1161 0054 85F83230 		strb	r3, [r5, #50]
 590:Generated_Source\PSoC5/USBUART_1_std.c ****         USBUART_1_EP[ep].bufferSize = 0u;
 1162              		.loc 1 590 0
 1163 0058 85F83330 		strb	r3, [r5, #51]
 591:Generated_Source\PSoC5/USBUART_1_std.c ****         USBUART_1_EP[ep].interface  = 0u;
 1164              		.loc 1 591 0
 1165 005c 2B87     		strh	r3, [r5, #56]	@ movhi
 592:Generated_Source\PSoC5/USBUART_1_std.c ****         USBUART_1_EP[ep].apiEpState = USBUART_1_NO_EVENT_PENDING;
 1166              		.loc 1 592 0
 1167 005e 85F83A30 		strb	r3, [r5, #58]
 593:Generated_Source\PSoC5/USBUART_1_std.c ****         USBUART_1_EP[ep].epMode     = USBUART_1_MODE_DISABLE;   
 1168              		.loc 1 593 0
 1169 0062 85F83130 		strb	r3, [r5, #49]
 594:Generated_Source\PSoC5/USBUART_1_std.c ****     }
 1170              		.loc 1 594 0
 1171 0066 85F83530 		strb	r3, [r5, #53]
 1172              	.LVL59:
 588:Generated_Source\PSoC5/USBUART_1_std.c ****         USBUART_1_EP[ep].hwEpState  = 0u;
 1173              		.loc 1 588 0
 1174 006a 85F83C30 		strb	r3, [r5, #60]
 589:Generated_Source\PSoC5/USBUART_1_std.c ****         USBUART_1_EP[ep].epToggle   = 0u;
 1175              		.loc 1 589 0
 1176 006e 85F83E30 		strb	r3, [r5, #62]
 590:Generated_Source\PSoC5/USBUART_1_std.c ****         USBUART_1_EP[ep].bufferSize = 0u;
 1177              		.loc 1 590 0
 1178 0072 85F83F30 		strb	r3, [r5, #63]
ARM GAS  C:\Users\jon\AppData\Local\Temp\ccCLAX4y.s 			page 44


 591:Generated_Source\PSoC5/USBUART_1_std.c ****         USBUART_1_EP[ep].interface  = 0u;
 1179              		.loc 1 591 0
 1180 0076 A5F84430 		strh	r3, [r5, #68]	@ movhi
 592:Generated_Source\PSoC5/USBUART_1_std.c ****         USBUART_1_EP[ep].apiEpState = USBUART_1_NO_EVENT_PENDING;
 1181              		.loc 1 592 0
 1182 007a 85F84630 		strb	r3, [r5, #70]
 593:Generated_Source\PSoC5/USBUART_1_std.c ****         USBUART_1_EP[ep].epMode     = USBUART_1_MODE_DISABLE;   
 1183              		.loc 1 593 0
 1184 007e 85F83D30 		strb	r3, [r5, #61]
 594:Generated_Source\PSoC5/USBUART_1_std.c ****     }
 1185              		.loc 1 594 0
 1186 0082 85F84130 		strb	r3, [r5, #65]
 1187              	.LVL60:
 588:Generated_Source\PSoC5/USBUART_1_std.c ****         USBUART_1_EP[ep].hwEpState  = 0u;
 1188              		.loc 1 588 0
 1189 0086 85F84830 		strb	r3, [r5, #72]
 589:Generated_Source\PSoC5/USBUART_1_std.c ****         USBUART_1_EP[ep].epToggle   = 0u;
 1190              		.loc 1 589 0
 1191 008a 85F84A30 		strb	r3, [r5, #74]
 590:Generated_Source\PSoC5/USBUART_1_std.c ****         USBUART_1_EP[ep].bufferSize = 0u;
 1192              		.loc 1 590 0
 1193 008e 85F84B30 		strb	r3, [r5, #75]
 591:Generated_Source\PSoC5/USBUART_1_std.c ****         USBUART_1_EP[ep].interface  = 0u;
 1194              		.loc 1 591 0
 1195 0092 A5F85030 		strh	r3, [r5, #80]	@ movhi
 592:Generated_Source\PSoC5/USBUART_1_std.c ****         USBUART_1_EP[ep].apiEpState = USBUART_1_NO_EVENT_PENDING;
 1196              		.loc 1 592 0
 1197 0096 85F85230 		strb	r3, [r5, #82]
 593:Generated_Source\PSoC5/USBUART_1_std.c ****         USBUART_1_EP[ep].epMode     = USBUART_1_MODE_DISABLE;   
 1198              		.loc 1 593 0
 1199 009a 85F84930 		strb	r3, [r5, #73]
 594:Generated_Source\PSoC5/USBUART_1_std.c ****     }
 1200              		.loc 1 594 0
 1201 009e 85F84D30 		strb	r3, [r5, #77]
 1202              	.LVL61:
 588:Generated_Source\PSoC5/USBUART_1_std.c ****         USBUART_1_EP[ep].hwEpState  = 0u;
 1203              		.loc 1 588 0
 1204 00a2 85F85430 		strb	r3, [r5, #84]
 589:Generated_Source\PSoC5/USBUART_1_std.c ****         USBUART_1_EP[ep].epToggle   = 0u;
 1205              		.loc 1 589 0
 1206 00a6 85F85630 		strb	r3, [r5, #86]
 590:Generated_Source\PSoC5/USBUART_1_std.c ****         USBUART_1_EP[ep].bufferSize = 0u;
 1207              		.loc 1 590 0
 1208 00aa 85F85730 		strb	r3, [r5, #87]
 591:Generated_Source\PSoC5/USBUART_1_std.c ****         USBUART_1_EP[ep].interface  = 0u;
 1209              		.loc 1 591 0
 1210 00ae A5F85C30 		strh	r3, [r5, #92]	@ movhi
 592:Generated_Source\PSoC5/USBUART_1_std.c ****         USBUART_1_EP[ep].apiEpState = USBUART_1_NO_EVENT_PENDING;
 1211              		.loc 1 592 0
 1212 00b2 85F85E30 		strb	r3, [r5, #94]
 593:Generated_Source\PSoC5/USBUART_1_std.c ****         USBUART_1_EP[ep].epMode     = USBUART_1_MODE_DISABLE;   
 1213              		.loc 1 593 0
 1214 00b6 85F85530 		strb	r3, [r5, #85]
 594:Generated_Source\PSoC5/USBUART_1_std.c ****     }
 1215              		.loc 1 594 0
 1216 00ba 85F85930 		strb	r3, [r5, #89]
 1217              	.LVL62:
ARM GAS  C:\Users\jon\AppData\Local\Temp\ccCLAX4y.s 			page 45


 588:Generated_Source\PSoC5/USBUART_1_std.c ****         USBUART_1_EP[ep].hwEpState  = 0u;
 1218              		.loc 1 588 0
 1219 00be 85F86030 		strb	r3, [r5, #96]
 589:Generated_Source\PSoC5/USBUART_1_std.c ****         USBUART_1_EP[ep].epToggle   = 0u;
 1220              		.loc 1 589 0
 1221 00c2 85F86230 		strb	r3, [r5, #98]
 590:Generated_Source\PSoC5/USBUART_1_std.c ****         USBUART_1_EP[ep].bufferSize = 0u;
 1222              		.loc 1 590 0
 1223 00c6 85F86330 		strb	r3, [r5, #99]
 591:Generated_Source\PSoC5/USBUART_1_std.c ****         USBUART_1_EP[ep].interface  = 0u;
 1224              		.loc 1 591 0
 1225 00ca A5F86830 		strh	r3, [r5, #104]	@ movhi
 592:Generated_Source\PSoC5/USBUART_1_std.c ****         USBUART_1_EP[ep].apiEpState = USBUART_1_NO_EVENT_PENDING;
 1226              		.loc 1 592 0
 1227 00ce 85F86A30 		strb	r3, [r5, #106]
 593:Generated_Source\PSoC5/USBUART_1_std.c ****         USBUART_1_EP[ep].epMode     = USBUART_1_MODE_DISABLE;   
 1228              		.loc 1 593 0
 1229 00d2 85F86130 		strb	r3, [r5, #97]
 594:Generated_Source\PSoC5/USBUART_1_std.c ****     }
 1230              		.loc 1 594 0
 1231 00d6 85F86530 		strb	r3, [r5, #101]
 1232              	.LVL63:
 598:Generated_Source\PSoC5/USBUART_1_std.c ****     {
 1233              		.loc 1 598 0
 1234 00da 28B1     		cbz	r0, .L75
 1235              	.LVL64:
 602:Generated_Source\PSoC5/USBUART_1_std.c ****             USBUART_1_interfaceSettingLast[i] = 0u;
 1236              		.loc 1 602 0 discriminator 1
 1237 00dc 2449     		ldr	r1, .L137+4
 603:Generated_Source\PSoC5/USBUART_1_std.c ****         }
 1238              		.loc 1 603 0 discriminator 1
 1239 00de 254A     		ldr	r2, .L137+8
 602:Generated_Source\PSoC5/USBUART_1_std.c ****             USBUART_1_interfaceSettingLast[i] = 0u;
 1240              		.loc 1 602 0 discriminator 1
 1241 00e0 0B70     		strb	r3, [r1]
 603:Generated_Source\PSoC5/USBUART_1_std.c ****         }
 1242              		.loc 1 603 0 discriminator 1
 1243 00e2 1370     		strb	r3, [r2]
 1244              	.LVL65:
 602:Generated_Source\PSoC5/USBUART_1_std.c ****             USBUART_1_interfaceSettingLast[i] = 0u;
 1245              		.loc 1 602 0 discriminator 1
 1246 00e4 4B70     		strb	r3, [r1, #1]
 603:Generated_Source\PSoC5/USBUART_1_std.c ****         }
 1247              		.loc 1 603 0 discriminator 1
 1248 00e6 5370     		strb	r3, [r2, #1]
 1249              	.LVL66:
 1250              	.L75:
 608:Generated_Source\PSoC5/USBUART_1_std.c ****     {
 1251              		.loc 1 608 0
 1252 00e8 234B     		ldr	r3, .L137+12
 1253 00ea 1B78     		ldrb	r3, [r3]	@ zero_extendqisi2
 1254 00ec 002B     		cmp	r3, #0
 1255 00ee 00F04582 		beq	.L74
 1256              	.LVL67:
 1257              	.LBB43:
 1258              	.LBB44:
 1259              	.LBB45:
ARM GAS  C:\Users\jon\AppData\Local\Temp\ccCLAX4y.s 			page 46


 614:Generated_Source\PSoC5/USBUART_1_std.c ****         
 1260              		.loc 1 614 0
 1261 00f2 214B     		ldr	r3, .L137+12
 1262              	.LBB46:
 1263              	.LBB47:
 948:Generated_Source\PSoC5/USBUART_1_std.c **** 
 1264              		.loc 1 948 0
 1265 00f4 214A     		ldr	r2, .L137+16
 1266              	.LBE47:
 1267              	.LBE46:
 614:Generated_Source\PSoC5/USBUART_1_std.c ****         
 1268              		.loc 1 614 0
 1269 00f6 1B78     		ldrb	r3, [r3]	@ zero_extendqisi2
 1270              	.LBB51:
 1271              	.LBB48:
 948:Generated_Source\PSoC5/USBUART_1_std.c **** 
 1272              		.loc 1 948 0
 1273 00f8 2149     		ldr	r1, .L137+20
 1274 00fa 1278     		ldrb	r2, [r2]	@ zero_extendqisi2
 1275              	.LBE48:
 1276              	.LBE51:
 614:Generated_Source\PSoC5/USBUART_1_std.c ****         
 1277              		.loc 1 614 0
 1278 00fc 013B     		subs	r3, r3, #1
 1279              	.LBB52:
 1280              	.LBB49:
 948:Generated_Source\PSoC5/USBUART_1_std.c **** 
 1281              		.loc 1 948 0
 1282 00fe 01EBC202 		add	r2, r1, r2, lsl #3
 1283 0102 5268     		ldr	r2, [r2, #4]
 1284              	.LBE49:
 1285              	.LBE52:
 614:Generated_Source\PSoC5/USBUART_1_std.c ****         
 1286              		.loc 1 614 0
 1287 0104 DBB2     		uxtb	r3, r3
 1288              	.LVL68:
 1289              	.LBB53:
 1290              	.LBB50:
 957:Generated_Source\PSoC5/USBUART_1_std.c ****     {
 1291              		.loc 1 957 0
 1292 0106 117C     		ldrb	r1, [r2, #16]	@ zero_extendqisi2
 1293 0108 9942     		cmp	r1, r3
 1294 010a 40F23A82 		bls	.L77
 1295              		.loc 1 963 0
 1296 010e 02EBC303 		add	r3, r2, r3, lsl #3
 1297              	.LVL69:
 1298 0112 D3F814A0 		ldr	r10, [r3, #20]
 1299              	.LVL70:
 1300              	.LBE50:
 1301              	.LBE53:
 620:Generated_Source\PSoC5/USBUART_1_std.c ****         }
 1302              		.loc 1 620 0
 1303 0116 1B4A     		ldr	r2, .L137+24
 618:Generated_Source\PSoC5/USBUART_1_std.c ****         {
 1304              		.loc 1 618 0
 1305 0118 DAF80430 		ldr	r3, [r10, #4]
 629:Generated_Source\PSoC5/USBUART_1_std.c **** 
ARM GAS  C:\Users\jon\AppData\Local\Temp\ccCLAX4y.s 			page 47


 1306              		.loc 1 629 0
 1307 011c 9AF808B0 		ldrb	fp, [r10, #8]	@ zero_extendqisi2
 1308              	.LVL71:
 618:Generated_Source\PSoC5/USBUART_1_std.c ****         {
 1309              		.loc 1 618 0
 1310 0120 DB79     		ldrb	r3, [r3, #7]	@ zero_extendqisi2
 629:Generated_Source\PSoC5/USBUART_1_std.c **** 
 1311              		.loc 1 629 0
 1312 0122 0126     		movs	r6, #1
 618:Generated_Source\PSoC5/USBUART_1_std.c ****         {
 1313              		.loc 1 618 0
 1314 0124 13F0400F 		tst	r3, #64
 620:Generated_Source\PSoC5/USBUART_1_std.c ****         }
 1315              		.loc 1 620 0
 1316 0128 1378     		ldrb	r3, [r2]	@ zero_extendqisi2
 629:Generated_Source\PSoC5/USBUART_1_std.c **** 
 1317              		.loc 1 629 0
 1318 012a DAF80C40 		ldr	r4, [r10, #12]
 620:Generated_Source\PSoC5/USBUART_1_std.c ****         }
 1319              		.loc 1 620 0
 1320 012e 14BF     		ite	ne
 1321 0130 43F00103 		orrne	r3, r3, #1
 624:Generated_Source\PSoC5/USBUART_1_std.c ****         }
 1322              		.loc 1 624 0
 1323 0134 03F0FE03 		andeq	r3, r3, #254
 1324 0138 1370     		strb	r3, [r2]
 1325 013a 0BF1FF33 		add	r3, fp, #-1
 1326 013e DBB2     		uxtb	r3, r3
 1327 0140 0393     		str	r3, [sp, #12]
 1328 0142 3344     		add	r3, r3, r6
 1329 0144 DB00     		lsls	r3, r3, #3
 1330 0146 0193     		str	r3, [sp, #4]
 1331 0148 5346     		mov	r3, r10
 705:Generated_Source\PSoC5/USBUART_1_std.c ****                         {                            
 1332              		.loc 1 705 0
 1333 014a DFF82490 		ldr	r9, .L137+4
 611:Generated_Source\PSoC5/USBUART_1_std.c ****         #endif  /* (USBUART_1_ENABLE_CDC_CLASS) */  
 1334              		.loc 1 611 0
 1335 014e 0022     		movs	r2, #0
 1336              	.LVL72:
 1337              	.L88:
 1338 0150 5FFA86FA 		uxtb	r10, r6
 1339              	.LVL73:
 694:Generated_Source\PSoC5/USBUART_1_std.c ****                 {
 1340              		.loc 1 694 0
 1341 0154 BBF1000F 		cmp	fp, #0
 1342 0158 00F02182 		beq	.L118
 1343 015c 0199     		ldr	r1, [sp, #4]
 699:Generated_Source\PSoC5/USBUART_1_std.c ****                         {
 1344              		.loc 1 699 0
 1345 015e 06EB4608 		add	r8, r6, r6, lsl #1
 1346 0162 4FEA8808 		lsl	r8, r8, #2
 1347 0166 6718     		adds	r7, r4, r1
 1348 0168 11E0     		b	.L87
 1349              	.L138:
 1350 016a 00BF     		.align	2
 1351              	.L137:
ARM GAS  C:\Users\jon\AppData\Local\Temp\ccCLAX4y.s 			page 48


 1352 016c 00000000 		.word	USBUART_1_EP
 1353 0170 00000000 		.word	USBUART_1_interfaceSetting
 1354 0174 00000000 		.word	USBUART_1_interfaceSettingLast
 1355 0178 00000000 		.word	USBUART_1_configuration
 1356 017c 00000000 		.word	USBUART_1_device
 1357 0180 00000000 		.word	USBUART_1_TABLE
 1358 0184 00000000 		.word	USBUART_1_deviceStatus
 1359              	.LVL74:
 1360              	.L81:
 752:Generated_Source\PSoC5/USBUART_1_std.c ****                 }
 1361              		.loc 1 752 0
 1362 0188 0834     		adds	r4, r4, #8
 1363              	.LVL75:
 694:Generated_Source\PSoC5/USBUART_1_std.c ****                 {
 1364              		.loc 1 694 0
 1365 018a BC42     		cmp	r4, r7
 1366 018c 3CD0     		beq	.L135
 1367              	.LVL76:
 1368              	.L87:
 696:Generated_Source\PSoC5/USBUART_1_std.c ****                     {
 1369              		.loc 1 696 0
 1370 018e A178     		ldrb	r1, [r4, #2]	@ zero_extendqisi2
 1371 0190 01F07F0E 		and	lr, r1, #127
 1372 0194 7645     		cmp	r6, lr
 1373 0196 F7D1     		bne	.L81
 699:Generated_Source\PSoC5/USBUART_1_std.c ****                         {
 1374              		.loc 1 699 0
 1375 0198 05EB080C 		add	ip, r5, r8
 1376 019c BCF808E0 		ldrh	lr, [ip, #8]
 1377 01a0 A088     		ldrh	r0, [r4, #4]
 1378 01a2 1FFA8EFE 		uxth	lr, lr
 1379 01a6 8645     		cmp	lr, r0
 701:Generated_Source\PSoC5/USBUART_1_std.c ****                         }
 1380              		.loc 1 701 0
 1381 01a8 38BF     		it	cc
 1382 01aa ACF80800 		strhcc	r0, [ip, #8]	@ movhi
 705:Generated_Source\PSoC5/USBUART_1_std.c ****                         {                            
 1383              		.loc 1 705 0
 1384 01ae 2078     		ldrb	r0, [r4]	@ zero_extendqisi2
 1385 01b0 94F801E0 		ldrb	lr, [r4, #1]	@ zero_extendqisi2
 1386 01b4 19F80000 		ldrb	r0, [r9, r0]	@ zero_extendqisi2
 1387 01b8 8645     		cmp	lr, r0
 1388 01ba E5D1     		bne	.L81
 707:Generated_Source\PSoC5/USBUART_1_std.c ****                             USBUART_1_EP[i].attrib = pEP->attributes;
 1389              		.loc 1 707 0
 1390 01bc 05EB0800 		add	r0, r5, r8
 1391 01c0 0171     		strb	r1, [r0, #4]
 708:Generated_Source\PSoC5/USBUART_1_std.c ****                             
 1392              		.loc 1 708 0
 1393 01c2 E178     		ldrb	r1, [r4, #3]	@ zero_extendqisi2
 1394 01c4 05F80810 		strb	r1, [r5, r8]
 712:Generated_Source\PSoC5/USBUART_1_std.c ****                             {
 1395              		.loc 1 712 0
 1396 01c8 94F902E0 		ldrsb	lr, [r4, #2]
 710:Generated_Source\PSoC5/USBUART_1_std.c ****                             
 1397              		.loc 1 710 0
 1398 01cc E178     		ldrb	r1, [r4, #3]	@ zero_extendqisi2
ARM GAS  C:\Users\jon\AppData\Local\Temp\ccCLAX4y.s 			page 49


 712:Generated_Source\PSoC5/USBUART_1_std.c ****                             {
 1399              		.loc 1 712 0
 1400 01ce BEF1000F 		cmp	lr, #0
 710:Generated_Source\PSoC5/USBUART_1_std.c ****                             
 1401              		.loc 1 710 0
 1402 01d2 01F00301 		and	r1, r1, #3
 1403              	.LVL77:
 712:Generated_Source\PSoC5/USBUART_1_std.c ****                             {
 1404              		.loc 1 712 0
 1405 01d6 C0F2D781 		blt	.L136
 728:Generated_Source\PSoC5/USBUART_1_std.c ****                                 USBUART_1_EP[i].apiEpState = USBUART_1_NO_EVENT_PENDING;
 1406              		.loc 1 728 0
 1407 01da 0129     		cmp	r1, #1
 1408 01dc 14BF     		ite	ne
 1409 01de 0921     		movne	r1, #9
 1410              	.LVL78:
 1411 01e0 0521     		moveq	r1, #5
 1412 01e2 4171     		strb	r1, [r0, #5]
 1413              	.LVL79:
 729:Generated_Source\PSoC5/USBUART_1_std.c ****                                 
 1414              		.loc 1 729 0
 1415 01e4 4FF00001 		mov	r1, #0
 1416 01e8 4170     		strb	r1, [r0, #1]
 1417              	.L85:
 740:Generated_Source\PSoC5/USBUART_1_std.c ****                             {
 1418              		.loc 1 740 0
 1419 01ea A179     		ldrb	r1, [r4, #6]	@ zero_extendqisi2
 1420 01ec 01F0F701 		and	r1, r1, #247
 1421 01f0 0229     		cmp	r1, #2
 1422 01f2 C9D1     		bne	.L81
 742:Generated_Source\PSoC5/USBUART_1_std.c ****                             }
 1423              		.loc 1 742 0
 1424 01f4 2046     		mov	r0, r4
 1425 01f6 5146     		mov	r1, r10
 1426 01f8 0293     		str	r3, [sp, #8]
 1427 01fa FFF7FEFF 		bl	USBUART_1_Cdc_EpInit
 1428              	.LVL80:
 752:Generated_Source\PSoC5/USBUART_1_std.c ****                 }
 1429              		.loc 1 752 0
 1430 01fe 0834     		adds	r4, r4, #8
 1431              	.LVL81:
 694:Generated_Source\PSoC5/USBUART_1_std.c ****                 {
 1432              		.loc 1 694 0
 1433 0200 BC42     		cmp	r4, r7
 742:Generated_Source\PSoC5/USBUART_1_std.c ****                             }
 1434              		.loc 1 742 0
 1435 0202 0246     		mov	r2, r0
 1436 0204 029B     		ldr	r3, [sp, #8]
 1437              	.LVL82:
 694:Generated_Source\PSoC5/USBUART_1_std.c ****                 {
 1438              		.loc 1 694 0
 1439 0206 C2D1     		bne	.L87
 1440              	.L135:
 1441 0208 D968     		ldr	r1, [r3, #12]
 1442              	.LVL83:
 1443              	.L80:
 1444 020a 0136     		adds	r6, r6, #1
ARM GAS  C:\Users\jon\AppData\Local\Temp\ccCLAX4y.s 			page 50


 1445              	.LVL84:
 687:Generated_Source\PSoC5/USBUART_1_std.c ****             {
 1446              		.loc 1 687 0
 1447 020c 092E     		cmp	r6, #9
 1448 020e 0C46     		mov	r4, r1
 1449 0210 9ED1     		bne	.L88
 1450              	.LVL85:
 763:Generated_Source\PSoC5/USBUART_1_std.c ****         {
 1451              		.loc 1 763 0
 1452 0212 BBF1000F 		cmp	fp, #0
 1453 0216 13D0     		beq	.L93
 1454 0218 0398     		ldr	r0, [sp, #12]
 1455 021a 01F10802 		add	r2, r1, #8
 1456              	.LVL86:
 1457 021e 0230     		adds	r0, r0, #2
 1458 0220 01EBC000 		add	r0, r1, r0, lsl #3
 1459              	.LVL87:
 1460              	.L92:
 766:Generated_Source\PSoC5/USBUART_1_std.c ****             pEP = &pEP[1u];
 1461              		.loc 1 766 0
 1462 0224 12F8063C 		ldrb	r3, [r2, #-6]	@ zero_extendqisi2
 1463 0228 12F8081C 		ldrb	r1, [r2, #-8]	@ zero_extendqisi2
 1464 022c 03F07F03 		and	r3, r3, #127
 1465 0230 03EB4303 		add	r3, r3, r3, lsl #1
 1466 0234 0832     		adds	r2, r2, #8
 1467              	.LVL88:
 1468 0236 05EB8303 		add	r3, r5, r3, lsl #2
 763:Generated_Source\PSoC5/USBUART_1_std.c ****         {
 1469              		.loc 1 763 0
 1470 023a 8242     		cmp	r2, r0
 766:Generated_Source\PSoC5/USBUART_1_std.c ****             pEP = &pEP[1u];
 1471              		.loc 1 766 0
 1472 023c 9972     		strb	r1, [r3, #10]
 1473              	.LVL89:
 763:Generated_Source\PSoC5/USBUART_1_std.c ****         {
 1474              		.loc 1 763 0
 1475 023e F1D1     		bne	.L92
 1476              	.L93:
 1477              	.LBB54:
 1478              	.LBB55:
 964:Generated_Source\PSoC5/USBUART_1_std.c ****     }
 965:Generated_Source\PSoC5/USBUART_1_std.c **** 
 966:Generated_Source\PSoC5/USBUART_1_std.c ****     return (pTmp);
 967:Generated_Source\PSoC5/USBUART_1_std.c **** }
 968:Generated_Source\PSoC5/USBUART_1_std.c **** 
 969:Generated_Source\PSoC5/USBUART_1_std.c **** 
 970:Generated_Source\PSoC5/USBUART_1_std.c **** #if (USBUART_1_BOS_ENABLE)
 971:Generated_Source\PSoC5/USBUART_1_std.c ****     /*******************************************************************************
 972:Generated_Source\PSoC5/USBUART_1_std.c ****     * Function Name: USBUART_1_GetBOSPtr
 973:Generated_Source\PSoC5/USBUART_1_std.c ****     ****************************************************************************//**
 974:Generated_Source\PSoC5/USBUART_1_std.c ****     *
 975:Generated_Source\PSoC5/USBUART_1_std.c ****     *  This routine returns a pointer a BOS table entry
 976:Generated_Source\PSoC5/USBUART_1_std.c ****     *
 977:Generated_Source\PSoC5/USBUART_1_std.c ****     *  
 978:Generated_Source\PSoC5/USBUART_1_std.c ****     *
 979:Generated_Source\PSoC5/USBUART_1_std.c ****     * \return
 980:Generated_Source\PSoC5/USBUART_1_std.c ****     *  BOS Descriptor pointer or NULL when descriptor does not exist.
ARM GAS  C:\Users\jon\AppData\Local\Temp\ccCLAX4y.s 			page 51


 981:Generated_Source\PSoC5/USBUART_1_std.c ****     *
 982:Generated_Source\PSoC5/USBUART_1_std.c ****     *******************************************************************************/
 983:Generated_Source\PSoC5/USBUART_1_std.c ****     const T_USBUART_1_LUT CYCODE *USBUART_1_GetBOSPtr(void)
 984:Generated_Source\PSoC5/USBUART_1_std.c ****                                                             
 985:Generated_Source\PSoC5/USBUART_1_std.c ****     {
 986:Generated_Source\PSoC5/USBUART_1_std.c ****         /* Device Table */
 987:Generated_Source\PSoC5/USBUART_1_std.c ****         const T_USBUART_1_LUT CYCODE *pTmp;
 988:Generated_Source\PSoC5/USBUART_1_std.c **** 
 989:Generated_Source\PSoC5/USBUART_1_std.c ****         pTmp = (const T_USBUART_1_LUT CYCODE *) USBUART_1_TABLE[USBUART_1_device].p_list;
 990:Generated_Source\PSoC5/USBUART_1_std.c **** 
 991:Generated_Source\PSoC5/USBUART_1_std.c ****         /* The first entry points to the Device Descriptor,
 992:Generated_Source\PSoC5/USBUART_1_std.c ****         *  the second entry points to the BOS Descriptor
 993:Generated_Source\PSoC5/USBUART_1_std.c ****         */
 994:Generated_Source\PSoC5/USBUART_1_std.c ****         pTmp = &pTmp[1u];
 995:Generated_Source\PSoC5/USBUART_1_std.c ****         pTmp = (const T_USBUART_1_LUT CYCODE *) pTmp->p_list;
 996:Generated_Source\PSoC5/USBUART_1_std.c ****         return (pTmp);
 997:Generated_Source\PSoC5/USBUART_1_std.c ****     }
 998:Generated_Source\PSoC5/USBUART_1_std.c **** #endif /* (USBUART_1_BOS_ENABLE) */
 999:Generated_Source\PSoC5/USBUART_1_std.c **** 
1000:Generated_Source\PSoC5/USBUART_1_std.c **** 
1001:Generated_Source\PSoC5/USBUART_1_std.c **** /*******************************************************************************
1002:Generated_Source\PSoC5/USBUART_1_std.c **** * Function Name: USBUART_1_GetDeviceTablePtr
1003:Generated_Source\PSoC5/USBUART_1_std.c **** ****************************************************************************//**
1004:Generated_Source\PSoC5/USBUART_1_std.c **** *
1005:Generated_Source\PSoC5/USBUART_1_std.c **** *  This routine returns a pointer to the Device table
1006:Generated_Source\PSoC5/USBUART_1_std.c **** *
1007:Generated_Source\PSoC5/USBUART_1_std.c **** * \return
1008:Generated_Source\PSoC5/USBUART_1_std.c **** *  Device Table pointer
1009:Generated_Source\PSoC5/USBUART_1_std.c **** *
1010:Generated_Source\PSoC5/USBUART_1_std.c **** *******************************************************************************/
1011:Generated_Source\PSoC5/USBUART_1_std.c **** const T_USBUART_1_LUT CYCODE *USBUART_1_GetDeviceTablePtr(void)
1012:Generated_Source\PSoC5/USBUART_1_std.c ****                                                             
1013:Generated_Source\PSoC5/USBUART_1_std.c **** {
1014:Generated_Source\PSoC5/USBUART_1_std.c ****     /* Device Table */
1015:Generated_Source\PSoC5/USBUART_1_std.c ****     return( (const T_USBUART_1_LUT CYCODE *) USBUART_1_TABLE[USBUART_1_device].p_list );
1016:Generated_Source\PSoC5/USBUART_1_std.c **** }
1017:Generated_Source\PSoC5/USBUART_1_std.c **** 
1018:Generated_Source\PSoC5/USBUART_1_std.c **** 
1019:Generated_Source\PSoC5/USBUART_1_std.c **** /*******************************************************************************
1020:Generated_Source\PSoC5/USBUART_1_std.c **** * Function Name: USB_GetInterfaceClassTablePtr
1021:Generated_Source\PSoC5/USBUART_1_std.c **** ****************************************************************************//**
1022:Generated_Source\PSoC5/USBUART_1_std.c **** *
1023:Generated_Source\PSoC5/USBUART_1_std.c **** *  This routine returns Interface Class table pointer, which contains
1024:Generated_Source\PSoC5/USBUART_1_std.c **** *  the relation between interface number and interface class.
1025:Generated_Source\PSoC5/USBUART_1_std.c **** *
1026:Generated_Source\PSoC5/USBUART_1_std.c **** * \return
1027:Generated_Source\PSoC5/USBUART_1_std.c **** *  Interface Class table pointer.
1028:Generated_Source\PSoC5/USBUART_1_std.c **** *
1029:Generated_Source\PSoC5/USBUART_1_std.c **** *******************************************************************************/
1030:Generated_Source\PSoC5/USBUART_1_std.c **** const uint8 CYCODE *USBUART_1_GetInterfaceClassTablePtr(void)
1031:Generated_Source\PSoC5/USBUART_1_std.c ****                                                         
1032:Generated_Source\PSoC5/USBUART_1_std.c **** {
1033:Generated_Source\PSoC5/USBUART_1_std.c ****     const T_USBUART_1_LUT CYCODE *pTmp;
1034:Generated_Source\PSoC5/USBUART_1_std.c ****     const uint8 CYCODE *pInterfaceClass;
1035:Generated_Source\PSoC5/USBUART_1_std.c ****     uint8 currentInterfacesNum;
1036:Generated_Source\PSoC5/USBUART_1_std.c **** 
1037:Generated_Source\PSoC5/USBUART_1_std.c ****     pTmp = USBUART_1_GetConfigTablePtr(USBUART_1_configuration - 1u);
ARM GAS  C:\Users\jon\AppData\Local\Temp\ccCLAX4y.s 			page 52


 1479              		.loc 1 1037 0
 1480 0240 B74B     		ldr	r3, .L139
 1481              	.LBB56:
 1482              	.LBB57:
 948:Generated_Source\PSoC5/USBUART_1_std.c **** 
 1483              		.loc 1 948 0
 1484 0242 B84A     		ldr	r2, .L139+4
 1485              	.LBE57:
 1486              	.LBE56:
 1487              		.loc 1 1037 0
 1488 0244 1B78     		ldrb	r3, [r3]	@ zero_extendqisi2
 1489              	.LBB61:
 1490              	.LBB58:
 948:Generated_Source\PSoC5/USBUART_1_std.c **** 
 1491              		.loc 1 948 0
 1492 0246 B849     		ldr	r1, .L139+8
 1493 0248 1278     		ldrb	r2, [r2]	@ zero_extendqisi2
 1494              	.LBE58:
 1495              	.LBE61:
 1496              		.loc 1 1037 0
 1497 024a 013B     		subs	r3, r3, #1
 1498              	.LBB62:
 1499              	.LBB59:
 948:Generated_Source\PSoC5/USBUART_1_std.c **** 
 1500              		.loc 1 948 0
 1501 024c 01EBC202 		add	r2, r1, r2, lsl #3
 1502 0250 5268     		ldr	r2, [r2, #4]
 1503              	.LBE59:
 1504              	.LBE62:
 1505              		.loc 1 1037 0
 1506 0252 DBB2     		uxtb	r3, r3
 1507              	.LVL90:
 1508              	.LBB63:
 1509              	.LBB60:
 957:Generated_Source\PSoC5/USBUART_1_std.c ****     {
 1510              		.loc 1 957 0
 1511 0254 117C     		ldrb	r1, [r2, #16]	@ zero_extendqisi2
 1512 0256 9942     		cmp	r1, r3
 1513 0258 40F29F81 		bls	.L121
 963:Generated_Source\PSoC5/USBUART_1_std.c ****     }
 1514              		.loc 1 963 0
 1515 025c 02EBC303 		add	r3, r2, r3, lsl #3
 1516              	.LVL91:
 1517 0260 5B69     		ldr	r3, [r3, #20]
 1518              	.LVL92:
 1519              	.LBE60:
 1520              	.LBE63:
1038:Generated_Source\PSoC5/USBUART_1_std.c ****     if (pTmp != NULL)
 1521              		.loc 1 1038 0
 1522 0262 23B1     		cbz	r3, .L90
 1523              	.LVL93:
1039:Generated_Source\PSoC5/USBUART_1_std.c ****     {
1040:Generated_Source\PSoC5/USBUART_1_std.c ****         currentInterfacesNum  = ((const uint8 *) pTmp->p_list)[USBUART_1_CONFIG_DESCR_NUM_INTERFACE
 1524              		.loc 1 1040 0
 1525 0264 5A68     		ldr	r2, [r3, #4]
1041:Generated_Source\PSoC5/USBUART_1_std.c ****         /* Third entry in the LUT starts the Interface Table pointers */
1042:Generated_Source\PSoC5/USBUART_1_std.c ****         /* The INTERFACE_CLASS table is located after all interfaces */
ARM GAS  C:\Users\jon\AppData\Local\Temp\ccCLAX4y.s 			page 53


1043:Generated_Source\PSoC5/USBUART_1_std.c ****         pTmp = &pTmp[currentInterfacesNum + 2u];
 1526              		.loc 1 1043 0
 1527 0266 1279     		ldrb	r2, [r2, #4]	@ zero_extendqisi2
 1528              	.LVL94:
1044:Generated_Source\PSoC5/USBUART_1_std.c ****         pInterfaceClass = (const uint8 CYCODE *) pTmp->p_list;
 1529              		.loc 1 1044 0
 1530 0268 03EBC203 		add	r3, r3, r2, lsl #3
 1531              	.LVL95:
 1532 026c 5B69     		ldr	r3, [r3, #20]
 1533              	.LVL96:
 1534              	.L90:
 1535              	.LBE55:
 1536              	.LBE54:
 778:Generated_Source\PSoC5/USBUART_1_std.c ****             buffCount += USBUART_1_EP[ep].bufferSize;
 1537              		.loc 1 778 0
 1538 026e 0022     		movs	r2, #0
 1539 0270 6A82     		strh	r2, [r5, #18]	@ movhi
 779:Generated_Source\PSoC5/USBUART_1_std.c ****             
 1540              		.loc 1 779 0
 1541 0272 AC8A     		ldrh	r4, [r5, #20]
 771:Generated_Source\PSoC5/USBUART_1_std.c ****         
 1542              		.loc 1 771 0
 1543 0274 AD4E     		ldr	r6, .L139+12
 779:Generated_Source\PSoC5/USBUART_1_std.c ****             
 1544              		.loc 1 779 0
 1545 0276 A4B2     		uxth	r4, r4
 783:Generated_Source\PSoC5/USBUART_1_std.c ****         #endif /* (USBUART_1_GEN_16BITS_EP_ACCESS) */            
 1546              		.loc 1 783 0
 1547 0278 04F00102 		and	r2, r4, #1
 1548 027c 1444     		add	r4, r4, r2
 1549 027e A4B2     		uxth	r4, r4
 778:Generated_Source\PSoC5/USBUART_1_std.c ****             buffCount += USBUART_1_EP[ep].bufferSize;
 1550              		.loc 1 778 0
 1551 0280 EC83     		strh	r4, [r5, #30]	@ movhi
 779:Generated_Source\PSoC5/USBUART_1_std.c ****             
 1552              		.loc 1 779 0
 1553 0282 2A8C     		ldrh	r2, [r5, #32]
 771:Generated_Source\PSoC5/USBUART_1_std.c ****         
 1554              		.loc 1 771 0
 1555 0284 3360     		str	r3, [r6]
 779:Generated_Source\PSoC5/USBUART_1_std.c ****             
 1556              		.loc 1 779 0
 1557 0286 1444     		add	r4, r4, r2
 1558 0288 A4B2     		uxth	r4, r4
 783:Generated_Source\PSoC5/USBUART_1_std.c ****         #endif /* (USBUART_1_GEN_16BITS_EP_ACCESS) */            
 1559              		.loc 1 783 0
 1560 028a 04F00102 		and	r2, r4, #1
 1561 028e 1444     		add	r4, r4, r2
 1562 0290 A4B2     		uxth	r4, r4
 778:Generated_Source\PSoC5/USBUART_1_std.c ****             buffCount += USBUART_1_EP[ep].bufferSize;
 1563              		.loc 1 778 0
 1564 0292 6C85     		strh	r4, [r5, #42]	@ movhi
 779:Generated_Source\PSoC5/USBUART_1_std.c ****             
 1565              		.loc 1 779 0
 1566 0294 AA8D     		ldrh	r2, [r5, #44]
 1567              	.LBB65:
 1568              	.LBB66:
ARM GAS  C:\Users\jon\AppData\Local\Temp\ccCLAX4y.s 			page 54


 448:Generated_Source\PSoC5/USBUART_1_std.c ****         
 1569              		.loc 1 448 0
 1570 0296 A648     		ldr	r0, .L139+16
 1571              	.LBE66:
 1572              	.LBE65:
 779:Generated_Source\PSoC5/USBUART_1_std.c ****             
 1573              		.loc 1 779 0
 1574 0298 1444     		add	r4, r4, r2
 1575 029a A4B2     		uxth	r4, r4
 783:Generated_Source\PSoC5/USBUART_1_std.c ****         #endif /* (USBUART_1_GEN_16BITS_EP_ACCESS) */            
 1576              		.loc 1 783 0
 1577 029c 04F00102 		and	r2, r4, #1
 1578 02a0 1444     		add	r4, r4, r2
 1579 02a2 A4B2     		uxth	r4, r4
 778:Generated_Source\PSoC5/USBUART_1_std.c ****             buffCount += USBUART_1_EP[ep].bufferSize;
 1580              		.loc 1 778 0
 1581 02a4 EC86     		strh	r4, [r5, #54]	@ movhi
 779:Generated_Source\PSoC5/USBUART_1_std.c ****             
 1582              		.loc 1 779 0
 1583 02a6 2A8F     		ldrh	r2, [r5, #56]
 1584              	.LBB70:
 1585              	.LBB67:
 448:Generated_Source\PSoC5/USBUART_1_std.c ****         
 1586              		.loc 1 448 0
 1587 02a8 0C21     		movs	r1, #12
 1588              	.LVL97:
 1589              	.LBE67:
 1590              	.LBE70:
 779:Generated_Source\PSoC5/USBUART_1_std.c ****             
 1591              		.loc 1 779 0
 1592 02aa A318     		adds	r3, r4, r2
 1593 02ac 9AB2     		uxth	r2, r3
 1594              	.LVL98:
 783:Generated_Source\PSoC5/USBUART_1_std.c ****         #endif /* (USBUART_1_GEN_16BITS_EP_ACCESS) */            
 1595              		.loc 1 783 0
 1596 02ae 02F00103 		and	r3, r2, #1
 1597 02b2 1344     		add	r3, r3, r2
 1598 02b4 9AB2     		uxth	r2, r3
 1599              	.LVL99:
 778:Generated_Source\PSoC5/USBUART_1_std.c ****             buffCount += USBUART_1_EP[ep].bufferSize;
 1600              		.loc 1 778 0
 1601 02b6 A5F84220 		strh	r2, [r5, #66]	@ movhi
 779:Generated_Source\PSoC5/USBUART_1_std.c ****             
 1602              		.loc 1 779 0
 1603 02ba B5F84430 		ldrh	r3, [r5, #68]
 778:Generated_Source\PSoC5/USBUART_1_std.c ****             buffCount += USBUART_1_EP[ep].bufferSize;
 1604              		.loc 1 778 0
 1605 02be 9D4C     		ldr	r4, .L139+20
 779:Generated_Source\PSoC5/USBUART_1_std.c ****             
 1606              		.loc 1 779 0
 1607 02c0 1344     		add	r3, r3, r2
 1608 02c2 9AB2     		uxth	r2, r3
 1609              	.LVL100:
 783:Generated_Source\PSoC5/USBUART_1_std.c ****         #endif /* (USBUART_1_GEN_16BITS_EP_ACCESS) */            
 1610              		.loc 1 783 0
 1611 02c4 02F00103 		and	r3, r2, #1
 1612 02c8 1344     		add	r3, r3, r2
ARM GAS  C:\Users\jon\AppData\Local\Temp\ccCLAX4y.s 			page 55


 1613 02ca 9AB2     		uxth	r2, r3
 1614              	.LVL101:
 778:Generated_Source\PSoC5/USBUART_1_std.c ****             buffCount += USBUART_1_EP[ep].bufferSize;
 1615              		.loc 1 778 0
 1616 02cc A5F84E20 		strh	r2, [r5, #78]	@ movhi
 779:Generated_Source\PSoC5/USBUART_1_std.c ****             
 1617              		.loc 1 779 0
 1618 02d0 B5F85030 		ldrh	r3, [r5, #80]
 1619 02d4 1344     		add	r3, r3, r2
 1620 02d6 9AB2     		uxth	r2, r3
 1621              	.LVL102:
 783:Generated_Source\PSoC5/USBUART_1_std.c ****         #endif /* (USBUART_1_GEN_16BITS_EP_ACCESS) */            
 1622              		.loc 1 783 0
 1623 02d8 02F00103 		and	r3, r2, #1
 1624 02dc 1344     		add	r3, r3, r2
 1625 02de 9AB2     		uxth	r2, r3
 1626              	.LVL103:
 778:Generated_Source\PSoC5/USBUART_1_std.c ****             buffCount += USBUART_1_EP[ep].bufferSize;
 1627              		.loc 1 778 0
 1628 02e0 A5F85A20 		strh	r2, [r5, #90]	@ movhi
 779:Generated_Source\PSoC5/USBUART_1_std.c ****             
 1629              		.loc 1 779 0
 1630 02e4 B5F85C30 		ldrh	r3, [r5, #92]
 1631 02e8 1344     		add	r3, r3, r2
 1632 02ea 9BB2     		uxth	r3, r3
 1633              	.LVL104:
 783:Generated_Source\PSoC5/USBUART_1_std.c ****         #endif /* (USBUART_1_GEN_16BITS_EP_ACCESS) */            
 1634              		.loc 1 783 0
 1635 02ec 03F00102 		and	r2, r3, #1
 1636 02f0 1344     		add	r3, r3, r2
 1637              	.LVL105:
 1638 02f2 9BB2     		uxth	r3, r3
 1639              	.LVL106:
 778:Generated_Source\PSoC5/USBUART_1_std.c ****             buffCount += USBUART_1_EP[ep].bufferSize;
 1640              		.loc 1 778 0
 1641 02f4 A5F86630 		strh	r3, [r5, #102]	@ movhi
 779:Generated_Source\PSoC5/USBUART_1_std.c ****             
 1642              		.loc 1 779 0
 1643 02f8 B5F86830 		ldrh	r3, [r5, #104]
 1644              	.LVL107:
 1645              	.LBB71:
 1646              	.LBB68:
 448:Generated_Source\PSoC5/USBUART_1_std.c ****         
 1647              		.loc 1 448 0
 1648 02fc 0170     		strb	r1, [r0]
 455:Generated_Source\PSoC5/USBUART_1_std.c ****         {
 1649              		.loc 1 455 0
 1650 02fe 6B7C     		ldrb	r3, [r5, #17]	@ zero_extendqisi2
 1651 0300 002B     		cmp	r3, #0
 1652 0302 00F06A81 		beq	.L94
 457:Generated_Source\PSoC5/USBUART_1_std.c ****             {
 1653              		.loc 1 457 0
 1654 0306 237C     		ldrb	r3, [r4, #16]	@ zero_extendqisi2
 1655 0308 13F0800F 		tst	r3, #128
 459:Generated_Source\PSoC5/USBUART_1_std.c ****                 
 1656              		.loc 1 459 0
 1657 030c 8A4B     		ldr	r3, .L139+24
ARM GAS  C:\Users\jon\AppData\Local\Temp\ccCLAX4y.s 			page 56


 468:Generated_Source\PSoC5/USBUART_1_std.c **** 
 1658              		.loc 1 468 0
 1659 030e 06BF     		itte	eq
 1660 0310 0822     		moveq	r2, #8
 1661 0312 9A70     		strbeq	r2, [r3, #2]
 459:Generated_Source\PSoC5/USBUART_1_std.c ****                 
 1662              		.loc 1 459 0
 1663 0314 9970     		strbne	r1, [r3, #2]
 1664              	.L96:
 488:Generated_Source\PSoC5/USBUART_1_std.c ****             USBUART_1_ARB_EP_BASE.arbEp[ep].rwRaMsb = HI8(USBUART_1_EP[ep].buffOffset);
 1665              		.loc 1 488 0
 1666 0316 6A8A     		ldrh	r2, [r5, #18]
 1667 0318 854B     		ldr	r3, .L139+16
 1668 031a D2B2     		uxtb	r2, r2
 1669 031c 9A71     		strb	r2, [r3, #6]
 489:Generated_Source\PSoC5/USBUART_1_std.c ****             USBUART_1_ARB_EP_BASE.arbEp[ep].rwWa    = LO8(USBUART_1_EP[ep].buffOffset);
 1670              		.loc 1 489 0
 1671 031e 6A8A     		ldrh	r2, [r5, #18]
 448:Generated_Source\PSoC5/USBUART_1_std.c ****         
 1672              		.loc 1 448 0
 1673 0320 8648     		ldr	r0, .L139+28
 489:Generated_Source\PSoC5/USBUART_1_std.c ****             USBUART_1_ARB_EP_BASE.arbEp[ep].rwWa    = LO8(USBUART_1_EP[ep].buffOffset);
 1674              		.loc 1 489 0
 1675 0322 C2F30722 		ubfx	r2, r2, #8, #8
 1676 0326 DA71     		strb	r2, [r3, #7]
 490:Generated_Source\PSoC5/USBUART_1_std.c ****             USBUART_1_ARB_EP_BASE.arbEp[ep].rwWaMsb = HI8(USBUART_1_EP[ep].buffOffset);
 1677              		.loc 1 490 0
 1678 0328 6A8A     		ldrh	r2, [r5, #18]
 448:Generated_Source\PSoC5/USBUART_1_std.c ****         
 1679              		.loc 1 448 0
 1680 032a 0C21     		movs	r1, #12
 490:Generated_Source\PSoC5/USBUART_1_std.c ****             USBUART_1_ARB_EP_BASE.arbEp[ep].rwWaMsb = HI8(USBUART_1_EP[ep].buffOffset);
 1681              		.loc 1 490 0
 1682 032c D2B2     		uxtb	r2, r2
 1683 032e 1A71     		strb	r2, [r3, #4]
 491:Generated_Source\PSoC5/USBUART_1_std.c ****         #endif /* (CY_PSOC4) */
 1684              		.loc 1 491 0
 1685 0330 6A8A     		ldrh	r2, [r5, #18]
 488:Generated_Source\PSoC5/USBUART_1_std.c ****             USBUART_1_ARB_EP_BASE.arbEp[ep].rwRaMsb = HI8(USBUART_1_EP[ep].buffOffset);
 1686              		.loc 1 488 0
 1687 0332 804C     		ldr	r4, .L139+20
 491:Generated_Source\PSoC5/USBUART_1_std.c ****         #endif /* (CY_PSOC4) */
 1688              		.loc 1 491 0
 1689 0334 C2F30722 		ubfx	r2, r2, #8, #8
 1690 0338 5A71     		strb	r2, [r3, #5]
 1691              	.LVL108:
 448:Generated_Source\PSoC5/USBUART_1_std.c ****         
 1692              		.loc 1 448 0
 1693 033a 0170     		strb	r1, [r0]
 455:Generated_Source\PSoC5/USBUART_1_std.c ****         {
 1694              		.loc 1 455 0
 1695 033c 6B7F     		ldrb	r3, [r5, #29]	@ zero_extendqisi2
 1696 033e 002B     		cmp	r3, #0
 1697 0340 00F04781 		beq	.L97
 457:Generated_Source\PSoC5/USBUART_1_std.c ****             {
 1698              		.loc 1 457 0
 1699 0344 237F     		ldrb	r3, [r4, #28]	@ zero_extendqisi2
ARM GAS  C:\Users\jon\AppData\Local\Temp\ccCLAX4y.s 			page 57


 1700 0346 13F0800F 		tst	r3, #128
 459:Generated_Source\PSoC5/USBUART_1_std.c ****                 
 1701              		.loc 1 459 0
 1702 034a 7D4B     		ldr	r3, .L139+32
 468:Generated_Source\PSoC5/USBUART_1_std.c **** 
 1703              		.loc 1 468 0
 1704 034c 06BF     		itte	eq
 1705 034e 0822     		moveq	r2, #8
 1706 0350 9A70     		strbeq	r2, [r3, #2]
 459:Generated_Source\PSoC5/USBUART_1_std.c ****                 
 1707              		.loc 1 459 0
 1708 0352 9970     		strbne	r1, [r3, #2]
 1709              	.L99:
 488:Generated_Source\PSoC5/USBUART_1_std.c ****             USBUART_1_ARB_EP_BASE.arbEp[ep].rwRaMsb = HI8(USBUART_1_EP[ep].buffOffset);
 1710              		.loc 1 488 0
 1711 0354 EA8B     		ldrh	r2, [r5, #30]
 1712 0356 794B     		ldr	r3, .L139+28
 1713 0358 D2B2     		uxtb	r2, r2
 1714 035a 9A71     		strb	r2, [r3, #6]
 489:Generated_Source\PSoC5/USBUART_1_std.c ****             USBUART_1_ARB_EP_BASE.arbEp[ep].rwWa    = LO8(USBUART_1_EP[ep].buffOffset);
 1715              		.loc 1 489 0
 1716 035c EA8B     		ldrh	r2, [r5, #30]
 448:Generated_Source\PSoC5/USBUART_1_std.c ****         
 1717              		.loc 1 448 0
 1718 035e 7948     		ldr	r0, .L139+36
 489:Generated_Source\PSoC5/USBUART_1_std.c ****             USBUART_1_ARB_EP_BASE.arbEp[ep].rwWa    = LO8(USBUART_1_EP[ep].buffOffset);
 1719              		.loc 1 489 0
 1720 0360 C2F30722 		ubfx	r2, r2, #8, #8
 1721 0364 DA71     		strb	r2, [r3, #7]
 490:Generated_Source\PSoC5/USBUART_1_std.c ****             USBUART_1_ARB_EP_BASE.arbEp[ep].rwWaMsb = HI8(USBUART_1_EP[ep].buffOffset);
 1722              		.loc 1 490 0
 1723 0366 EA8B     		ldrh	r2, [r5, #30]
 448:Generated_Source\PSoC5/USBUART_1_std.c ****         
 1724              		.loc 1 448 0
 1725 0368 0C21     		movs	r1, #12
 490:Generated_Source\PSoC5/USBUART_1_std.c ****             USBUART_1_ARB_EP_BASE.arbEp[ep].rwWaMsb = HI8(USBUART_1_EP[ep].buffOffset);
 1726              		.loc 1 490 0
 1727 036a D2B2     		uxtb	r2, r2
 1728 036c 1A71     		strb	r2, [r3, #4]
 491:Generated_Source\PSoC5/USBUART_1_std.c ****         #endif /* (CY_PSOC4) */
 1729              		.loc 1 491 0
 1730 036e EA8B     		ldrh	r2, [r5, #30]
 488:Generated_Source\PSoC5/USBUART_1_std.c ****             USBUART_1_ARB_EP_BASE.arbEp[ep].rwRaMsb = HI8(USBUART_1_EP[ep].buffOffset);
 1731              		.loc 1 488 0
 1732 0370 704C     		ldr	r4, .L139+20
 491:Generated_Source\PSoC5/USBUART_1_std.c ****         #endif /* (CY_PSOC4) */
 1733              		.loc 1 491 0
 1734 0372 C2F30722 		ubfx	r2, r2, #8, #8
 1735 0376 5A71     		strb	r2, [r3, #5]
 1736              	.LVL109:
 448:Generated_Source\PSoC5/USBUART_1_std.c ****         
 1737              		.loc 1 448 0
 1738 0378 0170     		strb	r1, [r0]
 455:Generated_Source\PSoC5/USBUART_1_std.c ****         {
 1739              		.loc 1 455 0
 1740 037a 95F82930 		ldrb	r3, [r5, #41]	@ zero_extendqisi2
 1741 037e 002B     		cmp	r3, #0
ARM GAS  C:\Users\jon\AppData\Local\Temp\ccCLAX4y.s 			page 58


 1742 0380 00F02381 		beq	.L100
 457:Generated_Source\PSoC5/USBUART_1_std.c ****             {
 1743              		.loc 1 457 0
 1744 0384 94F82830 		ldrb	r3, [r4, #40]	@ zero_extendqisi2
 1745 0388 13F0800F 		tst	r3, #128
 459:Generated_Source\PSoC5/USBUART_1_std.c ****                 
 1746              		.loc 1 459 0
 1747 038c 6E4B     		ldr	r3, .L139+40
 468:Generated_Source\PSoC5/USBUART_1_std.c **** 
 1748              		.loc 1 468 0
 1749 038e 06BF     		itte	eq
 1750 0390 0822     		moveq	r2, #8
 1751 0392 9A70     		strbeq	r2, [r3, #2]
 459:Generated_Source\PSoC5/USBUART_1_std.c ****                 
 1752              		.loc 1 459 0
 1753 0394 9970     		strbne	r1, [r3, #2]
 1754              	.L102:
 488:Generated_Source\PSoC5/USBUART_1_std.c ****             USBUART_1_ARB_EP_BASE.arbEp[ep].rwRaMsb = HI8(USBUART_1_EP[ep].buffOffset);
 1755              		.loc 1 488 0
 1756 0396 6A8D     		ldrh	r2, [r5, #42]
 1757 0398 6A4B     		ldr	r3, .L139+36
 1758 039a D2B2     		uxtb	r2, r2
 1759 039c 9A71     		strb	r2, [r3, #6]
 489:Generated_Source\PSoC5/USBUART_1_std.c ****             USBUART_1_ARB_EP_BASE.arbEp[ep].rwWa    = LO8(USBUART_1_EP[ep].buffOffset);
 1760              		.loc 1 489 0
 1761 039e 6A8D     		ldrh	r2, [r5, #42]
 448:Generated_Source\PSoC5/USBUART_1_std.c ****         
 1762              		.loc 1 448 0
 1763 03a0 6A48     		ldr	r0, .L139+44
 489:Generated_Source\PSoC5/USBUART_1_std.c ****             USBUART_1_ARB_EP_BASE.arbEp[ep].rwWa    = LO8(USBUART_1_EP[ep].buffOffset);
 1764              		.loc 1 489 0
 1765 03a2 C2F30722 		ubfx	r2, r2, #8, #8
 1766 03a6 DA71     		strb	r2, [r3, #7]
 490:Generated_Source\PSoC5/USBUART_1_std.c ****             USBUART_1_ARB_EP_BASE.arbEp[ep].rwWaMsb = HI8(USBUART_1_EP[ep].buffOffset);
 1767              		.loc 1 490 0
 1768 03a8 6A8D     		ldrh	r2, [r5, #42]
 448:Generated_Source\PSoC5/USBUART_1_std.c ****         
 1769              		.loc 1 448 0
 1770 03aa 0C21     		movs	r1, #12
 490:Generated_Source\PSoC5/USBUART_1_std.c ****             USBUART_1_ARB_EP_BASE.arbEp[ep].rwWaMsb = HI8(USBUART_1_EP[ep].buffOffset);
 1771              		.loc 1 490 0
 1772 03ac D2B2     		uxtb	r2, r2
 1773 03ae 1A71     		strb	r2, [r3, #4]
 491:Generated_Source\PSoC5/USBUART_1_std.c ****         #endif /* (CY_PSOC4) */
 1774              		.loc 1 491 0
 1775 03b0 6A8D     		ldrh	r2, [r5, #42]
 488:Generated_Source\PSoC5/USBUART_1_std.c ****             USBUART_1_ARB_EP_BASE.arbEp[ep].rwRaMsb = HI8(USBUART_1_EP[ep].buffOffset);
 1776              		.loc 1 488 0
 1777 03b2 604C     		ldr	r4, .L139+20
 491:Generated_Source\PSoC5/USBUART_1_std.c ****         #endif /* (CY_PSOC4) */
 1778              		.loc 1 491 0
 1779 03b4 C2F30722 		ubfx	r2, r2, #8, #8
 1780 03b8 5A71     		strb	r2, [r3, #5]
 1781              	.LVL110:
 448:Generated_Source\PSoC5/USBUART_1_std.c ****         
 1782              		.loc 1 448 0
 1783 03ba 0170     		strb	r1, [r0]
ARM GAS  C:\Users\jon\AppData\Local\Temp\ccCLAX4y.s 			page 59


 455:Generated_Source\PSoC5/USBUART_1_std.c ****         {
 1784              		.loc 1 455 0
 1785 03bc 95F83530 		ldrb	r3, [r5, #53]	@ zero_extendqisi2
 1786 03c0 002B     		cmp	r3, #0
 1787 03c2 00F0FE80 		beq	.L103
 457:Generated_Source\PSoC5/USBUART_1_std.c ****             {
 1788              		.loc 1 457 0
 1789 03c6 94F83430 		ldrb	r3, [r4, #52]	@ zero_extendqisi2
 1790 03ca 13F0800F 		tst	r3, #128
 459:Generated_Source\PSoC5/USBUART_1_std.c ****                 
 1791              		.loc 1 459 0
 1792 03ce 604B     		ldr	r3, .L139+48
 468:Generated_Source\PSoC5/USBUART_1_std.c **** 
 1793              		.loc 1 468 0
 1794 03d0 06BF     		itte	eq
 1795 03d2 0822     		moveq	r2, #8
 1796 03d4 9A70     		strbeq	r2, [r3, #2]
 459:Generated_Source\PSoC5/USBUART_1_std.c ****                 
 1797              		.loc 1 459 0
 1798 03d6 9970     		strbne	r1, [r3, #2]
 1799              	.L105:
 488:Generated_Source\PSoC5/USBUART_1_std.c ****             USBUART_1_ARB_EP_BASE.arbEp[ep].rwRaMsb = HI8(USBUART_1_EP[ep].buffOffset);
 1800              		.loc 1 488 0
 1801 03d8 EA8E     		ldrh	r2, [r5, #54]
 1802 03da 5C4B     		ldr	r3, .L139+44
 1803 03dc D2B2     		uxtb	r2, r2
 1804 03de 9A71     		strb	r2, [r3, #6]
 489:Generated_Source\PSoC5/USBUART_1_std.c ****             USBUART_1_ARB_EP_BASE.arbEp[ep].rwWa    = LO8(USBUART_1_EP[ep].buffOffset);
 1805              		.loc 1 489 0
 1806 03e0 EA8E     		ldrh	r2, [r5, #54]
 448:Generated_Source\PSoC5/USBUART_1_std.c ****         
 1807              		.loc 1 448 0
 1808 03e2 5C48     		ldr	r0, .L139+52
 489:Generated_Source\PSoC5/USBUART_1_std.c ****             USBUART_1_ARB_EP_BASE.arbEp[ep].rwWa    = LO8(USBUART_1_EP[ep].buffOffset);
 1809              		.loc 1 489 0
 1810 03e4 C2F30722 		ubfx	r2, r2, #8, #8
 1811 03e8 DA71     		strb	r2, [r3, #7]
 490:Generated_Source\PSoC5/USBUART_1_std.c ****             USBUART_1_ARB_EP_BASE.arbEp[ep].rwWaMsb = HI8(USBUART_1_EP[ep].buffOffset);
 1812              		.loc 1 490 0
 1813 03ea EA8E     		ldrh	r2, [r5, #54]
 448:Generated_Source\PSoC5/USBUART_1_std.c ****         
 1814              		.loc 1 448 0
 1815 03ec 0C21     		movs	r1, #12
 490:Generated_Source\PSoC5/USBUART_1_std.c ****             USBUART_1_ARB_EP_BASE.arbEp[ep].rwWaMsb = HI8(USBUART_1_EP[ep].buffOffset);
 1816              		.loc 1 490 0
 1817 03ee D2B2     		uxtb	r2, r2
 1818 03f0 1A71     		strb	r2, [r3, #4]
 491:Generated_Source\PSoC5/USBUART_1_std.c ****         #endif /* (CY_PSOC4) */
 1819              		.loc 1 491 0
 1820 03f2 EA8E     		ldrh	r2, [r5, #54]
 488:Generated_Source\PSoC5/USBUART_1_std.c ****             USBUART_1_ARB_EP_BASE.arbEp[ep].rwRaMsb = HI8(USBUART_1_EP[ep].buffOffset);
 1821              		.loc 1 488 0
 1822 03f4 4F4C     		ldr	r4, .L139+20
 491:Generated_Source\PSoC5/USBUART_1_std.c ****         #endif /* (CY_PSOC4) */
 1823              		.loc 1 491 0
 1824 03f6 C2F30722 		ubfx	r2, r2, #8, #8
 1825 03fa 5A71     		strb	r2, [r3, #5]
ARM GAS  C:\Users\jon\AppData\Local\Temp\ccCLAX4y.s 			page 60


 1826              	.LVL111:
 448:Generated_Source\PSoC5/USBUART_1_std.c ****         
 1827              		.loc 1 448 0
 1828 03fc 0170     		strb	r1, [r0]
 455:Generated_Source\PSoC5/USBUART_1_std.c ****         {
 1829              		.loc 1 455 0
 1830 03fe 95F84130 		ldrb	r3, [r5, #65]	@ zero_extendqisi2
 1831 0402 002B     		cmp	r3, #0
 1832 0404 00F0D980 		beq	.L106
 457:Generated_Source\PSoC5/USBUART_1_std.c ****             {
 1833              		.loc 1 457 0
 1834 0408 94F84030 		ldrb	r3, [r4, #64]	@ zero_extendqisi2
 1835 040c 13F0800F 		tst	r3, #128
 459:Generated_Source\PSoC5/USBUART_1_std.c ****                 
 1836              		.loc 1 459 0
 1837 0410 514B     		ldr	r3, .L139+56
 468:Generated_Source\PSoC5/USBUART_1_std.c **** 
 1838              		.loc 1 468 0
 1839 0412 06BF     		itte	eq
 1840 0414 0822     		moveq	r2, #8
 1841 0416 9A70     		strbeq	r2, [r3, #2]
 459:Generated_Source\PSoC5/USBUART_1_std.c ****                 
 1842              		.loc 1 459 0
 1843 0418 9970     		strbne	r1, [r3, #2]
 1844              	.L108:
 488:Generated_Source\PSoC5/USBUART_1_std.c ****             USBUART_1_ARB_EP_BASE.arbEp[ep].rwRaMsb = HI8(USBUART_1_EP[ep].buffOffset);
 1845              		.loc 1 488 0
 1846 041a B5F84220 		ldrh	r2, [r5, #66]
 1847 041e 4D4B     		ldr	r3, .L139+52
 1848 0420 D2B2     		uxtb	r2, r2
 1849 0422 9A71     		strb	r2, [r3, #6]
 489:Generated_Source\PSoC5/USBUART_1_std.c ****             USBUART_1_ARB_EP_BASE.arbEp[ep].rwWa    = LO8(USBUART_1_EP[ep].buffOffset);
 1850              		.loc 1 489 0
 1851 0424 B5F84220 		ldrh	r2, [r5, #66]
 448:Generated_Source\PSoC5/USBUART_1_std.c ****         
 1852              		.loc 1 448 0
 1853 0428 4C48     		ldr	r0, .L139+60
 489:Generated_Source\PSoC5/USBUART_1_std.c ****             USBUART_1_ARB_EP_BASE.arbEp[ep].rwWa    = LO8(USBUART_1_EP[ep].buffOffset);
 1854              		.loc 1 489 0
 1855 042a C2F30722 		ubfx	r2, r2, #8, #8
 1856 042e DA71     		strb	r2, [r3, #7]
 490:Generated_Source\PSoC5/USBUART_1_std.c ****             USBUART_1_ARB_EP_BASE.arbEp[ep].rwWaMsb = HI8(USBUART_1_EP[ep].buffOffset);
 1857              		.loc 1 490 0
 1858 0430 B5F84220 		ldrh	r2, [r5, #66]
 448:Generated_Source\PSoC5/USBUART_1_std.c ****         
 1859              		.loc 1 448 0
 1860 0434 0C21     		movs	r1, #12
 490:Generated_Source\PSoC5/USBUART_1_std.c ****             USBUART_1_ARB_EP_BASE.arbEp[ep].rwWaMsb = HI8(USBUART_1_EP[ep].buffOffset);
 1861              		.loc 1 490 0
 1862 0436 D2B2     		uxtb	r2, r2
 1863 0438 1A71     		strb	r2, [r3, #4]
 491:Generated_Source\PSoC5/USBUART_1_std.c ****         #endif /* (CY_PSOC4) */
 1864              		.loc 1 491 0
 1865 043a B5F84220 		ldrh	r2, [r5, #66]
 488:Generated_Source\PSoC5/USBUART_1_std.c ****             USBUART_1_ARB_EP_BASE.arbEp[ep].rwRaMsb = HI8(USBUART_1_EP[ep].buffOffset);
 1866              		.loc 1 488 0
 1867 043e 3D4C     		ldr	r4, .L139+20
ARM GAS  C:\Users\jon\AppData\Local\Temp\ccCLAX4y.s 			page 61


 491:Generated_Source\PSoC5/USBUART_1_std.c ****         #endif /* (CY_PSOC4) */
 1868              		.loc 1 491 0
 1869 0440 C2F30722 		ubfx	r2, r2, #8, #8
 1870 0444 5A71     		strb	r2, [r3, #5]
 1871              	.LVL112:
 448:Generated_Source\PSoC5/USBUART_1_std.c ****         
 1872              		.loc 1 448 0
 1873 0446 0170     		strb	r1, [r0]
 455:Generated_Source\PSoC5/USBUART_1_std.c ****         {
 1874              		.loc 1 455 0
 1875 0448 95F84D30 		ldrb	r3, [r5, #77]	@ zero_extendqisi2
 1876 044c 002B     		cmp	r3, #0
 1877 044e 00F0B080 		beq	.L109
 457:Generated_Source\PSoC5/USBUART_1_std.c ****             {
 1878              		.loc 1 457 0
 1879 0452 94F84C30 		ldrb	r3, [r4, #76]	@ zero_extendqisi2
 1880 0456 13F0800F 		tst	r3, #128
 459:Generated_Source\PSoC5/USBUART_1_std.c ****                 
 1881              		.loc 1 459 0
 1882 045a 414B     		ldr	r3, .L139+64
 468:Generated_Source\PSoC5/USBUART_1_std.c **** 
 1883              		.loc 1 468 0
 1884 045c 06BF     		itte	eq
 1885 045e 0822     		moveq	r2, #8
 1886 0460 9A70     		strbeq	r2, [r3, #2]
 459:Generated_Source\PSoC5/USBUART_1_std.c ****                 
 1887              		.loc 1 459 0
 1888 0462 9970     		strbne	r1, [r3, #2]
 1889              	.L111:
 488:Generated_Source\PSoC5/USBUART_1_std.c ****             USBUART_1_ARB_EP_BASE.arbEp[ep].rwRaMsb = HI8(USBUART_1_EP[ep].buffOffset);
 1890              		.loc 1 488 0
 1891 0464 B5F84E20 		ldrh	r2, [r5, #78]
 1892 0468 3C4B     		ldr	r3, .L139+60
 1893 046a D2B2     		uxtb	r2, r2
 1894 046c 9A71     		strb	r2, [r3, #6]
 489:Generated_Source\PSoC5/USBUART_1_std.c ****             USBUART_1_ARB_EP_BASE.arbEp[ep].rwWa    = LO8(USBUART_1_EP[ep].buffOffset);
 1895              		.loc 1 489 0
 1896 046e B5F84E20 		ldrh	r2, [r5, #78]
 448:Generated_Source\PSoC5/USBUART_1_std.c ****         
 1897              		.loc 1 448 0
 1898 0472 3C48     		ldr	r0, .L139+68
 489:Generated_Source\PSoC5/USBUART_1_std.c ****             USBUART_1_ARB_EP_BASE.arbEp[ep].rwWa    = LO8(USBUART_1_EP[ep].buffOffset);
 1899              		.loc 1 489 0
 1900 0474 C2F30722 		ubfx	r2, r2, #8, #8
 1901 0478 DA71     		strb	r2, [r3, #7]
 490:Generated_Source\PSoC5/USBUART_1_std.c ****             USBUART_1_ARB_EP_BASE.arbEp[ep].rwWaMsb = HI8(USBUART_1_EP[ep].buffOffset);
 1902              		.loc 1 490 0
 1903 047a B5F84E20 		ldrh	r2, [r5, #78]
 448:Generated_Source\PSoC5/USBUART_1_std.c ****         
 1904              		.loc 1 448 0
 1905 047e 0C21     		movs	r1, #12
 490:Generated_Source\PSoC5/USBUART_1_std.c ****             USBUART_1_ARB_EP_BASE.arbEp[ep].rwWaMsb = HI8(USBUART_1_EP[ep].buffOffset);
 1906              		.loc 1 490 0
 1907 0480 D2B2     		uxtb	r2, r2
 1908 0482 1A71     		strb	r2, [r3, #4]
 491:Generated_Source\PSoC5/USBUART_1_std.c ****         #endif /* (CY_PSOC4) */
 1909              		.loc 1 491 0
ARM GAS  C:\Users\jon\AppData\Local\Temp\ccCLAX4y.s 			page 62


 1910 0484 B5F84E20 		ldrh	r2, [r5, #78]
 488:Generated_Source\PSoC5/USBUART_1_std.c ****             USBUART_1_ARB_EP_BASE.arbEp[ep].rwRaMsb = HI8(USBUART_1_EP[ep].buffOffset);
 1911              		.loc 1 488 0
 1912 0488 2A4C     		ldr	r4, .L139+20
 491:Generated_Source\PSoC5/USBUART_1_std.c ****         #endif /* (CY_PSOC4) */
 1913              		.loc 1 491 0
 1914 048a C2F30722 		ubfx	r2, r2, #8, #8
 1915 048e 5A71     		strb	r2, [r3, #5]
 1916              	.LVL113:
 448:Generated_Source\PSoC5/USBUART_1_std.c ****         
 1917              		.loc 1 448 0
 1918 0490 0170     		strb	r1, [r0]
 455:Generated_Source\PSoC5/USBUART_1_std.c ****         {
 1919              		.loc 1 455 0
 1920 0492 95F85930 		ldrb	r3, [r5, #89]	@ zero_extendqisi2
 1921 0496 002B     		cmp	r3, #0
 1922 0498 00F08780 		beq	.L112
 457:Generated_Source\PSoC5/USBUART_1_std.c ****             {
 1923              		.loc 1 457 0
 1924 049c 94F85830 		ldrb	r3, [r4, #88]	@ zero_extendqisi2
 1925 04a0 13F0800F 		tst	r3, #128
 459:Generated_Source\PSoC5/USBUART_1_std.c ****                 
 1926              		.loc 1 459 0
 1927 04a4 304B     		ldr	r3, .L139+72
 468:Generated_Source\PSoC5/USBUART_1_std.c **** 
 1928              		.loc 1 468 0
 1929 04a6 06BF     		itte	eq
 1930 04a8 0822     		moveq	r2, #8
 1931 04aa 9A70     		strbeq	r2, [r3, #2]
 459:Generated_Source\PSoC5/USBUART_1_std.c ****                 
 1932              		.loc 1 459 0
 1933 04ac 9970     		strbne	r1, [r3, #2]
 1934              	.L114:
 488:Generated_Source\PSoC5/USBUART_1_std.c ****             USBUART_1_ARB_EP_BASE.arbEp[ep].rwRaMsb = HI8(USBUART_1_EP[ep].buffOffset);
 1935              		.loc 1 488 0
 1936 04ae B5F85A20 		ldrh	r2, [r5, #90]
 1937 04b2 2C4B     		ldr	r3, .L139+68
 1938 04b4 D2B2     		uxtb	r2, r2
 1939 04b6 9A71     		strb	r2, [r3, #6]
 489:Generated_Source\PSoC5/USBUART_1_std.c ****             USBUART_1_ARB_EP_BASE.arbEp[ep].rwWa    = LO8(USBUART_1_EP[ep].buffOffset);
 1940              		.loc 1 489 0
 1941 04b8 B5F85A20 		ldrh	r2, [r5, #90]
 448:Generated_Source\PSoC5/USBUART_1_std.c ****         
 1942              		.loc 1 448 0
 1943 04bc 2B48     		ldr	r0, .L139+76
 489:Generated_Source\PSoC5/USBUART_1_std.c ****             USBUART_1_ARB_EP_BASE.arbEp[ep].rwWa    = LO8(USBUART_1_EP[ep].buffOffset);
 1944              		.loc 1 489 0
 1945 04be C2F30722 		ubfx	r2, r2, #8, #8
 1946 04c2 DA71     		strb	r2, [r3, #7]
 490:Generated_Source\PSoC5/USBUART_1_std.c ****             USBUART_1_ARB_EP_BASE.arbEp[ep].rwWaMsb = HI8(USBUART_1_EP[ep].buffOffset);
 1947              		.loc 1 490 0
 1948 04c4 B5F85A20 		ldrh	r2, [r5, #90]
 448:Generated_Source\PSoC5/USBUART_1_std.c ****         
 1949              		.loc 1 448 0
 1950 04c8 0C21     		movs	r1, #12
 490:Generated_Source\PSoC5/USBUART_1_std.c ****             USBUART_1_ARB_EP_BASE.arbEp[ep].rwWaMsb = HI8(USBUART_1_EP[ep].buffOffset);
 1951              		.loc 1 490 0
ARM GAS  C:\Users\jon\AppData\Local\Temp\ccCLAX4y.s 			page 63


 1952 04ca D2B2     		uxtb	r2, r2
 1953 04cc 1A71     		strb	r2, [r3, #4]
 491:Generated_Source\PSoC5/USBUART_1_std.c ****         #endif /* (CY_PSOC4) */
 1954              		.loc 1 491 0
 1955 04ce B5F85A20 		ldrh	r2, [r5, #90]
 488:Generated_Source\PSoC5/USBUART_1_std.c ****             USBUART_1_ARB_EP_BASE.arbEp[ep].rwRaMsb = HI8(USBUART_1_EP[ep].buffOffset);
 1956              		.loc 1 488 0
 1957 04d2 184C     		ldr	r4, .L139+20
 491:Generated_Source\PSoC5/USBUART_1_std.c ****         #endif /* (CY_PSOC4) */
 1958              		.loc 1 491 0
 1959 04d4 C2F30722 		ubfx	r2, r2, #8, #8
 1960 04d8 5A71     		strb	r2, [r3, #5]
 1961              	.LVL114:
 448:Generated_Source\PSoC5/USBUART_1_std.c ****         
 1962              		.loc 1 448 0
 1963 04da 0170     		strb	r1, [r0]
 455:Generated_Source\PSoC5/USBUART_1_std.c ****         {
 1964              		.loc 1 455 0
 1965 04dc 95F86530 		ldrb	r3, [r5, #101]	@ zero_extendqisi2
 1966 04e0 002B     		cmp	r3, #0
 1967 04e2 5ED0     		beq	.L115
 457:Generated_Source\PSoC5/USBUART_1_std.c ****             {
 1968              		.loc 1 457 0
 1969 04e4 94F86430 		ldrb	r3, [r4, #100]	@ zero_extendqisi2
 1970 04e8 13F0800F 		tst	r3, #128
 459:Generated_Source\PSoC5/USBUART_1_std.c ****                 
 1971              		.loc 1 459 0
 1972 04ec 204B     		ldr	r3, .L139+80
 468:Generated_Source\PSoC5/USBUART_1_std.c **** 
 1973              		.loc 1 468 0
 1974 04ee 0ABF     		itet	eq
 1975 04f0 0822     		moveq	r2, #8
 459:Generated_Source\PSoC5/USBUART_1_std.c ****                 
 1976              		.loc 1 459 0
 1977 04f2 9970     		strbne	r1, [r3, #2]
 468:Generated_Source\PSoC5/USBUART_1_std.c **** 
 1978              		.loc 1 468 0
 1979 04f4 9A70     		strbeq	r2, [r3, #2]
 1980              	.L117:
 488:Generated_Source\PSoC5/USBUART_1_std.c ****             USBUART_1_ARB_EP_BASE.arbEp[ep].rwRaMsb = HI8(USBUART_1_EP[ep].buffOffset);
 1981              		.loc 1 488 0
 1982 04f6 B5F86620 		ldrh	r2, [r5, #102]
 1983 04fa 1C4B     		ldr	r3, .L139+76
 1984 04fc D2B2     		uxtb	r2, r2
 1985 04fe 9A71     		strb	r2, [r3, #6]
 489:Generated_Source\PSoC5/USBUART_1_std.c ****             USBUART_1_ARB_EP_BASE.arbEp[ep].rwWa    = LO8(USBUART_1_EP[ep].buffOffset);
 1986              		.loc 1 489 0
 1987 0500 B5F86620 		ldrh	r2, [r5, #102]
 519:Generated_Source\PSoC5/USBUART_1_std.c **** }
 1988              		.loc 1 519 0
 1989 0504 1B49     		ldr	r1, .L139+84
 489:Generated_Source\PSoC5/USBUART_1_std.c ****             USBUART_1_ARB_EP_BASE.arbEp[ep].rwWa    = LO8(USBUART_1_EP[ep].buffOffset);
 1990              		.loc 1 489 0
 1991 0506 C2F30722 		ubfx	r2, r2, #8, #8
 1992 050a DA71     		strb	r2, [r3, #7]
 490:Generated_Source\PSoC5/USBUART_1_std.c ****             USBUART_1_ARB_EP_BASE.arbEp[ep].rwWaMsb = HI8(USBUART_1_EP[ep].buffOffset);
 1993              		.loc 1 490 0
ARM GAS  C:\Users\jon\AppData\Local\Temp\ccCLAX4y.s 			page 64


 1994 050c B5F86620 		ldrh	r2, [r5, #102]
 519:Generated_Source\PSoC5/USBUART_1_std.c **** }
 1995              		.loc 1 519 0
 1996 0510 FF20     		movs	r0, #255
 490:Generated_Source\PSoC5/USBUART_1_std.c ****             USBUART_1_ARB_EP_BASE.arbEp[ep].rwWaMsb = HI8(USBUART_1_EP[ep].buffOffset);
 1997              		.loc 1 490 0
 1998 0512 D2B2     		uxtb	r2, r2
 1999 0514 1A71     		strb	r2, [r3, #4]
 491:Generated_Source\PSoC5/USBUART_1_std.c ****         #endif /* (CY_PSOC4) */
 2000              		.loc 1 491 0
 2001 0516 B5F86620 		ldrh	r2, [r5, #102]
 2002 051a C2F30722 		ubfx	r2, r2, #8, #8
 2003 051e 2BE0     		b	.L140
 2004              	.L141:
 2005              		.align	2
 2006              	.L139:
 2007 0520 00000000 		.word	USBUART_1_configuration
 2008 0524 00000000 		.word	USBUART_1_device
 2009 0528 00000000 		.word	USBUART_1_TABLE
 2010 052c 00000000 		.word	USBUART_1_interfaceClass
 2011 0530 80600040 		.word	1073766528
 2012 0534 00000000 		.word	USBUART_1_EP
 2013 0538 0C600040 		.word	1073766412
 2014 053c 90600040 		.word	1073766544
 2015 0540 1C600040 		.word	1073766428
 2016 0544 A0600040 		.word	1073766560
 2017 0548 2C600040 		.word	1073766444
 2018 054c B0600040 		.word	1073766576
 2019 0550 3C600040 		.word	1073766460
 2020 0554 C0600040 		.word	1073766592
 2021 0558 4C600040 		.word	1073766476
 2022 055c D0600040 		.word	1073766608
 2023 0560 5C600040 		.word	1073766492
 2024 0564 E0600040 		.word	1073766624
 2025 0568 6C600040 		.word	1073766508
 2026 056c F0600040 		.word	1073766640
 2027 0570 7C600040 		.word	1073766524
 2028 0574 0A600040 		.word	1073766410
 2029              	.L140:
 2030 0578 5A71     		strb	r2, [r3, #5]
 2031              	.LVL115:
 519:Generated_Source\PSoC5/USBUART_1_std.c **** }
 2032              		.loc 1 519 0
 2033 057a 0870     		strb	r0, [r1]
 2034              	.LVL116:
 2035              	.L74:
 2036              	.LBE68:
 2037              	.LBE71:
 2038              	.LBE45:
 2039              	.LBE44:
 2040              	.LBE43:
 791:Generated_Source\PSoC5/USBUART_1_std.c **** 
 2041              		.loc 1 791 0
 2042 057c 05B0     		add	sp, sp, #20
 2043              		.cfi_remember_state
 2044              		.cfi_def_cfa_offset 36
 2045              		@ sp needed
ARM GAS  C:\Users\jon\AppData\Local\Temp\ccCLAX4y.s 			page 65


 2046 057e BDE8F08F 		pop	{r4, r5, r6, r7, r8, r9, r10, fp, pc}
 2047              	.LVL117:
 2048              	.L77:
 2049              		.cfi_restore_state
 2050              	.LBB76:
 2051              	.LBB75:
 2052              	.LBB74:
 617:Generated_Source\PSoC5/USBUART_1_std.c ****         if ((pDescr[USBUART_1_CONFIG_DESCR_ATTRIB] & USBUART_1_CONFIG_DESCR_ATTRIB_SELF_POWERED) !=
 2053              		.loc 1 617 0
 2054 0582 0023     		movs	r3, #0
 2055 0584 5B68     		ldr	r3, [r3, #4]
 2056 0586 FFDE     		.inst	0xdeff
 2057              	.LVL118:
 2058              	.L136:
 715:Generated_Source\PSoC5/USBUART_1_std.c ****                                 USBUART_1_EP[i].apiEpState = USBUART_1_EVENT_PENDING;
 2059              		.loc 1 715 0
 2060 0588 0129     		cmp	r1, #1
 2061 058a 14BF     		ite	ne
 2062 058c 0D21     		movne	r1, #13
 2063              	.LVL119:
 2064 058e 0721     		moveq	r1, #7
 2065 0590 4171     		strb	r1, [r0, #5]
 2066              	.LVL120:
 716:Generated_Source\PSoC5/USBUART_1_std.c ****                                 
 2067              		.loc 1 716 0
 2068 0592 4FF00101 		mov	r1, #1
 2069 0596 4170     		strb	r1, [r0, #1]
 2070 0598 27E6     		b	.L85
 2071              	.LVL121:
 2072              	.L121:
 2073              	.LBB72:
 2074              	.LBB64:
1045:Generated_Source\PSoC5/USBUART_1_std.c ****     }
1046:Generated_Source\PSoC5/USBUART_1_std.c ****     else
1047:Generated_Source\PSoC5/USBUART_1_std.c ****     {
1048:Generated_Source\PSoC5/USBUART_1_std.c ****         pInterfaceClass = (const uint8 CYCODE *) NULL;
 2075              		.loc 1 1048 0
 2076 059a 0023     		movs	r3, #0
 2077              	.LVL122:
 2078 059c 67E6     		b	.L90
 2079              	.LVL123:
 2080              	.L118:
 2081              	.LBE64:
 2082              	.LBE72:
 694:Generated_Source\PSoC5/USBUART_1_std.c ****                 {
 2083              		.loc 1 694 0
 2084 059e 2146     		mov	r1, r4
 2085 05a0 33E6     		b	.L80
 2086              	.LVL124:
 2087              	.L115:
 2088              	.LBB73:
 2089              	.LBB69:
 480:Generated_Source\PSoC5/USBUART_1_std.c ****         }
 2090              		.loc 1 480 0
 2091 05a2 104B     		ldr	r3, .L142
 2092 05a4 8022     		movs	r2, #128
 2093 05a6 9A70     		strb	r2, [r3, #2]
ARM GAS  C:\Users\jon\AppData\Local\Temp\ccCLAX4y.s 			page 66


 2094 05a8 A5E7     		b	.L117
 2095              	.LVL125:
 2096              	.L112:
 2097 05aa 0F4B     		ldr	r3, .L142+4
 2098 05ac 8022     		movs	r2, #128
 2099 05ae 9A70     		strb	r2, [r3, #2]
 2100 05b0 7DE7     		b	.L114
 2101              	.LVL126:
 2102              	.L109:
 2103 05b2 0E4B     		ldr	r3, .L142+8
 2104 05b4 8022     		movs	r2, #128
 2105 05b6 9A70     		strb	r2, [r3, #2]
 2106 05b8 54E7     		b	.L111
 2107              	.LVL127:
 2108              	.L106:
 2109 05ba 0D4B     		ldr	r3, .L142+12
 2110 05bc 8022     		movs	r2, #128
 2111 05be 9A70     		strb	r2, [r3, #2]
 2112 05c0 2BE7     		b	.L108
 2113              	.LVL128:
 2114              	.L103:
 2115 05c2 0C4B     		ldr	r3, .L142+16
 2116 05c4 8022     		movs	r2, #128
 2117 05c6 9A70     		strb	r2, [r3, #2]
 2118 05c8 06E7     		b	.L105
 2119              	.LVL129:
 2120              	.L100:
 2121 05ca 0B4B     		ldr	r3, .L142+20
 2122 05cc 8022     		movs	r2, #128
 2123 05ce 9A70     		strb	r2, [r3, #2]
 2124 05d0 E1E6     		b	.L102
 2125              	.LVL130:
 2126              	.L97:
 2127 05d2 0A4B     		ldr	r3, .L142+24
 2128 05d4 8022     		movs	r2, #128
 2129 05d6 9A70     		strb	r2, [r3, #2]
 2130 05d8 BCE6     		b	.L99
 2131              	.LVL131:
 2132              	.L94:
 2133 05da 094B     		ldr	r3, .L142+28
 2134 05dc 8022     		movs	r2, #128
 2135 05de 9A70     		strb	r2, [r3, #2]
 2136 05e0 99E6     		b	.L96
 2137              	.L143:
 2138 05e2 00BF     		.align	2
 2139              	.L142:
 2140 05e4 7C600040 		.word	1073766524
 2141 05e8 6C600040 		.word	1073766508
 2142 05ec 5C600040 		.word	1073766492
 2143 05f0 4C600040 		.word	1073766476
 2144 05f4 3C600040 		.word	1073766460
 2145 05f8 2C600040 		.word	1073766444
 2146 05fc 1C600040 		.word	1073766428
 2147 0600 0C600040 		.word	1073766412
 2148              	.LBE69:
 2149              	.LBE73:
 2150              	.LBE74:
ARM GAS  C:\Users\jon\AppData\Local\Temp\ccCLAX4y.s 			page 67


 2151              	.LBE75:
 2152              	.LBE76:
 2153              		.cfi_endproc
 2154              	.LFE4:
 2155              		.size	USBUART_1_Config, .-USBUART_1_Config
 2156              		.section	.text.USBUART_1_HandleStandardRqst,"ax",%progbits
 2157              		.align	2
 2158              		.global	USBUART_1_HandleStandardRqst
 2159              		.thumb
 2160              		.thumb_func
 2161              		.type	USBUART_1_HandleStandardRqst, %function
 2162              	USBUART_1_HandleStandardRqst:
 2163              	.LFB0:
  85:Generated_Source\PSoC5/USBUART_1_std.c ****     uint8 requestHandled = USBUART_1_FALSE;
 2164              		.loc 1 85 0
 2165              		.cfi_startproc
 2166              		@ args = 0, pretend = 0, frame = 0
 2167              		@ frame_needed = 0, uses_anonymous_args = 0
 2168              	.LVL132:
 2169 0000 70B5     		push	{r4, r5, r6, lr}
 2170              		.cfi_def_cfa_offset 16
 2171              		.cfi_offset 4, -16
 2172              		.cfi_offset 5, -12
 2173              		.cfi_offset 6, -8
 2174              		.cfi_offset 14, -4
  89:Generated_Source\PSoC5/USBUART_1_std.c **** 
 2175              		.loc 1 89 0
 2176 0002 A34A     		ldr	r2, .L226
 102:Generated_Source\PSoC5/USBUART_1_std.c **** 
 2177              		.loc 1 102 0
 2178 0004 A34C     		ldr	r4, .L226+4
  89:Generated_Source\PSoC5/USBUART_1_std.c **** 
 2179              		.loc 1 89 0
 2180 0006 1378     		ldrb	r3, [r2]	@ zero_extendqisi2
 102:Generated_Source\PSoC5/USBUART_1_std.c **** 
 2181              		.loc 1 102 0
 2182 0008 0021     		movs	r1, #0
  89:Generated_Source\PSoC5/USBUART_1_std.c **** 
 2183              		.loc 1 89 0
 2184 000a DBB2     		uxtb	r3, r3
 2185              	.LVL133:
 102:Generated_Source\PSoC5/USBUART_1_std.c **** 
 2186              		.loc 1 102 0
 2187 000c 2180     		strh	r1, [r4]	@ movhi
 104:Generated_Source\PSoC5/USBUART_1_std.c ****     {
 2188              		.loc 1 104 0
 2189 000e 1906     		lsls	r1, r3, #24
 107:Generated_Source\PSoC5/USBUART_1_std.c ****         {
 2190              		.loc 1 107 0
 2191 0010 5278     		ldrb	r2, [r2, #1]	@ zero_extendqisi2
 104:Generated_Source\PSoC5/USBUART_1_std.c ****     {
 2192              		.loc 1 104 0
 2193 0012 16D4     		bmi	.L218
 256:Generated_Source\PSoC5/USBUART_1_std.c ****         {
 2194              		.loc 1 256 0
 2195 0014 013A     		subs	r2, r2, #1
 2196 0016 0A2A     		cmp	r2, #10
ARM GAS  C:\Users\jon\AppData\Local\Temp\ccCLAX4y.s 			page 68


 2197 0018 11D8     		bhi	.L206
 2198 001a DFE812F0 		tbh	[pc, r2, lsl #1]
 2199              	.L163:
 2200 001e 6500     		.2byte	(.L162-.L163)/2
 2201 0020 1000     		.2byte	(.L206-.L163)/2
 2202 0022 9B00     		.2byte	(.L164-.L163)/2
 2203 0024 1000     		.2byte	(.L206-.L163)/2
 2204 0026 CC00     		.2byte	(.L165-.L163)/2
 2205 0028 1000     		.2byte	(.L206-.L163)/2
 2206 002a 1000     		.2byte	(.L206-.L163)/2
 2207 002c 1000     		.2byte	(.L206-.L163)/2
 2208 002e D500     		.2byte	(.L166-.L163)/2
 2209 0030 1000     		.2byte	(.L206-.L163)/2
 2210 0032 2D00     		.2byte	(.L167-.L163)/2
 2211              	.LVL134:
 2212              		.p2align 1
 2213              	.L182:
 362:Generated_Source\PSoC5/USBUART_1_std.c ****                         {
 2214              		.loc 1 362 0
 2215 0034 964B     		ldr	r3, .L226
 2216 0036 1A79     		ldrb	r2, [r3, #4]	@ zero_extendqisi2
 2217 0038 012A     		cmp	r2, #1
 2218 003a 40F27B81 		bls	.L219
 2219              	.LVL135:
 2220              	.L206:
 380:Generated_Source\PSoC5/USBUART_1_std.c **** 
 2221              		.loc 1 380 0
 2222 003e 0020     		movs	r0, #0
 2223 0040 70BD     		pop	{r4, r5, r6, pc}
 2224              	.LVL136:
 2225              	.L218:
 107:Generated_Source\PSoC5/USBUART_1_std.c ****         {
 2226              		.loc 1 107 0
 2227 0042 0A2A     		cmp	r2, #10
 2228 0044 FBD8     		bhi	.L206
 2229 0046 01A1     		adr	r1, .L148
 2230 0048 51F822F0 		ldr	pc, [r1, r2, lsl #2]
 2231              		.p2align 2
 2232              	.L148:
 2233 004c C9020000 		.word	.L147+1
 2234 0050 3F000000 		.word	.L206+1
 2235 0054 3F000000 		.word	.L206+1
 2236 0058 3F000000 		.word	.L206+1
 2237 005c 3F000000 		.word	.L206+1
 2238 0060 3F000000 		.word	.L206+1
 2239 0064 27020000 		.word	.L149+1
 2240 0068 3F000000 		.word	.L206+1
 2241 006c FF020000 		.word	.L150+1
 2242 0070 3F000000 		.word	.L206+1
 2243 0074 11020000 		.word	.L151+1
 2244              		.p2align 1
 2245              	.L167:
 2246              	.LVL137:
 2247              	.LBB93:
 2248              	.LBB94:
1049:Generated_Source\PSoC5/USBUART_1_std.c ****     }
1050:Generated_Source\PSoC5/USBUART_1_std.c **** 
ARM GAS  C:\Users\jon\AppData\Local\Temp\ccCLAX4y.s 			page 69


1051:Generated_Source\PSoC5/USBUART_1_std.c ****     return (pInterfaceClass);
1052:Generated_Source\PSoC5/USBUART_1_std.c **** }
1053:Generated_Source\PSoC5/USBUART_1_std.c **** 
1054:Generated_Source\PSoC5/USBUART_1_std.c **** 
1055:Generated_Source\PSoC5/USBUART_1_std.c **** /*******************************************************************************
1056:Generated_Source\PSoC5/USBUART_1_std.c **** * Function Name: USBUART_1_TerminateEP
1057:Generated_Source\PSoC5/USBUART_1_std.c **** ****************************************************************************//**
1058:Generated_Source\PSoC5/USBUART_1_std.c **** *
1059:Generated_Source\PSoC5/USBUART_1_std.c **** *  This function terminates the specified USBFS endpoint.
1060:Generated_Source\PSoC5/USBUART_1_std.c **** *  This function should be used before endpoint reconfiguration.
1061:Generated_Source\PSoC5/USBUART_1_std.c **** *
1062:Generated_Source\PSoC5/USBUART_1_std.c **** *  \param ep Contains the data endpoint number.
1063:Generated_Source\PSoC5/USBUART_1_std.c **** *
1064:Generated_Source\PSoC5/USBUART_1_std.c **** *  \reentrant
1065:Generated_Source\PSoC5/USBUART_1_std.c **** *  No.
1066:Generated_Source\PSoC5/USBUART_1_std.c **** *
1067:Generated_Source\PSoC5/USBUART_1_std.c **** * \sideeffect
1068:Generated_Source\PSoC5/USBUART_1_std.c **** * 
1069:Generated_Source\PSoC5/USBUART_1_std.c **** * The device responds with a NAK for any transactions on the selected endpoint.
1070:Generated_Source\PSoC5/USBUART_1_std.c **** *   
1071:Generated_Source\PSoC5/USBUART_1_std.c **** *******************************************************************************/
1072:Generated_Source\PSoC5/USBUART_1_std.c **** void USBUART_1_TerminateEP(uint8 epNumber) 
1073:Generated_Source\PSoC5/USBUART_1_std.c **** {
1074:Generated_Source\PSoC5/USBUART_1_std.c ****     /* Get endpoint number */
1075:Generated_Source\PSoC5/USBUART_1_std.c ****     epNumber &= USBUART_1_DIR_UNUSED;
1076:Generated_Source\PSoC5/USBUART_1_std.c **** 
1077:Generated_Source\PSoC5/USBUART_1_std.c ****     if ((epNumber > USBUART_1_EP0) && (epNumber < USBUART_1_MAX_EP))
1078:Generated_Source\PSoC5/USBUART_1_std.c ****     {
1079:Generated_Source\PSoC5/USBUART_1_std.c ****         /* Set the endpoint Halt */
1080:Generated_Source\PSoC5/USBUART_1_std.c ****         USBUART_1_EP[epNumber].hwEpState |= USBUART_1_ENDPOINT_STATUS_HALT;
1081:Generated_Source\PSoC5/USBUART_1_std.c **** 
1082:Generated_Source\PSoC5/USBUART_1_std.c ****         /* Clear the data toggle */
1083:Generated_Source\PSoC5/USBUART_1_std.c ****         USBUART_1_EP[epNumber].epToggle = 0u;
1084:Generated_Source\PSoC5/USBUART_1_std.c ****         USBUART_1_EP[epNumber].apiEpState = USBUART_1_NO_EVENT_ALLOWED;
1085:Generated_Source\PSoC5/USBUART_1_std.c **** 
1086:Generated_Source\PSoC5/USBUART_1_std.c ****         if ((USBUART_1_EP[epNumber].addr & USBUART_1_DIR_IN) != 0u)
1087:Generated_Source\PSoC5/USBUART_1_std.c ****         {   
1088:Generated_Source\PSoC5/USBUART_1_std.c ****             /* IN Endpoint */
1089:Generated_Source\PSoC5/USBUART_1_std.c ****             USBUART_1_SIE_EP_BASE.sieEp[epNumber].epCr0 = USBUART_1_MODE_NAK_IN;
1090:Generated_Source\PSoC5/USBUART_1_std.c ****         }
1091:Generated_Source\PSoC5/USBUART_1_std.c ****         else
1092:Generated_Source\PSoC5/USBUART_1_std.c ****         {
1093:Generated_Source\PSoC5/USBUART_1_std.c ****             /* OUT Endpoint */
1094:Generated_Source\PSoC5/USBUART_1_std.c ****             USBUART_1_SIE_EP_BASE.sieEp[epNumber].epCr0 = USBUART_1_MODE_NAK_OUT;
1095:Generated_Source\PSoC5/USBUART_1_std.c ****         }
1096:Generated_Source\PSoC5/USBUART_1_std.c ****     }
1097:Generated_Source\PSoC5/USBUART_1_std.c **** }
1098:Generated_Source\PSoC5/USBUART_1_std.c **** 
1099:Generated_Source\PSoC5/USBUART_1_std.c **** 
1100:Generated_Source\PSoC5/USBUART_1_std.c **** /*******************************************************************************
1101:Generated_Source\PSoC5/USBUART_1_std.c **** * Function Name: USBUART_1_SetEndpointHalt
1102:Generated_Source\PSoC5/USBUART_1_std.c **** ****************************************************************************//**
1103:Generated_Source\PSoC5/USBUART_1_std.c **** *
1104:Generated_Source\PSoC5/USBUART_1_std.c **** *  This routine handles set endpoint halt.
1105:Generated_Source\PSoC5/USBUART_1_std.c **** *
1106:Generated_Source\PSoC5/USBUART_1_std.c **** * \return
1107:Generated_Source\PSoC5/USBUART_1_std.c **** *  requestHandled.
ARM GAS  C:\Users\jon\AppData\Local\Temp\ccCLAX4y.s 			page 70


1108:Generated_Source\PSoC5/USBUART_1_std.c **** *
1109:Generated_Source\PSoC5/USBUART_1_std.c **** * \reentrant
1110:Generated_Source\PSoC5/USBUART_1_std.c **** *  No.
1111:Generated_Source\PSoC5/USBUART_1_std.c **** *
1112:Generated_Source\PSoC5/USBUART_1_std.c **** *******************************************************************************/
1113:Generated_Source\PSoC5/USBUART_1_std.c **** uint8 USBUART_1_SetEndpointHalt(void) 
1114:Generated_Source\PSoC5/USBUART_1_std.c **** {
1115:Generated_Source\PSoC5/USBUART_1_std.c ****     uint8 requestHandled = USBUART_1_FALSE;
1116:Generated_Source\PSoC5/USBUART_1_std.c ****     uint8 ep;
1117:Generated_Source\PSoC5/USBUART_1_std.c ****     
1118:Generated_Source\PSoC5/USBUART_1_std.c ****     /* Set endpoint halt */
1119:Generated_Source\PSoC5/USBUART_1_std.c ****     ep = USBUART_1_wIndexLoReg & USBUART_1_DIR_UNUSED;
1120:Generated_Source\PSoC5/USBUART_1_std.c **** 
1121:Generated_Source\PSoC5/USBUART_1_std.c ****     if ((ep > USBUART_1_EP0) && (ep < USBUART_1_MAX_EP))
1122:Generated_Source\PSoC5/USBUART_1_std.c ****     {
1123:Generated_Source\PSoC5/USBUART_1_std.c ****         /* Set the endpoint Halt */
1124:Generated_Source\PSoC5/USBUART_1_std.c ****         USBUART_1_EP[ep].hwEpState |= (USBUART_1_ENDPOINT_STATUS_HALT);
1125:Generated_Source\PSoC5/USBUART_1_std.c **** 
1126:Generated_Source\PSoC5/USBUART_1_std.c ****         /* Clear the data toggle */
1127:Generated_Source\PSoC5/USBUART_1_std.c ****         USBUART_1_EP[ep].epToggle = 0u;
1128:Generated_Source\PSoC5/USBUART_1_std.c ****         USBUART_1_EP[ep].apiEpState |= USBUART_1_NO_EVENT_ALLOWED;
1129:Generated_Source\PSoC5/USBUART_1_std.c **** 
1130:Generated_Source\PSoC5/USBUART_1_std.c ****         if ((USBUART_1_EP[ep].addr & USBUART_1_DIR_IN) != 0u)
1131:Generated_Source\PSoC5/USBUART_1_std.c ****         {
1132:Generated_Source\PSoC5/USBUART_1_std.c ****             /* IN Endpoint */
1133:Generated_Source\PSoC5/USBUART_1_std.c ****             USBUART_1_SIE_EP_BASE.sieEp[ep].epCr0 = (USBUART_1_MODE_STALL_DATA_EP | 
1134:Generated_Source\PSoC5/USBUART_1_std.c ****                                                             USBUART_1_MODE_ACK_IN);
1135:Generated_Source\PSoC5/USBUART_1_std.c ****         }
1136:Generated_Source\PSoC5/USBUART_1_std.c ****         else
1137:Generated_Source\PSoC5/USBUART_1_std.c ****         {
1138:Generated_Source\PSoC5/USBUART_1_std.c ****             /* OUT Endpoint */
1139:Generated_Source\PSoC5/USBUART_1_std.c ****             USBUART_1_SIE_EP_BASE.sieEp[ep].epCr0 = (USBUART_1_MODE_STALL_DATA_EP | 
1140:Generated_Source\PSoC5/USBUART_1_std.c ****                                                             USBUART_1_MODE_ACK_OUT);
1141:Generated_Source\PSoC5/USBUART_1_std.c ****         }
1142:Generated_Source\PSoC5/USBUART_1_std.c ****         requestHandled = USBUART_1_InitNoDataControlTransfer();
1143:Generated_Source\PSoC5/USBUART_1_std.c ****     }
1144:Generated_Source\PSoC5/USBUART_1_std.c **** 
1145:Generated_Source\PSoC5/USBUART_1_std.c ****     return (requestHandled);
1146:Generated_Source\PSoC5/USBUART_1_std.c **** }
1147:Generated_Source\PSoC5/USBUART_1_std.c **** 
1148:Generated_Source\PSoC5/USBUART_1_std.c **** 
1149:Generated_Source\PSoC5/USBUART_1_std.c **** /*******************************************************************************
1150:Generated_Source\PSoC5/USBUART_1_std.c **** * Function Name: USBUART_1_ClearEndpointHalt
1151:Generated_Source\PSoC5/USBUART_1_std.c **** ****************************************************************************//**
1152:Generated_Source\PSoC5/USBUART_1_std.c **** *
1153:Generated_Source\PSoC5/USBUART_1_std.c **** *  This routine handles clear endpoint halt.
1154:Generated_Source\PSoC5/USBUART_1_std.c **** *
1155:Generated_Source\PSoC5/USBUART_1_std.c **** * \return
1156:Generated_Source\PSoC5/USBUART_1_std.c **** *  requestHandled.
1157:Generated_Source\PSoC5/USBUART_1_std.c **** *
1158:Generated_Source\PSoC5/USBUART_1_std.c **** * \reentrant
1159:Generated_Source\PSoC5/USBUART_1_std.c **** *  No.
1160:Generated_Source\PSoC5/USBUART_1_std.c **** *
1161:Generated_Source\PSoC5/USBUART_1_std.c **** *******************************************************************************/
1162:Generated_Source\PSoC5/USBUART_1_std.c **** uint8 USBUART_1_ClearEndpointHalt(void) 
1163:Generated_Source\PSoC5/USBUART_1_std.c **** {
1164:Generated_Source\PSoC5/USBUART_1_std.c ****     uint8 requestHandled = USBUART_1_FALSE;
ARM GAS  C:\Users\jon\AppData\Local\Temp\ccCLAX4y.s 			page 71


1165:Generated_Source\PSoC5/USBUART_1_std.c ****     uint8 ep;
1166:Generated_Source\PSoC5/USBUART_1_std.c **** 
1167:Generated_Source\PSoC5/USBUART_1_std.c ****     /* Clear endpoint halt */
1168:Generated_Source\PSoC5/USBUART_1_std.c ****     ep = USBUART_1_wIndexLoReg & USBUART_1_DIR_UNUSED;
1169:Generated_Source\PSoC5/USBUART_1_std.c **** 
1170:Generated_Source\PSoC5/USBUART_1_std.c ****     if ((ep > USBUART_1_EP0) && (ep < USBUART_1_MAX_EP))
1171:Generated_Source\PSoC5/USBUART_1_std.c ****     {
1172:Generated_Source\PSoC5/USBUART_1_std.c ****         /* Clear the endpoint Halt */
1173:Generated_Source\PSoC5/USBUART_1_std.c ****         USBUART_1_EP[ep].hwEpState &= (uint8) ~USBUART_1_ENDPOINT_STATUS_HALT;
1174:Generated_Source\PSoC5/USBUART_1_std.c **** 
1175:Generated_Source\PSoC5/USBUART_1_std.c ****         /* Clear the data toggle */
1176:Generated_Source\PSoC5/USBUART_1_std.c ****         USBUART_1_EP[ep].epToggle = 0u;
1177:Generated_Source\PSoC5/USBUART_1_std.c ****         
1178:Generated_Source\PSoC5/USBUART_1_std.c ****         /* Clear toggle bit for already armed packet */
1179:Generated_Source\PSoC5/USBUART_1_std.c ****         USBUART_1_SIE_EP_BASE.sieEp[ep].epCnt0 &= (uint8) ~(uint8)USBUART_1_EPX_CNT_DATA_TOGGLE;
1180:Generated_Source\PSoC5/USBUART_1_std.c ****         
1181:Generated_Source\PSoC5/USBUART_1_std.c ****         /* Return API State as it was defined before */
1182:Generated_Source\PSoC5/USBUART_1_std.c ****         USBUART_1_EP[ep].apiEpState &= (uint8) ~USBUART_1_NO_EVENT_ALLOWED;
1183:Generated_Source\PSoC5/USBUART_1_std.c **** 
1184:Generated_Source\PSoC5/USBUART_1_std.c ****         if ((USBUART_1_EP[ep].addr & USBUART_1_DIR_IN) != 0u)
1185:Generated_Source\PSoC5/USBUART_1_std.c ****         {
1186:Generated_Source\PSoC5/USBUART_1_std.c ****             /* IN Endpoint */
1187:Generated_Source\PSoC5/USBUART_1_std.c ****             if(USBUART_1_EP[ep].apiEpState == USBUART_1_IN_BUFFER_EMPTY)
1188:Generated_Source\PSoC5/USBUART_1_std.c ****             {       
1189:Generated_Source\PSoC5/USBUART_1_std.c ****                 /* Wait for next packet from application */
1190:Generated_Source\PSoC5/USBUART_1_std.c ****                 USBUART_1_SIE_EP_BASE.sieEp[ep].epCr0 = USBUART_1_MODE_NAK_IN;
1191:Generated_Source\PSoC5/USBUART_1_std.c ****             }
1192:Generated_Source\PSoC5/USBUART_1_std.c ****             else    /* Continue armed transfer */
1193:Generated_Source\PSoC5/USBUART_1_std.c ****             {
1194:Generated_Source\PSoC5/USBUART_1_std.c ****                 USBUART_1_SIE_EP_BASE.sieEp[ep].epCr0 = USBUART_1_MODE_ACK_IN;
1195:Generated_Source\PSoC5/USBUART_1_std.c ****             }
1196:Generated_Source\PSoC5/USBUART_1_std.c ****         }
1197:Generated_Source\PSoC5/USBUART_1_std.c ****         else
1198:Generated_Source\PSoC5/USBUART_1_std.c ****         {
1199:Generated_Source\PSoC5/USBUART_1_std.c ****             /* OUT Endpoint */
1200:Generated_Source\PSoC5/USBUART_1_std.c ****             if (USBUART_1_EP[ep].apiEpState == USBUART_1_OUT_BUFFER_FULL)
1201:Generated_Source\PSoC5/USBUART_1_std.c ****             {       
1202:Generated_Source\PSoC5/USBUART_1_std.c ****                 /* Allow application to read full buffer */
1203:Generated_Source\PSoC5/USBUART_1_std.c ****                 USBUART_1_SIE_EP_BASE.sieEp[ep].epCr0 = USBUART_1_MODE_NAK_OUT;
1204:Generated_Source\PSoC5/USBUART_1_std.c ****             }
1205:Generated_Source\PSoC5/USBUART_1_std.c ****             else    /* Mark endpoint as empty, so it will be reloaded */
1206:Generated_Source\PSoC5/USBUART_1_std.c ****             {
1207:Generated_Source\PSoC5/USBUART_1_std.c ****                 USBUART_1_SIE_EP_BASE.sieEp[ep].epCr0 = USBUART_1_MODE_ACK_OUT;
1208:Generated_Source\PSoC5/USBUART_1_std.c ****             }
1209:Generated_Source\PSoC5/USBUART_1_std.c ****         }
1210:Generated_Source\PSoC5/USBUART_1_std.c ****         
1211:Generated_Source\PSoC5/USBUART_1_std.c ****         requestHandled = USBUART_1_InitNoDataControlTransfer();
1212:Generated_Source\PSoC5/USBUART_1_std.c ****     }
1213:Generated_Source\PSoC5/USBUART_1_std.c **** 
1214:Generated_Source\PSoC5/USBUART_1_std.c ****     return(requestHandled);
1215:Generated_Source\PSoC5/USBUART_1_std.c **** }
1216:Generated_Source\PSoC5/USBUART_1_std.c **** 
1217:Generated_Source\PSoC5/USBUART_1_std.c **** 
1218:Generated_Source\PSoC5/USBUART_1_std.c **** /*******************************************************************************
1219:Generated_Source\PSoC5/USBUART_1_std.c **** * Function Name: USBUART_1_ValidateAlternateSetting
1220:Generated_Source\PSoC5/USBUART_1_std.c **** ****************************************************************************//**
1221:Generated_Source\PSoC5/USBUART_1_std.c **** *
ARM GAS  C:\Users\jon\AppData\Local\Temp\ccCLAX4y.s 			page 72


1222:Generated_Source\PSoC5/USBUART_1_std.c **** *  Validates (and records) a SET INTERFACE request.
1223:Generated_Source\PSoC5/USBUART_1_std.c **** *
1224:Generated_Source\PSoC5/USBUART_1_std.c **** * \return
1225:Generated_Source\PSoC5/USBUART_1_std.c **** *  requestHandled.
1226:Generated_Source\PSoC5/USBUART_1_std.c **** *
1227:Generated_Source\PSoC5/USBUART_1_std.c **** * \reentrant
1228:Generated_Source\PSoC5/USBUART_1_std.c **** *  No.
1229:Generated_Source\PSoC5/USBUART_1_std.c **** *
1230:Generated_Source\PSoC5/USBUART_1_std.c **** *******************************************************************************/
1231:Generated_Source\PSoC5/USBUART_1_std.c **** uint8 USBUART_1_ValidateAlternateSetting(void) 
1232:Generated_Source\PSoC5/USBUART_1_std.c **** {
1233:Generated_Source\PSoC5/USBUART_1_std.c ****     uint8 requestHandled = USBUART_1_FALSE;
1234:Generated_Source\PSoC5/USBUART_1_std.c ****     
1235:Generated_Source\PSoC5/USBUART_1_std.c ****     uint8 interfaceNum;
1236:Generated_Source\PSoC5/USBUART_1_std.c ****     uint8 curInterfacesNum;
1237:Generated_Source\PSoC5/USBUART_1_std.c ****     const T_USBUART_1_LUT CYCODE *pTmp;
1238:Generated_Source\PSoC5/USBUART_1_std.c ****     
1239:Generated_Source\PSoC5/USBUART_1_std.c ****     /* Get interface number from the request. */
1240:Generated_Source\PSoC5/USBUART_1_std.c ****     interfaceNum = (uint8) USBUART_1_wIndexLoReg;
 2249              		.loc 1 1240 0
 2250 0078 854B     		ldr	r3, .L226
 2251              	.LVL138:
1241:Generated_Source\PSoC5/USBUART_1_std.c ****     
1242:Generated_Source\PSoC5/USBUART_1_std.c ****     /* Get number of interfaces for current configuration. */
1243:Generated_Source\PSoC5/USBUART_1_std.c ****     pTmp = USBUART_1_GetConfigTablePtr(USBUART_1_configuration - 1u);
 2252              		.loc 1 1243 0
 2253 007a 8748     		ldr	r0, .L226+8
 2254              	.LBB95:
 2255              	.LBB96:
 948:Generated_Source\PSoC5/USBUART_1_std.c **** 
 2256              		.loc 1 948 0
 2257 007c 874C     		ldr	r4, .L226+12
 2258              	.LBE96:
 2259              	.LBE95:
1240:Generated_Source\PSoC5/USBUART_1_std.c ****     
 2260              		.loc 1 1240 0
 2261 007e 1A79     		ldrb	r2, [r3, #4]	@ zero_extendqisi2
 2262              	.LBB102:
 2263              	.LBB97:
 948:Generated_Source\PSoC5/USBUART_1_std.c **** 
 2264              		.loc 1 948 0
 2265 0080 8749     		ldr	r1, .L226+16
 2266              	.LBE97:
 2267              	.LBE102:
 2268              		.loc 1 1243 0
 2269 0082 0378     		ldrb	r3, [r0]	@ zero_extendqisi2
 2270              	.LBB103:
 2271              	.LBB98:
 948:Generated_Source\PSoC5/USBUART_1_std.c **** 
 2272              		.loc 1 948 0
 2273 0084 2478     		ldrb	r4, [r4]	@ zero_extendqisi2
 2274              	.LBE98:
 2275              	.LBE103:
 2276              		.loc 1 1243 0
 2277 0086 013B     		subs	r3, r3, #1
 2278              	.LBB104:
 2279              	.LBB99:
ARM GAS  C:\Users\jon\AppData\Local\Temp\ccCLAX4y.s 			page 73


 948:Generated_Source\PSoC5/USBUART_1_std.c **** 
 2280              		.loc 1 948 0
 2281 0088 01EBC401 		add	r1, r1, r4, lsl #3
 2282 008c 4968     		ldr	r1, [r1, #4]
 2283              	.LBE99:
 2284              	.LBE104:
 2285              		.loc 1 1243 0
 2286 008e DBB2     		uxtb	r3, r3
 2287              	.LBB105:
 2288              	.LBB100:
 957:Generated_Source\PSoC5/USBUART_1_std.c ****     {
 2289              		.loc 1 957 0
 2290 0090 0C7C     		ldrb	r4, [r1, #16]	@ zero_extendqisi2
 2291              	.LBE100:
 2292              	.LBE105:
1240:Generated_Source\PSoC5/USBUART_1_std.c ****     
 2293              		.loc 1 1240 0
 2294 0092 D2B2     		uxtb	r2, r2
 2295              	.LVL139:
 2296              	.LBB106:
 2297              	.LBB101:
 957:Generated_Source\PSoC5/USBUART_1_std.c ****     {
 2298              		.loc 1 957 0
 2299 0094 9C42     		cmp	r4, r3
 2300 0096 40F23A81 		bls	.L170
 2301              	.LVL140:
 963:Generated_Source\PSoC5/USBUART_1_std.c ****     }
 2302              		.loc 1 963 0
 2303 009a 01EBC303 		add	r3, r1, r3, lsl #3
 2304              	.LVL141:
 2305              	.LBE101:
 2306              	.LBE106:
1244:Generated_Source\PSoC5/USBUART_1_std.c ****     curInterfacesNum  = ((const uint8 *) pTmp->p_list)[USBUART_1_CONFIG_DESCR_NUM_INTERFACES];
 2307              		.loc 1 1244 0
 2308 009e 5B69     		ldr	r3, [r3, #20]
 2309 00a0 5B68     		ldr	r3, [r3, #4]
1245:Generated_Source\PSoC5/USBUART_1_std.c **** 
1246:Generated_Source\PSoC5/USBUART_1_std.c ****     /* Validate that interface number is within range. */
1247:Generated_Source\PSoC5/USBUART_1_std.c ****     if ((interfaceNum <= curInterfacesNum) || (interfaceNum <= USBUART_1_MAX_INTERFACES_NUMBER))
 2310              		.loc 1 1247 0
 2311 00a2 1B79     		ldrb	r3, [r3, #4]	@ zero_extendqisi2
 2312 00a4 9342     		cmp	r3, r2
 2313 00a6 01D2     		bcs	.L171
 2314 00a8 022A     		cmp	r2, #2
 2315 00aa C8D8     		bhi	.L206
 2316              	.L171:
1248:Generated_Source\PSoC5/USBUART_1_std.c ****     {
1249:Generated_Source\PSoC5/USBUART_1_std.c ****         /* Save current and new alternate settings (come with request) to make 
1250:Generated_Source\PSoC5/USBUART_1_std.c ****         * desicion about following endpoint re-configuration.
1251:Generated_Source\PSoC5/USBUART_1_std.c ****         */
1252:Generated_Source\PSoC5/USBUART_1_std.c ****         USBUART_1_interfaceSettingLast[interfaceNum] = USBUART_1_interfaceSetting[interfaceNum];
 2317              		.loc 1 1252 0
 2318 00ac 7D49     		ldr	r1, .L226+20
 2319 00ae 7E4D     		ldr	r5, .L226+24
 2320 00b0 8B5C     		ldrb	r3, [r1, r2]	@ zero_extendqisi2
1253:Generated_Source\PSoC5/USBUART_1_std.c ****         USBUART_1_interfaceSetting[interfaceNum]     = (uint8) USBUART_1_wValueLoReg;
 2321              		.loc 1 1253 0
ARM GAS  C:\Users\jon\AppData\Local\Temp\ccCLAX4y.s 			page 74


 2322 00b2 774C     		ldr	r4, .L226
1252:Generated_Source\PSoC5/USBUART_1_std.c ****         USBUART_1_interfaceSetting[interfaceNum]     = (uint8) USBUART_1_wValueLoReg;
 2323              		.loc 1 1252 0
 2324 00b4 DBB2     		uxtb	r3, r3
 2325 00b6 AB54     		strb	r3, [r5, r2]
 2326              		.loc 1 1253 0
 2327 00b8 A378     		ldrb	r3, [r4, #2]	@ zero_extendqisi2
 2328              	.LBE94:
 2329              	.LBE93:
 292:Generated_Source\PSoC5/USBUART_1_std.c ****                      
 2330              		.loc 1 292 0
 2331 00ba 7C4E     		ldr	r6, .L226+28
 2332              	.LBB109:
 2333              	.LBB107:
 2334              		.loc 1 1253 0
 2335 00bc DBB2     		uxtb	r3, r3
 2336 00be 8B54     		strb	r3, [r1, r2]
 2337              	.LVL142:
 2338              	.LBE107:
 2339              	.LBE109:
 291:Generated_Source\PSoC5/USBUART_1_std.c ****                     USBUART_1_interfaceNumber = (uint8) USBUART_1_wIndexLoReg;
 2340              		.loc 1 291 0
 2341 00c0 2379     		ldrb	r3, [r4, #4]	@ zero_extendqisi2
 292:Generated_Source\PSoC5/USBUART_1_std.c ****                      
 2342              		.loc 1 292 0
 2343 00c2 2279     		ldrb	r2, [r4, #4]	@ zero_extendqisi2
 291:Generated_Source\PSoC5/USBUART_1_std.c ****                     USBUART_1_interfaceNumber = (uint8) USBUART_1_wIndexLoReg;
 2344              		.loc 1 291 0
 2345 00c4 DBB2     		uxtb	r3, r3
 2346              	.LVL143:
 292:Generated_Source\PSoC5/USBUART_1_std.c ****                      
 2347              		.loc 1 292 0
 2348 00c6 D2B2     		uxtb	r2, r2
 2349 00c8 3270     		strb	r2, [r6]
 295:Generated_Source\PSoC5/USBUART_1_std.c ****                     {
 2350              		.loc 1 295 0
 2351 00ca EA5C     		ldrb	r2, [r5, r3]	@ zero_extendqisi2
 2352 00cc CB5C     		ldrb	r3, [r1, r3]	@ zero_extendqisi2
 2353              	.LVL144:
 2354 00ce 9A42     		cmp	r2, r3
 2355 00d0 06D0     		beq	.L215
 297:Generated_Source\PSoC5/USBUART_1_std.c ****                     
 2356              		.loc 1 297 0
 2357 00d2 774B     		ldr	r3, .L226+32
 2358 00d4 0122     		movs	r2, #1
 2359 00d6 1A70     		strb	r2, [r3]
 2360              	.LBB110:
 2361              	.LBB111:
 817:Generated_Source\PSoC5/USBUART_1_std.c ****     {
 2362              		.loc 1 817 0
 2363 00d8 0378     		ldrb	r3, [r0]	@ zero_extendqisi2
 2364 00da 002B     		cmp	r3, #0
 2365 00dc 40F01A81 		bne	.L220
 2366              	.L215:
 2367              	.LBE111:
 2368              	.LBE110:
 380:Generated_Source\PSoC5/USBUART_1_std.c **** 
ARM GAS  C:\Users\jon\AppData\Local\Temp\ccCLAX4y.s 			page 75


 2369              		.loc 1 380 0
 2370 00e0 BDE87040 		pop	{r4, r5, r6, lr}
 2371              		.cfi_remember_state
 2372              		.cfi_restore 14
 2373              		.cfi_restore 6
 2374              		.cfi_restore 5
 2375              		.cfi_restore 4
 2376              		.cfi_def_cfa_offset 0
 365:Generated_Source\PSoC5/USBUART_1_std.c ****                         }
 2377              		.loc 1 365 0
 2378 00e4 FFF7FEBF 		b	USBUART_1_InitNoDataControlTransfer
 2379              	.LVL145:
 2380              	.L162:
 2381              		.cfi_restore_state
 312:Generated_Source\PSoC5/USBUART_1_std.c ****                 {
 2382              		.loc 1 312 0
 2383 00e8 03F00303 		and	r3, r3, #3
 2384              	.LVL146:
 2385 00ec 012B     		cmp	r3, #1
 2386 00ee A1D0     		beq	.L182
 2387 00f0 C0F03781 		bcc	.L176
 2388 00f4 022B     		cmp	r3, #2
 2389 00f6 A2D1     		bne	.L206
 315:Generated_Source\PSoC5/USBUART_1_std.c ****                         {
 2390              		.loc 1 315 0
 2391 00f8 654A     		ldr	r2, .L226
 2392 00fa 9378     		ldrb	r3, [r2, #2]	@ zero_extendqisi2
 2393 00fc 03F0FF01 		and	r1, r3, #255
 2394 0100 002B     		cmp	r3, #0
 2395 0102 9CD1     		bne	.L206
 2396              	.LVL147:
 2397              	.LBB113:
 2398              	.LBB114:
1168:Generated_Source\PSoC5/USBUART_1_std.c **** 
 2399              		.loc 1 1168 0
 2400 0104 1379     		ldrb	r3, [r2, #4]	@ zero_extendqisi2
 2401 0106 03F07F03 		and	r3, r3, #127
 2402              	.LVL148:
1170:Generated_Source\PSoC5/USBUART_1_std.c ****     {
 2403              		.loc 1 1170 0
 2404 010a 5A1E     		subs	r2, r3, #1
 2405 010c 072A     		cmp	r2, #7
 2406 010e 96D8     		bhi	.L206
1173:Generated_Source\PSoC5/USBUART_1_std.c **** 
 2407              		.loc 1 1173 0
 2408 0110 684A     		ldr	r2, .L226+36
 2409 0112 03EB4300 		add	r0, r3, r3, lsl #1
 2410 0116 02EB8002 		add	r2, r2, r0, lsl #2
 2411 011a 9078     		ldrb	r0, [r2, #2]	@ zero_extendqisi2
 2412 011c 664C     		ldr	r4, .L226+40
 2413 011e 00F0FE00 		and	r0, r0, #254
 2414 0122 9070     		strb	r0, [r2, #2]
1176:Generated_Source\PSoC5/USBUART_1_std.c ****         
 2415              		.loc 1 1176 0
 2416 0124 D170     		strb	r1, [r2, #3]
 2417 0126 2146     		mov	r1, r4
 2418 0128 1B01     		lsls	r3, r3, #4
ARM GAS  C:\Users\jon\AppData\Local\Temp\ccCLAX4y.s 			page 76


 2419              	.LVL149:
1179:Generated_Source\PSoC5/USBUART_1_std.c ****         
 2420              		.loc 1 1179 0
 2421 012a 185D     		ldrb	r0, [r3, r4]	@ zero_extendqisi2
 2422 012c 1944     		add	r1, r1, r3
 2423 012e 00F07F00 		and	r0, r0, #127
 2424 0132 1855     		strb	r0, [r3, r4]
1182:Generated_Source\PSoC5/USBUART_1_std.c **** 
 2425              		.loc 1 1182 0
 2426 0134 5078     		ldrb	r0, [r2, #1]	@ zero_extendqisi2
 2427 0136 00F0FD03 		and	r3, r0, #253
 2428 013a 5370     		strb	r3, [r2, #1]
1184:Generated_Source\PSoC5/USBUART_1_std.c ****         {
 2429              		.loc 1 1184 0
 2430 013c 1379     		ldrb	r3, [r2, #4]	@ zero_extendqisi2
 2431 013e 13F0800F 		tst	r3, #128
1187:Generated_Source\PSoC5/USBUART_1_std.c ****             {       
 2432              		.loc 1 1187 0
 2433 0142 5378     		ldrb	r3, [r2, #1]	@ zero_extendqisi2
1184:Generated_Source\PSoC5/USBUART_1_std.c ****         {
 2434              		.loc 1 1184 0
 2435 0144 40F04C81 		bne	.L221
1200:Generated_Source\PSoC5/USBUART_1_std.c ****             {       
 2436              		.loc 1 1200 0
 2437 0148 012B     		cmp	r3, #1
1203:Generated_Source\PSoC5/USBUART_1_std.c ****             }
 2438              		.loc 1 1203 0
 2439 014a 0CBF     		ite	eq
 2440 014c 0823     		moveq	r3, #8
1207:Generated_Source\PSoC5/USBUART_1_std.c ****             }
 2441              		.loc 1 1207 0
 2442 014e 0923     		movne	r3, #9
 2443 0150 8B70     		strb	r3, [r1, #2]
 2444 0152 C5E7     		b	.L215
 2445              	.LVL150:
 2446              	.L164:
 2447              	.LBE114:
 2448              	.LBE113:
 342:Generated_Source\PSoC5/USBUART_1_std.c ****                 {
 2449              		.loc 1 342 0
 2450 0154 03F00303 		and	r3, r3, #3
 2451              	.LVL151:
 2452 0158 012B     		cmp	r3, #1
 2453 015a 3FF46BAF 		beq	.L182
 2454 015e C0F00E81 		bcc	.L183
 2455 0162 022B     		cmp	r3, #2
 2456 0164 7FF46BAF 		bne	.L206
 345:Generated_Source\PSoC5/USBUART_1_std.c ****                         {
 2457              		.loc 1 345 0
 2458 0168 494A     		ldr	r2, .L226
 2459 016a 9378     		ldrb	r3, [r2, #2]	@ zero_extendqisi2
 2460 016c 03F0FF01 		and	r1, r3, #255
 2461 0170 002B     		cmp	r3, #0
 2462 0172 7FF464AF 		bne	.L206
 2463              	.LVL152:
 2464              	.LBB116:
 2465              	.LBB117:
ARM GAS  C:\Users\jon\AppData\Local\Temp\ccCLAX4y.s 			page 77


1119:Generated_Source\PSoC5/USBUART_1_std.c **** 
 2466              		.loc 1 1119 0
 2467 0176 1379     		ldrb	r3, [r2, #4]	@ zero_extendqisi2
 2468 0178 03F07F03 		and	r3, r3, #127
 2469              	.LVL153:
1121:Generated_Source\PSoC5/USBUART_1_std.c ****     {
 2470              		.loc 1 1121 0
 2471 017c 5A1E     		subs	r2, r3, #1
 2472 017e 072A     		cmp	r2, #7
 2473 0180 3FF65DAF 		bhi	.L206
1124:Generated_Source\PSoC5/USBUART_1_std.c **** 
 2474              		.loc 1 1124 0
 2475 0184 4B4A     		ldr	r2, .L226+36
 2476 0186 03EB4300 		add	r0, r3, r3, lsl #1
 2477 018a 02EB8002 		add	r2, r2, r0, lsl #2
 2478 018e 9078     		ldrb	r0, [r2, #2]	@ zero_extendqisi2
1133:Generated_Source\PSoC5/USBUART_1_std.c ****                                                             USBUART_1_MODE_ACK_IN);
 2479              		.loc 1 1133 0
 2480 0190 1B01     		lsls	r3, r3, #4
 2481              	.LVL154:
1124:Generated_Source\PSoC5/USBUART_1_std.c **** 
 2482              		.loc 1 1124 0
 2483 0192 40F00100 		orr	r0, r0, #1
 2484 0196 9070     		strb	r0, [r2, #2]
1127:Generated_Source\PSoC5/USBUART_1_std.c ****         USBUART_1_EP[ep].apiEpState |= USBUART_1_NO_EVENT_ALLOWED;
 2485              		.loc 1 1127 0
 2486 0198 D170     		strb	r1, [r2, #3]
1128:Generated_Source\PSoC5/USBUART_1_std.c **** 
 2487              		.loc 1 1128 0
 2488 019a 5178     		ldrb	r1, [r2, #1]	@ zero_extendqisi2
 2489 019c 41F00201 		orr	r1, r1, #2
 2490 01a0 5170     		strb	r1, [r2, #1]
1130:Generated_Source\PSoC5/USBUART_1_std.c ****         {
 2491              		.loc 1 1130 0
 2492 01a2 1279     		ldrb	r2, [r2, #4]	@ zero_extendqisi2
 2493 01a4 12F0800F 		tst	r2, #128
1133:Generated_Source\PSoC5/USBUART_1_std.c ****                                                             USBUART_1_MODE_ACK_IN);
 2494              		.loc 1 1133 0
 2495 01a8 434A     		ldr	r2, .L226+40
 2496 01aa 1A44     		add	r2, r2, r3
 2497 01ac 14BF     		ite	ne
 2498 01ae 8D23     		movne	r3, #141
1139:Generated_Source\PSoC5/USBUART_1_std.c ****                                                             USBUART_1_MODE_ACK_OUT);
 2499              		.loc 1 1139 0
 2500 01b0 8923     		moveq	r3, #137
 2501 01b2 9370     		strb	r3, [r2, #2]
 2502 01b4 94E7     		b	.L215
 2503              	.LVL155:
 2504              	.L165:
 2505              	.LBE117:
 2506              	.LBE116:
 260:Generated_Source\PSoC5/USBUART_1_std.c ****                 requestHandled = USBUART_1_InitNoDataControlTransfer();
 2507              		.loc 1 260 0
 2508 01b6 364B     		ldr	r3, .L226
 2509              	.LVL156:
 2510 01b8 404A     		ldr	r2, .L226+44
 2511 01ba 9B78     		ldrb	r3, [r3, #2]	@ zero_extendqisi2
ARM GAS  C:\Users\jon\AppData\Local\Temp\ccCLAX4y.s 			page 78


 2512 01bc DBB2     		uxtb	r3, r3
 2513 01be 1370     		strb	r3, [r2]
 380:Generated_Source\PSoC5/USBUART_1_std.c **** 
 2514              		.loc 1 380 0
 2515 01c0 BDE87040 		pop	{r4, r5, r6, lr}
 2516              		.cfi_remember_state
 2517              		.cfi_restore 14
 2518              		.cfi_restore 6
 2519              		.cfi_restore 5
 2520              		.cfi_restore 4
 2521              		.cfi_def_cfa_offset 0
 261:Generated_Source\PSoC5/USBUART_1_std.c ****                 break;
 2522              		.loc 1 261 0
 2523 01c4 FFF7FEBF 		b	USBUART_1_InitNoDataControlTransfer
 2524              	.LVL157:
 2525              	.L166:
 2526              		.cfi_restore_state
 265:Generated_Source\PSoC5/USBUART_1_std.c ****                 
 2527              		.loc 1 265 0
 2528 01c8 314B     		ldr	r3, .L226
 2529              	.LVL158:
 2530 01ca 9B78     		ldrb	r3, [r3, #2]	@ zero_extendqisi2
 2531              	.LVL159:
 268:Generated_Source\PSoC5/USBUART_1_std.c ****                 {
 2532              		.loc 1 268 0
 2533 01cc 03F0FF02 		and	r2, r3, #255
 2534 01d0 8BB1     		cbz	r3, .L168
 2535              	.LBB118:
 2536              	.LBB119:
 948:Generated_Source\PSoC5/USBUART_1_std.c **** 
 2537              		.loc 1 948 0
 2538 01d2 324B     		ldr	r3, .L226+12
 2539              	.LVL160:
 2540 01d4 3249     		ldr	r1, .L226+16
 2541 01d6 1878     		ldrb	r0, [r3]	@ zero_extendqisi2
 2542              	.LBE119:
 2543              	.LBE118:
 270:Generated_Source\PSoC5/USBUART_1_std.c ****                 }
 2544              		.loc 1 270 0
 2545 01d8 531E     		subs	r3, r2, #1
 2546              	.LBB122:
 2547              	.LBB120:
 948:Generated_Source\PSoC5/USBUART_1_std.c **** 
 2548              		.loc 1 948 0
 2549 01da 01EBC001 		add	r1, r1, r0, lsl #3
 2550 01de 4968     		ldr	r1, [r1, #4]
 2551              	.LBE120:
 2552              	.LBE122:
 270:Generated_Source\PSoC5/USBUART_1_std.c ****                 }
 2553              		.loc 1 270 0
 2554 01e0 DBB2     		uxtb	r3, r3
 2555              	.LVL161:
 2556              	.LBB123:
 2557              	.LBB121:
 957:Generated_Source\PSoC5/USBUART_1_std.c ****     {
 2558              		.loc 1 957 0
 2559 01e2 087C     		ldrb	r0, [r1, #16]	@ zero_extendqisi2
ARM GAS  C:\Users\jon\AppData\Local\Temp\ccCLAX4y.s 			page 79


 2560 01e4 9842     		cmp	r0, r3
 2561 01e6 7FF62AAF 		bls	.L206
 2562              	.LVL162:
 963:Generated_Source\PSoC5/USBUART_1_std.c ****     }
 2563              		.loc 1 963 0
 2564 01ea 01EBC303 		add	r3, r1, r3, lsl #3
 2565              	.LVL163:
 2566              	.LBE121:
 2567              	.LBE123:
 274:Generated_Source\PSoC5/USBUART_1_std.c ****                 {
 2568              		.loc 1 274 0
 2569 01ee 5B69     		ldr	r3, [r3, #20]
 2570 01f0 002B     		cmp	r3, #0
 2571 01f2 3FF424AF 		beq	.L206
 2572              	.LVL164:
 2573              	.L168:
 277:Generated_Source\PSoC5/USBUART_1_std.c ****                     {
 2574              		.loc 1 277 0
 2575 01f6 284B     		ldr	r3, .L226+8
 2576 01f8 1978     		ldrb	r1, [r3]	@ zero_extendqisi2
 2577 01fa 8A42     		cmp	r2, r1
 2578 01fc 3FF470AF 		beq	.L215
 280:Generated_Source\PSoC5/USBUART_1_std.c ****                         USBUART_1_Config(USBUART_1_TRUE);
 2579              		.loc 1 280 0
 2580 0200 0121     		movs	r1, #1
 2581 0202 2B4C     		ldr	r4, .L226+32
 281:Generated_Source\PSoC5/USBUART_1_std.c ****                     }
 2582              		.loc 1 281 0
 2583 0204 0846     		mov	r0, r1
 279:Generated_Source\PSoC5/USBUART_1_std.c ****                         USBUART_1_configurationChanged = USBUART_1_TRUE;
 2584              		.loc 1 279 0
 2585 0206 1A70     		strb	r2, [r3]
 280:Generated_Source\PSoC5/USBUART_1_std.c ****                         USBUART_1_Config(USBUART_1_TRUE);
 2586              		.loc 1 280 0
 2587 0208 2170     		strb	r1, [r4]
 281:Generated_Source\PSoC5/USBUART_1_std.c ****                     }
 2588              		.loc 1 281 0
 2589 020a FFF7FEFF 		bl	USBUART_1_Config
 2590              	.LVL165:
 2591 020e 67E7     		b	.L215
 2592              	.LVL166:
 2593              	.L151:
 244:Generated_Source\PSoC5/USBUART_1_std.c ****                 USBUART_1_currentTD.pData = (volatile uint8 *) &USBUART_1_interfaceSetting[USBUART_
 2594              		.loc 1 244 0
 2595 0210 0122     		movs	r2, #1
 245:Generated_Source\PSoC5/USBUART_1_std.c ****                 requestHandled  = USBUART_1_InitControlRead();
 2596              		.loc 1 245 0
 2597 0212 1F4B     		ldr	r3, .L226
 2598              	.LVL167:
 244:Generated_Source\PSoC5/USBUART_1_std.c ****                 USBUART_1_currentTD.pData = (volatile uint8 *) &USBUART_1_interfaceSetting[USBUART_
 2599              		.loc 1 244 0
 2600 0214 2280     		strh	r2, [r4]	@ movhi
 245:Generated_Source\PSoC5/USBUART_1_std.c ****                 requestHandled  = USBUART_1_InitControlRead();
 2601              		.loc 1 245 0
 2602 0216 1B79     		ldrb	r3, [r3, #4]	@ zero_extendqisi2
 2603 0218 224A     		ldr	r2, .L226+20
 2604 021a 1344     		add	r3, r3, r2
ARM GAS  C:\Users\jon\AppData\Local\Temp\ccCLAX4y.s 			page 80


 2605 021c 6360     		str	r3, [r4, #4]
 380:Generated_Source\PSoC5/USBUART_1_std.c **** 
 2606              		.loc 1 380 0
 2607 021e BDE87040 		pop	{r4, r5, r6, lr}
 2608              		.cfi_remember_state
 2609              		.cfi_restore 14
 2610              		.cfi_restore 6
 2611              		.cfi_restore 5
 2612              		.cfi_restore 4
 2613              		.cfi_def_cfa_offset 0
 246:Generated_Source\PSoC5/USBUART_1_std.c ****                 break;
 2614              		.loc 1 246 0
 2615 0222 FFF7FEBF 		b	USBUART_1_InitControlRead
 2616              	.LVL168:
 2617              	.L149:
 2618              		.cfi_restore_state
 110:Generated_Source\PSoC5/USBUART_1_std.c ****                 {
 2619              		.loc 1 110 0
 2620 0226 1A4B     		ldr	r3, .L226
 2621              	.LVL169:
 2622 0228 DA78     		ldrb	r2, [r3, #3]	@ zero_extendqisi2
 2623 022a 012A     		cmp	r2, #1
 2624 022c 00F08B80 		beq	.L222
 118:Generated_Source\PSoC5/USBUART_1_std.c ****                 {
 2625              		.loc 1 118 0
 2626 0230 DA78     		ldrb	r2, [r3, #3]	@ zero_extendqisi2
 2627 0232 022A     		cmp	r2, #2
 2628 0234 00F0B580 		beq	.L223
 149:Generated_Source\PSoC5/USBUART_1_std.c ****                 {
 2629              		.loc 1 149 0
 2630 0238 DA78     		ldrb	r2, [r3, #3]	@ zero_extendqisi2
 2631 023a 032A     		cmp	r2, #3
 2632 023c 40F0AD80 		bne	.L156
 2633              	.LVL170:
 156:Generated_Source\PSoC5/USBUART_1_std.c ****                     {
 2634              		.loc 1 156 0
 2635 0240 9A78     		ldrb	r2, [r3, #2]	@ zero_extendqisi2
 2636 0242 002A     		cmp	r2, #0
 2637 0244 00F0D780 		beq	.L188
 2638 0248 1D4A     		ldr	r2, .L226+48
 2639 024a 1178     		ldrb	r1, [r2]	@ zero_extendqisi2
 2640 024c 59B1     		cbz	r1, .L157
 2641 024e 1946     		mov	r1, r3
 2642 0250 0023     		movs	r3, #0
 2643 0252 01E0     		b	.L158
 2644              	.LVL171:
 2645              	.L224:
 156:Generated_Source\PSoC5/USBUART_1_std.c ****                     {
 2646              		.loc 1 156 0 is_stmt 0 discriminator 1
 2647 0254 1078     		ldrb	r0, [r2]	@ zero_extendqisi2
 2648 0256 30B1     		cbz	r0, .L157
 2649              	.LVL172:
 2650              	.L158:
 159:Generated_Source\PSoC5/USBUART_1_std.c ****                         /* Move to next string descriptor */
 2651              		.loc 1 159 0 is_stmt 1
 2652 0258 1578     		ldrb	r5, [r2]	@ zero_extendqisi2
 2653              	.LVL173:
ARM GAS  C:\Users\jon\AppData\Local\Temp\ccCLAX4y.s 			page 81


 162:Generated_Source\PSoC5/USBUART_1_std.c ****                     }
 2654              		.loc 1 162 0
 2655 025a 0133     		adds	r3, r3, #1
 2656              	.LVL174:
 156:Generated_Source\PSoC5/USBUART_1_std.c ****                     {
 2657              		.loc 1 156 0
 2658 025c 8878     		ldrb	r0, [r1, #2]	@ zero_extendqisi2
 162:Generated_Source\PSoC5/USBUART_1_std.c ****                     }
 2659              		.loc 1 162 0
 2660 025e DBB2     		uxtb	r3, r3
 156:Generated_Source\PSoC5/USBUART_1_std.c ****                     {
 2661              		.loc 1 156 0
 2662 0260 9842     		cmp	r0, r3
 161:Generated_Source\PSoC5/USBUART_1_std.c ****                         nStr++;
 2663              		.loc 1 161 0
 2664 0262 2A44     		add	r2, r2, r5
 2665              	.LVL175:
 156:Generated_Source\PSoC5/USBUART_1_std.c ****                     {
 2666              		.loc 1 156 0
 2667 0264 F6D8     		bhi	.L224
 2668              	.LVL176:
 2669              	.L157:
 176:Generated_Source\PSoC5/USBUART_1_std.c ****                         (USBUART_1_wValueLoReg == USBUART_1_DEVICE0_DESCR[USBUART_1_DEVICE_DESCR_SN
 2670              		.loc 1 176 0
 2671 0266 0A4B     		ldr	r3, .L226
 2672 0268 9978     		ldrb	r1, [r3, #2]	@ zero_extendqisi2
 2673 026a 29B1     		cbz	r1, .L159
 177:Generated_Source\PSoC5/USBUART_1_std.c ****                     {
 2674              		.loc 1 177 0 discriminator 1
 2675 026c 1549     		ldr	r1, .L226+52
 2676 026e 9B78     		ldrb	r3, [r3, #2]	@ zero_extendqisi2
 176:Generated_Source\PSoC5/USBUART_1_std.c ****                         (USBUART_1_wValueLoReg == USBUART_1_DEVICE0_DESCR[USBUART_1_DEVICE_DESCR_SN
 2677              		.loc 1 176 0 discriminator 1
 2678 0270 097C     		ldrb	r1, [r1, #16]	@ zero_extendqisi2
 2679 0272 9942     		cmp	r1, r3
 2680 0274 00F0BA80 		beq	.L225
 2681              	.L159:
 2682              	.LVL177:
 199:Generated_Source\PSoC5/USBUART_1_std.c ****                     {
 2683              		.loc 1 199 0
 2684 0278 1378     		ldrb	r3, [r2]	@ zero_extendqisi2
 2685 027a 002B     		cmp	r3, #0
 2686 027c 3FF4DFAE 		beq	.L206
 201:Generated_Source\PSoC5/USBUART_1_std.c ****                         USBUART_1_currentTD.pData = pStr;
 2687              		.loc 1 201 0
 2688 0280 1378     		ldrb	r3, [r2]	@ zero_extendqisi2
 2689 0282 2380     		strh	r3, [r4]	@ movhi
 202:Generated_Source\PSoC5/USBUART_1_std.c ****                         requestHandled  = USBUART_1_InitControlRead();
 2690              		.loc 1 202 0
 2691 0284 6260     		str	r2, [r4, #4]
 380:Generated_Source\PSoC5/USBUART_1_std.c **** 
 2692              		.loc 1 380 0
 2693 0286 BDE87040 		pop	{r4, r5, r6, lr}
 2694              		.cfi_remember_state
 2695              		.cfi_restore 14
 2696              		.cfi_restore 6
 2697              		.cfi_restore 5
ARM GAS  C:\Users\jon\AppData\Local\Temp\ccCLAX4y.s 			page 82


 2698              		.cfi_restore 4
 2699              		.cfi_def_cfa_offset 0
 203:Generated_Source\PSoC5/USBUART_1_std.c ****                     }
 2700              		.loc 1 203 0
 2701 028a FFF7FEBF 		b	USBUART_1_InitControlRead
 2702              	.LVL178:
 2703              	.L227:
 2704 028e 00BF     		.align	2
 2705              	.L226:
 2706 0290 00600040 		.word	1073766400
 2707 0294 00000000 		.word	USBUART_1_currentTD
 2708 0298 00000000 		.word	USBUART_1_configuration
 2709 029c 00000000 		.word	USBUART_1_device
 2710 02a0 00000000 		.word	USBUART_1_TABLE
 2711 02a4 00000000 		.word	USBUART_1_interfaceSetting
 2712 02a8 00000000 		.word	USBUART_1_interfaceSettingLast
 2713 02ac 00000000 		.word	USBUART_1_interfaceNumber
 2714 02b0 00000000 		.word	USBUART_1_configurationChanged
 2715 02b4 00000000 		.word	USBUART_1_EP
 2716 02b8 FC5F0040 		.word	1073766396
 2717 02bc 00000000 		.word	USBUART_1_deviceAddress
 2718 02c0 00000000 		.word	USBUART_1_STRING_DESCRIPTORS
 2719 02c4 00000000 		.word	USBUART_1_DEVICE0_DESCR
 2720              	.LVL179:
 2721              	.L147:
 2722              		.cfi_restore_state
 214:Generated_Source\PSoC5/USBUART_1_std.c ****                 {
 2723              		.loc 1 214 0
 2724 02c8 13F00303 		ands	r3, r3, #3
 2725              	.LVL180:
 2726 02cc 25D0     		beq	.L160
 2727 02ce 022B     		cmp	r3, #2
 2728 02d0 7FF4B5AE 		bne	.L206
 218:Generated_Source\PSoC5/USBUART_1_std.c ****                         USBUART_1_tBuffer[1u]     = 0u;
 2729              		.loc 1 218 0
 2730 02d4 494A     		ldr	r2, .L228
 217:Generated_Source\PSoC5/USBUART_1_std.c ****                         USBUART_1_tBuffer[0u]     = USBUART_1_EP[USBUART_1_wIndexLoReg & USBUART_1_
 2731              		.loc 1 217 0
 2732 02d6 2380     		strh	r3, [r4]	@ movhi
 218:Generated_Source\PSoC5/USBUART_1_std.c ****                         USBUART_1_tBuffer[1u]     = 0u;
 2733              		.loc 1 218 0
 2734 02d8 1379     		ldrb	r3, [r2, #4]	@ zero_extendqisi2
 2735 02da 494A     		ldr	r2, .L228+4
 2736 02dc 03F07F03 		and	r3, r3, #127
 2737 02e0 03EB4303 		add	r3, r3, r3, lsl #1
 2738 02e4 02EB8303 		add	r3, r2, r3, lsl #2
 2739 02e8 9A78     		ldrb	r2, [r3, #2]	@ zero_extendqisi2
 2740 02ea 464B     		ldr	r3, .L228+8
 2741 02ec D2B2     		uxtb	r2, r2
 219:Generated_Source\PSoC5/USBUART_1_std.c ****                         USBUART_1_currentTD.pData = &USBUART_1_tBuffer[0u];
 2742              		.loc 1 219 0
 2743 02ee 0021     		movs	r1, #0
 218:Generated_Source\PSoC5/USBUART_1_std.c ****                         USBUART_1_tBuffer[1u]     = 0u;
 2744              		.loc 1 218 0
 2745 02f0 1A70     		strb	r2, [r3]
 219:Generated_Source\PSoC5/USBUART_1_std.c ****                         USBUART_1_currentTD.pData = &USBUART_1_tBuffer[0u];
 2746              		.loc 1 219 0
ARM GAS  C:\Users\jon\AppData\Local\Temp\ccCLAX4y.s 			page 83


 2747 02f2 5970     		strb	r1, [r3, #1]
 220:Generated_Source\PSoC5/USBUART_1_std.c ****                         
 2748              		.loc 1 220 0
 2749 02f4 6360     		str	r3, [r4, #4]
 380:Generated_Source\PSoC5/USBUART_1_std.c **** 
 2750              		.loc 1 380 0
 2751 02f6 BDE87040 		pop	{r4, r5, r6, lr}
 2752              		.cfi_remember_state
 2753              		.cfi_restore 14
 2754              		.cfi_restore 6
 2755              		.cfi_restore 5
 2756              		.cfi_restore 4
 2757              		.cfi_def_cfa_offset 0
 222:Generated_Source\PSoC5/USBUART_1_std.c ****                         break;
 2758              		.loc 1 222 0
 2759 02fa FFF7FEBF 		b	USBUART_1_InitControlRead
 2760              	.LVL181:
 2761              	.L150:
 2762              		.cfi_restore_state
 239:Generated_Source\PSoC5/USBUART_1_std.c ****                 requestHandled  = USBUART_1_InitControlRead();
 2763              		.loc 1 239 0
 2764 02fe 424B     		ldr	r3, .L228+12
 2765              	.LVL182:
 238:Generated_Source\PSoC5/USBUART_1_std.c ****                 USBUART_1_currentTD.pData = (volatile uint8 *) &USBUART_1_configuration;
 2766              		.loc 1 238 0
 2767 0300 0122     		movs	r2, #1
 2768 0302 2280     		strh	r2, [r4]	@ movhi
 239:Generated_Source\PSoC5/USBUART_1_std.c ****                 requestHandled  = USBUART_1_InitControlRead();
 2769              		.loc 1 239 0
 2770 0304 6360     		str	r3, [r4, #4]
 380:Generated_Source\PSoC5/USBUART_1_std.c **** 
 2771              		.loc 1 380 0
 2772 0306 BDE87040 		pop	{r4, r5, r6, lr}
 2773              		.cfi_remember_state
 2774              		.cfi_restore 14
 2775              		.cfi_restore 6
 2776              		.cfi_restore 5
 2777              		.cfi_restore 4
 2778              		.cfi_def_cfa_offset 0
 240:Generated_Source\PSoC5/USBUART_1_std.c ****                 break;
 2779              		.loc 1 240 0
 2780 030a FFF7FEBF 		b	USBUART_1_InitControlRead
 2781              	.LVL183:
 2782              	.L170:
 2783              		.cfi_restore_state
 2784              	.LBB124:
 2785              	.LBB108:
1244:Generated_Source\PSoC5/USBUART_1_std.c **** 
 2786              		.loc 1 1244 0
 2787 030e 0023     		movs	r3, #0
 2788 0310 5B68     		ldr	r3, [r3, #4]
 2789 0312 FFDE     		.inst	0xdeff
 2790              	.LVL184:
 2791              	.L220:
 2792              	.LBE108:
 2793              	.LBE124:
 2794              	.LBB125:
ARM GAS  C:\Users\jon\AppData\Local\Temp\ccCLAX4y.s 			page 84


 2795              	.LBB112:
 2796 0314 FFF7FEFF 		bl	USBUART_1_ConfigAltChanged.part.0
 2797              	.LVL185:
 2798 0318 E2E6     		b	.L215
 2799              	.L160:
 2800              	.LBE112:
 2801              	.LBE125:
 225:Generated_Source\PSoC5/USBUART_1_std.c ****                         USBUART_1_tBuffer[0u]     = USBUART_1_deviceStatus;
 2802              		.loc 1 225 0
 2803 031a 0221     		movs	r1, #2
 226:Generated_Source\PSoC5/USBUART_1_std.c ****                         USBUART_1_tBuffer[1u]     = 0u;
 2804              		.loc 1 226 0
 2805 031c 3B4A     		ldr	r2, .L228+16
 225:Generated_Source\PSoC5/USBUART_1_std.c ****                         USBUART_1_tBuffer[0u]     = USBUART_1_deviceStatus;
 2806              		.loc 1 225 0
 2807 031e 2180     		strh	r1, [r4]	@ movhi
 226:Generated_Source\PSoC5/USBUART_1_std.c ****                         USBUART_1_tBuffer[1u]     = 0u;
 2808              		.loc 1 226 0
 2809 0320 1178     		ldrb	r1, [r2]	@ zero_extendqisi2
 2810 0322 384A     		ldr	r2, .L228+8
 2811 0324 C9B2     		uxtb	r1, r1
 2812 0326 1170     		strb	r1, [r2]
 227:Generated_Source\PSoC5/USBUART_1_std.c ****                         USBUART_1_currentTD.pData = &USBUART_1_tBuffer[0u];
 2813              		.loc 1 227 0
 2814 0328 5370     		strb	r3, [r2, #1]
 228:Generated_Source\PSoC5/USBUART_1_std.c ****                         
 2815              		.loc 1 228 0
 2816 032a 6260     		str	r2, [r4, #4]
 380:Generated_Source\PSoC5/USBUART_1_std.c **** 
 2817              		.loc 1 380 0
 2818 032c BDE87040 		pop	{r4, r5, r6, lr}
 2819              		.cfi_remember_state
 2820              		.cfi_restore 14
 2821              		.cfi_restore 6
 2822              		.cfi_restore 5
 2823              		.cfi_restore 4
 2824              		.cfi_def_cfa_offset 0
 230:Generated_Source\PSoC5/USBUART_1_std.c ****                         break;
 2825              		.loc 1 230 0
 2826 0330 FFF7FEBF 		b	USBUART_1_InitControlRead
 2827              	.LVL186:
 2828              	.L219:
 2829              		.cfi_restore_state
 364:Generated_Source\PSoC5/USBUART_1_std.c ****                             requestHandled = USBUART_1_InitNoDataControlTransfer();
 2830              		.loc 1 364 0
 2831 0334 9878     		ldrb	r0, [r3, #2]	@ zero_extendqisi2
 2832 0336 1B79     		ldrb	r3, [r3, #4]	@ zero_extendqisi2
 2833 0338 3549     		ldr	r1, .L228+20
 2834 033a DBB2     		uxtb	r3, r3
 2835 033c CA5C     		ldrb	r2, [r1, r3]	@ zero_extendqisi2
 2836 033e 22EA0002 		bic	r2, r2, r0
 2837 0342 CA54     		strb	r2, [r1, r3]
 2838 0344 CCE6     		b	.L215
 2839              	.L222:
 2840              	.LBB126:
 2841              	.LBB127:
1015:Generated_Source\PSoC5/USBUART_1_std.c **** }
ARM GAS  C:\Users\jon\AppData\Local\Temp\ccCLAX4y.s 			page 85


 2842              		.loc 1 1015 0
 2843 0346 334A     		ldr	r2, .L228+24
 2844 0348 334B     		ldr	r3, .L228+28
 2845 034a 1178     		ldrb	r1, [r2]	@ zero_extendqisi2
 2846              	.LBE127:
 2847              	.LBE126:
 114:Generated_Source\PSoC5/USBUART_1_std.c ****                     
 2848              		.loc 1 114 0
 2849 034c 1222     		movs	r2, #18
 2850              	.LBB129:
 2851              	.LBB128:
1015:Generated_Source\PSoC5/USBUART_1_std.c **** }
 2852              		.loc 1 1015 0
 2853 034e 03EBC103 		add	r3, r3, r1, lsl #3
 2854              	.LBE128:
 2855              	.LBE129:
 113:Generated_Source\PSoC5/USBUART_1_std.c ****                     USBUART_1_currentTD.count = USBUART_1_DEVICE_DESCR_LENGTH;
 2856              		.loc 1 113 0
 2857 0352 5B68     		ldr	r3, [r3, #4]
 2858 0354 5B68     		ldr	r3, [r3, #4]
 2859 0356 6360     		str	r3, [r4, #4]
 114:Generated_Source\PSoC5/USBUART_1_std.c ****                     
 2860              		.loc 1 114 0
 2861 0358 2280     		strh	r2, [r4]	@ movhi
 380:Generated_Source\PSoC5/USBUART_1_std.c **** 
 2862              		.loc 1 380 0
 2863 035a BDE87040 		pop	{r4, r5, r6, lr}
 2864              		.cfi_remember_state
 2865              		.cfi_restore 14
 2866              		.cfi_restore 6
 2867              		.cfi_restore 5
 2868              		.cfi_restore 4
 2869              		.cfi_def_cfa_offset 0
 116:Generated_Source\PSoC5/USBUART_1_std.c ****                 }
 2870              		.loc 1 116 0
 2871 035e FFF7FEBF 		b	USBUART_1_InitControlRead
 2872              	.LVL187:
 2873              	.L176:
 2874              		.cfi_restore_state
 322:Generated_Source\PSoC5/USBUART_1_std.c ****                         {
 2875              		.loc 1 322 0
 2876 0362 264B     		ldr	r3, .L228
 2877 0364 9B78     		ldrb	r3, [r3, #2]	@ zero_extendqisi2
 2878 0366 012B     		cmp	r3, #1
 2879 0368 7FF469AE 		bne	.L206
 324:Generated_Source\PSoC5/USBUART_1_std.c ****                             requestHandled = USBUART_1_InitNoDataControlTransfer();
 2880              		.loc 1 324 0
 2881 036c 274A     		ldr	r2, .L228+16
 2882 036e 1378     		ldrb	r3, [r2]	@ zero_extendqisi2
 2883 0370 03F0FD03 		and	r3, r3, #253
 2884 0374 1370     		strb	r3, [r2]
 380:Generated_Source\PSoC5/USBUART_1_std.c **** 
 2885              		.loc 1 380 0
 2886 0376 BDE87040 		pop	{r4, r5, r6, lr}
 2887              		.cfi_remember_state
 2888              		.cfi_restore 14
 2889              		.cfi_restore 6
ARM GAS  C:\Users\jon\AppData\Local\Temp\ccCLAX4y.s 			page 86


 2890              		.cfi_restore 5
 2891              		.cfi_restore 4
 2892              		.cfi_def_cfa_offset 0
 325:Generated_Source\PSoC5/USBUART_1_std.c ****                         }
 2893              		.loc 1 325 0
 2894 037a FFF7FEBF 		b	USBUART_1_InitNoDataControlTransfer
 2895              	.LVL188:
 2896              	.L183:
 2897              		.cfi_restore_state
 353:Generated_Source\PSoC5/USBUART_1_std.c ****                         {
 2898              		.loc 1 353 0
 2899 037e 1F4B     		ldr	r3, .L228
 2900 0380 9B78     		ldrb	r3, [r3, #2]	@ zero_extendqisi2
 2901 0382 012B     		cmp	r3, #1
 2902 0384 7FF45BAE 		bne	.L206
 355:Generated_Source\PSoC5/USBUART_1_std.c ****                             requestHandled = USBUART_1_InitNoDataControlTransfer();
 2903              		.loc 1 355 0
 2904 0388 204A     		ldr	r2, .L228+16
 2905 038a 1378     		ldrb	r3, [r2]	@ zero_extendqisi2
 2906 038c 43F00203 		orr	r3, r3, #2
 2907 0390 1370     		strb	r3, [r2]
 380:Generated_Source\PSoC5/USBUART_1_std.c **** 
 2908              		.loc 1 380 0
 2909 0392 BDE87040 		pop	{r4, r5, r6, lr}
 2910              		.cfi_remember_state
 2911              		.cfi_restore 14
 2912              		.cfi_restore 6
 2913              		.cfi_restore 5
 2914              		.cfi_restore 4
 2915              		.cfi_def_cfa_offset 0
 356:Generated_Source\PSoC5/USBUART_1_std.c ****                         }
 2916              		.loc 1 356 0
 2917 0396 FFF7FEBF 		b	USBUART_1_InitNoDataControlTransfer
 2918              	.LVL189:
 2919              	.L156:
 2920              		.cfi_restore_state
 380:Generated_Source\PSoC5/USBUART_1_std.c **** 
 2921              		.loc 1 380 0
 2922 039a BDE87040 		pop	{r4, r5, r6, lr}
 2923              		.cfi_remember_state
 2924              		.cfi_restore 14
 2925              		.cfi_restore 6
 2926              		.cfi_restore 5
 2927              		.cfi_restore 4
 2928              		.cfi_def_cfa_offset 0
 209:Generated_Source\PSoC5/USBUART_1_std.c ****                 }
 2929              		.loc 1 209 0
 2930 039e FFF7FEBF 		b	USBUART_1_DispatchClassRqst
 2931              	.LVL190:
 2932              	.L223:
 2933              		.cfi_restore_state
 2934              	.LBB130:
 2935              	.LBB131:
 948:Generated_Source\PSoC5/USBUART_1_std.c **** 
 2936              		.loc 1 948 0
 2937 03a2 1C49     		ldr	r1, .L228+24
 2938              	.LBE131:
ARM GAS  C:\Users\jon\AppData\Local\Temp\ccCLAX4y.s 			page 87


 2939              	.LBE130:
 120:Generated_Source\PSoC5/USBUART_1_std.c ****                     
 2940              		.loc 1 120 0
 2941 03a4 9B78     		ldrb	r3, [r3, #2]	@ zero_extendqisi2
 2942              	.LBB134:
 2943              	.LBB132:
 948:Generated_Source\PSoC5/USBUART_1_std.c **** 
 2944              		.loc 1 948 0
 2945 03a6 1C4A     		ldr	r2, .L228+28
 2946 03a8 0978     		ldrb	r1, [r1]	@ zero_extendqisi2
 2947              	.LBE132:
 2948              	.LBE134:
 120:Generated_Source\PSoC5/USBUART_1_std.c ****                     
 2949              		.loc 1 120 0
 2950 03aa DBB2     		uxtb	r3, r3
 2951              	.LVL191:
 2952              	.LBB135:
 2953              	.LBB133:
 948:Generated_Source\PSoC5/USBUART_1_std.c **** 
 2954              		.loc 1 948 0
 2955 03ac 02EBC102 		add	r2, r2, r1, lsl #3
 2956 03b0 5268     		ldr	r2, [r2, #4]
 2957              	.LVL192:
 957:Generated_Source\PSoC5/USBUART_1_std.c ****     {
 2958              		.loc 1 957 0
 2959 03b2 117C     		ldrb	r1, [r2, #16]	@ zero_extendqisi2
 2960 03b4 9942     		cmp	r1, r3
 2961 03b6 7FF642AE 		bls	.L206
 963:Generated_Source\PSoC5/USBUART_1_std.c ****     }
 2962              		.loc 1 963 0
 2963 03ba 02EBC303 		add	r3, r2, r3, lsl #3
 2964              	.LVL193:
 2965 03be 5B69     		ldr	r3, [r3, #20]
 2966              	.LVL194:
 2967              	.LBE133:
 2968              	.LBE135:
 123:Generated_Source\PSoC5/USBUART_1_std.c ****                     {
 2969              		.loc 1 123 0
 2970 03c0 002B     		cmp	r3, #0
 2971 03c2 3FF43CAE 		beq	.L206
 125:Generated_Source\PSoC5/USBUART_1_std.c ****                         USBUART_1_currentTD.count = (uint16)((uint16)(USBUART_1_currentTD.pData)[US
 2972              		.loc 1 125 0
 2973 03c6 5B68     		ldr	r3, [r3, #4]
 2974 03c8 6360     		str	r3, [r4, #4]
 126:Generated_Source\PSoC5/USBUART_1_std.c ****                                                                             (USBUART_1_currentTD.pD
 2975              		.loc 1 126 0
 2976 03ca 6368     		ldr	r3, [r4, #4]
 2977 03cc DA78     		ldrb	r2, [r3, #3]	@ zero_extendqisi2
 127:Generated_Source\PSoC5/USBUART_1_std.c ****                         requestHandled  = USBUART_1_InitControlRead();
 2978              		.loc 1 127 0
 2979 03ce 6368     		ldr	r3, [r4, #4]
 2980 03d0 9B78     		ldrb	r3, [r3, #2]	@ zero_extendqisi2
 126:Generated_Source\PSoC5/USBUART_1_std.c ****                                                                             (USBUART_1_currentTD.pD
 2981              		.loc 1 126 0
 2982 03d2 43EA0223 		orr	r3, r3, r2, lsl #8
 2983 03d6 2380     		strh	r3, [r4]	@ movhi
 380:Generated_Source\PSoC5/USBUART_1_std.c **** 
ARM GAS  C:\Users\jon\AppData\Local\Temp\ccCLAX4y.s 			page 88


 2984              		.loc 1 380 0
 2985 03d8 BDE87040 		pop	{r4, r5, r6, lr}
 2986              		.cfi_remember_state
 2987              		.cfi_restore 14
 2988              		.cfi_restore 6
 2989              		.cfi_restore 5
 2990              		.cfi_restore 4
 2991              		.cfi_def_cfa_offset 0
 128:Generated_Source\PSoC5/USBUART_1_std.c ****                     }
 2992              		.loc 1 128 0
 2993 03dc FFF7FEBF 		b	USBUART_1_InitControlRead
 2994              	.LVL195:
 2995              	.L221:
 2996              		.cfi_restore_state
 2997              	.LBB136:
 2998              	.LBB115:
1187:Generated_Source\PSoC5/USBUART_1_std.c ****             {       
 2999              		.loc 1 1187 0
 3000 03e0 012B     		cmp	r3, #1
1190:Generated_Source\PSoC5/USBUART_1_std.c ****             }
 3001              		.loc 1 1190 0
 3002 03e2 0CBF     		ite	eq
 3003 03e4 0C23     		moveq	r3, #12
1194:Generated_Source\PSoC5/USBUART_1_std.c ****             }
 3004              		.loc 1 1194 0
 3005 03e6 0D23     		movne	r3, #13
 3006 03e8 8B70     		strb	r3, [r1, #2]
 3007 03ea 79E6     		b	.L215
 3008              	.LVL196:
 3009              	.L225:
 3010              	.LBE115:
 3011              	.LBE136:
 181:Generated_Source\PSoC5/USBUART_1_std.c ****                         pStr = USBUART_1_idSerialNumberStringDescriptor;
 3012              		.loc 1 181 0
 3013 03ec 0B48     		ldr	r0, .L228+32
 3014 03ee FFF7FEFF 		bl	USBUART_1_ReadDieID
 3015              	.LVL197:
 182:Generated_Source\PSoC5/USBUART_1_std.c ****                     #elif defined(USBUART_1_ENABLE_FWSN_STRING)
 3016              		.loc 1 182 0
 3017 03f2 0A4A     		ldr	r2, .L228+32
 3018 03f4 40E7     		b	.L159
 3019              	.LVL198:
 3020              	.L188:
 156:Generated_Source\PSoC5/USBUART_1_std.c ****                     {
 3021              		.loc 1 156 0
 3022 03f6 0A4A     		ldr	r2, .L228+36
 3023 03f8 35E7     		b	.L157
 3024              	.L229:
 3025 03fa 00BF     		.align	2
 3026              	.L228:
 3027 03fc 00600040 		.word	1073766400
 3028 0400 00000000 		.word	USBUART_1_EP
 3029 0404 00000000 		.word	.LANCHOR0
 3030 0408 00000000 		.word	USBUART_1_configuration
 3031 040c 00000000 		.word	USBUART_1_deviceStatus
 3032 0410 00000000 		.word	USBUART_1_interfaceStatus
 3033 0414 00000000 		.word	USBUART_1_device
ARM GAS  C:\Users\jon\AppData\Local\Temp\ccCLAX4y.s 			page 89


 3034 0418 00000000 		.word	USBUART_1_TABLE
 3035 041c 00000000 		.word	USBUART_1_idSerialNumberStringDescriptor
 3036 0420 00000000 		.word	USBUART_1_STRING_DESCRIPTORS
 3037              		.cfi_endproc
 3038              	.LFE0:
 3039              		.size	USBUART_1_HandleStandardRqst, .-USBUART_1_HandleStandardRqst
 3040              		.section	.text.USBUART_1_ConfigAltChanged,"ax",%progbits
 3041              		.align	2
 3042              		.global	USBUART_1_ConfigAltChanged
 3043              		.thumb
 3044              		.thumb_func
 3045              		.type	USBUART_1_ConfigAltChanged, %function
 3046              	USBUART_1_ConfigAltChanged:
 3047              	.LFB5:
 806:Generated_Source\PSoC5/USBUART_1_std.c ****     uint8 ep;
 3048              		.loc 1 806 0
 3049              		.cfi_startproc
 3050              		@ args = 0, pretend = 0, frame = 0
 3051              		@ frame_needed = 0, uses_anonymous_args = 0
 3052              		@ link register save eliminated.
 817:Generated_Source\PSoC5/USBUART_1_std.c ****     {
 3053              		.loc 1 817 0
 3054 0000 024B     		ldr	r3, .L232
 3055 0002 1B78     		ldrb	r3, [r3]	@ zero_extendqisi2
 3056 0004 0BB1     		cbz	r3, .L230
 3057 0006 FFF7FEBF 		b	USBUART_1_ConfigAltChanged.part.0
 3058              	.LVL199:
 3059              	.L230:
 3060 000a 7047     		bx	lr
 3061              	.L233:
 3062              		.align	2
 3063              	.L232:
 3064 000c 00000000 		.word	USBUART_1_configuration
 3065              		.cfi_endproc
 3066              	.LFE5:
 3067              		.size	USBUART_1_ConfigAltChanged, .-USBUART_1_ConfigAltChanged
 3068              		.section	.text.USBUART_1_GetConfigTablePtr,"ax",%progbits
 3069              		.align	2
 3070              		.global	USBUART_1_GetConfigTablePtr
 3071              		.thumb
 3072              		.thumb_func
 3073              		.type	USBUART_1_GetConfigTablePtr, %function
 3074              	USBUART_1_GetConfigTablePtr:
 3075              	.LFB6:
 944:Generated_Source\PSoC5/USBUART_1_std.c ****     /* Device Table */
 3076              		.loc 1 944 0
 3077              		.cfi_startproc
 3078              		@ args = 0, pretend = 0, frame = 0
 3079              		@ frame_needed = 0, uses_anonymous_args = 0
 3080              		@ link register save eliminated.
 3081              	.LVL200:
 948:Generated_Source\PSoC5/USBUART_1_std.c **** 
 3082              		.loc 1 948 0
 3083 0000 064B     		ldr	r3, .L237
 3084 0002 074A     		ldr	r2, .L237+4
 3085 0004 1B78     		ldrb	r3, [r3]	@ zero_extendqisi2
 3086 0006 02EBC302 		add	r2, r2, r3, lsl #3
ARM GAS  C:\Users\jon\AppData\Local\Temp\ccCLAX4y.s 			page 90


 3087 000a 5368     		ldr	r3, [r2, #4]
 3088              	.LVL201:
 957:Generated_Source\PSoC5/USBUART_1_std.c ****     {
 3089              		.loc 1 957 0
 3090 000c 1A7C     		ldrb	r2, [r3, #16]	@ zero_extendqisi2
 3091 000e 8242     		cmp	r2, r0
 963:Generated_Source\PSoC5/USBUART_1_std.c ****     }
 3092              		.loc 1 963 0
 3093 0010 86BF     		itte	hi
 3094 0012 03EBC003 		addhi	r3, r3, r0, lsl #3
 3095              	.LVL202:
 3096 0016 5869     		ldrhi	r0, [r3, #20]
 3097              	.LVL203:
 959:Generated_Source\PSoC5/USBUART_1_std.c ****     }
 3098              		.loc 1 959 0
 3099 0018 0020     		movls	r0, #0
 3100              	.LVL204:
 967:Generated_Source\PSoC5/USBUART_1_std.c **** 
 3101              		.loc 1 967 0
 3102 001a 7047     		bx	lr
 3103              	.L238:
 3104              		.align	2
 3105              	.L237:
 3106 001c 00000000 		.word	USBUART_1_device
 3107 0020 00000000 		.word	USBUART_1_TABLE
 3108              		.cfi_endproc
 3109              	.LFE6:
 3110              		.size	USBUART_1_GetConfigTablePtr, .-USBUART_1_GetConfigTablePtr
 3111              		.section	.text.USBUART_1_GetDeviceTablePtr,"ax",%progbits
 3112              		.align	2
 3113              		.global	USBUART_1_GetDeviceTablePtr
 3114              		.thumb
 3115              		.thumb_func
 3116              		.type	USBUART_1_GetDeviceTablePtr, %function
 3117              	USBUART_1_GetDeviceTablePtr:
 3118              	.LFB7:
1013:Generated_Source\PSoC5/USBUART_1_std.c ****     /* Device Table */
 3119              		.loc 1 1013 0
 3120              		.cfi_startproc
 3121              		@ args = 0, pretend = 0, frame = 0
 3122              		@ frame_needed = 0, uses_anonymous_args = 0
 3123              		@ link register save eliminated.
1015:Generated_Source\PSoC5/USBUART_1_std.c **** }
 3124              		.loc 1 1015 0
 3125 0000 034A     		ldr	r2, .L240
 3126 0002 044B     		ldr	r3, .L240+4
 3127 0004 1278     		ldrb	r2, [r2]	@ zero_extendqisi2
 3128 0006 03EBC203 		add	r3, r3, r2, lsl #3
1016:Generated_Source\PSoC5/USBUART_1_std.c **** 
 3129              		.loc 1 1016 0
 3130 000a 5868     		ldr	r0, [r3, #4]
 3131 000c 7047     		bx	lr
 3132              	.L241:
 3133 000e 00BF     		.align	2
 3134              	.L240:
 3135 0010 00000000 		.word	USBUART_1_device
 3136 0014 00000000 		.word	USBUART_1_TABLE
ARM GAS  C:\Users\jon\AppData\Local\Temp\ccCLAX4y.s 			page 91


 3137              		.cfi_endproc
 3138              	.LFE7:
 3139              		.size	USBUART_1_GetDeviceTablePtr, .-USBUART_1_GetDeviceTablePtr
 3140              		.section	.text.USBUART_1_GetInterfaceClassTablePtr,"ax",%progbits
 3141              		.align	2
 3142              		.global	USBUART_1_GetInterfaceClassTablePtr
 3143              		.thumb
 3144              		.thumb_func
 3145              		.type	USBUART_1_GetInterfaceClassTablePtr, %function
 3146              	USBUART_1_GetInterfaceClassTablePtr:
 3147              	.LFB8:
1032:Generated_Source\PSoC5/USBUART_1_std.c ****     const T_USBUART_1_LUT CYCODE *pTmp;
 3148              		.loc 1 1032 0
 3149              		.cfi_startproc
 3150              		@ args = 0, pretend = 0, frame = 0
 3151              		@ frame_needed = 0, uses_anonymous_args = 0
 3152              		@ link register save eliminated.
1037:Generated_Source\PSoC5/USBUART_1_std.c ****     if (pTmp != NULL)
 3153              		.loc 1 1037 0
 3154 0000 0D4B     		ldr	r3, .L246
 3155              	.LBB137:
 3156              	.LBB138:
 948:Generated_Source\PSoC5/USBUART_1_std.c **** 
 3157              		.loc 1 948 0
 3158 0002 0E49     		ldr	r1, .L246+4
 3159              	.LBE138:
 3160              	.LBE137:
1037:Generated_Source\PSoC5/USBUART_1_std.c ****     if (pTmp != NULL)
 3161              		.loc 1 1037 0
 3162 0004 1B78     		ldrb	r3, [r3]	@ zero_extendqisi2
 3163              	.LBB142:
 3164              	.LBB139:
 948:Generated_Source\PSoC5/USBUART_1_std.c **** 
 3165              		.loc 1 948 0
 3166 0006 0E4A     		ldr	r2, .L246+8
 3167 0008 0978     		ldrb	r1, [r1]	@ zero_extendqisi2
 3168              	.LBE139:
 3169              	.LBE142:
1037:Generated_Source\PSoC5/USBUART_1_std.c ****     if (pTmp != NULL)
 3170              		.loc 1 1037 0
 3171 000a 013B     		subs	r3, r3, #1
 3172              	.LBB143:
 3173              	.LBB140:
 948:Generated_Source\PSoC5/USBUART_1_std.c **** 
 3174              		.loc 1 948 0
 3175 000c 02EBC102 		add	r2, r2, r1, lsl #3
 3176 0010 5268     		ldr	r2, [r2, #4]
 3177              	.LBE140:
 3178              	.LBE143:
1037:Generated_Source\PSoC5/USBUART_1_std.c ****     if (pTmp != NULL)
 3179              		.loc 1 1037 0
 3180 0012 DBB2     		uxtb	r3, r3
 3181              	.LVL205:
 3182              	.LBB144:
 3183              	.LBB141:
 957:Generated_Source\PSoC5/USBUART_1_std.c ****     {
 3184              		.loc 1 957 0
ARM GAS  C:\Users\jon\AppData\Local\Temp\ccCLAX4y.s 			page 92


 3185 0014 117C     		ldrb	r1, [r2, #16]	@ zero_extendqisi2
 3186 0016 9942     		cmp	r1, r3
 3187 0018 09D9     		bls	.L244
 963:Generated_Source\PSoC5/USBUART_1_std.c ****     }
 3188              		.loc 1 963 0
 3189 001a 02EBC303 		add	r3, r2, r3, lsl #3
 3190              	.LVL206:
 3191 001e 5B69     		ldr	r3, [r3, #20]
 3192              	.LVL207:
 3193              	.LBE141:
 3194              	.LBE144:
1038:Generated_Source\PSoC5/USBUART_1_std.c ****     {
 3195              		.loc 1 1038 0
 3196 0020 3BB1     		cbz	r3, .L245
 3197              	.LVL208:
1040:Generated_Source\PSoC5/USBUART_1_std.c ****         /* Third entry in the LUT starts the Interface Table pointers */
 3198              		.loc 1 1040 0
 3199 0022 5A68     		ldr	r2, [r3, #4]
1043:Generated_Source\PSoC5/USBUART_1_std.c ****         pInterfaceClass = (const uint8 CYCODE *) pTmp->p_list;
 3200              		.loc 1 1043 0
 3201 0024 1279     		ldrb	r2, [r2, #4]	@ zero_extendqisi2
 3202              	.LVL209:
1044:Generated_Source\PSoC5/USBUART_1_std.c ****     }
 3203              		.loc 1 1044 0
 3204 0026 03EBC203 		add	r3, r3, r2, lsl #3
 3205              	.LVL210:
 3206 002a 5869     		ldr	r0, [r3, #20]
 3207              	.LVL211:
 3208 002c 7047     		bx	lr
 3209              	.LVL212:
 3210              	.L244:
1048:Generated_Source\PSoC5/USBUART_1_std.c ****     }
 3211              		.loc 1 1048 0
 3212 002e 0020     		movs	r0, #0
 3213 0030 7047     		bx	lr
 3214              	.LVL213:
 3215              	.L245:
 3216 0032 1846     		mov	r0, r3
 3217              	.LVL214:
1052:Generated_Source\PSoC5/USBUART_1_std.c **** 
 3218              		.loc 1 1052 0
 3219 0034 7047     		bx	lr
 3220              	.L247:
 3221 0036 00BF     		.align	2
 3222              	.L246:
 3223 0038 00000000 		.word	USBUART_1_configuration
 3224 003c 00000000 		.word	USBUART_1_device
 3225 0040 00000000 		.word	USBUART_1_TABLE
 3226              		.cfi_endproc
 3227              	.LFE8:
 3228              		.size	USBUART_1_GetInterfaceClassTablePtr, .-USBUART_1_GetInterfaceClassTablePtr
 3229              		.section	.text.USBUART_1_TerminateEP,"ax",%progbits
 3230              		.align	2
 3231              		.global	USBUART_1_TerminateEP
 3232              		.thumb
 3233              		.thumb_func
 3234              		.type	USBUART_1_TerminateEP, %function
ARM GAS  C:\Users\jon\AppData\Local\Temp\ccCLAX4y.s 			page 93


 3235              	USBUART_1_TerminateEP:
 3236              	.LFB9:
1073:Generated_Source\PSoC5/USBUART_1_std.c ****     /* Get endpoint number */
 3237              		.loc 1 1073 0
 3238              		.cfi_startproc
 3239              		@ args = 0, pretend = 0, frame = 0
 3240              		@ frame_needed = 0, uses_anonymous_args = 0
 3241              		@ link register save eliminated.
 3242              	.LVL215:
1075:Generated_Source\PSoC5/USBUART_1_std.c **** 
 3243              		.loc 1 1075 0
 3244 0000 00F07F00 		and	r0, r0, #127
 3245              	.LVL216:
1077:Generated_Source\PSoC5/USBUART_1_std.c ****     {
 3246              		.loc 1 1077 0
 3247 0004 431E     		subs	r3, r0, #1
 3248 0006 072B     		cmp	r3, #7
 3249 0008 19D8     		bhi	.L253
1073:Generated_Source\PSoC5/USBUART_1_std.c ****     /* Get endpoint number */
 3250              		.loc 1 1073 0
 3251 000a 10B4     		push	{r4}
 3252              		.cfi_def_cfa_offset 4
 3253              		.cfi_offset 4, -4
1080:Generated_Source\PSoC5/USBUART_1_std.c **** 
 3254              		.loc 1 1080 0
 3255 000c 0C4B     		ldr	r3, .L254
 3256 000e 00EB4002 		add	r2, r0, r0, lsl #1
 3257 0012 03EB8203 		add	r3, r3, r2, lsl #2
 3258 0016 9A78     		ldrb	r2, [r3, #2]	@ zero_extendqisi2
1083:Generated_Source\PSoC5/USBUART_1_std.c ****         USBUART_1_EP[epNumber].apiEpState = USBUART_1_NO_EVENT_ALLOWED;
 3259              		.loc 1 1083 0
 3260 0018 0024     		movs	r4, #0
1080:Generated_Source\PSoC5/USBUART_1_std.c **** 
 3261              		.loc 1 1080 0
 3262 001a 42F00102 		orr	r2, r2, #1
1084:Generated_Source\PSoC5/USBUART_1_std.c **** 
 3263              		.loc 1 1084 0
 3264 001e 0221     		movs	r1, #2
1080:Generated_Source\PSoC5/USBUART_1_std.c **** 
 3265              		.loc 1 1080 0
 3266 0020 9A70     		strb	r2, [r3, #2]
1083:Generated_Source\PSoC5/USBUART_1_std.c ****         USBUART_1_EP[epNumber].apiEpState = USBUART_1_NO_EVENT_ALLOWED;
 3267              		.loc 1 1083 0
 3268 0022 DC70     		strb	r4, [r3, #3]
1084:Generated_Source\PSoC5/USBUART_1_std.c **** 
 3269              		.loc 1 1084 0
 3270 0024 5970     		strb	r1, [r3, #1]
1086:Generated_Source\PSoC5/USBUART_1_std.c ****         {   
 3271              		.loc 1 1086 0
 3272 0026 1B79     		ldrb	r3, [r3, #4]	@ zero_extendqisi2
1089:Generated_Source\PSoC5/USBUART_1_std.c ****         }
 3273              		.loc 1 1089 0
 3274 0028 0001     		lsls	r0, r0, #4
 3275              	.LVL217:
1086:Generated_Source\PSoC5/USBUART_1_std.c ****         {   
 3276              		.loc 1 1086 0
 3277 002a 13F0800F 		tst	r3, #128
ARM GAS  C:\Users\jon\AppData\Local\Temp\ccCLAX4y.s 			page 94


1089:Generated_Source\PSoC5/USBUART_1_std.c ****         }
 3278              		.loc 1 1089 0
 3279 002e 054B     		ldr	r3, .L254+4
 3280 0030 18BF     		it	ne
 3281 0032 0C22     		movne	r2, #12
 3282 0034 0344     		add	r3, r3, r0
1094:Generated_Source\PSoC5/USBUART_1_std.c ****         }
 3283              		.loc 1 1094 0
 3284 0036 08BF     		it	eq
 3285 0038 0822     		moveq	r2, #8
 3286 003a 9A70     		strb	r2, [r3, #2]
1097:Generated_Source\PSoC5/USBUART_1_std.c **** 
 3287              		.loc 1 1097 0
 3288 003c 10BC     		pop	{r4}
 3289              		.cfi_restore 4
 3290              		.cfi_def_cfa_offset 0
 3291              	.L253:
 3292 003e 7047     		bx	lr
 3293              	.L255:
 3294              		.align	2
 3295              	.L254:
 3296 0040 00000000 		.word	USBUART_1_EP
 3297 0044 FC5F0040 		.word	1073766396
 3298              		.cfi_endproc
 3299              	.LFE9:
 3300              		.size	USBUART_1_TerminateEP, .-USBUART_1_TerminateEP
 3301              		.section	.text.USBUART_1_SetEndpointHalt,"ax",%progbits
 3302              		.align	2
 3303              		.global	USBUART_1_SetEndpointHalt
 3304              		.thumb
 3305              		.thumb_func
 3306              		.type	USBUART_1_SetEndpointHalt, %function
 3307              	USBUART_1_SetEndpointHalt:
 3308              	.LFB10:
1114:Generated_Source\PSoC5/USBUART_1_std.c ****     uint8 requestHandled = USBUART_1_FALSE;
 3309              		.loc 1 1114 0
 3310              		.cfi_startproc
 3311              		@ args = 0, pretend = 0, frame = 0
 3312              		@ frame_needed = 0, uses_anonymous_args = 0
 3313              		@ link register save eliminated.
 3314              	.LVL218:
1119:Generated_Source\PSoC5/USBUART_1_std.c **** 
 3315              		.loc 1 1119 0
 3316 0000 114B     		ldr	r3, .L260
 3317 0002 1B79     		ldrb	r3, [r3, #4]	@ zero_extendqisi2
 3318 0004 03F07F03 		and	r3, r3, #127
 3319              	.LVL219:
1121:Generated_Source\PSoC5/USBUART_1_std.c ****     {
 3320              		.loc 1 1121 0
 3321 0008 5A1E     		subs	r2, r3, #1
 3322 000a 072A     		cmp	r2, #7
 3323 000c 1AD8     		bhi	.L257
1124:Generated_Source\PSoC5/USBUART_1_std.c **** 
 3324              		.loc 1 1124 0
 3325 000e 0F4A     		ldr	r2, .L260+4
 3326 0010 03EB4301 		add	r1, r3, r3, lsl #1
 3327 0014 02EB8102 		add	r2, r2, r1, lsl #2
ARM GAS  C:\Users\jon\AppData\Local\Temp\ccCLAX4y.s 			page 95


 3328 0018 9178     		ldrb	r1, [r2, #2]	@ zero_extendqisi2
1127:Generated_Source\PSoC5/USBUART_1_std.c ****         USBUART_1_EP[ep].apiEpState |= USBUART_1_NO_EVENT_ALLOWED;
 3329              		.loc 1 1127 0
 3330 001a 0020     		movs	r0, #0
1124:Generated_Source\PSoC5/USBUART_1_std.c **** 
 3331              		.loc 1 1124 0
 3332 001c 41F00101 		orr	r1, r1, #1
 3333 0020 9170     		strb	r1, [r2, #2]
1127:Generated_Source\PSoC5/USBUART_1_std.c ****         USBUART_1_EP[ep].apiEpState |= USBUART_1_NO_EVENT_ALLOWED;
 3334              		.loc 1 1127 0
 3335 0022 D070     		strb	r0, [r2, #3]
1128:Generated_Source\PSoC5/USBUART_1_std.c **** 
 3336              		.loc 1 1128 0
 3337 0024 5178     		ldrb	r1, [r2, #1]	@ zero_extendqisi2
1133:Generated_Source\PSoC5/USBUART_1_std.c ****                                                             USBUART_1_MODE_ACK_IN);
 3338              		.loc 1 1133 0
 3339 0026 1B01     		lsls	r3, r3, #4
 3340              	.LVL220:
1128:Generated_Source\PSoC5/USBUART_1_std.c **** 
 3341              		.loc 1 1128 0
 3342 0028 41F00201 		orr	r1, r1, #2
 3343 002c 5170     		strb	r1, [r2, #1]
1130:Generated_Source\PSoC5/USBUART_1_std.c ****         {
 3344              		.loc 1 1130 0
 3345 002e 1279     		ldrb	r2, [r2, #4]	@ zero_extendqisi2
 3346 0030 12F0800F 		tst	r2, #128
1133:Generated_Source\PSoC5/USBUART_1_std.c ****                                                             USBUART_1_MODE_ACK_IN);
 3347              		.loc 1 1133 0
 3348 0034 064A     		ldr	r2, .L260+8
 3349 0036 1A44     		add	r2, r2, r3
 3350 0038 14BF     		ite	ne
 3351 003a 8D23     		movne	r3, #141
1139:Generated_Source\PSoC5/USBUART_1_std.c ****                                                             USBUART_1_MODE_ACK_OUT);
 3352              		.loc 1 1139 0
 3353 003c 8923     		moveq	r3, #137
 3354 003e 9370     		strb	r3, [r2, #2]
1142:Generated_Source\PSoC5/USBUART_1_std.c ****     }
 3355              		.loc 1 1142 0
 3356 0040 FFF7FEBF 		b	USBUART_1_InitNoDataControlTransfer
 3357              	.LVL221:
 3358              	.L257:
1146:Generated_Source\PSoC5/USBUART_1_std.c **** 
 3359              		.loc 1 1146 0
 3360 0044 0020     		movs	r0, #0
 3361 0046 7047     		bx	lr
 3362              	.L261:
 3363              		.align	2
 3364              	.L260:
 3365 0048 00600040 		.word	1073766400
 3366 004c 00000000 		.word	USBUART_1_EP
 3367 0050 FC5F0040 		.word	1073766396
 3368              		.cfi_endproc
 3369              	.LFE10:
 3370              		.size	USBUART_1_SetEndpointHalt, .-USBUART_1_SetEndpointHalt
 3371              		.section	.text.USBUART_1_ClearEndpointHalt,"ax",%progbits
 3372              		.align	2
 3373              		.global	USBUART_1_ClearEndpointHalt
ARM GAS  C:\Users\jon\AppData\Local\Temp\ccCLAX4y.s 			page 96


 3374              		.thumb
 3375              		.thumb_func
 3376              		.type	USBUART_1_ClearEndpointHalt, %function
 3377              	USBUART_1_ClearEndpointHalt:
 3378              	.LFB11:
1163:Generated_Source\PSoC5/USBUART_1_std.c ****     uint8 requestHandled = USBUART_1_FALSE;
 3379              		.loc 1 1163 0
 3380              		.cfi_startproc
 3381              		@ args = 0, pretend = 0, frame = 0
 3382              		@ frame_needed = 0, uses_anonymous_args = 0
 3383              		@ link register save eliminated.
 3384              	.LVL222:
1168:Generated_Source\PSoC5/USBUART_1_std.c **** 
 3385              		.loc 1 1168 0
 3386 0000 1A4B     		ldr	r3, .L270
 3387 0002 1B79     		ldrb	r3, [r3, #4]	@ zero_extendqisi2
 3388 0004 03F07F03 		and	r3, r3, #127
 3389              	.LVL223:
1170:Generated_Source\PSoC5/USBUART_1_std.c ****     {
 3390              		.loc 1 1170 0
 3391 0008 5A1E     		subs	r2, r3, #1
 3392 000a 072A     		cmp	r2, #7
 3393 000c 24D8     		bhi	.L263
1163:Generated_Source\PSoC5/USBUART_1_std.c ****     uint8 requestHandled = USBUART_1_FALSE;
 3394              		.loc 1 1163 0
 3395 000e 10B4     		push	{r4}
 3396              		.cfi_def_cfa_offset 4
 3397              		.cfi_offset 4, -4
1173:Generated_Source\PSoC5/USBUART_1_std.c **** 
 3398              		.loc 1 1173 0
 3399 0010 174A     		ldr	r2, .L270+4
 3400 0012 03EB4301 		add	r1, r3, r3, lsl #1
 3401 0016 02EB8102 		add	r2, r2, r1, lsl #2
 3402 001a 9178     		ldrb	r1, [r2, #2]	@ zero_extendqisi2
 3403 001c 154C     		ldr	r4, .L270+8
1176:Generated_Source\PSoC5/USBUART_1_std.c ****         
 3404              		.loc 1 1176 0
 3405 001e 0020     		movs	r0, #0
1173:Generated_Source\PSoC5/USBUART_1_std.c **** 
 3406              		.loc 1 1173 0
 3407 0020 01F0FE01 		and	r1, r1, #254
 3408 0024 9170     		strb	r1, [r2, #2]
1176:Generated_Source\PSoC5/USBUART_1_std.c ****         
 3409              		.loc 1 1176 0
 3410 0026 D070     		strb	r0, [r2, #3]
 3411 0028 2046     		mov	r0, r4
 3412 002a 1B01     		lsls	r3, r3, #4
 3413              	.LVL224:
1179:Generated_Source\PSoC5/USBUART_1_std.c ****         
 3414              		.loc 1 1179 0
 3415 002c 195D     		ldrb	r1, [r3, r4]	@ zero_extendqisi2
 3416 002e 1844     		add	r0, r0, r3
 3417 0030 01F07F01 		and	r1, r1, #127
 3418 0034 1955     		strb	r1, [r3, r4]
1182:Generated_Source\PSoC5/USBUART_1_std.c **** 
 3419              		.loc 1 1182 0
 3420 0036 5178     		ldrb	r1, [r2, #1]	@ zero_extendqisi2
ARM GAS  C:\Users\jon\AppData\Local\Temp\ccCLAX4y.s 			page 97


 3421 0038 01F0FD03 		and	r3, r1, #253
 3422 003c 5370     		strb	r3, [r2, #1]
1184:Generated_Source\PSoC5/USBUART_1_std.c ****         {
 3423              		.loc 1 1184 0
 3424 003e 1379     		ldrb	r3, [r2, #4]	@ zero_extendqisi2
 3425 0040 13F0800F 		tst	r3, #128
1187:Generated_Source\PSoC5/USBUART_1_std.c ****             {       
 3426              		.loc 1 1187 0
 3427 0044 5378     		ldrb	r3, [r2, #1]	@ zero_extendqisi2
1184:Generated_Source\PSoC5/USBUART_1_std.c ****         {
 3428              		.loc 1 1184 0
 3429 0046 09D1     		bne	.L269
1200:Generated_Source\PSoC5/USBUART_1_std.c ****             {       
 3430              		.loc 1 1200 0
 3431 0048 012B     		cmp	r3, #1
1203:Generated_Source\PSoC5/USBUART_1_std.c ****             }
 3432              		.loc 1 1203 0
 3433 004a 0CBF     		ite	eq
 3434 004c 0823     		moveq	r3, #8
1207:Generated_Source\PSoC5/USBUART_1_std.c ****             }
 3435              		.loc 1 1207 0
 3436 004e 0923     		movne	r3, #9
 3437 0050 8370     		strb	r3, [r0, #2]
1215:Generated_Source\PSoC5/USBUART_1_std.c **** 
 3438              		.loc 1 1215 0
 3439 0052 10BC     		pop	{r4}
 3440              		.cfi_restore 4
 3441              		.cfi_def_cfa_offset 0
1211:Generated_Source\PSoC5/USBUART_1_std.c ****     }
 3442              		.loc 1 1211 0
 3443 0054 FFF7FEBF 		b	USBUART_1_InitNoDataControlTransfer
 3444              	.LVL225:
 3445              	.L263:
1215:Generated_Source\PSoC5/USBUART_1_std.c **** 
 3446              		.loc 1 1215 0
 3447 0058 0020     		movs	r0, #0
 3448 005a 7047     		bx	lr
 3449              	.LVL226:
 3450              	.L269:
 3451              		.cfi_def_cfa_offset 4
 3452              		.cfi_offset 4, -4
1187:Generated_Source\PSoC5/USBUART_1_std.c ****             {       
 3453              		.loc 1 1187 0
 3454 005c 012B     		cmp	r3, #1
1190:Generated_Source\PSoC5/USBUART_1_std.c ****             }
 3455              		.loc 1 1190 0
 3456 005e 0CBF     		ite	eq
 3457 0060 0C23     		moveq	r3, #12
1194:Generated_Source\PSoC5/USBUART_1_std.c ****             }
 3458              		.loc 1 1194 0
 3459 0062 0D23     		movne	r3, #13
 3460 0064 8370     		strb	r3, [r0, #2]
1215:Generated_Source\PSoC5/USBUART_1_std.c **** 
 3461              		.loc 1 1215 0
 3462 0066 10BC     		pop	{r4}
 3463              		.cfi_restore 4
 3464              		.cfi_def_cfa_offset 0
ARM GAS  C:\Users\jon\AppData\Local\Temp\ccCLAX4y.s 			page 98


1211:Generated_Source\PSoC5/USBUART_1_std.c ****     }
 3465              		.loc 1 1211 0
 3466 0068 FFF7FEBF 		b	USBUART_1_InitNoDataControlTransfer
 3467              	.LVL227:
 3468              	.L271:
 3469              		.align	2
 3470              	.L270:
 3471 006c 00600040 		.word	1073766400
 3472 0070 00000000 		.word	USBUART_1_EP
 3473 0074 FC5F0040 		.word	1073766396
 3474              		.cfi_endproc
 3475              	.LFE11:
 3476              		.size	USBUART_1_ClearEndpointHalt, .-USBUART_1_ClearEndpointHalt
 3477              		.section	.text.USBUART_1_ValidateAlternateSetting,"ax",%progbits
 3478              		.align	2
 3479              		.global	USBUART_1_ValidateAlternateSetting
 3480              		.thumb
 3481              		.thumb_func
 3482              		.type	USBUART_1_ValidateAlternateSetting, %function
 3483              	USBUART_1_ValidateAlternateSetting:
 3484              	.LFB12:
1232:Generated_Source\PSoC5/USBUART_1_std.c ****     uint8 requestHandled = USBUART_1_FALSE;
 3485              		.loc 1 1232 0
 3486              		.cfi_startproc
 3487              		@ args = 0, pretend = 0, frame = 0
 3488              		@ frame_needed = 0, uses_anonymous_args = 0
 3489              		@ link register save eliminated.
 3490              	.LVL228:
 3491 0000 10B4     		push	{r4}
 3492              		.cfi_def_cfa_offset 4
 3493              		.cfi_offset 4, -4
1240:Generated_Source\PSoC5/USBUART_1_std.c ****     
 3494              		.loc 1 1240 0
 3495 0002 154A     		ldr	r2, .L279
1243:Generated_Source\PSoC5/USBUART_1_std.c ****     curInterfacesNum  = ((const uint8 *) pTmp->p_list)[USBUART_1_CONFIG_DESCR_NUM_INTERFACES];
 3496              		.loc 1 1243 0
 3497 0004 154B     		ldr	r3, .L279+4
 3498              	.LBB145:
 3499              	.LBB146:
 948:Generated_Source\PSoC5/USBUART_1_std.c **** 
 3500              		.loc 1 948 0
 3501 0006 1648     		ldr	r0, .L279+8
 3502              	.LBE146:
 3503              	.LBE145:
1240:Generated_Source\PSoC5/USBUART_1_std.c ****     
 3504              		.loc 1 1240 0
 3505 0008 1279     		ldrb	r2, [r2, #4]	@ zero_extendqisi2
 3506              	.LBB151:
 3507              	.LBB147:
 948:Generated_Source\PSoC5/USBUART_1_std.c **** 
 3508              		.loc 1 948 0
 3509 000a 1649     		ldr	r1, .L279+12
 3510              	.LBE147:
 3511              	.LBE151:
1243:Generated_Source\PSoC5/USBUART_1_std.c ****     curInterfacesNum  = ((const uint8 *) pTmp->p_list)[USBUART_1_CONFIG_DESCR_NUM_INTERFACES];
 3512              		.loc 1 1243 0
 3513 000c 1B78     		ldrb	r3, [r3]	@ zero_extendqisi2
ARM GAS  C:\Users\jon\AppData\Local\Temp\ccCLAX4y.s 			page 99


 3514              	.LBB152:
 3515              	.LBB148:
 948:Generated_Source\PSoC5/USBUART_1_std.c **** 
 3516              		.loc 1 948 0
 3517 000e 0078     		ldrb	r0, [r0]	@ zero_extendqisi2
 3518              	.LBE148:
 3519              	.LBE152:
1243:Generated_Source\PSoC5/USBUART_1_std.c ****     curInterfacesNum  = ((const uint8 *) pTmp->p_list)[USBUART_1_CONFIG_DESCR_NUM_INTERFACES];
 3520              		.loc 1 1243 0
 3521 0010 013B     		subs	r3, r3, #1
 3522              	.LBB153:
 3523              	.LBB149:
 948:Generated_Source\PSoC5/USBUART_1_std.c **** 
 3524              		.loc 1 948 0
 3525 0012 01EBC001 		add	r1, r1, r0, lsl #3
 3526 0016 4968     		ldr	r1, [r1, #4]
 3527              	.LBE149:
 3528              	.LBE153:
1243:Generated_Source\PSoC5/USBUART_1_std.c ****     curInterfacesNum  = ((const uint8 *) pTmp->p_list)[USBUART_1_CONFIG_DESCR_NUM_INTERFACES];
 3529              		.loc 1 1243 0
 3530 0018 DBB2     		uxtb	r3, r3
 3531              	.LBB154:
 3532              	.LBB150:
 957:Generated_Source\PSoC5/USBUART_1_std.c ****     {
 3533              		.loc 1 957 0
 3534 001a 087C     		ldrb	r0, [r1, #16]	@ zero_extendqisi2
 3535              	.LVL229:
 3536 001c 9842     		cmp	r0, r3
 3537 001e 15D9     		bls	.L273
 3538              	.LVL230:
 963:Generated_Source\PSoC5/USBUART_1_std.c ****     }
 3539              		.loc 1 963 0
 3540 0020 01EBC303 		add	r3, r1, r3, lsl #3
 3541              	.LVL231:
 3542              	.LBE150:
 3543              	.LBE154:
1244:Generated_Source\PSoC5/USBUART_1_std.c **** 
 3544              		.loc 1 1244 0
 3545 0024 5B69     		ldr	r3, [r3, #20]
 3546 0026 D2B2     		uxtb	r2, r2
 3547 0028 5B68     		ldr	r3, [r3, #4]
1247:Generated_Source\PSoC5/USBUART_1_std.c ****     {
 3548              		.loc 1 1247 0
 3549 002a 1B79     		ldrb	r3, [r3, #4]	@ zero_extendqisi2
 3550 002c 9342     		cmp	r3, r2
 3551 002e 01D2     		bcs	.L274
1247:Generated_Source\PSoC5/USBUART_1_std.c ****     {
 3552              		.loc 1 1247 0 is_stmt 0 discriminator 1
 3553 0030 022A     		cmp	r2, #2
 3554 0032 0ED8     		bhi	.L276
 3555              	.L274:
1252:Generated_Source\PSoC5/USBUART_1_std.c ****         USBUART_1_interfaceSetting[interfaceNum]     = (uint8) USBUART_1_wValueLoReg;
 3556              		.loc 1 1252 0 is_stmt 1
 3557 0034 0C49     		ldr	r1, .L279+16
 3558 0036 0D4C     		ldr	r4, .L279+20
 3559 0038 8B5C     		ldrb	r3, [r1, r2]	@ zero_extendqisi2
 3560              		.loc 1 1253 0
ARM GAS  C:\Users\jon\AppData\Local\Temp\ccCLAX4y.s 			page 100


 3561 003a 0748     		ldr	r0, .L279
1252:Generated_Source\PSoC5/USBUART_1_std.c ****         USBUART_1_interfaceSetting[interfaceNum]     = (uint8) USBUART_1_wValueLoReg;
 3562              		.loc 1 1252 0
 3563 003c DBB2     		uxtb	r3, r3
 3564 003e A354     		strb	r3, [r4, r2]
 3565              		.loc 1 1253 0
 3566 0040 8378     		ldrb	r3, [r0, #2]	@ zero_extendqisi2
1254:Generated_Source\PSoC5/USBUART_1_std.c ****         
1255:Generated_Source\PSoC5/USBUART_1_std.c ****         requestHandled = USBUART_1_TRUE;
 3567              		.loc 1 1255 0
 3568 0042 0120     		movs	r0, #1
1253:Generated_Source\PSoC5/USBUART_1_std.c ****         
 3569              		.loc 1 1253 0
 3570 0044 DBB2     		uxtb	r3, r3
 3571 0046 8B54     		strb	r3, [r1, r2]
 3572              	.LVL232:
1256:Generated_Source\PSoC5/USBUART_1_std.c ****     }
1257:Generated_Source\PSoC5/USBUART_1_std.c **** 
1258:Generated_Source\PSoC5/USBUART_1_std.c ****     return (requestHandled);
1259:Generated_Source\PSoC5/USBUART_1_std.c **** }
 3573              		.loc 1 1259 0
 3574 0048 10BC     		pop	{r4}
 3575              		.cfi_remember_state
 3576              		.cfi_restore 4
 3577              		.cfi_def_cfa_offset 0
 3578 004a 7047     		bx	lr
 3579              	.LVL233:
 3580              	.L273:
 3581              		.cfi_restore_state
1244:Generated_Source\PSoC5/USBUART_1_std.c **** 
 3582              		.loc 1 1244 0
 3583 004c 0023     		movs	r3, #0
 3584 004e 5B68     		ldr	r3, [r3, #4]
 3585 0050 FFDE     		.inst	0xdeff
 3586              	.L276:
1233:Generated_Source\PSoC5/USBUART_1_std.c ****     
 3587              		.loc 1 1233 0
 3588 0052 0020     		movs	r0, #0
 3589              	.LVL234:
 3590              		.loc 1 1259 0
 3591 0054 10BC     		pop	{r4}
 3592              		.cfi_restore 4
 3593              		.cfi_def_cfa_offset 0
 3594 0056 7047     		bx	lr
 3595              	.L280:
 3596              		.align	2
 3597              	.L279:
 3598 0058 00600040 		.word	1073766400
 3599 005c 00000000 		.word	USBUART_1_configuration
 3600 0060 00000000 		.word	USBUART_1_device
 3601 0064 00000000 		.word	USBUART_1_TABLE
 3602 0068 00000000 		.word	USBUART_1_interfaceSetting
 3603 006c 00000000 		.word	USBUART_1_interfaceSettingLast
 3604              		.cfi_endproc
 3605              	.LFE12:
 3606              		.size	USBUART_1_ValidateAlternateSetting, .-USBUART_1_ValidateAlternateSetting
 3607              		.section	.rodata.str1.4,"aMS",%progbits,1
ARM GAS  C:\Users\jon\AppData\Local\Temp\ccCLAX4y.s 			page 101


 3608              		.align	2
 3609              	.LC0:
 3610 0000 30313233 		.ascii	"0123456789ABCDEF\000"
 3610      34353637 
 3610      38394142 
 3610      43444546 
 3610      00
 3611              		.bss
 3612              		.align	2
 3613              		.set	.LANCHOR0,. + 0
 3614              		.type	USBUART_1_tBuffer.5250, %object
 3615              		.size	USBUART_1_tBuffer.5250, 2
 3616              	USBUART_1_tBuffer.5250:
 3617 0000 0000     		.space	2
 3618              		.text
 3619              	.Letext0:
 3620              		.file 2 "Generated_Source\\PSoC5\\cytypes.h"
 3621              		.file 3 "Generated_Source\\PSoC5\\USBUART_1.h"
 3622              		.file 4 "Generated_Source\\PSoC5\\USBUART_1_pvt.h"
 3623              		.file 5 "Generated_Source\\PSoC5\\CyLib.h"
 3624              		.section	.debug_info,"",%progbits
 3625              	.Ldebug_info0:
 3626 0000 810E0000 		.4byte	0xe81
 3627 0004 0400     		.2byte	0x4
 3628 0006 00000000 		.4byte	.Ldebug_abbrev0
 3629 000a 04       		.byte	0x4
 3630 000b 01       		.uleb128 0x1
 3631 000c 7D010000 		.4byte	.LASF117
 3632 0010 0C       		.byte	0xc
 3633 0011 C9070000 		.4byte	.LASF118
 3634 0015 71060000 		.4byte	.LASF119
 3635 0019 08020000 		.4byte	.Ldebug_ranges0+0x208
 3636 001d 00000000 		.4byte	0
 3637 0021 00000000 		.4byte	.Ldebug_line0
 3638 0025 02       		.uleb128 0x2
 3639 0026 01       		.byte	0x1
 3640 0027 06       		.byte	0x6
 3641 0028 66070000 		.4byte	.LASF0
 3642 002c 02       		.uleb128 0x2
 3643 002d 01       		.byte	0x1
 3644 002e 08       		.byte	0x8
 3645 002f C4060000 		.4byte	.LASF1
 3646 0033 02       		.uleb128 0x2
 3647 0034 02       		.byte	0x2
 3648 0035 05       		.byte	0x5
 3649 0036 B5050000 		.4byte	.LASF2
 3650 003a 02       		.uleb128 0x2
 3651 003b 02       		.byte	0x2
 3652 003c 07       		.byte	0x7
 3653 003d 8A070000 		.4byte	.LASF3
 3654 0041 02       		.uleb128 0x2
 3655 0042 04       		.byte	0x4
 3656 0043 05       		.byte	0x5
 3657 0044 C6050000 		.4byte	.LASF4
 3658 0048 02       		.uleb128 0x2
 3659 0049 04       		.byte	0x4
 3660 004a 07       		.byte	0x7
ARM GAS  C:\Users\jon\AppData\Local\Temp\ccCLAX4y.s 			page 102


 3661 004b 40060000 		.4byte	.LASF5
 3662 004f 02       		.uleb128 0x2
 3663 0050 08       		.byte	0x8
 3664 0051 05       		.byte	0x5
 3665 0052 36040000 		.4byte	.LASF6
 3666 0056 02       		.uleb128 0x2
 3667 0057 08       		.byte	0x8
 3668 0058 07       		.byte	0x7
 3669 0059 2A020000 		.4byte	.LASF7
 3670 005d 03       		.uleb128 0x3
 3671 005e 04       		.byte	0x4
 3672 005f 05       		.byte	0x5
 3673 0060 696E7400 		.ascii	"int\000"
 3674 0064 02       		.uleb128 0x2
 3675 0065 04       		.byte	0x4
 3676 0066 07       		.byte	0x7
 3677 0067 7B000000 		.4byte	.LASF8
 3678 006b 04       		.uleb128 0x4
 3679 006c AF070000 		.4byte	.LASF9
 3680 0070 02       		.byte	0x2
 3681 0071 E401     		.2byte	0x1e4
 3682 0073 2C000000 		.4byte	0x2c
 3683 0077 04       		.uleb128 0x4
 3684 0078 8E030000 		.4byte	.LASF10
 3685 007c 02       		.byte	0x2
 3686 007d E501     		.2byte	0x1e5
 3687 007f 3A000000 		.4byte	0x3a
 3688 0083 04       		.uleb128 0x4
 3689 0084 02050000 		.4byte	.LASF11
 3690 0088 02       		.byte	0x2
 3691 0089 E601     		.2byte	0x1e6
 3692 008b 48000000 		.4byte	0x48
 3693 008f 02       		.uleb128 0x2
 3694 0090 04       		.byte	0x4
 3695 0091 04       		.byte	0x4
 3696 0092 3A010000 		.4byte	.LASF12
 3697 0096 02       		.uleb128 0x2
 3698 0097 08       		.byte	0x8
 3699 0098 04       		.byte	0x4
 3700 0099 B5070000 		.4byte	.LASF13
 3701 009d 04       		.uleb128 0x4
 3702 009e CE030000 		.4byte	.LASF14
 3703 00a2 02       		.byte	0x2
 3704 00a3 F501     		.2byte	0x1f5
 3705 00a5 A9000000 		.4byte	0xa9
 3706 00a9 02       		.uleb128 0x2
 3707 00aa 01       		.byte	0x1
 3708 00ab 08       		.byte	0x8
 3709 00ac 48030000 		.4byte	.LASF15
 3710 00b0 04       		.uleb128 0x4
 3711 00b1 A6000000 		.4byte	.LASF16
 3712 00b5 02       		.byte	0x2
 3713 00b6 8E02     		.2byte	0x28e
 3714 00b8 BC000000 		.4byte	0xbc
 3715 00bc 05       		.uleb128 0x5
 3716 00bd 6B000000 		.4byte	0x6b
 3717 00c1 02       		.uleb128 0x2
ARM GAS  C:\Users\jon\AppData\Local\Temp\ccCLAX4y.s 			page 103


 3718 00c2 08       		.byte	0x8
 3719 00c3 04       		.byte	0x4
 3720 00c4 6C050000 		.4byte	.LASF17
 3721 00c8 02       		.uleb128 0x2
 3722 00c9 04       		.byte	0x4
 3723 00ca 07       		.byte	0x7
 3724 00cb 37060000 		.4byte	.LASF18
 3725 00cf 06       		.uleb128 0x6
 3726 00d0 0C       		.byte	0xc
 3727 00d1 03       		.byte	0x3
 3728 00d2 8D       		.byte	0x8d
 3729 00d3 44010000 		.4byte	0x144
 3730 00d7 07       		.uleb128 0x7
 3731 00d8 F0070000 		.4byte	.LASF19
 3732 00dc 03       		.byte	0x3
 3733 00dd 8F       		.byte	0x8f
 3734 00de 6B000000 		.4byte	0x6b
 3735 00e2 00       		.byte	0
 3736 00e3 07       		.uleb128 0x7
 3737 00e4 F7070000 		.4byte	.LASF20
 3738 00e8 03       		.byte	0x3
 3739 00e9 90       		.byte	0x90
 3740 00ea 6B000000 		.4byte	0x6b
 3741 00ee 01       		.byte	0x1
 3742 00ef 07       		.uleb128 0x7
 3743 00f0 D1040000 		.4byte	.LASF21
 3744 00f4 03       		.byte	0x3
 3745 00f5 91       		.byte	0x91
 3746 00f6 6B000000 		.4byte	0x6b
 3747 00fa 02       		.byte	0x2
 3748 00fb 07       		.uleb128 0x7
 3749 00fc 15010000 		.4byte	.LASF22
 3750 0100 03       		.byte	0x3
 3751 0101 92       		.byte	0x92
 3752 0102 6B000000 		.4byte	0x6b
 3753 0106 03       		.byte	0x3
 3754 0107 07       		.uleb128 0x7
 3755 0108 07070000 		.4byte	.LASF23
 3756 010c 03       		.byte	0x3
 3757 010d 93       		.byte	0x93
 3758 010e 6B000000 		.4byte	0x6b
 3759 0112 04       		.byte	0x4
 3760 0113 07       		.uleb128 0x7
 3761 0114 BF050000 		.4byte	.LASF24
 3762 0118 03       		.byte	0x3
 3763 0119 94       		.byte	0x94
 3764 011a 6B000000 		.4byte	0x6b
 3765 011e 05       		.byte	0x5
 3766 011f 07       		.uleb128 0x7
 3767 0120 EA030000 		.4byte	.LASF25
 3768 0124 03       		.byte	0x3
 3769 0125 95       		.byte	0x95
 3770 0126 77000000 		.4byte	0x77
 3771 012a 06       		.byte	0x6
 3772 012b 07       		.uleb128 0x7
 3773 012c 1D000000 		.4byte	.LASF26
 3774 0130 03       		.byte	0x3
ARM GAS  C:\Users\jon\AppData\Local\Temp\ccCLAX4y.s 			page 104


 3775 0131 96       		.byte	0x96
 3776 0132 77000000 		.4byte	0x77
 3777 0136 08       		.byte	0x8
 3778 0137 07       		.uleb128 0x7
 3779 0138 4D000000 		.4byte	.LASF27
 3780 013c 03       		.byte	0x3
 3781 013d 97       		.byte	0x97
 3782 013e 6B000000 		.4byte	0x6b
 3783 0142 0A       		.byte	0xa
 3784 0143 00       		.byte	0
 3785 0144 08       		.uleb128 0x8
 3786 0145 64010000 		.4byte	.LASF28
 3787 0149 03       		.byte	0x3
 3788 014a 98       		.byte	0x98
 3789 014b CF000000 		.4byte	0xcf
 3790 014f 06       		.uleb128 0x6
 3791 0150 08       		.byte	0x8
 3792 0151 03       		.byte	0x3
 3793 0152 9A       		.byte	0x9a
 3794 0153 A0010000 		.4byte	0x1a0
 3795 0157 07       		.uleb128 0x7
 3796 0158 4D000000 		.4byte	.LASF27
 3797 015c 03       		.byte	0x3
 3798 015d 9C       		.byte	0x9c
 3799 015e 6B000000 		.4byte	0x6b
 3800 0162 00       		.byte	0
 3801 0163 07       		.uleb128 0x7
 3802 0164 E7000000 		.4byte	.LASF29
 3803 0168 03       		.byte	0x3
 3804 0169 9D       		.byte	0x9d
 3805 016a 6B000000 		.4byte	0x6b
 3806 016e 01       		.byte	0x1
 3807 016f 07       		.uleb128 0x7
 3808 0170 07070000 		.4byte	.LASF23
 3809 0174 03       		.byte	0x3
 3810 0175 9E       		.byte	0x9e
 3811 0176 6B000000 		.4byte	0x6b
 3812 017a 02       		.byte	0x2
 3813 017b 07       		.uleb128 0x7
 3814 017c FC060000 		.4byte	.LASF30
 3815 0180 03       		.byte	0x3
 3816 0181 9F       		.byte	0x9f
 3817 0182 6B000000 		.4byte	0x6b
 3818 0186 03       		.byte	0x3
 3819 0187 07       		.uleb128 0x7
 3820 0188 1D000000 		.4byte	.LASF26
 3821 018c 03       		.byte	0x3
 3822 018d A0       		.byte	0xa0
 3823 018e 77000000 		.4byte	0x77
 3824 0192 04       		.byte	0x4
 3825 0193 07       		.uleb128 0x7
 3826 0194 58040000 		.4byte	.LASF31
 3827 0198 03       		.byte	0x3
 3828 0199 A1       		.byte	0xa1
 3829 019a 6B000000 		.4byte	0x6b
 3830 019e 06       		.byte	0x6
 3831 019f 00       		.byte	0
ARM GAS  C:\Users\jon\AppData\Local\Temp\ccCLAX4y.s 			page 105


 3832 01a0 08       		.uleb128 0x8
 3833 01a1 4D030000 		.4byte	.LASF32
 3834 01a5 03       		.byte	0x3
 3835 01a6 A2       		.byte	0xa2
 3836 01a7 4F010000 		.4byte	0x14f
 3837 01ab 06       		.uleb128 0x6
 3838 01ac 04       		.byte	0x4
 3839 01ad 03       		.byte	0x3
 3840 01ae A4       		.byte	0xa4
 3841 01af CC010000 		.4byte	0x1cc
 3842 01b3 07       		.uleb128 0x7
 3843 01b4 AD030000 		.4byte	.LASF33
 3844 01b8 03       		.byte	0x3
 3845 01b9 A6       		.byte	0xa6
 3846 01ba 6B000000 		.4byte	0x6b
 3847 01be 00       		.byte	0
 3848 01bf 07       		.uleb128 0x7
 3849 01c0 CF050000 		.4byte	.LASF34
 3850 01c4 03       		.byte	0x3
 3851 01c5 A7       		.byte	0xa7
 3852 01c6 77000000 		.4byte	0x77
 3853 01ca 02       		.byte	0x2
 3854 01cb 00       		.byte	0
 3855 01cc 08       		.uleb128 0x8
 3856 01cd A1040000 		.4byte	.LASF35
 3857 01d1 03       		.byte	0x3
 3858 01d2 A8       		.byte	0xa8
 3859 01d3 AB010000 		.4byte	0x1ab
 3860 01d7 06       		.uleb128 0x6
 3861 01d8 0C       		.byte	0xc
 3862 01d9 03       		.byte	0x3
 3863 01da AA       		.byte	0xaa
 3864 01db 04020000 		.4byte	0x204
 3865 01df 07       		.uleb128 0x7
 3866 01e0 42030000 		.4byte	.LASF36
 3867 01e4 03       		.byte	0x3
 3868 01e5 AC       		.byte	0xac
 3869 01e6 77000000 		.4byte	0x77
 3870 01ea 00       		.byte	0
 3871 01eb 07       		.uleb128 0x7
 3872 01ec 08030000 		.4byte	.LASF37
 3873 01f0 03       		.byte	0x3
 3874 01f1 AD       		.byte	0xad
 3875 01f2 04020000 		.4byte	0x204
 3876 01f6 04       		.byte	0x4
 3877 01f7 07       		.uleb128 0x7
 3878 01f8 35030000 		.4byte	.LASF38
 3879 01fc 03       		.byte	0x3
 3880 01fd AE       		.byte	0xae
 3881 01fe 0A020000 		.4byte	0x20a
 3882 0202 08       		.byte	0x8
 3883 0203 00       		.byte	0
 3884 0204 09       		.uleb128 0x9
 3885 0205 04       		.byte	0x4
 3886 0206 BC000000 		.4byte	0xbc
 3887 020a 09       		.uleb128 0x9
 3888 020b 04       		.byte	0x4
ARM GAS  C:\Users\jon\AppData\Local\Temp\ccCLAX4y.s 			page 106


 3889 020c CC010000 		.4byte	0x1cc
 3890 0210 08       		.uleb128 0x8
 3891 0211 52070000 		.4byte	.LASF39
 3892 0215 03       		.byte	0x3
 3893 0216 AF       		.byte	0xaf
 3894 0217 D7010000 		.4byte	0x1d7
 3895 021b 06       		.uleb128 0x6
 3896 021c 08       		.byte	0x8
 3897 021d 03       		.byte	0x3
 3898 021e B1       		.byte	0xb1
 3899 021f 3A020000 		.4byte	0x23a
 3900 0223 0A       		.uleb128 0xa
 3901 0224 6300     		.ascii	"c\000"
 3902 0226 03       		.byte	0x3
 3903 0227 B3       		.byte	0xb3
 3904 0228 6B000000 		.4byte	0x6b
 3905 022c 00       		.byte	0
 3906 022d 07       		.uleb128 0x7
 3907 022e B0060000 		.4byte	.LASF40
 3908 0232 03       		.byte	0x3
 3909 0233 B4       		.byte	0xb4
 3910 0234 3A020000 		.4byte	0x23a
 3911 0238 04       		.byte	0x4
 3912 0239 00       		.byte	0
 3913 023a 09       		.uleb128 0x9
 3914 023b 04       		.byte	0x4
 3915 023c 40020000 		.4byte	0x240
 3916 0240 0B       		.uleb128 0xb
 3917 0241 08       		.uleb128 0x8
 3918 0242 75040000 		.4byte	.LASF41
 3919 0246 03       		.byte	0x3
 3920 0247 B5       		.byte	0xb5
 3921 0248 1B020000 		.4byte	0x21b
 3922 024c 06       		.uleb128 0x6
 3923 024d 08       		.byte	0x8
 3924 024e 03       		.byte	0x3
 3925 024f C5       		.byte	0xc5
 3926 0250 61020000 		.4byte	0x261
 3927 0254 07       		.uleb128 0x7
 3928 0255 02080000 		.4byte	.LASF42
 3929 0259 03       		.byte	0x3
 3930 025a C7       		.byte	0xc7
 3931 025b 61020000 		.4byte	0x261
 3932 025f 00       		.byte	0
 3933 0260 00       		.byte	0
 3934 0261 0C       		.uleb128 0xc
 3935 0262 6B000000 		.4byte	0x6b
 3936 0266 71020000 		.4byte	0x271
 3937 026a 0D       		.uleb128 0xd
 3938 026b C8000000 		.4byte	0xc8
 3939 026f 07       		.byte	0x7
 3940 0270 00       		.byte	0
 3941 0271 08       		.uleb128 0x8
 3942 0272 B4030000 		.4byte	.LASF43
 3943 0276 03       		.byte	0x3
 3944 0277 C8       		.byte	0xc8
 3945 0278 4C020000 		.4byte	0x24c
ARM GAS  C:\Users\jon\AppData\Local\Temp\ccCLAX4y.s 			page 107


 3946 027c 06       		.uleb128 0x6
 3947 027d 10       		.byte	0x10
 3948 027e 03       		.byte	0x3
 3949 027f D4       		.byte	0xd4
 3950 0280 B5020000 		.4byte	0x2b5
 3951 0284 07       		.uleb128 0x7
 3952 0285 5E040000 		.4byte	.LASF44
 3953 0289 03       		.byte	0x3
 3954 028a D6       		.byte	0xd6
 3955 028b 6B000000 		.4byte	0x6b
 3956 028f 00       		.byte	0
 3957 0290 07       		.uleb128 0x7
 3958 0291 65040000 		.4byte	.LASF45
 3959 0295 03       		.byte	0x3
 3960 0296 D7       		.byte	0xd7
 3961 0297 6B000000 		.4byte	0x6b
 3962 029b 01       		.byte	0x1
 3963 029c 07       		.uleb128 0x7
 3964 029d F5030000 		.4byte	.LASF46
 3965 02a1 03       		.byte	0x3
 3966 02a2 D8       		.byte	0xd8
 3967 02a3 6B000000 		.4byte	0x6b
 3968 02a7 02       		.byte	0x2
 3969 02a8 0A       		.uleb128 0xa
 3970 02a9 67617000 		.ascii	"gap\000"
 3971 02ad 03       		.byte	0x3
 3972 02ae D9       		.byte	0xd9
 3973 02af B5020000 		.4byte	0x2b5
 3974 02b3 03       		.byte	0x3
 3975 02b4 00       		.byte	0
 3976 02b5 0C       		.uleb128 0xc
 3977 02b6 6B000000 		.4byte	0x6b
 3978 02ba C5020000 		.4byte	0x2c5
 3979 02be 0D       		.uleb128 0xd
 3980 02bf C8000000 		.4byte	0xc8
 3981 02c3 0C       		.byte	0xc
 3982 02c4 00       		.byte	0
 3983 02c5 08       		.uleb128 0x8
 3984 02c6 72070000 		.4byte	.LASF47
 3985 02ca 03       		.byte	0x3
 3986 02cb DA       		.byte	0xda
 3987 02cc 7C020000 		.4byte	0x27c
 3988 02d0 06       		.uleb128 0x6
 3989 02d1 10       		.byte	0x10
 3990 02d2 03       		.byte	0x3
 3991 02d3 E6       		.byte	0xe6
 3992 02d4 51030000 		.4byte	0x351
 3993 02d8 07       		.uleb128 0x7
 3994 02d9 0D060000 		.4byte	.LASF48
 3995 02dd 03       		.byte	0x3
 3996 02de E8       		.byte	0xe8
 3997 02df 6B000000 		.4byte	0x6b
 3998 02e3 00       		.byte	0
 3999 02e4 07       		.uleb128 0x7
 4000 02e5 E1020000 		.4byte	.LASF49
 4001 02e9 03       		.byte	0x3
 4002 02ea E9       		.byte	0xe9
ARM GAS  C:\Users\jon\AppData\Local\Temp\ccCLAX4y.s 			page 108


 4003 02eb 6B000000 		.4byte	0x6b
 4004 02ef 01       		.byte	0x1
 4005 02f0 07       		.uleb128 0x7
 4006 02f1 AB060000 		.4byte	.LASF50
 4007 02f5 03       		.byte	0x3
 4008 02f6 EA       		.byte	0xea
 4009 02f7 6B000000 		.4byte	0x6b
 4010 02fb 02       		.byte	0x2
 4011 02fc 07       		.uleb128 0x7
 4012 02fd A6070000 		.4byte	.LASF51
 4013 0301 03       		.byte	0x3
 4014 0302 EB       		.byte	0xeb
 4015 0303 6B000000 		.4byte	0x6b
 4016 0307 03       		.byte	0x3
 4017 0308 07       		.uleb128 0x7
 4018 0309 0B020000 		.4byte	.LASF52
 4019 030d 03       		.byte	0x3
 4020 030e EC       		.byte	0xec
 4021 030f 6B000000 		.4byte	0x6b
 4022 0313 04       		.byte	0x4
 4023 0314 07       		.uleb128 0x7
 4024 0315 BC060000 		.4byte	.LASF53
 4025 0319 03       		.byte	0x3
 4026 031a ED       		.byte	0xed
 4027 031b 6B000000 		.4byte	0x6b
 4028 031f 05       		.byte	0x5
 4029 0320 07       		.uleb128 0x7
 4030 0321 61070000 		.4byte	.LASF54
 4031 0325 03       		.byte	0x3
 4032 0326 EE       		.byte	0xee
 4033 0327 6B000000 		.4byte	0x6b
 4034 032b 06       		.byte	0x6
 4035 032c 07       		.uleb128 0x7
 4036 032d D6050000 		.4byte	.LASF55
 4037 0331 03       		.byte	0x3
 4038 0332 EF       		.byte	0xef
 4039 0333 6B000000 		.4byte	0x6b
 4040 0337 07       		.byte	0x7
 4041 0338 07       		.uleb128 0x7
 4042 0339 00000000 		.4byte	.LASF56
 4043 033d 03       		.byte	0x3
 4044 033e F0       		.byte	0xf0
 4045 033f 6B000000 		.4byte	0x6b
 4046 0343 08       		.byte	0x8
 4047 0344 0A       		.uleb128 0xa
 4048 0345 67617000 		.ascii	"gap\000"
 4049 0349 03       		.byte	0x3
 4050 034a F1       		.byte	0xf1
 4051 034b 51030000 		.4byte	0x351
 4052 034f 09       		.byte	0x9
 4053 0350 00       		.byte	0
 4054 0351 0C       		.uleb128 0xc
 4055 0352 6B000000 		.4byte	0x6b
 4056 0356 61030000 		.4byte	0x361
 4057 035a 0D       		.uleb128 0xd
 4058 035b C8000000 		.4byte	0xc8
 4059 035f 06       		.byte	0x6
ARM GAS  C:\Users\jon\AppData\Local\Temp\ccCLAX4y.s 			page 109


 4060 0360 00       		.byte	0
 4061 0361 08       		.uleb128 0x8
 4062 0362 DE050000 		.4byte	.LASF57
 4063 0366 03       		.byte	0x3
 4064 0367 F2       		.byte	0xf2
 4065 0368 D0020000 		.4byte	0x2d0
 4066 036c 0E       		.uleb128 0xe
 4067 036d 90       		.byte	0x90
 4068 036e 03       		.byte	0x3
 4069 036f 0E01     		.2byte	0x10e
 4070 0371 83030000 		.4byte	0x383
 4071 0375 0F       		.uleb128 0xf
 4072 0376 37000000 		.4byte	.LASF58
 4073 037a 03       		.byte	0x3
 4074 037b 1001     		.2byte	0x110
 4075 037d 83030000 		.4byte	0x383
 4076 0381 00       		.byte	0
 4077 0382 00       		.byte	0
 4078 0383 0C       		.uleb128 0xc
 4079 0384 C5020000 		.4byte	0x2c5
 4080 0388 93030000 		.4byte	0x393
 4081 038c 0D       		.uleb128 0xd
 4082 038d C8000000 		.4byte	0xc8
 4083 0391 08       		.byte	0x8
 4084 0392 00       		.byte	0
 4085 0393 04       		.uleb128 0x4
 4086 0394 1F050000 		.4byte	.LASF59
 4087 0398 03       		.byte	0x3
 4088 0399 1101     		.2byte	0x111
 4089 039b 6C030000 		.4byte	0x36c
 4090 039f 0E       		.uleb128 0xe
 4091 03a0 90       		.byte	0x90
 4092 03a1 03       		.byte	0x3
 4093 03a2 1401     		.2byte	0x114
 4094 03a4 B6030000 		.4byte	0x3b6
 4095 03a8 0F       		.uleb128 0xf
 4096 03a9 6B030000 		.4byte	.LASF60
 4097 03ad 03       		.byte	0x3
 4098 03ae 1601     		.2byte	0x116
 4099 03b0 B6030000 		.4byte	0x3b6
 4100 03b4 00       		.byte	0
 4101 03b5 00       		.byte	0
 4102 03b6 0C       		.uleb128 0xc
 4103 03b7 61030000 		.4byte	0x361
 4104 03bb C6030000 		.4byte	0x3c6
 4105 03bf 0D       		.uleb128 0xd
 4106 03c0 C8000000 		.4byte	0xc8
 4107 03c4 08       		.byte	0x8
 4108 03c5 00       		.byte	0
 4109 03c6 04       		.uleb128 0x4
 4110 03c7 A9020000 		.4byte	.LASF61
 4111 03cb 03       		.byte	0x3
 4112 03cc 1701     		.2byte	0x117
 4113 03ce 9F030000 		.4byte	0x39f
 4114 03d2 10       		.uleb128 0x10
 4115 03d3 1E010000 		.4byte	.LASF77
 4116 03d7 01       		.byte	0x1
ARM GAS  C:\Users\jon\AppData\Local\Temp\ccCLAX4y.s 			page 110


 4117 03d8 AE03     		.2byte	0x3ae
 4118 03da FC030000 		.4byte	0x3fc
 4119 03de 01       		.byte	0x1
 4120 03df FC030000 		.4byte	0x3fc
 4121 03e3 11       		.uleb128 0x11
 4122 03e4 E9020000 		.4byte	.LASF68
 4123 03e8 01       		.byte	0x1
 4124 03e9 AE03     		.2byte	0x3ae
 4125 03eb 6B000000 		.4byte	0x6b
 4126 03ef 12       		.uleb128 0x12
 4127 03f0 32060000 		.4byte	.LASF62
 4128 03f4 01       		.byte	0x1
 4129 03f5 B203     		.2byte	0x3b2
 4130 03f7 FC030000 		.4byte	0x3fc
 4131 03fb 00       		.byte	0
 4132 03fc 09       		.uleb128 0x9
 4133 03fd 04       		.byte	0x4
 4134 03fe 02040000 		.4byte	0x402
 4135 0402 13       		.uleb128 0x13
 4136 0403 41020000 		.4byte	0x241
 4137 0407 14       		.uleb128 0x14
 4138 0408 41020000 		.4byte	.LASF66
 4139 040c 01       		.byte	0x1
 4140 040d 2503     		.2byte	0x325
 4141 040f 01       		.byte	0x1
 4142 0410 66040000 		.4byte	0x466
 4143 0414 15       		.uleb128 0x15
 4144 0415 657000   		.ascii	"ep\000"
 4145 0418 01       		.byte	0x1
 4146 0419 2703     		.2byte	0x327
 4147 041b 6B000000 		.4byte	0x6b
 4148 041f 12       		.uleb128 0x12
 4149 0420 52060000 		.4byte	.LASF63
 4150 0424 01       		.byte	0x1
 4151 0425 2803     		.2byte	0x328
 4152 0427 6B000000 		.4byte	0x6b
 4153 042b 12       		.uleb128 0x12
 4154 042c 0C040000 		.4byte	.LASF64
 4155 0430 01       		.byte	0x1
 4156 0431 2903     		.2byte	0x329
 4157 0433 6B000000 		.4byte	0x6b
 4158 0437 15       		.uleb128 0x15
 4159 0438 6900     		.ascii	"i\000"
 4160 043a 01       		.byte	0x1
 4161 043b 2A03     		.2byte	0x32a
 4162 043d 6B000000 		.4byte	0x6b
 4163 0441 12       		.uleb128 0x12
 4164 0442 BC070000 		.4byte	.LASF65
 4165 0446 01       		.byte	0x1
 4166 0447 2B03     		.2byte	0x32b
 4167 0449 6B000000 		.4byte	0x6b
 4168 044d 12       		.uleb128 0x12
 4169 044e 32060000 		.4byte	.LASF62
 4170 0452 01       		.byte	0x1
 4171 0453 2D03     		.2byte	0x32d
 4172 0455 FC030000 		.4byte	0x3fc
 4173 0459 15       		.uleb128 0x15
ARM GAS  C:\Users\jon\AppData\Local\Temp\ccCLAX4y.s 			page 111


 4174 045a 70455000 		.ascii	"pEP\000"
 4175 045e 01       		.byte	0x1
 4176 045f 2E03     		.2byte	0x32e
 4177 0461 66040000 		.4byte	0x466
 4178 0465 00       		.byte	0
 4179 0466 09       		.uleb128 0x9
 4180 0467 04       		.byte	0x4
 4181 0468 6C040000 		.4byte	0x46c
 4182 046c 13       		.uleb128 0x13
 4183 046d A0010000 		.4byte	0x1a0
 4184 0471 14       		.uleb128 0x14
 4185 0472 FB030000 		.4byte	.LASF67
 4186 0476 01       		.byte	0x1
 4187 0477 3A02     		.2byte	0x23a
 4188 0479 01       		.byte	0x1
 4189 047a F6040000 		.4byte	0x4f6
 4190 047e 11       		.uleb128 0x11
 4191 047f EC060000 		.4byte	.LASF69
 4192 0483 01       		.byte	0x1
 4193 0484 3A02     		.2byte	0x23a
 4194 0486 6B000000 		.4byte	0x6b
 4195 048a 15       		.uleb128 0x15
 4196 048b 657000   		.ascii	"ep\000"
 4197 048e 01       		.byte	0x1
 4198 048f 3C02     		.2byte	0x23c
 4199 0491 6B000000 		.4byte	0x6b
 4200 0495 12       		.uleb128 0x12
 4201 0496 52060000 		.4byte	.LASF63
 4202 049a 01       		.byte	0x1
 4203 049b 3D02     		.2byte	0x23d
 4204 049d 6B000000 		.4byte	0x6b
 4205 04a1 15       		.uleb128 0x15
 4206 04a2 6900     		.ascii	"i\000"
 4207 04a4 01       		.byte	0x1
 4208 04a5 3E02     		.2byte	0x23e
 4209 04a7 6B000000 		.4byte	0x6b
 4210 04ab 12       		.uleb128 0x12
 4211 04ac 0C040000 		.4byte	.LASF64
 4212 04b0 01       		.byte	0x1
 4213 04b1 3F02     		.2byte	0x23f
 4214 04b3 6B000000 		.4byte	0x6b
 4215 04b7 12       		.uleb128 0x12
 4216 04b8 AB000000 		.4byte	.LASF70
 4217 04bc 01       		.byte	0x1
 4218 04bd 4002     		.2byte	0x240
 4219 04bf F6040000 		.4byte	0x4f6
 4220 04c3 12       		.uleb128 0x12
 4221 04c4 AB050000 		.4byte	.LASF71
 4222 04c8 01       		.byte	0x1
 4223 04c9 4302     		.2byte	0x243
 4224 04cb 77000000 		.4byte	0x77
 4225 04cf 12       		.uleb128 0x12
 4226 04d0 32060000 		.4byte	.LASF62
 4227 04d4 01       		.byte	0x1
 4228 04d5 4602     		.2byte	0x246
 4229 04d7 FC030000 		.4byte	0x3fc
 4230 04db 15       		.uleb128 0x15
ARM GAS  C:\Users\jon\AppData\Local\Temp\ccCLAX4y.s 			page 112


 4231 04dc 70455000 		.ascii	"pEP\000"
 4232 04e0 01       		.byte	0x1
 4233 04e1 4702     		.2byte	0x247
 4234 04e3 66040000 		.4byte	0x466
 4235 04e7 16       		.uleb128 0x16
 4236 04e8 12       		.uleb128 0x12
 4237 04e9 DB040000 		.4byte	.LASF72
 4238 04ed 01       		.byte	0x1
 4239 04ee 6302     		.2byte	0x263
 4240 04f0 6B000000 		.4byte	0x6b
 4241 04f4 00       		.byte	0
 4242 04f5 00       		.byte	0
 4243 04f6 09       		.uleb128 0x9
 4244 04f7 04       		.byte	0x4
 4245 04f8 FC040000 		.4byte	0x4fc
 4246 04fc 13       		.uleb128 0x13
 4247 04fd 6B000000 		.4byte	0x6b
 4248 0501 17       		.uleb128 0x17
 4249 0502 E6040000 		.4byte	.LASF120
 4250 0506 01       		.byte	0x1
 4251 0507 F303     		.2byte	0x3f3
 4252 0509 FC030000 		.4byte	0x3fc
 4253 050d 01       		.byte	0x1
 4254 050e 18       		.uleb128 0x18
 4255 050f 07040000 		.4byte	0x407
 4256 0513 00000000 		.4byte	.LFB13
 4257 0517 60010000 		.4byte	.LFE13-.LFB13
 4258 051b 01       		.uleb128 0x1
 4259 051c 9C       		.byte	0x9c
 4260 051d 8A050000 		.4byte	0x58a
 4261 0521 19       		.uleb128 0x19
 4262 0522 14040000 		.4byte	0x414
 4263 0526 00000000 		.4byte	.LLST0
 4264 052a 19       		.uleb128 0x19
 4265 052b 1F040000 		.4byte	0x41f
 4266 052f 1E000000 		.4byte	.LLST1
 4267 0533 19       		.uleb128 0x19
 4268 0534 2B040000 		.4byte	0x42b
 4269 0538 3C000000 		.4byte	.LLST2
 4270 053c 19       		.uleb128 0x19
 4271 053d 37040000 		.4byte	0x437
 4272 0541 5A000000 		.4byte	.LLST3
 4273 0545 19       		.uleb128 0x19
 4274 0546 41040000 		.4byte	0x441
 4275 054a 7A000000 		.4byte	.LLST4
 4276 054e 19       		.uleb128 0x19
 4277 054f 4D040000 		.4byte	0x44d
 4278 0553 98000000 		.4byte	.LLST5
 4279 0557 19       		.uleb128 0x19
 4280 0558 59040000 		.4byte	0x459
 4281 055c B9000000 		.4byte	.LLST6
 4282 0560 1A       		.uleb128 0x1a
 4283 0561 D2030000 		.4byte	0x3d2
 4284 0565 02000000 		.4byte	.LBB24
 4285 0569 00000000 		.4byte	.Ldebug_ranges0+0
 4286 056d 01       		.byte	0x1
 4287 056e 3403     		.2byte	0x334
ARM GAS  C:\Users\jon\AppData\Local\Temp\ccCLAX4y.s 			page 113


 4288 0570 1B       		.uleb128 0x1b
 4289 0571 E3030000 		.4byte	0x3e3
 4290 0575 16010000 		.4byte	.LLST7
 4291 0579 1C       		.uleb128 0x1c
 4292 057a 00000000 		.4byte	.Ldebug_ranges0+0
 4293 057e 19       		.uleb128 0x19
 4294 057f EF030000 		.4byte	0x3ef
 4295 0583 29010000 		.4byte	.LLST8
 4296 0587 00       		.byte	0
 4297 0588 00       		.byte	0
 4298 0589 00       		.byte	0
 4299 058a 1D       		.uleb128 0x1d
 4300 058b 13040000 		.4byte	.LASF75
 4301 058f 01       		.byte	0x1
 4302 0590 8E01     		.2byte	0x18e
 4303 0592 00000000 		.4byte	.LFB1
 4304 0596 48010000 		.4byte	.LFE1-.LFB1
 4305 059a 01       		.uleb128 0x1
 4306 059b 9C       		.byte	0x9c
 4307 059c FB050000 		.4byte	0x5fb
 4308 05a0 1E       		.uleb128 0x1e
 4309 05a1 19050000 		.4byte	.LASF94
 4310 05a5 01       		.byte	0x1
 4311 05a6 8E01     		.2byte	0x18e
 4312 05a8 FB050000 		.4byte	0x5fb
 4313 05ac 3E010000 		.4byte	.LLST9
 4314 05b0 1F       		.uleb128 0x1f
 4315 05b1 68657800 		.ascii	"hex\000"
 4316 05b5 01       		.byte	0x1
 4317 05b6 9001     		.2byte	0x190
 4318 05b8 16060000 		.4byte	0x616
 4319 05bc 02       		.uleb128 0x2
 4320 05bd 91       		.byte	0x91
 4321 05be 4C       		.sleb128 -52
 4322 05bf 20       		.uleb128 0x20
 4323 05c0 6900     		.ascii	"i\000"
 4324 05c2 01       		.byte	0x1
 4325 05c3 9101     		.2byte	0x191
 4326 05c5 6B000000 		.4byte	0x6b
 4327 05c9 6A010000 		.4byte	.LLST10
 4328 05cd 20       		.uleb128 0x20
 4329 05ce 6A00     		.ascii	"j\000"
 4330 05d0 01       		.byte	0x1
 4331 05d1 9201     		.2byte	0x192
 4332 05d3 6B000000 		.4byte	0x6b
 4333 05d7 DF010000 		.4byte	.LLST11
 4334 05db 21       		.uleb128 0x21
 4335 05dc 9D070000 		.4byte	.LASF73
 4336 05e0 01       		.byte	0x1
 4337 05e1 9301     		.2byte	0x193
 4338 05e3 61020000 		.4byte	0x261
 4339 05e7 02       		.uleb128 0x2
 4340 05e8 91       		.byte	0x91
 4341 05e9 44       		.sleb128 -60
 4342 05ea 22       		.uleb128 0x22
 4343 05eb 28000000 		.4byte	.LVL23
 4344 05ef 4B0E0000 		.4byte	0xe4b
ARM GAS  C:\Users\jon\AppData\Local\Temp\ccCLAX4y.s 			page 114


 4345 05f3 23       		.uleb128 0x23
 4346 05f4 01       		.uleb128 0x1
 4347 05f5 50       		.byte	0x50
 4348 05f6 02       		.uleb128 0x2
 4349 05f7 91       		.byte	0x91
 4350 05f8 44       		.sleb128 -60
 4351 05f9 00       		.byte	0
 4352 05fa 00       		.byte	0
 4353 05fb 09       		.uleb128 0x9
 4354 05fc 04       		.byte	0x4
 4355 05fd 6B000000 		.4byte	0x6b
 4356 0601 0C       		.uleb128 0xc
 4357 0602 11060000 		.4byte	0x611
 4358 0606 11060000 		.4byte	0x611
 4359 060a 0D       		.uleb128 0xd
 4360 060b C8000000 		.4byte	0xc8
 4361 060f 10       		.byte	0x10
 4362 0610 00       		.byte	0
 4363 0611 13       		.uleb128 0x13
 4364 0612 9D000000 		.4byte	0x9d
 4365 0616 13       		.uleb128 0x13
 4366 0617 01060000 		.4byte	0x601
 4367 061b 14       		.uleb128 0x14
 4368 061c 44040000 		.4byte	.LASF74
 4369 0620 01       		.byte	0x1
 4370 0621 B501     		.2byte	0x1b5
 4371 0623 01       		.byte	0x1
 4372 0624 34060000 		.4byte	0x634
 4373 0628 15       		.uleb128 0x15
 4374 0629 657000   		.ascii	"ep\000"
 4375 062c 01       		.byte	0x1
 4376 062d B701     		.2byte	0x1b7
 4377 062f 6B000000 		.4byte	0x6b
 4378 0633 00       		.byte	0
 4379 0634 18       		.uleb128 0x18
 4380 0635 1B060000 		.4byte	0x61b
 4381 0639 00000000 		.4byte	.LFB2
 4382 063d BC020000 		.4byte	.LFE2-.LFB2
 4383 0641 01       		.uleb128 0x1
 4384 0642 9C       		.byte	0x9c
 4385 0643 51060000 		.4byte	0x651
 4386 0647 19       		.uleb128 0x19
 4387 0648 28060000 		.4byte	0x628
 4388 064c 53020000 		.4byte	.LLST12
 4389 0650 00       		.byte	0
 4390 0651 1D       		.uleb128 0x1d
 4391 0652 93020000 		.4byte	.LASF76
 4392 0656 01       		.byte	0x1
 4393 0657 1402     		.2byte	0x214
 4394 0659 00000000 		.4byte	.LFB3
 4395 065d 90000000 		.4byte	.LFE3-.LFB3
 4396 0661 01       		.uleb128 0x1
 4397 0662 9C       		.byte	0x9c
 4398 0663 76060000 		.4byte	0x676
 4399 0667 20       		.uleb128 0x20
 4400 0668 6900     		.ascii	"i\000"
 4401 066a 01       		.byte	0x1
ARM GAS  C:\Users\jon\AppData\Local\Temp\ccCLAX4y.s 			page 115


 4402 066b 1602     		.2byte	0x216
 4403 066d 6B000000 		.4byte	0x6b
 4404 0671 33030000 		.4byte	.LLST13
 4405 0675 00       		.byte	0
 4406 0676 10       		.uleb128 0x10
 4407 0677 40010000 		.4byte	.LASF78
 4408 067b 01       		.byte	0x1
 4409 067c 0604     		.2byte	0x406
 4410 067e F6040000 		.4byte	0x4f6
 4411 0682 01       		.byte	0x1
 4412 0683 AC060000 		.4byte	0x6ac
 4413 0687 12       		.uleb128 0x12
 4414 0688 32060000 		.4byte	.LASF62
 4415 068c 01       		.byte	0x1
 4416 068d 0904     		.2byte	0x409
 4417 068f FC030000 		.4byte	0x3fc
 4418 0693 12       		.uleb128 0x12
 4419 0694 09050000 		.4byte	.LASF79
 4420 0698 01       		.byte	0x1
 4421 0699 0A04     		.2byte	0x40a
 4422 069b F6040000 		.4byte	0x4f6
 4423 069f 12       		.uleb128 0x12
 4424 06a0 F3020000 		.4byte	.LASF80
 4425 06a4 01       		.byte	0x1
 4426 06a5 0B04     		.2byte	0x40b
 4427 06a7 6B000000 		.4byte	0x6b
 4428 06ab 00       		.byte	0
 4429 06ac 18       		.uleb128 0x18
 4430 06ad 71040000 		.4byte	0x471
 4431 06b1 00000000 		.4byte	.LFB4
 4432 06b5 04060000 		.4byte	.LFE4-.LFB4
 4433 06b9 01       		.uleb128 0x1
 4434 06ba 9C       		.byte	0x9c
 4435 06bb 28080000 		.4byte	0x828
 4436 06bf 1B       		.uleb128 0x1b
 4437 06c0 7E040000 		.4byte	0x47e
 4438 06c4 53030000 		.4byte	.LLST14
 4439 06c8 19       		.uleb128 0x19
 4440 06c9 8A040000 		.4byte	0x48a
 4441 06cd 8D030000 		.4byte	.LLST15
 4442 06d1 24       		.uleb128 0x24
 4443 06d2 95040000 		.4byte	0x495
 4444 06d6 19       		.uleb128 0x19
 4445 06d7 A1040000 		.4byte	0x4a1
 4446 06db 0D040000 		.4byte	.LLST16
 4447 06df 24       		.uleb128 0x24
 4448 06e0 AB040000 		.4byte	0x4ab
 4449 06e4 24       		.uleb128 0x24
 4450 06e5 B7040000 		.4byte	0x4b7
 4451 06e9 25       		.uleb128 0x25
 4452 06ea C3040000 		.4byte	0x4c3
 4453 06ee 00       		.byte	0
 4454 06ef 24       		.uleb128 0x24
 4455 06f0 CF040000 		.4byte	0x4cf
 4456 06f4 24       		.uleb128 0x24
 4457 06f5 DB040000 		.4byte	0x4db
 4458 06f9 1C       		.uleb128 0x1c
ARM GAS  C:\Users\jon\AppData\Local\Temp\ccCLAX4y.s 			page 116


 4459 06fa 28000000 		.4byte	.Ldebug_ranges0+0x28
 4460 06fe 1B       		.uleb128 0x1b
 4461 06ff 7E040000 		.4byte	0x47e
 4462 0703 2D040000 		.4byte	.LLST17
 4463 0707 1C       		.uleb128 0x1c
 4464 0708 28000000 		.4byte	.Ldebug_ranges0+0x28
 4465 070c 19       		.uleb128 0x19
 4466 070d 8A040000 		.4byte	0x48a
 4467 0711 4B040000 		.4byte	.LLST18
 4468 0715 19       		.uleb128 0x19
 4469 0716 95040000 		.4byte	0x495
 4470 071a BD040000 		.4byte	.LLST19
 4471 071e 19       		.uleb128 0x19
 4472 071f A1040000 		.4byte	0x4a1
 4473 0723 DD040000 		.4byte	.LLST20
 4474 0727 19       		.uleb128 0x19
 4475 0728 AB040000 		.4byte	0x4ab
 4476 072c 38050000 		.4byte	.LLST21
 4477 0730 19       		.uleb128 0x19
 4478 0731 B7040000 		.4byte	0x4b7
 4479 0735 78050000 		.4byte	.LLST22
 4480 0739 19       		.uleb128 0x19
 4481 073a C3040000 		.4byte	0x4c3
 4482 073e 8C050000 		.4byte	.LLST23
 4483 0742 19       		.uleb128 0x19
 4484 0743 CF040000 		.4byte	0x4cf
 4485 0747 C0050000 		.4byte	.LLST24
 4486 074b 19       		.uleb128 0x19
 4487 074c DB040000 		.4byte	0x4db
 4488 0750 D5050000 		.4byte	.LLST25
 4489 0754 1C       		.uleb128 0x1c
 4490 0755 28000000 		.4byte	.Ldebug_ranges0+0x28
 4491 0759 19       		.uleb128 0x19
 4492 075a E8040000 		.4byte	0x4e8
 4493 075e 25060000 		.4byte	.LLST26
 4494 0762 26       		.uleb128 0x26
 4495 0763 D2030000 		.4byte	0x3d2
 4496 0767 F4000000 		.4byte	.LBB46
 4497 076b 40000000 		.4byte	.Ldebug_ranges0+0x40
 4498 076f 01       		.byte	0x1
 4499 0770 6602     		.2byte	0x266
 4500 0772 8F070000 		.4byte	0x78f
 4501 0776 1B       		.uleb128 0x1b
 4502 0777 E3030000 		.4byte	0x3e3
 4503 077b 71060000 		.4byte	.LLST27
 4504 077f 1C       		.uleb128 0x1c
 4505 0780 40000000 		.4byte	.Ldebug_ranges0+0x40
 4506 0784 19       		.uleb128 0x19
 4507 0785 EF030000 		.4byte	0x3ef
 4508 0789 84060000 		.4byte	.LLST28
 4509 078d 00       		.byte	0
 4510 078e 00       		.byte	0
 4511 078f 26       		.uleb128 0x26
 4512 0790 76060000 		.4byte	0x676
 4513 0794 40020000 		.4byte	.LBB54
 4514 0798 68000000 		.4byte	.Ldebug_ranges0+0x68
 4515 079c 01       		.byte	0x1
ARM GAS  C:\Users\jon\AppData\Local\Temp\ccCLAX4y.s 			page 117


 4516 079d 0303     		.2byte	0x303
 4517 079f EA070000 		.4byte	0x7ea
 4518 07a3 1C       		.uleb128 0x1c
 4519 07a4 68000000 		.4byte	.Ldebug_ranges0+0x68
 4520 07a8 19       		.uleb128 0x19
 4521 07a9 87060000 		.4byte	0x687
 4522 07ad 99060000 		.4byte	.LLST29
 4523 07b1 24       		.uleb128 0x24
 4524 07b2 93060000 		.4byte	0x693
 4525 07b6 19       		.uleb128 0x19
 4526 07b7 9F060000 		.4byte	0x69f
 4527 07bb B3060000 		.4byte	.LLST30
 4528 07bf 1A       		.uleb128 0x1a
 4529 07c0 D2030000 		.4byte	0x3d2
 4530 07c4 42020000 		.4byte	.LBB56
 4531 07c8 80000000 		.4byte	.Ldebug_ranges0+0x80
 4532 07cc 01       		.byte	0x1
 4533 07cd 0D04     		.2byte	0x40d
 4534 07cf 1B       		.uleb128 0x1b
 4535 07d0 E3030000 		.4byte	0x3e3
 4536 07d4 D5060000 		.4byte	.LLST31
 4537 07d8 1C       		.uleb128 0x1c
 4538 07d9 80000000 		.4byte	.Ldebug_ranges0+0x80
 4539 07dd 19       		.uleb128 0x19
 4540 07de EF030000 		.4byte	0x3ef
 4541 07e2 F3060000 		.4byte	.LLST32
 4542 07e6 00       		.byte	0
 4543 07e7 00       		.byte	0
 4544 07e8 00       		.byte	0
 4545 07e9 00       		.byte	0
 4546 07ea 26       		.uleb128 0x26
 4547 07eb 1B060000 		.4byte	0x61b
 4548 07ef 96020000 		.4byte	.LBB65
 4549 07f3 A8000000 		.4byte	.Ldebug_ranges0+0xa8
 4550 07f7 01       		.byte	0x1
 4551 07f8 1503     		.2byte	0x315
 4552 07fa 0E080000 		.4byte	0x80e
 4553 07fe 1C       		.uleb128 0x1c
 4554 07ff A8000000 		.4byte	.Ldebug_ranges0+0xa8
 4555 0803 19       		.uleb128 0x19
 4556 0804 28060000 		.4byte	0x628
 4557 0808 15070000 		.4byte	.LLST33
 4558 080c 00       		.byte	0
 4559 080d 00       		.byte	0
 4560 080e 22       		.uleb128 0x22
 4561 080f FE010000 		.4byte	.LVL80
 4562 0813 560E0000 		.4byte	0xe56
 4563 0817 23       		.uleb128 0x23
 4564 0818 01       		.uleb128 0x1
 4565 0819 50       		.byte	0x50
 4566 081a 02       		.uleb128 0x2
 4567 081b 74       		.byte	0x74
 4568 081c 00       		.sleb128 0
 4569 081d 23       		.uleb128 0x23
 4570 081e 01       		.uleb128 0x1
 4571 081f 51       		.byte	0x51
 4572 0820 02       		.uleb128 0x2
ARM GAS  C:\Users\jon\AppData\Local\Temp\ccCLAX4y.s 			page 118


 4573 0821 7A       		.byte	0x7a
 4574 0822 00       		.sleb128 0
 4575 0823 00       		.byte	0
 4576 0824 00       		.byte	0
 4577 0825 00       		.byte	0
 4578 0826 00       		.byte	0
 4579 0827 00       		.byte	0
 4580 0828 10       		.uleb128 0x10
 4581 0829 F2000000 		.4byte	.LASF81
 4582 082d 01       		.byte	0x1
 4583 082e CF04     		.2byte	0x4cf
 4584 0830 6B000000 		.4byte	0x6b
 4585 0834 01       		.byte	0x1
 4586 0835 6A080000 		.4byte	0x86a
 4587 0839 12       		.uleb128 0x12
 4588 083a 27040000 		.4byte	.LASF82
 4589 083e 01       		.byte	0x1
 4590 083f D104     		.2byte	0x4d1
 4591 0841 6B000000 		.4byte	0x6b
 4592 0845 12       		.uleb128 0x12
 4593 0846 BC070000 		.4byte	.LASF65
 4594 084a 01       		.byte	0x1
 4595 084b D304     		.2byte	0x4d3
 4596 084d 6B000000 		.4byte	0x6b
 4597 0851 12       		.uleb128 0x12
 4598 0852 82020000 		.4byte	.LASF83
 4599 0856 01       		.byte	0x1
 4600 0857 D404     		.2byte	0x4d4
 4601 0859 6B000000 		.4byte	0x6b
 4602 085d 12       		.uleb128 0x12
 4603 085e 32060000 		.4byte	.LASF62
 4604 0862 01       		.byte	0x1
 4605 0863 D504     		.2byte	0x4d5
 4606 0865 FC030000 		.4byte	0x3fc
 4607 0869 00       		.byte	0
 4608 086a 10       		.uleb128 0x10
 4609 086b 85040000 		.4byte	.LASF84
 4610 086f 01       		.byte	0x1
 4611 0870 8A04     		.2byte	0x48a
 4612 0872 6B000000 		.4byte	0x6b
 4613 0876 01       		.byte	0x1
 4614 0877 93080000 		.4byte	0x893
 4615 087b 12       		.uleb128 0x12
 4616 087c 27040000 		.4byte	.LASF82
 4617 0880 01       		.byte	0x1
 4618 0881 8C04     		.2byte	0x48c
 4619 0883 6B000000 		.4byte	0x6b
 4620 0887 15       		.uleb128 0x15
 4621 0888 657000   		.ascii	"ep\000"
 4622 088b 01       		.byte	0x1
 4623 088c 8D04     		.2byte	0x48d
 4624 088e 6B000000 		.4byte	0x6b
 4625 0892 00       		.byte	0
 4626 0893 10       		.uleb128 0x10
 4627 0894 0E030000 		.4byte	.LASF85
 4628 0898 01       		.byte	0x1
 4629 0899 5904     		.2byte	0x459
ARM GAS  C:\Users\jon\AppData\Local\Temp\ccCLAX4y.s 			page 119


 4630 089b 6B000000 		.4byte	0x6b
 4631 089f 01       		.byte	0x1
 4632 08a0 BC080000 		.4byte	0x8bc
 4633 08a4 12       		.uleb128 0x12
 4634 08a5 27040000 		.4byte	.LASF82
 4635 08a9 01       		.byte	0x1
 4636 08aa 5B04     		.2byte	0x45b
 4637 08ac 6B000000 		.4byte	0x6b
 4638 08b0 15       		.uleb128 0x15
 4639 08b1 657000   		.ascii	"ep\000"
 4640 08b4 01       		.byte	0x1
 4641 08b5 5C04     		.2byte	0x45c
 4642 08b7 6B000000 		.4byte	0x6b
 4643 08bb 00       		.byte	0
 4644 08bc 27       		.uleb128 0x27
 4645 08bd 71030000 		.4byte	.LASF121
 4646 08c1 01       		.byte	0x1
 4647 08c2 54       		.byte	0x54
 4648 08c3 6B000000 		.4byte	0x6b
 4649 08c7 00000000 		.4byte	.LFB0
 4650 08cb 24040000 		.4byte	.LFE0-.LFB0
 4651 08cf 01       		.uleb128 0x1
 4652 08d0 9C       		.byte	0x9c
 4653 08d1 550B0000 		.4byte	0xb55
 4654 08d5 28       		.uleb128 0x28
 4655 08d6 27040000 		.4byte	.LASF82
 4656 08da 01       		.byte	0x1
 4657 08db 56       		.byte	0x56
 4658 08dc 6B000000 		.4byte	0x6b
 4659 08e0 00       		.byte	0
 4660 08e1 29       		.uleb128 0x29
 4661 08e2 88000000 		.4byte	.LASF86
 4662 08e6 01       		.byte	0x1
 4663 08e7 57       		.byte	0x57
 4664 08e8 6B000000 		.4byte	0x6b
 4665 08ec E9070000 		.4byte	.LLST34
 4666 08f0 29       		.uleb128 0x29
 4667 08f1 28000000 		.4byte	.LASF87
 4668 08f5 01       		.byte	0x1
 4669 08f6 58       		.byte	0x58
 4670 08f7 6B000000 		.4byte	0x6b
 4671 08fb FC070000 		.4byte	.LLST35
 4672 08ff 29       		.uleb128 0x29
 4673 0900 98000000 		.4byte	.LASF88
 4674 0904 01       		.byte	0x1
 4675 0905 59       		.byte	0x59
 4676 0906 6B000000 		.4byte	0x6b
 4677 090a 0F080000 		.4byte	.LLST36
 4678 090e 29       		.uleb128 0x29
 4679 090f B7060000 		.4byte	.LASF89
 4680 0913 01       		.byte	0x1
 4681 0914 5C       		.byte	0x5c
 4682 0915 04020000 		.4byte	0x204
 4683 0919 85080000 		.4byte	.LLST37
 4684 091d 29       		.uleb128 0x29
 4685 091e 58060000 		.4byte	.LASF90
 4686 0922 01       		.byte	0x1
ARM GAS  C:\Users\jon\AppData\Local\Temp\ccCLAX4y.s 			page 120


 4687 0923 5E       		.byte	0x5e
 4688 0924 6B000000 		.4byte	0x6b
 4689 0928 C7080000 		.4byte	.LLST38
 4690 092c 29       		.uleb128 0x29
 4691 092d E0060000 		.4byte	.LASF91
 4692 0931 01       		.byte	0x1
 4693 0932 5F       		.byte	0x5f
 4694 0933 6B000000 		.4byte	0x6b
 4695 0937 FD080000 		.4byte	.LLST39
 4696 093b 2A       		.uleb128 0x2a
 4697 093c BF040000 		.4byte	.LASF92
 4698 0940 01       		.byte	0x1
 4699 0941 63       		.byte	0x63
 4700 0942 650B0000 		.4byte	0xb65
 4701 0946 05       		.uleb128 0x5
 4702 0947 03       		.byte	0x3
 4703 0948 00000000 		.4byte	USBUART_1_tBuffer.5250
 4704 094c 29       		.uleb128 0x29
 4705 094d 32060000 		.4byte	.LASF62
 4706 0951 01       		.byte	0x1
 4707 0952 64       		.byte	0x64
 4708 0953 FC030000 		.4byte	0x3fc
 4709 0957 1B090000 		.4byte	.LLST40
 4710 095b 26       		.uleb128 0x26
 4711 095c 28080000 		.4byte	0x828
 4712 0960 78000000 		.4byte	.LBB93
 4713 0964 D0000000 		.4byte	.Ldebug_ranges0+0xd0
 4714 0968 01       		.byte	0x1
 4715 0969 2001     		.2byte	0x120
 4716 096b BF090000 		.4byte	0x9bf
 4717 096f 1C       		.uleb128 0x1c
 4718 0970 D0000000 		.4byte	.Ldebug_ranges0+0xd0
 4719 0974 19       		.uleb128 0x19
 4720 0975 39080000 		.4byte	0x839
 4721 0979 4F090000 		.4byte	.LLST41
 4722 097d 19       		.uleb128 0x19
 4723 097e 45080000 		.4byte	0x845
 4724 0982 6F090000 		.4byte	.LLST42
 4725 0986 19       		.uleb128 0x19
 4726 0987 51080000 		.4byte	0x851
 4727 098b 8D090000 		.4byte	.LLST43
 4728 098f 24       		.uleb128 0x24
 4729 0990 5D080000 		.4byte	0x85d
 4730 0994 1A       		.uleb128 0x1a
 4731 0995 D2030000 		.4byte	0x3d2
 4732 0999 7C000000 		.4byte	.LBB95
 4733 099d F0000000 		.4byte	.Ldebug_ranges0+0xf0
 4734 09a1 01       		.byte	0x1
 4735 09a2 DB04     		.2byte	0x4db
 4736 09a4 1B       		.uleb128 0x1b
 4737 09a5 E3030000 		.4byte	0x3e3
 4738 09a9 B1090000 		.4byte	.LLST44
 4739 09ad 1C       		.uleb128 0x1c
 4740 09ae F0000000 		.4byte	.Ldebug_ranges0+0xf0
 4741 09b2 19       		.uleb128 0x19
 4742 09b3 EF030000 		.4byte	0x3ef
 4743 09b7 C4090000 		.4byte	.LLST45
ARM GAS  C:\Users\jon\AppData\Local\Temp\ccCLAX4y.s 			page 121


 4744 09bb 00       		.byte	0
 4745 09bc 00       		.byte	0
 4746 09bd 00       		.byte	0
 4747 09be 00       		.byte	0
 4748 09bf 26       		.uleb128 0x26
 4749 09c0 07040000 		.4byte	0x407
 4750 09c4 D8000000 		.4byte	.LBB110
 4751 09c8 28010000 		.4byte	.Ldebug_ranges0+0x128
 4752 09cc 01       		.byte	0x1
 4753 09cd 2F01     		.2byte	0x12f
 4754 09cf 060A0000 		.4byte	0xa06
 4755 09d3 1C       		.uleb128 0x1c
 4756 09d4 28010000 		.4byte	.Ldebug_ranges0+0x128
 4757 09d8 24       		.uleb128 0x24
 4758 09d9 14040000 		.4byte	0x414
 4759 09dd 24       		.uleb128 0x24
 4760 09de 1F040000 		.4byte	0x41f
 4761 09e2 24       		.uleb128 0x24
 4762 09e3 2B040000 		.4byte	0x42b
 4763 09e7 24       		.uleb128 0x24
 4764 09e8 37040000 		.4byte	0x437
 4765 09ec 24       		.uleb128 0x24
 4766 09ed 41040000 		.4byte	0x441
 4767 09f1 24       		.uleb128 0x24
 4768 09f2 4D040000 		.4byte	0x44d
 4769 09f6 24       		.uleb128 0x24
 4770 09f7 59040000 		.4byte	0x459
 4771 09fb 2B       		.uleb128 0x2b
 4772 09fc 18030000 		.4byte	.LVL185
 4773 0a00 0E050000 		.4byte	0x50e
 4774 0a04 00       		.byte	0
 4775 0a05 00       		.byte	0
 4776 0a06 26       		.uleb128 0x26
 4777 0a07 6A080000 		.4byte	0x86a
 4778 0a0b 04010000 		.4byte	.LBB113
 4779 0a0f 40010000 		.4byte	.Ldebug_ranges0+0x140
 4780 0a13 01       		.byte	0x1
 4781 0a14 3D01     		.2byte	0x13d
 4782 0a16 330A0000 		.4byte	0xa33
 4783 0a1a 1C       		.uleb128 0x1c
 4784 0a1b 40010000 		.4byte	.Ldebug_ranges0+0x140
 4785 0a1f 19       		.uleb128 0x19
 4786 0a20 7B080000 		.4byte	0x87b
 4787 0a24 D9090000 		.4byte	.LLST46
 4788 0a28 19       		.uleb128 0x19
 4789 0a29 87080000 		.4byte	0x887
 4790 0a2d F9090000 		.4byte	.LLST47
 4791 0a31 00       		.byte	0
 4792 0a32 00       		.byte	0
 4793 0a33 2C       		.uleb128 0x2c
 4794 0a34 93080000 		.4byte	0x893
 4795 0a38 76010000 		.4byte	.LBB116
 4796 0a3c 40000000 		.4byte	.LBE116-.LBB116
 4797 0a40 01       		.byte	0x1
 4798 0a41 5B01     		.2byte	0x15b
 4799 0a43 640A0000 		.4byte	0xa64
 4800 0a47 2D       		.uleb128 0x2d
ARM GAS  C:\Users\jon\AppData\Local\Temp\ccCLAX4y.s 			page 122


 4801 0a48 76010000 		.4byte	.LBB117
 4802 0a4c 40000000 		.4byte	.LBE117-.LBB117
 4803 0a50 19       		.uleb128 0x19
 4804 0a51 A4080000 		.4byte	0x8a4
 4805 0a55 0C0A0000 		.4byte	.LLST48
 4806 0a59 19       		.uleb128 0x19
 4807 0a5a B0080000 		.4byte	0x8b0
 4808 0a5e 200A0000 		.4byte	.LLST49
 4809 0a62 00       		.byte	0
 4810 0a63 00       		.byte	0
 4811 0a64 26       		.uleb128 0x26
 4812 0a65 D2030000 		.4byte	0x3d2
 4813 0a69 D2010000 		.4byte	.LBB118
 4814 0a6d 58010000 		.4byte	.Ldebug_ranges0+0x158
 4815 0a71 01       		.byte	0x1
 4816 0a72 0E01     		.2byte	0x10e
 4817 0a74 910A0000 		.4byte	0xa91
 4818 0a78 1B       		.uleb128 0x1b
 4819 0a79 E3030000 		.4byte	0x3e3
 4820 0a7d 330A0000 		.4byte	.LLST50
 4821 0a81 1C       		.uleb128 0x1c
 4822 0a82 58010000 		.4byte	.Ldebug_ranges0+0x158
 4823 0a86 19       		.uleb128 0x19
 4824 0a87 EF030000 		.4byte	0x3ef
 4825 0a8b 530A0000 		.4byte	.LLST51
 4826 0a8f 00       		.byte	0
 4827 0a90 00       		.byte	0
 4828 0a91 2E       		.uleb128 0x2e
 4829 0a92 01050000 		.4byte	0x501
 4830 0a96 46030000 		.4byte	.LBB126
 4831 0a9a 78010000 		.4byte	.Ldebug_ranges0+0x178
 4832 0a9e 01       		.byte	0x1
 4833 0a9f 70       		.byte	0x70
 4834 0aa0 2F       		.uleb128 0x2f
 4835 0aa1 D2030000 		.4byte	0x3d2
 4836 0aa5 A2030000 		.4byte	.LBB130
 4837 0aa9 90010000 		.4byte	.Ldebug_ranges0+0x190
 4838 0aad 01       		.byte	0x1
 4839 0aae 78       		.byte	0x78
 4840 0aaf CC0A0000 		.4byte	0xacc
 4841 0ab3 1B       		.uleb128 0x1b
 4842 0ab4 E3030000 		.4byte	0x3e3
 4843 0ab8 940A0000 		.4byte	.LLST52
 4844 0abc 1C       		.uleb128 0x1c
 4845 0abd 90010000 		.4byte	.Ldebug_ranges0+0x190
 4846 0ac1 19       		.uleb128 0x19
 4847 0ac2 EF030000 		.4byte	0x3ef
 4848 0ac6 A70A0000 		.4byte	.LLST53
 4849 0aca 00       		.byte	0
 4850 0acb 00       		.byte	0
 4851 0acc 30       		.uleb128 0x30
 4852 0acd E8000000 		.4byte	.LVL145
 4853 0ad1 620E0000 		.4byte	0xe62
 4854 0ad5 30       		.uleb128 0x30
 4855 0ad6 C8010000 		.4byte	.LVL157
 4856 0ada 620E0000 		.4byte	0xe62
 4857 0ade 31       		.uleb128 0x31
ARM GAS  C:\Users\jon\AppData\Local\Temp\ccCLAX4y.s 			page 123


 4858 0adf 0E020000 		.4byte	.LVL165
 4859 0ae3 71040000 		.4byte	0x471
 4860 0ae7 F10A0000 		.4byte	0xaf1
 4861 0aeb 23       		.uleb128 0x23
 4862 0aec 01       		.uleb128 0x1
 4863 0aed 50       		.byte	0x50
 4864 0aee 01       		.uleb128 0x1
 4865 0aef 31       		.byte	0x31
 4866 0af0 00       		.byte	0
 4867 0af1 30       		.uleb128 0x30
 4868 0af2 26020000 		.4byte	.LVL168
 4869 0af6 6D0E0000 		.4byte	0xe6d
 4870 0afa 30       		.uleb128 0x30
 4871 0afb 8E020000 		.4byte	.LVL178
 4872 0aff 6D0E0000 		.4byte	0xe6d
 4873 0b03 30       		.uleb128 0x30
 4874 0b04 FE020000 		.4byte	.LVL181
 4875 0b08 6D0E0000 		.4byte	0xe6d
 4876 0b0c 30       		.uleb128 0x30
 4877 0b0d 0E030000 		.4byte	.LVL183
 4878 0b11 6D0E0000 		.4byte	0xe6d
 4879 0b15 30       		.uleb128 0x30
 4880 0b16 34030000 		.4byte	.LVL186
 4881 0b1a 6D0E0000 		.4byte	0xe6d
 4882 0b1e 30       		.uleb128 0x30
 4883 0b1f 62030000 		.4byte	.LVL187
 4884 0b23 6D0E0000 		.4byte	0xe6d
 4885 0b27 30       		.uleb128 0x30
 4886 0b28 7E030000 		.4byte	.LVL188
 4887 0b2c 620E0000 		.4byte	0xe62
 4888 0b30 30       		.uleb128 0x30
 4889 0b31 9A030000 		.4byte	.LVL189
 4890 0b35 620E0000 		.4byte	0xe62
 4891 0b39 30       		.uleb128 0x30
 4892 0b3a A2030000 		.4byte	.LVL190
 4893 0b3e 780E0000 		.4byte	0xe78
 4894 0b42 30       		.uleb128 0x30
 4895 0b43 E0030000 		.4byte	.LVL195
 4896 0b47 6D0E0000 		.4byte	0xe6d
 4897 0b4b 2B       		.uleb128 0x2b
 4898 0b4c F2030000 		.4byte	.LVL197
 4899 0b50 8A050000 		.4byte	0x58a
 4900 0b54 00       		.byte	0
 4901 0b55 0C       		.uleb128 0xc
 4902 0b56 BC000000 		.4byte	0xbc
 4903 0b5a 650B0000 		.4byte	0xb65
 4904 0b5e 0D       		.uleb128 0xd
 4905 0b5f C8000000 		.4byte	0xc8
 4906 0b63 01       		.byte	0x1
 4907 0b64 00       		.byte	0
 4908 0b65 05       		.uleb128 0x5
 4909 0b66 550B0000 		.4byte	0xb55
 4910 0b6a 18       		.uleb128 0x18
 4911 0b6b 07040000 		.4byte	0x407
 4912 0b6f 00000000 		.4byte	.LFB5
 4913 0b73 10000000 		.4byte	.LFE5-.LFB5
 4914 0b77 01       		.uleb128 0x1
ARM GAS  C:\Users\jon\AppData\Local\Temp\ccCLAX4y.s 			page 124


 4915 0b78 9C       		.byte	0x9c
 4916 0b79 AA0B0000 		.4byte	0xbaa
 4917 0b7d 24       		.uleb128 0x24
 4918 0b7e 14040000 		.4byte	0x414
 4919 0b82 24       		.uleb128 0x24
 4920 0b83 1F040000 		.4byte	0x41f
 4921 0b87 24       		.uleb128 0x24
 4922 0b88 2B040000 		.4byte	0x42b
 4923 0b8c 24       		.uleb128 0x24
 4924 0b8d 37040000 		.4byte	0x437
 4925 0b91 24       		.uleb128 0x24
 4926 0b92 41040000 		.4byte	0x441
 4927 0b96 24       		.uleb128 0x24
 4928 0b97 4D040000 		.4byte	0x44d
 4929 0b9b 24       		.uleb128 0x24
 4930 0b9c 59040000 		.4byte	0x459
 4931 0ba0 30       		.uleb128 0x30
 4932 0ba1 0A000000 		.4byte	.LVL199
 4933 0ba5 0E050000 		.4byte	0x50e
 4934 0ba9 00       		.byte	0
 4935 0baa 18       		.uleb128 0x18
 4936 0bab D2030000 		.4byte	0x3d2
 4937 0baf 00000000 		.4byte	.LFB6
 4938 0bb3 24000000 		.4byte	.LFE6-.LFB6
 4939 0bb7 01       		.uleb128 0x1
 4940 0bb8 9C       		.byte	0x9c
 4941 0bb9 D00B0000 		.4byte	0xbd0
 4942 0bbd 1B       		.uleb128 0x1b
 4943 0bbe E3030000 		.4byte	0x3e3
 4944 0bc2 BC0A0000 		.4byte	.LLST54
 4945 0bc6 19       		.uleb128 0x19
 4946 0bc7 EF030000 		.4byte	0x3ef
 4947 0bcb DD0A0000 		.4byte	.LLST55
 4948 0bcf 00       		.byte	0
 4949 0bd0 32       		.uleb128 0x32
 4950 0bd1 01050000 		.4byte	0x501
 4951 0bd5 00000000 		.4byte	.LFB7
 4952 0bd9 18000000 		.4byte	.LFE7-.LFB7
 4953 0bdd 01       		.uleb128 0x1
 4954 0bde 9C       		.byte	0x9c
 4955 0bdf 18       		.uleb128 0x18
 4956 0be0 76060000 		.4byte	0x676
 4957 0be4 00000000 		.4byte	.LFB8
 4958 0be8 44000000 		.4byte	.LFE8-.LFB8
 4959 0bec 01       		.uleb128 0x1
 4960 0bed 9C       		.byte	0x9c
 4961 0bee 370C0000 		.4byte	0xc37
 4962 0bf2 19       		.uleb128 0x19
 4963 0bf3 87060000 		.4byte	0x687
 4964 0bf7 FD0A0000 		.4byte	.LLST56
 4965 0bfb 19       		.uleb128 0x19
 4966 0bfc 93060000 		.4byte	0x693
 4967 0c00 170B0000 		.4byte	.LLST57
 4968 0c04 19       		.uleb128 0x19
 4969 0c05 9F060000 		.4byte	0x69f
 4970 0c09 350B0000 		.4byte	.LLST58
 4971 0c0d 1A       		.uleb128 0x1a
ARM GAS  C:\Users\jon\AppData\Local\Temp\ccCLAX4y.s 			page 125


 4972 0c0e D2030000 		.4byte	0x3d2
 4973 0c12 02000000 		.4byte	.LBB137
 4974 0c16 B0010000 		.4byte	.Ldebug_ranges0+0x1b0
 4975 0c1a 01       		.byte	0x1
 4976 0c1b 0D04     		.2byte	0x40d
 4977 0c1d 1B       		.uleb128 0x1b
 4978 0c1e E3030000 		.4byte	0x3e3
 4979 0c22 570B0000 		.4byte	.LLST59
 4980 0c26 1C       		.uleb128 0x1c
 4981 0c27 B0010000 		.4byte	.Ldebug_ranges0+0x1b0
 4982 0c2b 19       		.uleb128 0x19
 4983 0c2c EF030000 		.4byte	0x3ef
 4984 0c30 750B0000 		.4byte	.LLST60
 4985 0c34 00       		.byte	0
 4986 0c35 00       		.byte	0
 4987 0c36 00       		.byte	0
 4988 0c37 1D       		.uleb128 0x1d
 4989 0c38 D4030000 		.4byte	.LASF93
 4990 0c3c 01       		.byte	0x1
 4991 0c3d 3004     		.2byte	0x430
 4992 0c3f 00000000 		.4byte	.LFB9
 4993 0c43 48000000 		.4byte	.LFE9-.LFB9
 4994 0c47 01       		.uleb128 0x1
 4995 0c48 9C       		.byte	0x9c
 4996 0c49 5E0C0000 		.4byte	0xc5e
 4997 0c4d 1E       		.uleb128 0x1e
 4998 0c4e 6C040000 		.4byte	.LASF95
 4999 0c52 01       		.byte	0x1
 5000 0c53 3004     		.2byte	0x430
 5001 0c55 6B000000 		.4byte	0x6b
 5002 0c59 970B0000 		.4byte	.LLST61
 5003 0c5d 00       		.byte	0
 5004 0c5e 18       		.uleb128 0x18
 5005 0c5f 93080000 		.4byte	0x893
 5006 0c63 00000000 		.4byte	.LFB10
 5007 0c67 54000000 		.4byte	.LFE10-.LFB10
 5008 0c6b 01       		.uleb128 0x1
 5009 0c6c 9C       		.byte	0x9c
 5010 0c6d 8A0C0000 		.4byte	0xc8a
 5011 0c71 25       		.uleb128 0x25
 5012 0c72 A4080000 		.4byte	0x8a4
 5013 0c76 00       		.byte	0
 5014 0c77 19       		.uleb128 0x19
 5015 0c78 B0080000 		.4byte	0x8b0
 5016 0c7c B50B0000 		.4byte	.LLST62
 5017 0c80 30       		.uleb128 0x30
 5018 0c81 44000000 		.4byte	.LVL221
 5019 0c85 620E0000 		.4byte	0xe62
 5020 0c89 00       		.byte	0
 5021 0c8a 18       		.uleb128 0x18
 5022 0c8b 6A080000 		.4byte	0x86a
 5023 0c8f 00000000 		.4byte	.LFB11
 5024 0c93 78000000 		.4byte	.LFE11-.LFB11
 5025 0c97 01       		.uleb128 0x1
 5026 0c98 9C       		.byte	0x9c
 5027 0c99 BF0C0000 		.4byte	0xcbf
 5028 0c9d 25       		.uleb128 0x25
ARM GAS  C:\Users\jon\AppData\Local\Temp\ccCLAX4y.s 			page 126


 5029 0c9e 7B080000 		.4byte	0x87b
 5030 0ca2 00       		.byte	0
 5031 0ca3 19       		.uleb128 0x19
 5032 0ca4 87080000 		.4byte	0x887
 5033 0ca8 D30B0000 		.4byte	.LLST63
 5034 0cac 30       		.uleb128 0x30
 5035 0cad 58000000 		.4byte	.LVL225
 5036 0cb1 620E0000 		.4byte	0xe62
 5037 0cb5 30       		.uleb128 0x30
 5038 0cb6 6C000000 		.4byte	.LVL227
 5039 0cba 620E0000 		.4byte	0xe62
 5040 0cbe 00       		.byte	0
 5041 0cbf 18       		.uleb128 0x18
 5042 0cc0 28080000 		.4byte	0x828
 5043 0cc4 00000000 		.4byte	.LFB12
 5044 0cc8 70000000 		.4byte	.LFE12-.LFB12
 5045 0ccc 01       		.uleb128 0x1
 5046 0ccd 9C       		.byte	0x9c
 5047 0cce 1A0D0000 		.4byte	0xd1a
 5048 0cd2 19       		.uleb128 0x19
 5049 0cd3 39080000 		.4byte	0x839
 5050 0cd7 F10B0000 		.4byte	.LLST64
 5051 0cdb 33       		.uleb128 0x33
 5052 0cdc 45080000 		.4byte	0x845
 5053 0ce0 01       		.uleb128 0x1
 5054 0ce1 52       		.byte	0x52
 5055 0ce2 19       		.uleb128 0x19
 5056 0ce3 51080000 		.4byte	0x851
 5057 0ce7 280C0000 		.4byte	.LLST65
 5058 0ceb 24       		.uleb128 0x24
 5059 0cec 5D080000 		.4byte	0x85d
 5060 0cf0 1A       		.uleb128 0x1a
 5061 0cf1 D2030000 		.4byte	0x3d2
 5062 0cf5 06000000 		.4byte	.LBB145
 5063 0cf9 D8010000 		.4byte	.Ldebug_ranges0+0x1d8
 5064 0cfd 01       		.byte	0x1
 5065 0cfe DB04     		.2byte	0x4db
 5066 0d00 1B       		.uleb128 0x1b
 5067 0d01 E3030000 		.4byte	0x3e3
 5068 0d05 4C0C0000 		.4byte	.LLST66
 5069 0d09 1C       		.uleb128 0x1c
 5070 0d0a D8010000 		.4byte	.Ldebug_ranges0+0x1d8
 5071 0d0e 19       		.uleb128 0x19
 5072 0d0f EF030000 		.4byte	0x3ef
 5073 0d13 5F0C0000 		.4byte	.LLST67
 5074 0d17 00       		.byte	0
 5075 0d18 00       		.byte	0
 5076 0d19 00       		.byte	0
 5077 0d1a 34       		.uleb128 0x34
 5078 0d1b 71020000 		.4byte	.LASF96
 5079 0d1f 03       		.byte	0x3
 5080 0d20 D202     		.2byte	0x2d2
 5081 0d22 BC000000 		.4byte	0xbc
 5082 0d26 34       		.uleb128 0x34
 5083 0d27 38050000 		.4byte	.LASF97
 5084 0d2b 03       		.byte	0x3
 5085 0d2c D402     		.2byte	0x2d4
ARM GAS  C:\Users\jon\AppData\Local\Temp\ccCLAX4y.s 			page 127


 5086 0d2e BC000000 		.4byte	0xbc
 5087 0d32 34       		.uleb128 0x34
 5088 0d33 C2020000 		.4byte	.LASF98
 5089 0d37 03       		.byte	0x3
 5090 0d38 D502     		.2byte	0x2d5
 5091 0d3a BC000000 		.4byte	0xbc
 5092 0d3e 34       		.uleb128 0x34
 5093 0d3f F6050000 		.4byte	.LASF99
 5094 0d43 03       		.byte	0x3
 5095 0d44 D602     		.2byte	0x2d6
 5096 0d46 BC000000 		.4byte	0xbc
 5097 0d4a 0C       		.uleb128 0xc
 5098 0d4b FC040000 		.4byte	0x4fc
 5099 0d4f 5A0D0000 		.4byte	0xd5a
 5100 0d53 0D       		.uleb128 0xd
 5101 0d54 C8000000 		.4byte	0xc8
 5102 0d58 11       		.byte	0x11
 5103 0d59 00       		.byte	0
 5104 0d5a 35       		.uleb128 0x35
 5105 0d5b 05000000 		.4byte	.LASF100
 5106 0d5f 04       		.byte	0x4
 5107 0d60 61       		.byte	0x61
 5108 0d61 650D0000 		.4byte	0xd65
 5109 0d65 13       		.uleb128 0x13
 5110 0d66 4A0D0000 		.4byte	0xd4a
 5111 0d6a 0C       		.uleb128 0xc
 5112 0d6b 02040000 		.4byte	0x402
 5113 0d6f 7A0D0000 		.4byte	0xd7a
 5114 0d73 0D       		.uleb128 0xd
 5115 0d74 C8000000 		.4byte	0xc8
 5116 0d78 00       		.byte	0
 5117 0d79 00       		.byte	0
 5118 0d7a 35       		.uleb128 0x35
 5119 0d7b 3D000000 		.4byte	.LASF101
 5120 0d7f 04       		.byte	0x4
 5121 0d80 67       		.byte	0x67
 5122 0d81 850D0000 		.4byte	0xd85
 5123 0d85 13       		.uleb128 0x13
 5124 0d86 6A0D0000 		.4byte	0xd6a
 5125 0d8a 0C       		.uleb128 0xc
 5126 0d8b FC040000 		.4byte	0x4fc
 5127 0d8f 9A0D0000 		.4byte	0xd9a
 5128 0d93 0D       		.uleb128 0xd
 5129 0d94 C8000000 		.4byte	0xc8
 5130 0d98 9E       		.byte	0x9e
 5131 0d99 00       		.byte	0
 5132 0d9a 35       		.uleb128 0x35
 5133 0d9b 35070000 		.4byte	.LASF102
 5134 0d9f 04       		.byte	0x4
 5135 0da0 69       		.byte	0x69
 5136 0da1 A50D0000 		.4byte	0xda5
 5137 0da5 13       		.uleb128 0x13
 5138 0da6 8A0D0000 		.4byte	0xd8a
 5139 0daa 0C       		.uleb128 0xc
 5140 0dab 6B000000 		.4byte	0x6b
 5141 0daf BA0D0000 		.4byte	0xdba
 5142 0db3 0D       		.uleb128 0xd
ARM GAS  C:\Users\jon\AppData\Local\Temp\ccCLAX4y.s 			page 128


 5143 0db4 C8000000 		.4byte	0xc8
 5144 0db8 21       		.byte	0x21
 5145 0db9 00       		.byte	0
 5146 0dba 35       		.uleb128 0x35
 5147 0dbb 0C070000 		.4byte	.LASF103
 5148 0dbf 04       		.byte	0x4
 5149 0dc0 6F       		.byte	0x6f
 5150 0dc1 AA0D0000 		.4byte	0xdaa
 5151 0dc5 35       		.uleb128 0x35
 5152 0dc6 91050000 		.4byte	.LASF104
 5153 0dca 04       		.byte	0x4
 5154 0dcb 72       		.byte	0x72
 5155 0dcc BC000000 		.4byte	0xbc
 5156 0dd0 35       		.uleb128 0x35
 5157 0dd1 B2000000 		.4byte	.LASF105
 5158 0dd5 04       		.byte	0x4
 5159 0dd6 73       		.byte	0x73
 5160 0dd7 DB0D0000 		.4byte	0xddb
 5161 0ddb 05       		.uleb128 0x5
 5162 0ddc 550B0000 		.4byte	0xb55
 5163 0de0 35       		.uleb128 0x35
 5164 0de1 13060000 		.4byte	.LASF106
 5165 0de5 04       		.byte	0x4
 5166 0de6 74       		.byte	0x74
 5167 0de7 EB0D0000 		.4byte	0xdeb
 5168 0deb 05       		.uleb128 0x5
 5169 0dec 550B0000 		.4byte	0xb55
 5170 0df0 35       		.uleb128 0x35
 5171 0df1 95030000 		.4byte	.LASF107
 5172 0df5 04       		.byte	0x4
 5173 0df6 75       		.byte	0x75
 5174 0df7 BC000000 		.4byte	0xbc
 5175 0dfb 35       		.uleb128 0x35
 5176 0dfc 10020000 		.4byte	.LASF108
 5177 0e00 04       		.byte	0x4
 5178 0e01 76       		.byte	0x76
 5179 0e02 060E0000 		.4byte	0xe06
 5180 0e06 05       		.uleb128 0x5
 5181 0e07 550B0000 		.4byte	0xb55
 5182 0e0b 35       		.uleb128 0x35
 5183 0e0c 78050000 		.4byte	.LASF109
 5184 0e10 04       		.byte	0x4
 5185 0e11 77       		.byte	0x77
 5186 0e12 F6040000 		.4byte	0x4f6
 5187 0e16 0C       		.uleb128 0xc
 5188 0e17 260E0000 		.4byte	0xe26
 5189 0e1b 260E0000 		.4byte	0xe26
 5190 0e1f 0D       		.uleb128 0xd
 5191 0e20 C8000000 		.4byte	0xc8
 5192 0e24 08       		.byte	0x8
 5193 0e25 00       		.byte	0
 5194 0e26 05       		.uleb128 0x5
 5195 0e27 44010000 		.4byte	0x144
 5196 0e2b 35       		.uleb128 0x35
 5197 0e2c 28030000 		.4byte	.LASF110
 5198 0e30 04       		.byte	0x4
 5199 0e31 79       		.byte	0x79
ARM GAS  C:\Users\jon\AppData\Local\Temp\ccCLAX4y.s 			page 129


 5200 0e32 360E0000 		.4byte	0xe36
 5201 0e36 05       		.uleb128 0x5
 5202 0e37 160E0000 		.4byte	0xe16
 5203 0e3b 35       		.uleb128 0x35
 5204 0e3c 5D060000 		.4byte	.LASF111
 5205 0e40 04       		.byte	0x4
 5206 0e41 7A       		.byte	0x7a
 5207 0e42 460E0000 		.4byte	0xe46
 5208 0e46 05       		.uleb128 0x5
 5209 0e47 10020000 		.4byte	0x210
 5210 0e4b 36       		.uleb128 0x36
 5211 0e4c D2060000 		.4byte	.LASF112
 5212 0e50 D2060000 		.4byte	.LASF112
 5213 0e54 05       		.byte	0x5
 5214 0e55 BE       		.byte	0xbe
 5215 0e56 37       		.uleb128 0x37
 5216 0e57 5C020000 		.4byte	.LASF113
 5217 0e5b 5C020000 		.4byte	.LASF113
 5218 0e5f 04       		.byte	0x4
 5219 0e60 7C01     		.2byte	0x17c
 5220 0e62 36       		.uleb128 0x36
 5221 0e63 57000000 		.4byte	.LASF114
 5222 0e67 57000000 		.4byte	.LASF114
 5223 0e6b 04       		.byte	0x4
 5224 0e6c B3       		.byte	0xb3
 5225 0e6d 36       		.uleb128 0x36
 5226 0e6e CD000000 		.4byte	.LASF115
 5227 0e72 CD000000 		.4byte	.LASF115
 5228 0e76 04       		.byte	0x4
 5229 0e77 A9       		.byte	0xa9
 5230 0e78 37       		.uleb128 0x37
 5231 0e79 50050000 		.4byte	.LASF116
 5232 0e7d 50050000 		.4byte	.LASF116
 5233 0e81 04       		.byte	0x4
 5234 0e82 4F01     		.2byte	0x14f
 5235 0e84 00       		.byte	0
 5236              		.section	.debug_abbrev,"",%progbits
 5237              	.Ldebug_abbrev0:
 5238 0000 01       		.uleb128 0x1
 5239 0001 11       		.uleb128 0x11
 5240 0002 01       		.byte	0x1
 5241 0003 25       		.uleb128 0x25
 5242 0004 0E       		.uleb128 0xe
 5243 0005 13       		.uleb128 0x13
 5244 0006 0B       		.uleb128 0xb
 5245 0007 03       		.uleb128 0x3
 5246 0008 0E       		.uleb128 0xe
 5247 0009 1B       		.uleb128 0x1b
 5248 000a 0E       		.uleb128 0xe
 5249 000b 55       		.uleb128 0x55
 5250 000c 17       		.uleb128 0x17
 5251 000d 11       		.uleb128 0x11
 5252 000e 01       		.uleb128 0x1
 5253 000f 10       		.uleb128 0x10
 5254 0010 17       		.uleb128 0x17
 5255 0011 00       		.byte	0
 5256 0012 00       		.byte	0
ARM GAS  C:\Users\jon\AppData\Local\Temp\ccCLAX4y.s 			page 130


 5257 0013 02       		.uleb128 0x2
 5258 0014 24       		.uleb128 0x24
 5259 0015 00       		.byte	0
 5260 0016 0B       		.uleb128 0xb
 5261 0017 0B       		.uleb128 0xb
 5262 0018 3E       		.uleb128 0x3e
 5263 0019 0B       		.uleb128 0xb
 5264 001a 03       		.uleb128 0x3
 5265 001b 0E       		.uleb128 0xe
 5266 001c 00       		.byte	0
 5267 001d 00       		.byte	0
 5268 001e 03       		.uleb128 0x3
 5269 001f 24       		.uleb128 0x24
 5270 0020 00       		.byte	0
 5271 0021 0B       		.uleb128 0xb
 5272 0022 0B       		.uleb128 0xb
 5273 0023 3E       		.uleb128 0x3e
 5274 0024 0B       		.uleb128 0xb
 5275 0025 03       		.uleb128 0x3
 5276 0026 08       		.uleb128 0x8
 5277 0027 00       		.byte	0
 5278 0028 00       		.byte	0
 5279 0029 04       		.uleb128 0x4
 5280 002a 16       		.uleb128 0x16
 5281 002b 00       		.byte	0
 5282 002c 03       		.uleb128 0x3
 5283 002d 0E       		.uleb128 0xe
 5284 002e 3A       		.uleb128 0x3a
 5285 002f 0B       		.uleb128 0xb
 5286 0030 3B       		.uleb128 0x3b
 5287 0031 05       		.uleb128 0x5
 5288 0032 49       		.uleb128 0x49
 5289 0033 13       		.uleb128 0x13
 5290 0034 00       		.byte	0
 5291 0035 00       		.byte	0
 5292 0036 05       		.uleb128 0x5
 5293 0037 35       		.uleb128 0x35
 5294 0038 00       		.byte	0
 5295 0039 49       		.uleb128 0x49
 5296 003a 13       		.uleb128 0x13
 5297 003b 00       		.byte	0
 5298 003c 00       		.byte	0
 5299 003d 06       		.uleb128 0x6
 5300 003e 13       		.uleb128 0x13
 5301 003f 01       		.byte	0x1
 5302 0040 0B       		.uleb128 0xb
 5303 0041 0B       		.uleb128 0xb
 5304 0042 3A       		.uleb128 0x3a
 5305 0043 0B       		.uleb128 0xb
 5306 0044 3B       		.uleb128 0x3b
 5307 0045 0B       		.uleb128 0xb
 5308 0046 01       		.uleb128 0x1
 5309 0047 13       		.uleb128 0x13
 5310 0048 00       		.byte	0
 5311 0049 00       		.byte	0
 5312 004a 07       		.uleb128 0x7
 5313 004b 0D       		.uleb128 0xd
ARM GAS  C:\Users\jon\AppData\Local\Temp\ccCLAX4y.s 			page 131


 5314 004c 00       		.byte	0
 5315 004d 03       		.uleb128 0x3
 5316 004e 0E       		.uleb128 0xe
 5317 004f 3A       		.uleb128 0x3a
 5318 0050 0B       		.uleb128 0xb
 5319 0051 3B       		.uleb128 0x3b
 5320 0052 0B       		.uleb128 0xb
 5321 0053 49       		.uleb128 0x49
 5322 0054 13       		.uleb128 0x13
 5323 0055 38       		.uleb128 0x38
 5324 0056 0B       		.uleb128 0xb
 5325 0057 00       		.byte	0
 5326 0058 00       		.byte	0
 5327 0059 08       		.uleb128 0x8
 5328 005a 16       		.uleb128 0x16
 5329 005b 00       		.byte	0
 5330 005c 03       		.uleb128 0x3
 5331 005d 0E       		.uleb128 0xe
 5332 005e 3A       		.uleb128 0x3a
 5333 005f 0B       		.uleb128 0xb
 5334 0060 3B       		.uleb128 0x3b
 5335 0061 0B       		.uleb128 0xb
 5336 0062 49       		.uleb128 0x49
 5337 0063 13       		.uleb128 0x13
 5338 0064 00       		.byte	0
 5339 0065 00       		.byte	0
 5340 0066 09       		.uleb128 0x9
 5341 0067 0F       		.uleb128 0xf
 5342 0068 00       		.byte	0
 5343 0069 0B       		.uleb128 0xb
 5344 006a 0B       		.uleb128 0xb
 5345 006b 49       		.uleb128 0x49
 5346 006c 13       		.uleb128 0x13
 5347 006d 00       		.byte	0
 5348 006e 00       		.byte	0
 5349 006f 0A       		.uleb128 0xa
 5350 0070 0D       		.uleb128 0xd
 5351 0071 00       		.byte	0
 5352 0072 03       		.uleb128 0x3
 5353 0073 08       		.uleb128 0x8
 5354 0074 3A       		.uleb128 0x3a
 5355 0075 0B       		.uleb128 0xb
 5356 0076 3B       		.uleb128 0x3b
 5357 0077 0B       		.uleb128 0xb
 5358 0078 49       		.uleb128 0x49
 5359 0079 13       		.uleb128 0x13
 5360 007a 38       		.uleb128 0x38
 5361 007b 0B       		.uleb128 0xb
 5362 007c 00       		.byte	0
 5363 007d 00       		.byte	0
 5364 007e 0B       		.uleb128 0xb
 5365 007f 26       		.uleb128 0x26
 5366 0080 00       		.byte	0
 5367 0081 00       		.byte	0
 5368 0082 00       		.byte	0
 5369 0083 0C       		.uleb128 0xc
 5370 0084 01       		.uleb128 0x1
ARM GAS  C:\Users\jon\AppData\Local\Temp\ccCLAX4y.s 			page 132


 5371 0085 01       		.byte	0x1
 5372 0086 49       		.uleb128 0x49
 5373 0087 13       		.uleb128 0x13
 5374 0088 01       		.uleb128 0x1
 5375 0089 13       		.uleb128 0x13
 5376 008a 00       		.byte	0
 5377 008b 00       		.byte	0
 5378 008c 0D       		.uleb128 0xd
 5379 008d 21       		.uleb128 0x21
 5380 008e 00       		.byte	0
 5381 008f 49       		.uleb128 0x49
 5382 0090 13       		.uleb128 0x13
 5383 0091 2F       		.uleb128 0x2f
 5384 0092 0B       		.uleb128 0xb
 5385 0093 00       		.byte	0
 5386 0094 00       		.byte	0
 5387 0095 0E       		.uleb128 0xe
 5388 0096 13       		.uleb128 0x13
 5389 0097 01       		.byte	0x1
 5390 0098 0B       		.uleb128 0xb
 5391 0099 0B       		.uleb128 0xb
 5392 009a 3A       		.uleb128 0x3a
 5393 009b 0B       		.uleb128 0xb
 5394 009c 3B       		.uleb128 0x3b
 5395 009d 05       		.uleb128 0x5
 5396 009e 01       		.uleb128 0x1
 5397 009f 13       		.uleb128 0x13
 5398 00a0 00       		.byte	0
 5399 00a1 00       		.byte	0
 5400 00a2 0F       		.uleb128 0xf
 5401 00a3 0D       		.uleb128 0xd
 5402 00a4 00       		.byte	0
 5403 00a5 03       		.uleb128 0x3
 5404 00a6 0E       		.uleb128 0xe
 5405 00a7 3A       		.uleb128 0x3a
 5406 00a8 0B       		.uleb128 0xb
 5407 00a9 3B       		.uleb128 0x3b
 5408 00aa 05       		.uleb128 0x5
 5409 00ab 49       		.uleb128 0x49
 5410 00ac 13       		.uleb128 0x13
 5411 00ad 38       		.uleb128 0x38
 5412 00ae 0B       		.uleb128 0xb
 5413 00af 00       		.byte	0
 5414 00b0 00       		.byte	0
 5415 00b1 10       		.uleb128 0x10
 5416 00b2 2E       		.uleb128 0x2e
 5417 00b3 01       		.byte	0x1
 5418 00b4 3F       		.uleb128 0x3f
 5419 00b5 19       		.uleb128 0x19
 5420 00b6 03       		.uleb128 0x3
 5421 00b7 0E       		.uleb128 0xe
 5422 00b8 3A       		.uleb128 0x3a
 5423 00b9 0B       		.uleb128 0xb
 5424 00ba 3B       		.uleb128 0x3b
 5425 00bb 05       		.uleb128 0x5
 5426 00bc 27       		.uleb128 0x27
 5427 00bd 19       		.uleb128 0x19
ARM GAS  C:\Users\jon\AppData\Local\Temp\ccCLAX4y.s 			page 133


 5428 00be 49       		.uleb128 0x49
 5429 00bf 13       		.uleb128 0x13
 5430 00c0 20       		.uleb128 0x20
 5431 00c1 0B       		.uleb128 0xb
 5432 00c2 01       		.uleb128 0x1
 5433 00c3 13       		.uleb128 0x13
 5434 00c4 00       		.byte	0
 5435 00c5 00       		.byte	0
 5436 00c6 11       		.uleb128 0x11
 5437 00c7 05       		.uleb128 0x5
 5438 00c8 00       		.byte	0
 5439 00c9 03       		.uleb128 0x3
 5440 00ca 0E       		.uleb128 0xe
 5441 00cb 3A       		.uleb128 0x3a
 5442 00cc 0B       		.uleb128 0xb
 5443 00cd 3B       		.uleb128 0x3b
 5444 00ce 05       		.uleb128 0x5
 5445 00cf 49       		.uleb128 0x49
 5446 00d0 13       		.uleb128 0x13
 5447 00d1 00       		.byte	0
 5448 00d2 00       		.byte	0
 5449 00d3 12       		.uleb128 0x12
 5450 00d4 34       		.uleb128 0x34
 5451 00d5 00       		.byte	0
 5452 00d6 03       		.uleb128 0x3
 5453 00d7 0E       		.uleb128 0xe
 5454 00d8 3A       		.uleb128 0x3a
 5455 00d9 0B       		.uleb128 0xb
 5456 00da 3B       		.uleb128 0x3b
 5457 00db 05       		.uleb128 0x5
 5458 00dc 49       		.uleb128 0x49
 5459 00dd 13       		.uleb128 0x13
 5460 00de 00       		.byte	0
 5461 00df 00       		.byte	0
 5462 00e0 13       		.uleb128 0x13
 5463 00e1 26       		.uleb128 0x26
 5464 00e2 00       		.byte	0
 5465 00e3 49       		.uleb128 0x49
 5466 00e4 13       		.uleb128 0x13
 5467 00e5 00       		.byte	0
 5468 00e6 00       		.byte	0
 5469 00e7 14       		.uleb128 0x14
 5470 00e8 2E       		.uleb128 0x2e
 5471 00e9 01       		.byte	0x1
 5472 00ea 3F       		.uleb128 0x3f
 5473 00eb 19       		.uleb128 0x19
 5474 00ec 03       		.uleb128 0x3
 5475 00ed 0E       		.uleb128 0xe
 5476 00ee 3A       		.uleb128 0x3a
 5477 00ef 0B       		.uleb128 0xb
 5478 00f0 3B       		.uleb128 0x3b
 5479 00f1 05       		.uleb128 0x5
 5480 00f2 27       		.uleb128 0x27
 5481 00f3 19       		.uleb128 0x19
 5482 00f4 20       		.uleb128 0x20
 5483 00f5 0B       		.uleb128 0xb
 5484 00f6 01       		.uleb128 0x1
ARM GAS  C:\Users\jon\AppData\Local\Temp\ccCLAX4y.s 			page 134


 5485 00f7 13       		.uleb128 0x13
 5486 00f8 00       		.byte	0
 5487 00f9 00       		.byte	0
 5488 00fa 15       		.uleb128 0x15
 5489 00fb 34       		.uleb128 0x34
 5490 00fc 00       		.byte	0
 5491 00fd 03       		.uleb128 0x3
 5492 00fe 08       		.uleb128 0x8
 5493 00ff 3A       		.uleb128 0x3a
 5494 0100 0B       		.uleb128 0xb
 5495 0101 3B       		.uleb128 0x3b
 5496 0102 05       		.uleb128 0x5
 5497 0103 49       		.uleb128 0x49
 5498 0104 13       		.uleb128 0x13
 5499 0105 00       		.byte	0
 5500 0106 00       		.byte	0
 5501 0107 16       		.uleb128 0x16
 5502 0108 0B       		.uleb128 0xb
 5503 0109 01       		.byte	0x1
 5504 010a 00       		.byte	0
 5505 010b 00       		.byte	0
 5506 010c 17       		.uleb128 0x17
 5507 010d 2E       		.uleb128 0x2e
 5508 010e 00       		.byte	0
 5509 010f 3F       		.uleb128 0x3f
 5510 0110 19       		.uleb128 0x19
 5511 0111 03       		.uleb128 0x3
 5512 0112 0E       		.uleb128 0xe
 5513 0113 3A       		.uleb128 0x3a
 5514 0114 0B       		.uleb128 0xb
 5515 0115 3B       		.uleb128 0x3b
 5516 0116 05       		.uleb128 0x5
 5517 0117 27       		.uleb128 0x27
 5518 0118 19       		.uleb128 0x19
 5519 0119 49       		.uleb128 0x49
 5520 011a 13       		.uleb128 0x13
 5521 011b 20       		.uleb128 0x20
 5522 011c 0B       		.uleb128 0xb
 5523 011d 00       		.byte	0
 5524 011e 00       		.byte	0
 5525 011f 18       		.uleb128 0x18
 5526 0120 2E       		.uleb128 0x2e
 5527 0121 01       		.byte	0x1
 5528 0122 31       		.uleb128 0x31
 5529 0123 13       		.uleb128 0x13
 5530 0124 11       		.uleb128 0x11
 5531 0125 01       		.uleb128 0x1
 5532 0126 12       		.uleb128 0x12
 5533 0127 06       		.uleb128 0x6
 5534 0128 40       		.uleb128 0x40
 5535 0129 18       		.uleb128 0x18
 5536 012a 9742     		.uleb128 0x2117
 5537 012c 19       		.uleb128 0x19
 5538 012d 01       		.uleb128 0x1
 5539 012e 13       		.uleb128 0x13
 5540 012f 00       		.byte	0
 5541 0130 00       		.byte	0
ARM GAS  C:\Users\jon\AppData\Local\Temp\ccCLAX4y.s 			page 135


 5542 0131 19       		.uleb128 0x19
 5543 0132 34       		.uleb128 0x34
 5544 0133 00       		.byte	0
 5545 0134 31       		.uleb128 0x31
 5546 0135 13       		.uleb128 0x13
 5547 0136 02       		.uleb128 0x2
 5548 0137 17       		.uleb128 0x17
 5549 0138 00       		.byte	0
 5550 0139 00       		.byte	0
 5551 013a 1A       		.uleb128 0x1a
 5552 013b 1D       		.uleb128 0x1d
 5553 013c 01       		.byte	0x1
 5554 013d 31       		.uleb128 0x31
 5555 013e 13       		.uleb128 0x13
 5556 013f 52       		.uleb128 0x52
 5557 0140 01       		.uleb128 0x1
 5558 0141 55       		.uleb128 0x55
 5559 0142 17       		.uleb128 0x17
 5560 0143 58       		.uleb128 0x58
 5561 0144 0B       		.uleb128 0xb
 5562 0145 59       		.uleb128 0x59
 5563 0146 05       		.uleb128 0x5
 5564 0147 00       		.byte	0
 5565 0148 00       		.byte	0
 5566 0149 1B       		.uleb128 0x1b
 5567 014a 05       		.uleb128 0x5
 5568 014b 00       		.byte	0
 5569 014c 31       		.uleb128 0x31
 5570 014d 13       		.uleb128 0x13
 5571 014e 02       		.uleb128 0x2
 5572 014f 17       		.uleb128 0x17
 5573 0150 00       		.byte	0
 5574 0151 00       		.byte	0
 5575 0152 1C       		.uleb128 0x1c
 5576 0153 0B       		.uleb128 0xb
 5577 0154 01       		.byte	0x1
 5578 0155 55       		.uleb128 0x55
 5579 0156 17       		.uleb128 0x17
 5580 0157 00       		.byte	0
 5581 0158 00       		.byte	0
 5582 0159 1D       		.uleb128 0x1d
 5583 015a 2E       		.uleb128 0x2e
 5584 015b 01       		.byte	0x1
 5585 015c 3F       		.uleb128 0x3f
 5586 015d 19       		.uleb128 0x19
 5587 015e 03       		.uleb128 0x3
 5588 015f 0E       		.uleb128 0xe
 5589 0160 3A       		.uleb128 0x3a
 5590 0161 0B       		.uleb128 0xb
 5591 0162 3B       		.uleb128 0x3b
 5592 0163 05       		.uleb128 0x5
 5593 0164 27       		.uleb128 0x27
 5594 0165 19       		.uleb128 0x19
 5595 0166 11       		.uleb128 0x11
 5596 0167 01       		.uleb128 0x1
 5597 0168 12       		.uleb128 0x12
 5598 0169 06       		.uleb128 0x6
ARM GAS  C:\Users\jon\AppData\Local\Temp\ccCLAX4y.s 			page 136


 5599 016a 40       		.uleb128 0x40
 5600 016b 18       		.uleb128 0x18
 5601 016c 9742     		.uleb128 0x2117
 5602 016e 19       		.uleb128 0x19
 5603 016f 01       		.uleb128 0x1
 5604 0170 13       		.uleb128 0x13
 5605 0171 00       		.byte	0
 5606 0172 00       		.byte	0
 5607 0173 1E       		.uleb128 0x1e
 5608 0174 05       		.uleb128 0x5
 5609 0175 00       		.byte	0
 5610 0176 03       		.uleb128 0x3
 5611 0177 0E       		.uleb128 0xe
 5612 0178 3A       		.uleb128 0x3a
 5613 0179 0B       		.uleb128 0xb
 5614 017a 3B       		.uleb128 0x3b
 5615 017b 05       		.uleb128 0x5
 5616 017c 49       		.uleb128 0x49
 5617 017d 13       		.uleb128 0x13
 5618 017e 02       		.uleb128 0x2
 5619 017f 17       		.uleb128 0x17
 5620 0180 00       		.byte	0
 5621 0181 00       		.byte	0
 5622 0182 1F       		.uleb128 0x1f
 5623 0183 34       		.uleb128 0x34
 5624 0184 00       		.byte	0
 5625 0185 03       		.uleb128 0x3
 5626 0186 08       		.uleb128 0x8
 5627 0187 3A       		.uleb128 0x3a
 5628 0188 0B       		.uleb128 0xb
 5629 0189 3B       		.uleb128 0x3b
 5630 018a 05       		.uleb128 0x5
 5631 018b 49       		.uleb128 0x49
 5632 018c 13       		.uleb128 0x13
 5633 018d 02       		.uleb128 0x2
 5634 018e 18       		.uleb128 0x18
 5635 018f 00       		.byte	0
 5636 0190 00       		.byte	0
 5637 0191 20       		.uleb128 0x20
 5638 0192 34       		.uleb128 0x34
 5639 0193 00       		.byte	0
 5640 0194 03       		.uleb128 0x3
 5641 0195 08       		.uleb128 0x8
 5642 0196 3A       		.uleb128 0x3a
 5643 0197 0B       		.uleb128 0xb
 5644 0198 3B       		.uleb128 0x3b
 5645 0199 05       		.uleb128 0x5
 5646 019a 49       		.uleb128 0x49
 5647 019b 13       		.uleb128 0x13
 5648 019c 02       		.uleb128 0x2
 5649 019d 17       		.uleb128 0x17
 5650 019e 00       		.byte	0
 5651 019f 00       		.byte	0
 5652 01a0 21       		.uleb128 0x21
 5653 01a1 34       		.uleb128 0x34
 5654 01a2 00       		.byte	0
 5655 01a3 03       		.uleb128 0x3
ARM GAS  C:\Users\jon\AppData\Local\Temp\ccCLAX4y.s 			page 137


 5656 01a4 0E       		.uleb128 0xe
 5657 01a5 3A       		.uleb128 0x3a
 5658 01a6 0B       		.uleb128 0xb
 5659 01a7 3B       		.uleb128 0x3b
 5660 01a8 05       		.uleb128 0x5
 5661 01a9 49       		.uleb128 0x49
 5662 01aa 13       		.uleb128 0x13
 5663 01ab 02       		.uleb128 0x2
 5664 01ac 18       		.uleb128 0x18
 5665 01ad 00       		.byte	0
 5666 01ae 00       		.byte	0
 5667 01af 22       		.uleb128 0x22
 5668 01b0 898201   		.uleb128 0x4109
 5669 01b3 01       		.byte	0x1
 5670 01b4 11       		.uleb128 0x11
 5671 01b5 01       		.uleb128 0x1
 5672 01b6 31       		.uleb128 0x31
 5673 01b7 13       		.uleb128 0x13
 5674 01b8 00       		.byte	0
 5675 01b9 00       		.byte	0
 5676 01ba 23       		.uleb128 0x23
 5677 01bb 8A8201   		.uleb128 0x410a
 5678 01be 00       		.byte	0
 5679 01bf 02       		.uleb128 0x2
 5680 01c0 18       		.uleb128 0x18
 5681 01c1 9142     		.uleb128 0x2111
 5682 01c3 18       		.uleb128 0x18
 5683 01c4 00       		.byte	0
 5684 01c5 00       		.byte	0
 5685 01c6 24       		.uleb128 0x24
 5686 01c7 34       		.uleb128 0x34
 5687 01c8 00       		.byte	0
 5688 01c9 31       		.uleb128 0x31
 5689 01ca 13       		.uleb128 0x13
 5690 01cb 00       		.byte	0
 5691 01cc 00       		.byte	0
 5692 01cd 25       		.uleb128 0x25
 5693 01ce 34       		.uleb128 0x34
 5694 01cf 00       		.byte	0
 5695 01d0 31       		.uleb128 0x31
 5696 01d1 13       		.uleb128 0x13
 5697 01d2 1C       		.uleb128 0x1c
 5698 01d3 0B       		.uleb128 0xb
 5699 01d4 00       		.byte	0
 5700 01d5 00       		.byte	0
 5701 01d6 26       		.uleb128 0x26
 5702 01d7 1D       		.uleb128 0x1d
 5703 01d8 01       		.byte	0x1
 5704 01d9 31       		.uleb128 0x31
 5705 01da 13       		.uleb128 0x13
 5706 01db 52       		.uleb128 0x52
 5707 01dc 01       		.uleb128 0x1
 5708 01dd 55       		.uleb128 0x55
 5709 01de 17       		.uleb128 0x17
 5710 01df 58       		.uleb128 0x58
 5711 01e0 0B       		.uleb128 0xb
 5712 01e1 59       		.uleb128 0x59
ARM GAS  C:\Users\jon\AppData\Local\Temp\ccCLAX4y.s 			page 138


 5713 01e2 05       		.uleb128 0x5
 5714 01e3 01       		.uleb128 0x1
 5715 01e4 13       		.uleb128 0x13
 5716 01e5 00       		.byte	0
 5717 01e6 00       		.byte	0
 5718 01e7 27       		.uleb128 0x27
 5719 01e8 2E       		.uleb128 0x2e
 5720 01e9 01       		.byte	0x1
 5721 01ea 3F       		.uleb128 0x3f
 5722 01eb 19       		.uleb128 0x19
 5723 01ec 03       		.uleb128 0x3
 5724 01ed 0E       		.uleb128 0xe
 5725 01ee 3A       		.uleb128 0x3a
 5726 01ef 0B       		.uleb128 0xb
 5727 01f0 3B       		.uleb128 0x3b
 5728 01f1 0B       		.uleb128 0xb
 5729 01f2 27       		.uleb128 0x27
 5730 01f3 19       		.uleb128 0x19
 5731 01f4 49       		.uleb128 0x49
 5732 01f5 13       		.uleb128 0x13
 5733 01f6 11       		.uleb128 0x11
 5734 01f7 01       		.uleb128 0x1
 5735 01f8 12       		.uleb128 0x12
 5736 01f9 06       		.uleb128 0x6
 5737 01fa 40       		.uleb128 0x40
 5738 01fb 18       		.uleb128 0x18
 5739 01fc 9742     		.uleb128 0x2117
 5740 01fe 19       		.uleb128 0x19
 5741 01ff 01       		.uleb128 0x1
 5742 0200 13       		.uleb128 0x13
 5743 0201 00       		.byte	0
 5744 0202 00       		.byte	0
 5745 0203 28       		.uleb128 0x28
 5746 0204 34       		.uleb128 0x34
 5747 0205 00       		.byte	0
 5748 0206 03       		.uleb128 0x3
 5749 0207 0E       		.uleb128 0xe
 5750 0208 3A       		.uleb128 0x3a
 5751 0209 0B       		.uleb128 0xb
 5752 020a 3B       		.uleb128 0x3b
 5753 020b 0B       		.uleb128 0xb
 5754 020c 49       		.uleb128 0x49
 5755 020d 13       		.uleb128 0x13
 5756 020e 1C       		.uleb128 0x1c
 5757 020f 0B       		.uleb128 0xb
 5758 0210 00       		.byte	0
 5759 0211 00       		.byte	0
 5760 0212 29       		.uleb128 0x29
 5761 0213 34       		.uleb128 0x34
 5762 0214 00       		.byte	0
 5763 0215 03       		.uleb128 0x3
 5764 0216 0E       		.uleb128 0xe
 5765 0217 3A       		.uleb128 0x3a
 5766 0218 0B       		.uleb128 0xb
 5767 0219 3B       		.uleb128 0x3b
 5768 021a 0B       		.uleb128 0xb
 5769 021b 49       		.uleb128 0x49
ARM GAS  C:\Users\jon\AppData\Local\Temp\ccCLAX4y.s 			page 139


 5770 021c 13       		.uleb128 0x13
 5771 021d 02       		.uleb128 0x2
 5772 021e 17       		.uleb128 0x17
 5773 021f 00       		.byte	0
 5774 0220 00       		.byte	0
 5775 0221 2A       		.uleb128 0x2a
 5776 0222 34       		.uleb128 0x34
 5777 0223 00       		.byte	0
 5778 0224 03       		.uleb128 0x3
 5779 0225 0E       		.uleb128 0xe
 5780 0226 3A       		.uleb128 0x3a
 5781 0227 0B       		.uleb128 0xb
 5782 0228 3B       		.uleb128 0x3b
 5783 0229 0B       		.uleb128 0xb
 5784 022a 49       		.uleb128 0x49
 5785 022b 13       		.uleb128 0x13
 5786 022c 02       		.uleb128 0x2
 5787 022d 18       		.uleb128 0x18
 5788 022e 00       		.byte	0
 5789 022f 00       		.byte	0
 5790 0230 2B       		.uleb128 0x2b
 5791 0231 898201   		.uleb128 0x4109
 5792 0234 00       		.byte	0
 5793 0235 11       		.uleb128 0x11
 5794 0236 01       		.uleb128 0x1
 5795 0237 31       		.uleb128 0x31
 5796 0238 13       		.uleb128 0x13
 5797 0239 00       		.byte	0
 5798 023a 00       		.byte	0
 5799 023b 2C       		.uleb128 0x2c
 5800 023c 1D       		.uleb128 0x1d
 5801 023d 01       		.byte	0x1
 5802 023e 31       		.uleb128 0x31
 5803 023f 13       		.uleb128 0x13
 5804 0240 11       		.uleb128 0x11
 5805 0241 01       		.uleb128 0x1
 5806 0242 12       		.uleb128 0x12
 5807 0243 06       		.uleb128 0x6
 5808 0244 58       		.uleb128 0x58
 5809 0245 0B       		.uleb128 0xb
 5810 0246 59       		.uleb128 0x59
 5811 0247 05       		.uleb128 0x5
 5812 0248 01       		.uleb128 0x1
 5813 0249 13       		.uleb128 0x13
 5814 024a 00       		.byte	0
 5815 024b 00       		.byte	0
 5816 024c 2D       		.uleb128 0x2d
 5817 024d 0B       		.uleb128 0xb
 5818 024e 01       		.byte	0x1
 5819 024f 11       		.uleb128 0x11
 5820 0250 01       		.uleb128 0x1
 5821 0251 12       		.uleb128 0x12
 5822 0252 06       		.uleb128 0x6
 5823 0253 00       		.byte	0
 5824 0254 00       		.byte	0
 5825 0255 2E       		.uleb128 0x2e
 5826 0256 1D       		.uleb128 0x1d
ARM GAS  C:\Users\jon\AppData\Local\Temp\ccCLAX4y.s 			page 140


 5827 0257 00       		.byte	0
 5828 0258 31       		.uleb128 0x31
 5829 0259 13       		.uleb128 0x13
 5830 025a 52       		.uleb128 0x52
 5831 025b 01       		.uleb128 0x1
 5832 025c 55       		.uleb128 0x55
 5833 025d 17       		.uleb128 0x17
 5834 025e 58       		.uleb128 0x58
 5835 025f 0B       		.uleb128 0xb
 5836 0260 59       		.uleb128 0x59
 5837 0261 0B       		.uleb128 0xb
 5838 0262 00       		.byte	0
 5839 0263 00       		.byte	0
 5840 0264 2F       		.uleb128 0x2f
 5841 0265 1D       		.uleb128 0x1d
 5842 0266 01       		.byte	0x1
 5843 0267 31       		.uleb128 0x31
 5844 0268 13       		.uleb128 0x13
 5845 0269 52       		.uleb128 0x52
 5846 026a 01       		.uleb128 0x1
 5847 026b 55       		.uleb128 0x55
 5848 026c 17       		.uleb128 0x17
 5849 026d 58       		.uleb128 0x58
 5850 026e 0B       		.uleb128 0xb
 5851 026f 59       		.uleb128 0x59
 5852 0270 0B       		.uleb128 0xb
 5853 0271 01       		.uleb128 0x1
 5854 0272 13       		.uleb128 0x13
 5855 0273 00       		.byte	0
 5856 0274 00       		.byte	0
 5857 0275 30       		.uleb128 0x30
 5858 0276 898201   		.uleb128 0x4109
 5859 0279 00       		.byte	0
 5860 027a 11       		.uleb128 0x11
 5861 027b 01       		.uleb128 0x1
 5862 027c 9542     		.uleb128 0x2115
 5863 027e 19       		.uleb128 0x19
 5864 027f 31       		.uleb128 0x31
 5865 0280 13       		.uleb128 0x13
 5866 0281 00       		.byte	0
 5867 0282 00       		.byte	0
 5868 0283 31       		.uleb128 0x31
 5869 0284 898201   		.uleb128 0x4109
 5870 0287 01       		.byte	0x1
 5871 0288 11       		.uleb128 0x11
 5872 0289 01       		.uleb128 0x1
 5873 028a 31       		.uleb128 0x31
 5874 028b 13       		.uleb128 0x13
 5875 028c 01       		.uleb128 0x1
 5876 028d 13       		.uleb128 0x13
 5877 028e 00       		.byte	0
 5878 028f 00       		.byte	0
 5879 0290 32       		.uleb128 0x32
 5880 0291 2E       		.uleb128 0x2e
 5881 0292 00       		.byte	0
 5882 0293 31       		.uleb128 0x31
 5883 0294 13       		.uleb128 0x13
ARM GAS  C:\Users\jon\AppData\Local\Temp\ccCLAX4y.s 			page 141


 5884 0295 11       		.uleb128 0x11
 5885 0296 01       		.uleb128 0x1
 5886 0297 12       		.uleb128 0x12
 5887 0298 06       		.uleb128 0x6
 5888 0299 40       		.uleb128 0x40
 5889 029a 18       		.uleb128 0x18
 5890 029b 9742     		.uleb128 0x2117
 5891 029d 19       		.uleb128 0x19
 5892 029e 00       		.byte	0
 5893 029f 00       		.byte	0
 5894 02a0 33       		.uleb128 0x33
 5895 02a1 34       		.uleb128 0x34
 5896 02a2 00       		.byte	0
 5897 02a3 31       		.uleb128 0x31
 5898 02a4 13       		.uleb128 0x13
 5899 02a5 02       		.uleb128 0x2
 5900 02a6 18       		.uleb128 0x18
 5901 02a7 00       		.byte	0
 5902 02a8 00       		.byte	0
 5903 02a9 34       		.uleb128 0x34
 5904 02aa 34       		.uleb128 0x34
 5905 02ab 00       		.byte	0
 5906 02ac 03       		.uleb128 0x3
 5907 02ad 0E       		.uleb128 0xe
 5908 02ae 3A       		.uleb128 0x3a
 5909 02af 0B       		.uleb128 0xb
 5910 02b0 3B       		.uleb128 0x3b
 5911 02b1 05       		.uleb128 0x5
 5912 02b2 49       		.uleb128 0x49
 5913 02b3 13       		.uleb128 0x13
 5914 02b4 3F       		.uleb128 0x3f
 5915 02b5 19       		.uleb128 0x19
 5916 02b6 3C       		.uleb128 0x3c
 5917 02b7 19       		.uleb128 0x19
 5918 02b8 00       		.byte	0
 5919 02b9 00       		.byte	0
 5920 02ba 35       		.uleb128 0x35
 5921 02bb 34       		.uleb128 0x34
 5922 02bc 00       		.byte	0
 5923 02bd 03       		.uleb128 0x3
 5924 02be 0E       		.uleb128 0xe
 5925 02bf 3A       		.uleb128 0x3a
 5926 02c0 0B       		.uleb128 0xb
 5927 02c1 3B       		.uleb128 0x3b
 5928 02c2 0B       		.uleb128 0xb
 5929 02c3 49       		.uleb128 0x49
 5930 02c4 13       		.uleb128 0x13
 5931 02c5 3F       		.uleb128 0x3f
 5932 02c6 19       		.uleb128 0x19
 5933 02c7 3C       		.uleb128 0x3c
 5934 02c8 19       		.uleb128 0x19
 5935 02c9 00       		.byte	0
 5936 02ca 00       		.byte	0
 5937 02cb 36       		.uleb128 0x36
 5938 02cc 2E       		.uleb128 0x2e
 5939 02cd 00       		.byte	0
 5940 02ce 3F       		.uleb128 0x3f
ARM GAS  C:\Users\jon\AppData\Local\Temp\ccCLAX4y.s 			page 142


 5941 02cf 19       		.uleb128 0x19
 5942 02d0 3C       		.uleb128 0x3c
 5943 02d1 19       		.uleb128 0x19
 5944 02d2 6E       		.uleb128 0x6e
 5945 02d3 0E       		.uleb128 0xe
 5946 02d4 03       		.uleb128 0x3
 5947 02d5 0E       		.uleb128 0xe
 5948 02d6 3A       		.uleb128 0x3a
 5949 02d7 0B       		.uleb128 0xb
 5950 02d8 3B       		.uleb128 0x3b
 5951 02d9 0B       		.uleb128 0xb
 5952 02da 00       		.byte	0
 5953 02db 00       		.byte	0
 5954 02dc 37       		.uleb128 0x37
 5955 02dd 2E       		.uleb128 0x2e
 5956 02de 00       		.byte	0
 5957 02df 3F       		.uleb128 0x3f
 5958 02e0 19       		.uleb128 0x19
 5959 02e1 3C       		.uleb128 0x3c
 5960 02e2 19       		.uleb128 0x19
 5961 02e3 6E       		.uleb128 0x6e
 5962 02e4 0E       		.uleb128 0xe
 5963 02e5 03       		.uleb128 0x3
 5964 02e6 0E       		.uleb128 0xe
 5965 02e7 3A       		.uleb128 0x3a
 5966 02e8 0B       		.uleb128 0xb
 5967 02e9 3B       		.uleb128 0x3b
 5968 02ea 05       		.uleb128 0x5
 5969 02eb 00       		.byte	0
 5970 02ec 00       		.byte	0
 5971 02ed 00       		.byte	0
 5972              		.section	.debug_loc,"",%progbits
 5973              	.Ldebug_loc0:
 5974              	.LLST0:
 5975 0000 26000000 		.4byte	.LVL3
 5976 0004 4E000000 		.4byte	.LVL7
 5977 0008 0100     		.2byte	0x1
 5978 000a 52       		.byte	0x52
 5979 000b 3E010000 		.4byte	.LVL19
 5980 000f 60010000 		.4byte	.LFE13
 5981 0013 0100     		.2byte	0x1
 5982 0015 52       		.byte	0x52
 5983 0016 00000000 		.4byte	0
 5984 001a 00000000 		.4byte	0
 5985              	.LLST1:
 5986 001e 72000000 		.4byte	.LVL10
 5987 0022 C6000000 		.4byte	.LVL13
 5988 0026 0100     		.2byte	0x1
 5989 0028 52       		.byte	0x52
 5990 0029 26010000 		.4byte	.LVL17
 5991 002d 3E010000 		.4byte	.LVL19
 5992 0031 0100     		.2byte	0x1
 5993 0033 52       		.byte	0x52
 5994 0034 00000000 		.4byte	0
 5995 0038 00000000 		.4byte	0
 5996              	.LLST2:
 5997 003c 88000000 		.4byte	.LVL11
ARM GAS  C:\Users\jon\AppData\Local\Temp\ccCLAX4y.s 			page 143


 5998 0040 B0000000 		.4byte	.LVL12
 5999 0044 0100     		.2byte	0x1
 6000 0046 5C       		.byte	0x5c
 6001 0047 26010000 		.4byte	.LVL17
 6002 004b 30010000 		.4byte	.LVL18
 6003 004f 0100     		.2byte	0x1
 6004 0051 5C       		.byte	0x5c
 6005 0052 00000000 		.4byte	0
 6006 0056 00000000 		.4byte	0
 6007              	.LLST3:
 6008 005a 2C000000 		.4byte	.LVL5
 6009 005e 4E000000 		.4byte	.LVL7
 6010 0062 0200     		.2byte	0x2
 6011 0064 30       		.byte	0x30
 6012 0065 9F       		.byte	0x9f
 6013 0066 3E010000 		.4byte	.LVL19
 6014 006a 60010000 		.4byte	.LFE13
 6015 006e 0200     		.2byte	0x2
 6016 0070 30       		.byte	0x30
 6017 0071 9F       		.byte	0x9f
 6018 0072 00000000 		.4byte	0
 6019 0076 00000000 		.4byte	0
 6020              	.LLST4:
 6021 007a 2C000000 		.4byte	.LVL5
 6022 007e 20010000 		.4byte	.LVL16
 6023 0082 0100     		.2byte	0x1
 6024 0084 50       		.byte	0x50
 6025 0085 26010000 		.4byte	.LVL17
 6026 0089 60010000 		.4byte	.LFE13
 6027 008d 0100     		.2byte	0x1
 6028 008f 50       		.byte	0x50
 6029 0090 00000000 		.4byte	0
 6030 0094 00000000 		.4byte	0
 6031              	.LLST5:
 6032 0098 22000000 		.4byte	.LVL2
 6033 009c 2A000000 		.4byte	.LVL4
 6034 00a0 0300     		.2byte	0x3
 6035 00a2 73       		.byte	0x73
 6036 00a3 08       		.sleb128 8
 6037 00a4 9F       		.byte	0x9f
 6038 00a5 20010000 		.4byte	.LVL16
 6039 00a9 26010000 		.4byte	.LVL17
 6040 00ad 0200     		.2byte	0x2
 6041 00af 38       		.byte	0x38
 6042 00b0 9F       		.byte	0x9f
 6043 00b1 00000000 		.4byte	0
 6044 00b5 00000000 		.4byte	0
 6045              	.LLST6:
 6046 00b9 2A000000 		.4byte	.LVL4
 6047 00bd 46000000 		.4byte	.LVL6
 6048 00c1 0100     		.2byte	0x1
 6049 00c3 53       		.byte	0x53
 6050 00c4 46000000 		.4byte	.LVL6
 6051 00c8 4E000000 		.4byte	.LVL7
 6052 00cc 0300     		.2byte	0x3
 6053 00ce 73       		.byte	0x73
 6054 00cf 78       		.sleb128 -8
ARM GAS  C:\Users\jon\AppData\Local\Temp\ccCLAX4y.s 			page 144


 6055 00d0 9F       		.byte	0x9f
 6056 00d1 4E000000 		.4byte	.LVL7
 6057 00d5 50000000 		.4byte	.LVL8
 6058 00d9 0100     		.2byte	0x1
 6059 00db 53       		.byte	0x53
 6060 00dc 50000000 		.4byte	.LVL8
 6061 00e0 F0000000 		.4byte	.LVL14
 6062 00e4 0300     		.2byte	0x3
 6063 00e6 73       		.byte	0x73
 6064 00e7 78       		.sleb128 -8
 6065 00e8 9F       		.byte	0x9f
 6066 00e9 F0000000 		.4byte	.LVL14
 6067 00ed 1A010000 		.4byte	.LVL15
 6068 00f1 0300     		.2byte	0x3
 6069 00f3 73       		.byte	0x73
 6070 00f4 70       		.sleb128 -16
 6071 00f5 9F       		.byte	0x9f
 6072 00f6 26010000 		.4byte	.LVL17
 6073 00fa 3E010000 		.4byte	.LVL19
 6074 00fe 0300     		.2byte	0x3
 6075 0100 73       		.byte	0x73
 6076 0101 78       		.sleb128 -8
 6077 0102 9F       		.byte	0x9f
 6078 0103 3E010000 		.4byte	.LVL19
 6079 0107 60010000 		.4byte	.LFE13
 6080 010b 0100     		.2byte	0x1
 6081 010d 53       		.byte	0x53
 6082 010e 00000000 		.4byte	0
 6083 0112 00000000 		.4byte	0
 6084              	.LLST7:
 6085 0116 14000000 		.4byte	.LVL0
 6086 011a 20000000 		.4byte	.LVL1
 6087 011e 0100     		.2byte	0x1
 6088 0120 53       		.byte	0x53
 6089 0121 00000000 		.4byte	0
 6090 0125 00000000 		.4byte	0
 6091              	.LLST8:
 6092 0129 14000000 		.4byte	.LVL0
 6093 012d 22000000 		.4byte	.LVL2
 6094 0131 0300     		.2byte	0x3
 6095 0133 72       		.byte	0x72
 6096 0134 10       		.sleb128 16
 6097 0135 9F       		.byte	0x9f
 6098 0136 00000000 		.4byte	0
 6099 013a 00000000 		.4byte	0
 6100              	.LLST9:
 6101 013e 00000000 		.4byte	.LVL20
 6102 0142 0E000000 		.4byte	.LVL21
 6103 0146 0100     		.2byte	0x1
 6104 0148 50       		.byte	0x50
 6105 0149 0E000000 		.4byte	.LVL21
 6106 014d 42010000 		.4byte	.LVL33
 6107 0151 0100     		.2byte	0x1
 6108 0153 54       		.byte	0x54
 6109 0154 42010000 		.4byte	.LVL33
 6110 0158 48010000 		.4byte	.LFE1
 6111 015c 0400     		.2byte	0x4
ARM GAS  C:\Users\jon\AppData\Local\Temp\ccCLAX4y.s 			page 145


 6112 015e F3       		.byte	0xf3
 6113 015f 01       		.uleb128 0x1
 6114 0160 50       		.byte	0x50
 6115 0161 9F       		.byte	0x9f
 6116 0162 00000000 		.4byte	0
 6117 0166 00000000 		.4byte	0
 6118              	.LLST10:
 6119 016a 28000000 		.4byte	.LVL23
 6120 016e BE000000 		.4byte	.LVL24
 6121 0172 0200     		.2byte	0x2
 6122 0174 32       		.byte	0x32
 6123 0175 9F       		.byte	0x9f
 6124 0176 BE000000 		.4byte	.LVL24
 6125 017a C2000000 		.4byte	.LVL25
 6126 017e 0200     		.2byte	0x2
 6127 0180 36       		.byte	0x36
 6128 0181 9F       		.byte	0x9f
 6129 0182 C2000000 		.4byte	.LVL25
 6130 0186 C6000000 		.4byte	.LVL26
 6131 018a 0200     		.2byte	0x2
 6132 018c 3A       		.byte	0x3a
 6133 018d 9F       		.byte	0x9f
 6134 018e C6000000 		.4byte	.LVL26
 6135 0192 CA000000 		.4byte	.LVL27
 6136 0196 0200     		.2byte	0x2
 6137 0198 3E       		.byte	0x3e
 6138 0199 9F       		.byte	0x9f
 6139 019a CA000000 		.4byte	.LVL27
 6140 019e 1E010000 		.4byte	.LVL28
 6141 01a2 0200     		.2byte	0x2
 6142 01a4 42       		.byte	0x42
 6143 01a5 9F       		.byte	0x9f
 6144 01a6 1E010000 		.4byte	.LVL28
 6145 01aa 22010000 		.4byte	.LVL29
 6146 01ae 0200     		.2byte	0x2
 6147 01b0 46       		.byte	0x46
 6148 01b1 9F       		.byte	0x9f
 6149 01b2 22010000 		.4byte	.LVL29
 6150 01b6 26010000 		.4byte	.LVL30
 6151 01ba 0200     		.2byte	0x2
 6152 01bc 4A       		.byte	0x4a
 6153 01bd 9F       		.byte	0x9f
 6154 01be 26010000 		.4byte	.LVL30
 6155 01c2 2C010000 		.4byte	.LVL31
 6156 01c6 0200     		.2byte	0x2
 6157 01c8 4E       		.byte	0x4e
 6158 01c9 9F       		.byte	0x9f
 6159 01ca 2C010000 		.4byte	.LVL31
 6160 01ce 3C010000 		.4byte	.LVL32
 6161 01d2 0300     		.2byte	0x3
 6162 01d4 08       		.byte	0x8
 6163 01d5 22       		.byte	0x22
 6164 01d6 9F       		.byte	0x9f
 6165 01d7 00000000 		.4byte	0
 6166 01db 00000000 		.4byte	0
 6167              	.LLST11:
 6168 01df 14000000 		.4byte	.LVL22
ARM GAS  C:\Users\jon\AppData\Local\Temp\ccCLAX4y.s 			page 146


 6169 01e3 BE000000 		.4byte	.LVL24
 6170 01e7 0200     		.2byte	0x2
 6171 01e9 30       		.byte	0x30
 6172 01ea 9F       		.byte	0x9f
 6173 01eb BE000000 		.4byte	.LVL24
 6174 01ef C2000000 		.4byte	.LVL25
 6175 01f3 0200     		.2byte	0x2
 6176 01f5 31       		.byte	0x31
 6177 01f6 9F       		.byte	0x9f
 6178 01f7 C2000000 		.4byte	.LVL25
 6179 01fb C6000000 		.4byte	.LVL26
 6180 01ff 0200     		.2byte	0x2
 6181 0201 32       		.byte	0x32
 6182 0202 9F       		.byte	0x9f
 6183 0203 C6000000 		.4byte	.LVL26
 6184 0207 CA000000 		.4byte	.LVL27
 6185 020b 0200     		.2byte	0x2
 6186 020d 33       		.byte	0x33
 6187 020e 9F       		.byte	0x9f
 6188 020f CA000000 		.4byte	.LVL27
 6189 0213 1E010000 		.4byte	.LVL28
 6190 0217 0200     		.2byte	0x2
 6191 0219 34       		.byte	0x34
 6192 021a 9F       		.byte	0x9f
 6193 021b 1E010000 		.4byte	.LVL28
 6194 021f 22010000 		.4byte	.LVL29
 6195 0223 0200     		.2byte	0x2
 6196 0225 35       		.byte	0x35
 6197 0226 9F       		.byte	0x9f
 6198 0227 22010000 		.4byte	.LVL29
 6199 022b 26010000 		.4byte	.LVL30
 6200 022f 0200     		.2byte	0x2
 6201 0231 36       		.byte	0x36
 6202 0232 9F       		.byte	0x9f
 6203 0233 26010000 		.4byte	.LVL30
 6204 0237 2C010000 		.4byte	.LVL31
 6205 023b 0200     		.2byte	0x2
 6206 023d 37       		.byte	0x37
 6207 023e 9F       		.byte	0x9f
 6208 023f 2C010000 		.4byte	.LVL31
 6209 0243 3C010000 		.4byte	.LVL32
 6210 0247 0200     		.2byte	0x2
 6211 0249 38       		.byte	0x38
 6212 024a 9F       		.byte	0x9f
 6213 024b 00000000 		.4byte	0
 6214 024f 00000000 		.4byte	0
 6215              	.LLST12:
 6216 0253 00000000 		.4byte	.LVL34
 6217 0257 42000000 		.4byte	.LVL35
 6218 025b 0200     		.2byte	0x2
 6219 025d 31       		.byte	0x31
 6220 025e 9F       		.byte	0x9f
 6221 025f 42000000 		.4byte	.LVL35
 6222 0263 76000000 		.4byte	.LVL36
 6223 0267 0200     		.2byte	0x2
 6224 0269 32       		.byte	0x32
 6225 026a 9F       		.byte	0x9f
ARM GAS  C:\Users\jon\AppData\Local\Temp\ccCLAX4y.s 			page 147


 6226 026b 76000000 		.4byte	.LVL36
 6227 026f AC000000 		.4byte	.LVL37
 6228 0273 0200     		.2byte	0x2
 6229 0275 33       		.byte	0x33
 6230 0276 9F       		.byte	0x9f
 6231 0277 AC000000 		.4byte	.LVL37
 6232 027b E2000000 		.4byte	.LVL38
 6233 027f 0200     		.2byte	0x2
 6234 0281 34       		.byte	0x34
 6235 0282 9F       		.byte	0x9f
 6236 0283 E2000000 		.4byte	.LVL38
 6237 0287 20010000 		.4byte	.LVL39
 6238 028b 0200     		.2byte	0x2
 6239 028d 35       		.byte	0x35
 6240 028e 9F       		.byte	0x9f
 6241 028f 20010000 		.4byte	.LVL39
 6242 0293 5C010000 		.4byte	.LVL40
 6243 0297 0200     		.2byte	0x2
 6244 0299 36       		.byte	0x36
 6245 029a 9F       		.byte	0x9f
 6246 029b 5C010000 		.4byte	.LVL40
 6247 029f 98010000 		.4byte	.LVL41
 6248 02a3 0200     		.2byte	0x2
 6249 02a5 37       		.byte	0x37
 6250 02a6 9F       		.byte	0x9f
 6251 02a7 98010000 		.4byte	.LVL41
 6252 02ab DC010000 		.4byte	.LVL42
 6253 02af 0200     		.2byte	0x2
 6254 02b1 38       		.byte	0x38
 6255 02b2 9F       		.byte	0x9f
 6256 02b3 DC010000 		.4byte	.LVL42
 6257 02b7 E2010000 		.4byte	.LVL43
 6258 02bb 0200     		.2byte	0x2
 6259 02bd 39       		.byte	0x39
 6260 02be 9F       		.byte	0x9f
 6261 02bf E2010000 		.4byte	.LVL43
 6262 02c3 F0010000 		.4byte	.LVL44
 6263 02c7 0200     		.2byte	0x2
 6264 02c9 31       		.byte	0x31
 6265 02ca 9F       		.byte	0x9f
 6266 02cb F0010000 		.4byte	.LVL44
 6267 02cf F8010000 		.4byte	.LVL45
 6268 02d3 0200     		.2byte	0x2
 6269 02d5 38       		.byte	0x38
 6270 02d6 9F       		.byte	0x9f
 6271 02d7 F8010000 		.4byte	.LVL45
 6272 02db 0C020000 		.4byte	.LVL46
 6273 02df 0200     		.2byte	0x2
 6274 02e1 37       		.byte	0x37
 6275 02e2 9F       		.byte	0x9f
 6276 02e3 0C020000 		.4byte	.LVL46
 6277 02e7 20020000 		.4byte	.LVL47
 6278 02eb 0200     		.2byte	0x2
 6279 02ed 36       		.byte	0x36
 6280 02ee 9F       		.byte	0x9f
 6281 02ef 20020000 		.4byte	.LVL47
 6282 02f3 34020000 		.4byte	.LVL48
ARM GAS  C:\Users\jon\AppData\Local\Temp\ccCLAX4y.s 			page 148


 6283 02f7 0200     		.2byte	0x2
 6284 02f9 35       		.byte	0x35
 6285 02fa 9F       		.byte	0x9f
 6286 02fb 34020000 		.4byte	.LVL48
 6287 02ff 48020000 		.4byte	.LVL49
 6288 0303 0200     		.2byte	0x2
 6289 0305 34       		.byte	0x34
 6290 0306 9F       		.byte	0x9f
 6291 0307 48020000 		.4byte	.LVL49
 6292 030b 5C020000 		.4byte	.LVL50
 6293 030f 0200     		.2byte	0x2
 6294 0311 33       		.byte	0x33
 6295 0312 9F       		.byte	0x9f
 6296 0313 5C020000 		.4byte	.LVL50
 6297 0317 6E020000 		.4byte	.LVL51
 6298 031b 0200     		.2byte	0x2
 6299 031d 32       		.byte	0x32
 6300 031e 9F       		.byte	0x9f
 6301 031f 6E020000 		.4byte	.LVL51
 6302 0323 BC020000 		.4byte	.LFE2
 6303 0327 0200     		.2byte	0x2
 6304 0329 31       		.byte	0x31
 6305 032a 9F       		.byte	0x9f
 6306 032b 00000000 		.4byte	0
 6307 032f 00000000 		.4byte	0
 6308              	.LLST13:
 6309 0333 00000000 		.4byte	.LVL52
 6310 0337 88000000 		.4byte	.LVL53
 6311 033b 0200     		.2byte	0x2
 6312 033d 38       		.byte	0x38
 6313 033e 9F       		.byte	0x9f
 6314 033f 88000000 		.4byte	.LVL53
 6315 0343 90000000 		.4byte	.LFE3
 6316 0347 0200     		.2byte	0x2
 6317 0349 39       		.byte	0x39
 6318 034a 9F       		.byte	0x9f
 6319 034b 00000000 		.4byte	0
 6320 034f 00000000 		.4byte	0
 6321              	.LLST14:
 6322 0353 00000000 		.4byte	.LVL54
 6323 0357 50010000 		.4byte	.LVL72
 6324 035b 0100     		.2byte	0x1
 6325 035d 50       		.byte	0x50
 6326 035e 50010000 		.4byte	.LVL72
 6327 0362 82050000 		.4byte	.LVL117
 6328 0366 0400     		.2byte	0x4
 6329 0368 F3       		.byte	0xf3
 6330 0369 01       		.uleb128 0x1
 6331 036a 50       		.byte	0x50
 6332 036b 9F       		.byte	0x9f
 6333 036c 82050000 		.4byte	.LVL117
 6334 0370 88050000 		.4byte	.LVL118
 6335 0374 0100     		.2byte	0x1
 6336 0376 50       		.byte	0x50
 6337 0377 88050000 		.4byte	.LVL118
 6338 037b 04060000 		.4byte	.LFE4
 6339 037f 0400     		.2byte	0x4
ARM GAS  C:\Users\jon\AppData\Local\Temp\ccCLAX4y.s 			page 149


 6340 0381 F3       		.byte	0xf3
 6341 0382 01       		.uleb128 0x1
 6342 0383 50       		.byte	0x50
 6343 0384 9F       		.byte	0x9f
 6344 0385 00000000 		.4byte	0
 6345 0389 00000000 		.4byte	0
 6346              	.LLST15:
 6347 038d 00000000 		.4byte	.LVL54
 6348 0391 18000000 		.4byte	.LVL55
 6349 0395 0200     		.2byte	0x2
 6350 0397 30       		.byte	0x30
 6351 0398 9F       		.byte	0x9f
 6352 0399 18000000 		.4byte	.LVL55
 6353 039d 26000000 		.4byte	.LVL56
 6354 03a1 0200     		.2byte	0x2
 6355 03a3 31       		.byte	0x31
 6356 03a4 9F       		.byte	0x9f
 6357 03a5 26000000 		.4byte	.LVL56
 6358 03a9 36000000 		.4byte	.LVL57
 6359 03ad 0200     		.2byte	0x2
 6360 03af 32       		.byte	0x32
 6361 03b0 9F       		.byte	0x9f
 6362 03b1 36000000 		.4byte	.LVL57
 6363 03b5 50000000 		.4byte	.LVL58
 6364 03b9 0200     		.2byte	0x2
 6365 03bb 33       		.byte	0x33
 6366 03bc 9F       		.byte	0x9f
 6367 03bd 50000000 		.4byte	.LVL58
 6368 03c1 6A000000 		.4byte	.LVL59
 6369 03c5 0200     		.2byte	0x2
 6370 03c7 34       		.byte	0x34
 6371 03c8 9F       		.byte	0x9f
 6372 03c9 6A000000 		.4byte	.LVL59
 6373 03cd 86000000 		.4byte	.LVL60
 6374 03d1 0200     		.2byte	0x2
 6375 03d3 35       		.byte	0x35
 6376 03d4 9F       		.byte	0x9f
 6377 03d5 86000000 		.4byte	.LVL60
 6378 03d9 A2000000 		.4byte	.LVL61
 6379 03dd 0200     		.2byte	0x2
 6380 03df 36       		.byte	0x36
 6381 03e0 9F       		.byte	0x9f
 6382 03e1 A2000000 		.4byte	.LVL61
 6383 03e5 BE000000 		.4byte	.LVL62
 6384 03e9 0200     		.2byte	0x2
 6385 03eb 37       		.byte	0x37
 6386 03ec 9F       		.byte	0x9f
 6387 03ed BE000000 		.4byte	.LVL62
 6388 03f1 DA000000 		.4byte	.LVL63
 6389 03f5 0200     		.2byte	0x2
 6390 03f7 38       		.byte	0x38
 6391 03f8 9F       		.byte	0x9f
 6392 03f9 DA000000 		.4byte	.LVL63
 6393 03fd 04060000 		.4byte	.LFE4
 6394 0401 0200     		.2byte	0x2
 6395 0403 39       		.byte	0x39
 6396 0404 9F       		.byte	0x9f
ARM GAS  C:\Users\jon\AppData\Local\Temp\ccCLAX4y.s 			page 150


 6397 0405 00000000 		.4byte	0
 6398 0409 00000000 		.4byte	0
 6399              	.LLST16:
 6400 040d DC000000 		.4byte	.LVL64
 6401 0411 E4000000 		.4byte	.LVL65
 6402 0415 0200     		.2byte	0x2
 6403 0417 30       		.byte	0x30
 6404 0418 9F       		.byte	0x9f
 6405 0419 E4000000 		.4byte	.LVL65
 6406 041d E8000000 		.4byte	.LVL66
 6407 0421 0200     		.2byte	0x2
 6408 0423 31       		.byte	0x31
 6409 0424 9F       		.byte	0x9f
 6410 0425 00000000 		.4byte	0
 6411 0429 00000000 		.4byte	0
 6412              	.LLST17:
 6413 042d F2000000 		.4byte	.LVL67
 6414 0431 50010000 		.4byte	.LVL72
 6415 0435 0100     		.2byte	0x1
 6416 0437 50       		.byte	0x50
 6417 0438 82050000 		.4byte	.LVL117
 6418 043c 88050000 		.4byte	.LVL118
 6419 0440 0100     		.2byte	0x1
 6420 0442 50       		.byte	0x50
 6421 0443 00000000 		.4byte	0
 6422 0447 00000000 		.4byte	0
 6423              	.LLST18:
 6424 044b 20010000 		.4byte	.LVL71
 6425 044f AA020000 		.4byte	.LVL97
 6426 0453 0100     		.2byte	0x1
 6427 0455 5B       		.byte	0x5b
 6428 0456 AA020000 		.4byte	.LVL97
 6429 045a B6020000 		.4byte	.LVL99
 6430 045e 0200     		.2byte	0x2
 6431 0460 34       		.byte	0x34
 6432 0461 9F       		.byte	0x9f
 6433 0462 B6020000 		.4byte	.LVL99
 6434 0466 CC020000 		.4byte	.LVL101
 6435 046a 0200     		.2byte	0x2
 6436 046c 35       		.byte	0x35
 6437 046d 9F       		.byte	0x9f
 6438 046e CC020000 		.4byte	.LVL101
 6439 0472 E0020000 		.4byte	.LVL103
 6440 0476 0200     		.2byte	0x2
 6441 0478 36       		.byte	0x36
 6442 0479 9F       		.byte	0x9f
 6443 047a E0020000 		.4byte	.LVL103
 6444 047e F4020000 		.4byte	.LVL106
 6445 0482 0200     		.2byte	0x2
 6446 0484 37       		.byte	0x37
 6447 0485 9F       		.byte	0x9f
 6448 0486 F4020000 		.4byte	.LVL106
 6449 048a FC020000 		.4byte	.LVL107
 6450 048e 0200     		.2byte	0x2
 6451 0490 38       		.byte	0x38
 6452 0491 9F       		.byte	0x9f
 6453 0492 FC020000 		.4byte	.LVL107
ARM GAS  C:\Users\jon\AppData\Local\Temp\ccCLAX4y.s 			page 151


 6454 0496 7C050000 		.4byte	.LVL116
 6455 049a 0200     		.2byte	0x2
 6456 049c 39       		.byte	0x39
 6457 049d 9F       		.byte	0x9f
 6458 049e 88050000 		.4byte	.LVL118
 6459 04a2 A2050000 		.4byte	.LVL124
 6460 04a6 0100     		.2byte	0x1
 6461 04a8 5B       		.byte	0x5b
 6462 04a9 A2050000 		.4byte	.LVL124
 6463 04ad 04060000 		.4byte	.LFE4
 6464 04b1 0200     		.2byte	0x2
 6465 04b3 39       		.byte	0x39
 6466 04b4 9F       		.byte	0x9f
 6467 04b5 00000000 		.4byte	0
 6468 04b9 00000000 		.4byte	0
 6469              	.LLST19:
 6470 04bd 54010000 		.4byte	.LVL73
 6471 04c1 88010000 		.4byte	.LVL74
 6472 04c5 0200     		.2byte	0x2
 6473 04c7 30       		.byte	0x30
 6474 04c8 9F       		.byte	0x9f
 6475 04c9 9E050000 		.4byte	.LVL123
 6476 04cd A2050000 		.4byte	.LVL124
 6477 04d1 0200     		.2byte	0x2
 6478 04d3 30       		.byte	0x30
 6479 04d4 9F       		.byte	0x9f
 6480 04d5 00000000 		.4byte	0
 6481 04d9 00000000 		.4byte	0
 6482              	.LLST20:
 6483 04dd 20010000 		.4byte	.LVL71
 6484 04e1 50010000 		.4byte	.LVL72
 6485 04e5 0200     		.2byte	0x2
 6486 04e7 31       		.byte	0x31
 6487 04e8 9F       		.byte	0x9f
 6488 04e9 54010000 		.4byte	.LVL73
 6489 04ed 0A020000 		.4byte	.LVL83
 6490 04f1 0100     		.2byte	0x1
 6491 04f3 5A       		.byte	0x5a
 6492 04f4 0A020000 		.4byte	.LVL83
 6493 04f8 0C020000 		.4byte	.LVL84
 6494 04fc 0300     		.2byte	0x3
 6495 04fe 76       		.byte	0x76
 6496 04ff 01       		.sleb128 1
 6497 0500 9F       		.byte	0x9f
 6498 0501 0C020000 		.4byte	.LVL84
 6499 0505 12020000 		.4byte	.LVL85
 6500 0509 0300     		.2byte	0x3
 6501 050b 7A       		.byte	0x7a
 6502 050c 01       		.sleb128 1
 6503 050d 9F       		.byte	0x9f
 6504 050e 12020000 		.4byte	.LVL85
 6505 0512 24020000 		.4byte	.LVL87
 6506 0516 0200     		.2byte	0x2
 6507 0518 30       		.byte	0x30
 6508 0519 9F       		.byte	0x9f
 6509 051a 88050000 		.4byte	.LVL118
 6510 051e 9A050000 		.4byte	.LVL121
ARM GAS  C:\Users\jon\AppData\Local\Temp\ccCLAX4y.s 			page 152


 6511 0522 0100     		.2byte	0x1
 6512 0524 5A       		.byte	0x5a
 6513 0525 9E050000 		.4byte	.LVL123
 6514 0529 A2050000 		.4byte	.LVL124
 6515 052d 0100     		.2byte	0x1
 6516 052f 5A       		.byte	0x5a
 6517 0530 00000000 		.4byte	0
 6518 0534 00000000 		.4byte	0
 6519              	.LLST21:
 6520 0538 D6010000 		.4byte	.LVL77
 6521 053c E0010000 		.4byte	.LVL78
 6522 0540 0100     		.2byte	0x1
 6523 0542 51       		.byte	0x51
 6524 0543 E0010000 		.4byte	.LVL78
 6525 0547 E4010000 		.4byte	.LVL79
 6526 054b 0700     		.2byte	0x7
 6527 054d 74       		.byte	0x74
 6528 054e 03       		.sleb128 3
 6529 054f 94       		.byte	0x94
 6530 0550 01       		.byte	0x1
 6531 0551 33       		.byte	0x33
 6532 0552 1A       		.byte	0x1a
 6533 0553 9F       		.byte	0x9f
 6534 0554 88050000 		.4byte	.LVL118
 6535 0558 8E050000 		.4byte	.LVL119
 6536 055c 0100     		.2byte	0x1
 6537 055e 51       		.byte	0x51
 6538 055f 8E050000 		.4byte	.LVL119
 6539 0563 92050000 		.4byte	.LVL120
 6540 0567 0700     		.2byte	0x7
 6541 0569 74       		.byte	0x74
 6542 056a 03       		.sleb128 3
 6543 056b 94       		.byte	0x94
 6544 056c 01       		.byte	0x1
 6545 056d 33       		.byte	0x33
 6546 056e 1A       		.byte	0x1a
 6547 056f 9F       		.byte	0x9f
 6548 0570 00000000 		.4byte	0
 6549 0574 00000000 		.4byte	0
 6550              	.LLST22:
 6551 0578 16010000 		.4byte	.LVL70
 6552 057c 50010000 		.4byte	.LVL72
 6553 0580 0200     		.2byte	0x2
 6554 0582 7A       		.byte	0x7a
 6555 0583 04       		.sleb128 4
 6556 0584 00000000 		.4byte	0
 6557 0588 00000000 		.4byte	0
 6558              	.LLST23:
 6559 058c AA020000 		.4byte	.LVL97
 6560 0590 AE020000 		.4byte	.LVL98
 6561 0594 0100     		.2byte	0x1
 6562 0596 54       		.byte	0x54
 6563 0597 AE020000 		.4byte	.LVL98
 6564 059b EC020000 		.4byte	.LVL104
 6565 059f 0100     		.2byte	0x1
 6566 05a1 52       		.byte	0x52
 6567 05a2 EC020000 		.4byte	.LVL104
ARM GAS  C:\Users\jon\AppData\Local\Temp\ccCLAX4y.s 			page 153


 6568 05a6 F2020000 		.4byte	.LVL105
 6569 05aa 0100     		.2byte	0x1
 6570 05ac 53       		.byte	0x53
 6571 05ad F4020000 		.4byte	.LVL106
 6572 05b1 FC020000 		.4byte	.LVL107
 6573 05b5 0100     		.2byte	0x1
 6574 05b7 53       		.byte	0x53
 6575 05b8 00000000 		.4byte	0
 6576 05bc 00000000 		.4byte	0
 6577              	.LLST24:
 6578 05c0 16010000 		.4byte	.LVL70
 6579 05c4 50010000 		.4byte	.LVL72
 6580 05c8 0300     		.2byte	0x3
 6581 05ca 7A       		.byte	0x7a
 6582 05cb 08       		.sleb128 8
 6583 05cc 9F       		.byte	0x9f
 6584 05cd 00000000 		.4byte	0
 6585 05d1 00000000 		.4byte	0
 6586              	.LLST25:
 6587 05d5 88010000 		.4byte	.LVL74
 6588 05d9 00020000 		.4byte	.LVL81
 6589 05dd 0100     		.2byte	0x1
 6590 05df 54       		.byte	0x54
 6591 05e0 00020000 		.4byte	.LVL81
 6592 05e4 06020000 		.4byte	.LVL82
 6593 05e8 0300     		.2byte	0x3
 6594 05ea 74       		.byte	0x74
 6595 05eb 78       		.sleb128 -8
 6596 05ec 9F       		.byte	0x9f
 6597 05ed 06020000 		.4byte	.LVL82
 6598 05f1 0A020000 		.4byte	.LVL83
 6599 05f5 0100     		.2byte	0x1
 6600 05f7 54       		.byte	0x54
 6601 05f8 24020000 		.4byte	.LVL87
 6602 05fc 36020000 		.4byte	.LVL88
 6603 0600 0300     		.2byte	0x3
 6604 0602 72       		.byte	0x72
 6605 0603 78       		.sleb128 -8
 6606 0604 9F       		.byte	0x9f
 6607 0605 36020000 		.4byte	.LVL88
 6608 0609 3E020000 		.4byte	.LVL89
 6609 060d 0300     		.2byte	0x3
 6610 060f 72       		.byte	0x72
 6611 0610 70       		.sleb128 -16
 6612 0611 9F       		.byte	0x9f
 6613 0612 88050000 		.4byte	.LVL118
 6614 0616 9A050000 		.4byte	.LVL121
 6615 061a 0100     		.2byte	0x1
 6616 061c 54       		.byte	0x54
 6617 061d 00000000 		.4byte	0
 6618 0621 00000000 		.4byte	0
 6619              	.LLST26:
 6620 0625 F2000000 		.4byte	.LVL67
 6621 0629 50010000 		.4byte	.LVL72
 6622 062d 0200     		.2byte	0x2
 6623 062f 30       		.byte	0x30
 6624 0630 9F       		.byte	0x9f
ARM GAS  C:\Users\jon\AppData\Local\Temp\ccCLAX4y.s 			page 154


 6625 0631 54010000 		.4byte	.LVL73
 6626 0635 FD010000 		.4byte	.LVL80-1
 6627 0639 0100     		.2byte	0x1
 6628 063b 52       		.byte	0x52
 6629 063c 06020000 		.4byte	.LVL82
 6630 0640 1E020000 		.4byte	.LVL86
 6631 0644 0100     		.2byte	0x1
 6632 0646 52       		.byte	0x52
 6633 0647 82050000 		.4byte	.LVL117
 6634 064b 88050000 		.4byte	.LVL118
 6635 064f 0200     		.2byte	0x2
 6636 0651 30       		.byte	0x30
 6637 0652 9F       		.byte	0x9f
 6638 0653 88050000 		.4byte	.LVL118
 6639 0657 9A050000 		.4byte	.LVL121
 6640 065b 0100     		.2byte	0x1
 6641 065d 52       		.byte	0x52
 6642 065e 9E050000 		.4byte	.LVL123
 6643 0662 A2050000 		.4byte	.LVL124
 6644 0666 0100     		.2byte	0x1
 6645 0668 52       		.byte	0x52
 6646 0669 00000000 		.4byte	0
 6647 066d 00000000 		.4byte	0
 6648              	.LLST27:
 6649 0671 06010000 		.4byte	.LVL68
 6650 0675 12010000 		.4byte	.LVL69
 6651 0679 0100     		.2byte	0x1
 6652 067b 53       		.byte	0x53
 6653 067c 00000000 		.4byte	0
 6654 0680 00000000 		.4byte	0
 6655              	.LLST28:
 6656 0684 06010000 		.4byte	.LVL68
 6657 0688 16010000 		.4byte	.LVL70
 6658 068c 0300     		.2byte	0x3
 6659 068e 72       		.byte	0x72
 6660 068f 10       		.sleb128 16
 6661 0690 9F       		.byte	0x9f
 6662 0691 00000000 		.4byte	0
 6663 0695 00000000 		.4byte	0
 6664              	.LLST29:
 6665 0699 68020000 		.4byte	.LVL94
 6666 069d 6C020000 		.4byte	.LVL95
 6667 06a1 0800     		.2byte	0x8
 6668 06a3 72       		.byte	0x72
 6669 06a4 02       		.sleb128 2
 6670 06a5 33       		.byte	0x33
 6671 06a6 24       		.byte	0x24
 6672 06a7 73       		.byte	0x73
 6673 06a8 00       		.sleb128 0
 6674 06a9 22       		.byte	0x22
 6675 06aa 9F       		.byte	0x9f
 6676 06ab 00000000 		.4byte	0
 6677 06af 00000000 		.4byte	0
 6678              	.LLST30:
 6679 06b3 64020000 		.4byte	.LVL93
 6680 06b7 6C020000 		.4byte	.LVL95
 6681 06bb 0500     		.2byte	0x5
ARM GAS  C:\Users\jon\AppData\Local\Temp\ccCLAX4y.s 			page 155


 6682 06bd 73       		.byte	0x73
 6683 06be 04       		.sleb128 4
 6684 06bf 06       		.byte	0x6
 6685 06c0 23       		.byte	0x23
 6686 06c1 04       		.uleb128 0x4
 6687 06c2 6C020000 		.4byte	.LVL95
 6688 06c6 6E020000 		.4byte	.LVL96
 6689 06ca 0100     		.2byte	0x1
 6690 06cc 52       		.byte	0x52
 6691 06cd 00000000 		.4byte	0
 6692 06d1 00000000 		.4byte	0
 6693              	.LLST31:
 6694 06d5 54020000 		.4byte	.LVL90
 6695 06d9 60020000 		.4byte	.LVL91
 6696 06dd 0100     		.2byte	0x1
 6697 06df 53       		.byte	0x53
 6698 06e0 9A050000 		.4byte	.LVL121
 6699 06e4 9C050000 		.4byte	.LVL122
 6700 06e8 0100     		.2byte	0x1
 6701 06ea 53       		.byte	0x53
 6702 06eb 00000000 		.4byte	0
 6703 06ef 00000000 		.4byte	0
 6704              	.LLST32:
 6705 06f3 54020000 		.4byte	.LVL90
 6706 06f7 62020000 		.4byte	.LVL92
 6707 06fb 0300     		.2byte	0x3
 6708 06fd 72       		.byte	0x72
 6709 06fe 10       		.sleb128 16
 6710 06ff 9F       		.byte	0x9f
 6711 0700 9A050000 		.4byte	.LVL121
 6712 0704 9E050000 		.4byte	.LVL123
 6713 0708 0300     		.2byte	0x3
 6714 070a 72       		.byte	0x72
 6715 070b 10       		.sleb128 16
 6716 070c 9F       		.byte	0x9f
 6717 070d 00000000 		.4byte	0
 6718 0711 00000000 		.4byte	0
 6719              	.LLST33:
 6720 0715 FC020000 		.4byte	.LVL107
 6721 0719 3A030000 		.4byte	.LVL108
 6722 071d 0200     		.2byte	0x2
 6723 071f 31       		.byte	0x31
 6724 0720 9F       		.byte	0x9f
 6725 0721 3A030000 		.4byte	.LVL108
 6726 0725 78030000 		.4byte	.LVL109
 6727 0729 0200     		.2byte	0x2
 6728 072b 32       		.byte	0x32
 6729 072c 9F       		.byte	0x9f
 6730 072d 78030000 		.4byte	.LVL109
 6731 0731 BA030000 		.4byte	.LVL110
 6732 0735 0200     		.2byte	0x2
 6733 0737 33       		.byte	0x33
 6734 0738 9F       		.byte	0x9f
 6735 0739 BA030000 		.4byte	.LVL110
 6736 073d FC030000 		.4byte	.LVL111
 6737 0741 0200     		.2byte	0x2
 6738 0743 34       		.byte	0x34
ARM GAS  C:\Users\jon\AppData\Local\Temp\ccCLAX4y.s 			page 156


 6739 0744 9F       		.byte	0x9f
 6740 0745 FC030000 		.4byte	.LVL111
 6741 0749 46040000 		.4byte	.LVL112
 6742 074d 0200     		.2byte	0x2
 6743 074f 35       		.byte	0x35
 6744 0750 9F       		.byte	0x9f
 6745 0751 46040000 		.4byte	.LVL112
 6746 0755 90040000 		.4byte	.LVL113
 6747 0759 0200     		.2byte	0x2
 6748 075b 36       		.byte	0x36
 6749 075c 9F       		.byte	0x9f
 6750 075d 90040000 		.4byte	.LVL113
 6751 0761 DA040000 		.4byte	.LVL114
 6752 0765 0200     		.2byte	0x2
 6753 0767 37       		.byte	0x37
 6754 0768 9F       		.byte	0x9f
 6755 0769 DA040000 		.4byte	.LVL114
 6756 076d 7A050000 		.4byte	.LVL115
 6757 0771 0200     		.2byte	0x2
 6758 0773 38       		.byte	0x38
 6759 0774 9F       		.byte	0x9f
 6760 0775 7A050000 		.4byte	.LVL115
 6761 0779 7C050000 		.4byte	.LVL116
 6762 077d 0200     		.2byte	0x2
 6763 077f 39       		.byte	0x39
 6764 0780 9F       		.byte	0x9f
 6765 0781 A2050000 		.4byte	.LVL124
 6766 0785 AA050000 		.4byte	.LVL125
 6767 0789 0200     		.2byte	0x2
 6768 078b 38       		.byte	0x38
 6769 078c 9F       		.byte	0x9f
 6770 078d AA050000 		.4byte	.LVL125
 6771 0791 B2050000 		.4byte	.LVL126
 6772 0795 0200     		.2byte	0x2
 6773 0797 37       		.byte	0x37
 6774 0798 9F       		.byte	0x9f
 6775 0799 B2050000 		.4byte	.LVL126
 6776 079d BA050000 		.4byte	.LVL127
 6777 07a1 0200     		.2byte	0x2
 6778 07a3 36       		.byte	0x36
 6779 07a4 9F       		.byte	0x9f
 6780 07a5 BA050000 		.4byte	.LVL127
 6781 07a9 C2050000 		.4byte	.LVL128
 6782 07ad 0200     		.2byte	0x2
 6783 07af 35       		.byte	0x35
 6784 07b0 9F       		.byte	0x9f
 6785 07b1 C2050000 		.4byte	.LVL128
 6786 07b5 CA050000 		.4byte	.LVL129
 6787 07b9 0200     		.2byte	0x2
 6788 07bb 34       		.byte	0x34
 6789 07bc 9F       		.byte	0x9f
 6790 07bd CA050000 		.4byte	.LVL129
 6791 07c1 D2050000 		.4byte	.LVL130
 6792 07c5 0200     		.2byte	0x2
 6793 07c7 33       		.byte	0x33
 6794 07c8 9F       		.byte	0x9f
 6795 07c9 D2050000 		.4byte	.LVL130
ARM GAS  C:\Users\jon\AppData\Local\Temp\ccCLAX4y.s 			page 157


 6796 07cd DA050000 		.4byte	.LVL131
 6797 07d1 0200     		.2byte	0x2
 6798 07d3 32       		.byte	0x32
 6799 07d4 9F       		.byte	0x9f
 6800 07d5 DA050000 		.4byte	.LVL131
 6801 07d9 04060000 		.4byte	.LFE4
 6802 07dd 0200     		.2byte	0x2
 6803 07df 31       		.byte	0x31
 6804 07e0 9F       		.byte	0x9f
 6805 07e1 00000000 		.4byte	0
 6806 07e5 00000000 		.4byte	0
 6807              	.LLST34:
 6808 07e9 C6000000 		.4byte	.LVL143
 6809 07ed CE000000 		.4byte	.LVL144
 6810 07f1 0100     		.2byte	0x1
 6811 07f3 53       		.byte	0x53
 6812 07f4 00000000 		.4byte	0
 6813 07f8 00000000 		.4byte	0
 6814              	.LLST35:
 6815 07fc CC010000 		.4byte	.LVL159
 6816 0800 D4010000 		.4byte	.LVL160
 6817 0804 0100     		.2byte	0x1
 6818 0806 53       		.byte	0x53
 6819 0807 00000000 		.4byte	0
 6820 080b 00000000 		.4byte	0
 6821              	.LLST36:
 6822 080f 0C000000 		.4byte	.LVL133
 6823 0813 34000000 		.4byte	.LVL134
 6824 0817 0100     		.2byte	0x1
 6825 0819 53       		.byte	0x53
 6826 081a 42000000 		.4byte	.LVL136
 6827 081e 7A000000 		.4byte	.LVL138
 6828 0822 0100     		.2byte	0x1
 6829 0824 53       		.byte	0x53
 6830 0825 E8000000 		.4byte	.LVL145
 6831 0829 EC000000 		.4byte	.LVL146
 6832 082d 0100     		.2byte	0x1
 6833 082f 53       		.byte	0x53
 6834 0830 54010000 		.4byte	.LVL150
 6835 0834 58010000 		.4byte	.LVL151
 6836 0838 0100     		.2byte	0x1
 6837 083a 53       		.byte	0x53
 6838 083b B6010000 		.4byte	.LVL155
 6839 083f B8010000 		.4byte	.LVL156
 6840 0843 0100     		.2byte	0x1
 6841 0845 53       		.byte	0x53
 6842 0846 C8010000 		.4byte	.LVL157
 6843 084a CA010000 		.4byte	.LVL158
 6844 084e 0100     		.2byte	0x1
 6845 0850 53       		.byte	0x53
 6846 0851 10020000 		.4byte	.LVL166
 6847 0855 14020000 		.4byte	.LVL167
 6848 0859 0100     		.2byte	0x1
 6849 085b 53       		.byte	0x53
 6850 085c 26020000 		.4byte	.LVL168
 6851 0860 28020000 		.4byte	.LVL169
 6852 0864 0100     		.2byte	0x1
ARM GAS  C:\Users\jon\AppData\Local\Temp\ccCLAX4y.s 			page 158


 6853 0866 53       		.byte	0x53
 6854 0867 C8020000 		.4byte	.LVL179
 6855 086b CC020000 		.4byte	.LVL180
 6856 086f 0100     		.2byte	0x1
 6857 0871 53       		.byte	0x53
 6858 0872 FE020000 		.4byte	.LVL181
 6859 0876 00030000 		.4byte	.LVL182
 6860 087a 0100     		.2byte	0x1
 6861 087c 53       		.byte	0x53
 6862 087d 00000000 		.4byte	0
 6863 0881 00000000 		.4byte	0
 6864              	.LLST37:
 6865 0885 0C000000 		.4byte	.LVL133
 6866 0889 3E000000 		.4byte	.LVL135
 6867 088d 0200     		.2byte	0x2
 6868 088f 30       		.byte	0x30
 6869 0890 9F       		.byte	0x9f
 6870 0891 42000000 		.4byte	.LVL136
 6871 0895 40020000 		.4byte	.LVL170
 6872 0899 0200     		.2byte	0x2
 6873 089b 30       		.byte	0x30
 6874 089c 9F       		.byte	0x9f
 6875 089d 54020000 		.4byte	.LVL171
 6876 08a1 66020000 		.4byte	.LVL176
 6877 08a5 0100     		.2byte	0x1
 6878 08a7 52       		.byte	0x52
 6879 08a8 78020000 		.4byte	.LVL177
 6880 08ac 8D020000 		.4byte	.LVL178-1
 6881 08b0 0100     		.2byte	0x1
 6882 08b2 52       		.byte	0x52
 6883 08b3 C8020000 		.4byte	.LVL179
 6884 08b7 EC030000 		.4byte	.LVL196
 6885 08bb 0200     		.2byte	0x2
 6886 08bd 30       		.byte	0x30
 6887 08be 9F       		.byte	0x9f
 6888 08bf 00000000 		.4byte	0
 6889 08c3 00000000 		.4byte	0
 6890              	.LLST38:
 6891 08c7 40020000 		.4byte	.LVL170
 6892 08cb 54020000 		.4byte	.LVL171
 6893 08cf 0200     		.2byte	0x2
 6894 08d1 30       		.byte	0x30
 6895 08d2 9F       		.byte	0x9f
 6896 08d3 54020000 		.4byte	.LVL171
 6897 08d7 5C020000 		.4byte	.LVL174
 6898 08db 0100     		.2byte	0x1
 6899 08dd 53       		.byte	0x53
 6900 08de 64020000 		.4byte	.LVL175
 6901 08e2 66020000 		.4byte	.LVL176
 6902 08e6 0100     		.2byte	0x1
 6903 08e8 53       		.byte	0x53
 6904 08e9 F6030000 		.4byte	.LVL198
 6905 08ed 24040000 		.4byte	.LFE0
 6906 08f1 0200     		.2byte	0x2
 6907 08f3 30       		.byte	0x30
 6908 08f4 9F       		.byte	0x9f
 6909 08f5 00000000 		.4byte	0
ARM GAS  C:\Users\jon\AppData\Local\Temp\ccCLAX4y.s 			page 159


 6910 08f9 00000000 		.4byte	0
 6911              	.LLST39:
 6912 08fd 54020000 		.4byte	.LVL171
 6913 0901 58020000 		.4byte	.LVL172
 6914 0905 0100     		.2byte	0x1
 6915 0907 55       		.byte	0x55
 6916 0908 5A020000 		.4byte	.LVL173
 6917 090c 66020000 		.4byte	.LVL176
 6918 0910 0100     		.2byte	0x1
 6919 0912 55       		.byte	0x55
 6920 0913 00000000 		.4byte	0
 6921 0917 00000000 		.4byte	0
 6922              	.LLST40:
 6923 091b EA010000 		.4byte	.LVL162
 6924 091f EE010000 		.4byte	.LVL163
 6925 0923 0C00     		.2byte	0xc
 6926 0925 73       		.byte	0x73
 6927 0926 00       		.sleb128 0
 6928 0927 08       		.byte	0x8
 6929 0928 FF       		.byte	0xff
 6930 0929 1A       		.byte	0x1a
 6931 092a 33       		.byte	0x33
 6932 092b 24       		.byte	0x24
 6933 092c 71       		.byte	0x71
 6934 092d 00       		.sleb128 0
 6935 092e 22       		.byte	0x22
 6936 092f 23       		.byte	0x23
 6937 0930 14       		.uleb128 0x14
 6938 0931 EE010000 		.4byte	.LVL163
 6939 0935 F6010000 		.4byte	.LVL164
 6940 0939 0C00     		.2byte	0xc
 6941 093b 72       		.byte	0x72
 6942 093c 7F       		.sleb128 -1
 6943 093d 08       		.byte	0x8
 6944 093e FF       		.byte	0xff
 6945 093f 1A       		.byte	0x1a
 6946 0940 33       		.byte	0x33
 6947 0941 24       		.byte	0x24
 6948 0942 71       		.byte	0x71
 6949 0943 00       		.sleb128 0
 6950 0944 22       		.byte	0x22
 6951 0945 23       		.byte	0x23
 6952 0946 14       		.uleb128 0x14
 6953 0947 00000000 		.4byte	0
 6954 094b 00000000 		.4byte	0
 6955              	.LLST41:
 6956 094f 78000000 		.4byte	.LVL137
 6957 0953 C0000000 		.4byte	.LVL142
 6958 0957 0200     		.2byte	0x2
 6959 0959 30       		.byte	0x30
 6960 095a 9F       		.byte	0x9f
 6961 095b 0E030000 		.4byte	.LVL183
 6962 095f 14030000 		.4byte	.LVL184
 6963 0963 0200     		.2byte	0x2
 6964 0965 30       		.byte	0x30
 6965 0966 9F       		.byte	0x9f
 6966 0967 00000000 		.4byte	0
ARM GAS  C:\Users\jon\AppData\Local\Temp\ccCLAX4y.s 			page 160


 6967 096b 00000000 		.4byte	0
 6968              	.LLST42:
 6969 096f 94000000 		.4byte	.LVL139
 6970 0973 C0000000 		.4byte	.LVL142
 6971 0977 0100     		.2byte	0x1
 6972 0979 52       		.byte	0x52
 6973 097a 0E030000 		.4byte	.LVL183
 6974 097e 14030000 		.4byte	.LVL184
 6975 0982 0100     		.2byte	0x1
 6976 0984 52       		.byte	0x52
 6977 0985 00000000 		.4byte	0
 6978 0989 00000000 		.4byte	0
 6979              	.LLST43:
 6980 098d 9A000000 		.4byte	.LVL140
 6981 0991 9E000000 		.4byte	.LVL141
 6982 0995 1200     		.2byte	0x12
 6983 0997 73       		.byte	0x73
 6984 0998 00       		.sleb128 0
 6985 0999 08       		.byte	0x8
 6986 099a FF       		.byte	0xff
 6987 099b 1A       		.byte	0x1a
 6988 099c 33       		.byte	0x33
 6989 099d 24       		.byte	0x24
 6990 099e 71       		.byte	0x71
 6991 099f 00       		.sleb128 0
 6992 09a0 22       		.byte	0x22
 6993 09a1 23       		.byte	0x23
 6994 09a2 14       		.uleb128 0x14
 6995 09a3 06       		.byte	0x6
 6996 09a4 23       		.byte	0x23
 6997 09a5 04       		.uleb128 0x4
 6998 09a6 06       		.byte	0x6
 6999 09a7 23       		.byte	0x23
 7000 09a8 04       		.uleb128 0x4
 7001 09a9 00000000 		.4byte	0
 7002 09ad 00000000 		.4byte	0
 7003              	.LLST44:
 7004 09b1 94000000 		.4byte	.LVL139
 7005 09b5 9A000000 		.4byte	.LVL140
 7006 09b9 0100     		.2byte	0x1
 7007 09bb 53       		.byte	0x53
 7008 09bc 00000000 		.4byte	0
 7009 09c0 00000000 		.4byte	0
 7010              	.LLST45:
 7011 09c4 94000000 		.4byte	.LVL139
 7012 09c8 9A000000 		.4byte	.LVL140
 7013 09cc 0300     		.2byte	0x3
 7014 09ce 71       		.byte	0x71
 7015 09cf 10       		.sleb128 16
 7016 09d0 9F       		.byte	0x9f
 7017 09d1 00000000 		.4byte	0
 7018 09d5 00000000 		.4byte	0
 7019              	.LLST46:
 7020 09d9 04010000 		.4byte	.LVL147
 7021 09dd 54010000 		.4byte	.LVL150
 7022 09e1 0200     		.2byte	0x2
 7023 09e3 30       		.byte	0x30
ARM GAS  C:\Users\jon\AppData\Local\Temp\ccCLAX4y.s 			page 161


 7024 09e4 9F       		.byte	0x9f
 7025 09e5 E0030000 		.4byte	.LVL195
 7026 09e9 EC030000 		.4byte	.LVL196
 7027 09ed 0200     		.2byte	0x2
 7028 09ef 30       		.byte	0x30
 7029 09f0 9F       		.byte	0x9f
 7030 09f1 00000000 		.4byte	0
 7031 09f5 00000000 		.4byte	0
 7032              	.LLST47:
 7033 09f9 0A010000 		.4byte	.LVL148
 7034 09fd 2A010000 		.4byte	.LVL149
 7035 0a01 0100     		.2byte	0x1
 7036 0a03 53       		.byte	0x53
 7037 0a04 00000000 		.4byte	0
 7038 0a08 00000000 		.4byte	0
 7039              	.LLST48:
 7040 0a0c 76010000 		.4byte	.LVL152
 7041 0a10 B6010000 		.4byte	.LVL155
 7042 0a14 0200     		.2byte	0x2
 7043 0a16 30       		.byte	0x30
 7044 0a17 9F       		.byte	0x9f
 7045 0a18 00000000 		.4byte	0
 7046 0a1c 00000000 		.4byte	0
 7047              	.LLST49:
 7048 0a20 7C010000 		.4byte	.LVL153
 7049 0a24 92010000 		.4byte	.LVL154
 7050 0a28 0100     		.2byte	0x1
 7051 0a2a 53       		.byte	0x53
 7052 0a2b 00000000 		.4byte	0
 7053 0a2f 00000000 		.4byte	0
 7054              	.LLST50:
 7055 0a33 E2010000 		.4byte	.LVL161
 7056 0a37 EE010000 		.4byte	.LVL163
 7057 0a3b 0100     		.2byte	0x1
 7058 0a3d 53       		.byte	0x53
 7059 0a3e EE010000 		.4byte	.LVL163
 7060 0a42 F6010000 		.4byte	.LVL164
 7061 0a46 0300     		.2byte	0x3
 7062 0a48 72       		.byte	0x72
 7063 0a49 7F       		.sleb128 -1
 7064 0a4a 9F       		.byte	0x9f
 7065 0a4b 00000000 		.4byte	0
 7066 0a4f 00000000 		.4byte	0
 7067              	.LLST51:
 7068 0a53 E2010000 		.4byte	.LVL161
 7069 0a57 EA010000 		.4byte	.LVL162
 7070 0a5b 0300     		.2byte	0x3
 7071 0a5d 71       		.byte	0x71
 7072 0a5e 10       		.sleb128 16
 7073 0a5f 9F       		.byte	0x9f
 7074 0a60 EA010000 		.4byte	.LVL162
 7075 0a64 EE010000 		.4byte	.LVL163
 7076 0a68 0C00     		.2byte	0xc
 7077 0a6a 73       		.byte	0x73
 7078 0a6b 00       		.sleb128 0
 7079 0a6c 08       		.byte	0x8
 7080 0a6d FF       		.byte	0xff
ARM GAS  C:\Users\jon\AppData\Local\Temp\ccCLAX4y.s 			page 162


 7081 0a6e 1A       		.byte	0x1a
 7082 0a6f 33       		.byte	0x33
 7083 0a70 24       		.byte	0x24
 7084 0a71 71       		.byte	0x71
 7085 0a72 00       		.sleb128 0
 7086 0a73 22       		.byte	0x22
 7087 0a74 23       		.byte	0x23
 7088 0a75 14       		.uleb128 0x14
 7089 0a76 EE010000 		.4byte	.LVL163
 7090 0a7a F6010000 		.4byte	.LVL164
 7091 0a7e 0C00     		.2byte	0xc
 7092 0a80 72       		.byte	0x72
 7093 0a81 7F       		.sleb128 -1
 7094 0a82 08       		.byte	0x8
 7095 0a83 FF       		.byte	0xff
 7096 0a84 1A       		.byte	0x1a
 7097 0a85 33       		.byte	0x33
 7098 0a86 24       		.byte	0x24
 7099 0a87 71       		.byte	0x71
 7100 0a88 00       		.sleb128 0
 7101 0a89 22       		.byte	0x22
 7102 0a8a 23       		.byte	0x23
 7103 0a8b 14       		.uleb128 0x14
 7104 0a8c 00000000 		.4byte	0
 7105 0a90 00000000 		.4byte	0
 7106              	.LLST52:
 7107 0a94 AC030000 		.4byte	.LVL191
 7108 0a98 BE030000 		.4byte	.LVL193
 7109 0a9c 0100     		.2byte	0x1
 7110 0a9e 53       		.byte	0x53
 7111 0a9f 00000000 		.4byte	0
 7112 0aa3 00000000 		.4byte	0
 7113              	.LLST53:
 7114 0aa7 B2030000 		.4byte	.LVL192
 7115 0aab C0030000 		.4byte	.LVL194
 7116 0aaf 0300     		.2byte	0x3
 7117 0ab1 72       		.byte	0x72
 7118 0ab2 10       		.sleb128 16
 7119 0ab3 9F       		.byte	0x9f
 7120 0ab4 00000000 		.4byte	0
 7121 0ab8 00000000 		.4byte	0
 7122              	.LLST54:
 7123 0abc 00000000 		.4byte	.LVL200
 7124 0ac0 18000000 		.4byte	.LVL203
 7125 0ac4 0100     		.2byte	0x1
 7126 0ac6 50       		.byte	0x50
 7127 0ac7 18000000 		.4byte	.LVL203
 7128 0acb 24000000 		.4byte	.LFE6
 7129 0acf 0400     		.2byte	0x4
 7130 0ad1 F3       		.byte	0xf3
 7131 0ad2 01       		.uleb128 0x1
 7132 0ad3 50       		.byte	0x50
 7133 0ad4 9F       		.byte	0x9f
 7134 0ad5 00000000 		.4byte	0
 7135 0ad9 00000000 		.4byte	0
 7136              	.LLST55:
 7137 0add 0C000000 		.4byte	.LVL201
ARM GAS  C:\Users\jon\AppData\Local\Temp\ccCLAX4y.s 			page 163


 7138 0ae1 16000000 		.4byte	.LVL202
 7139 0ae5 0300     		.2byte	0x3
 7140 0ae7 73       		.byte	0x73
 7141 0ae8 10       		.sleb128 16
 7142 0ae9 9F       		.byte	0x9f
 7143 0aea 18000000 		.4byte	.LVL203
 7144 0aee 24000000 		.4byte	.LFE6
 7145 0af2 0100     		.2byte	0x1
 7146 0af4 50       		.byte	0x50
 7147 0af5 00000000 		.4byte	0
 7148 0af9 00000000 		.4byte	0
 7149              	.LLST56:
 7150 0afd 26000000 		.4byte	.LVL209
 7151 0b01 2A000000 		.4byte	.LVL210
 7152 0b05 0800     		.2byte	0x8
 7153 0b07 72       		.byte	0x72
 7154 0b08 02       		.sleb128 2
 7155 0b09 33       		.byte	0x33
 7156 0b0a 24       		.byte	0x24
 7157 0b0b 73       		.byte	0x73
 7158 0b0c 00       		.sleb128 0
 7159 0b0d 22       		.byte	0x22
 7160 0b0e 9F       		.byte	0x9f
 7161 0b0f 00000000 		.4byte	0
 7162 0b13 00000000 		.4byte	0
 7163              	.LLST57:
 7164 0b17 2C000000 		.4byte	.LVL211
 7165 0b1b 2E000000 		.4byte	.LVL212
 7166 0b1f 0100     		.2byte	0x1
 7167 0b21 50       		.byte	0x50
 7168 0b22 34000000 		.4byte	.LVL214
 7169 0b26 44000000 		.4byte	.LFE8
 7170 0b2a 0100     		.2byte	0x1
 7171 0b2c 50       		.byte	0x50
 7172 0b2d 00000000 		.4byte	0
 7173 0b31 00000000 		.4byte	0
 7174              	.LLST58:
 7175 0b35 22000000 		.4byte	.LVL208
 7176 0b39 2A000000 		.4byte	.LVL210
 7177 0b3d 0500     		.2byte	0x5
 7178 0b3f 73       		.byte	0x73
 7179 0b40 04       		.sleb128 4
 7180 0b41 06       		.byte	0x6
 7181 0b42 23       		.byte	0x23
 7182 0b43 04       		.uleb128 0x4
 7183 0b44 2A000000 		.4byte	.LVL210
 7184 0b48 2E000000 		.4byte	.LVL212
 7185 0b4c 0100     		.2byte	0x1
 7186 0b4e 52       		.byte	0x52
 7187 0b4f 00000000 		.4byte	0
 7188 0b53 00000000 		.4byte	0
 7189              	.LLST59:
 7190 0b57 14000000 		.4byte	.LVL205
 7191 0b5b 1E000000 		.4byte	.LVL206
 7192 0b5f 0100     		.2byte	0x1
 7193 0b61 53       		.byte	0x53
 7194 0b62 2E000000 		.4byte	.LVL212
ARM GAS  C:\Users\jon\AppData\Local\Temp\ccCLAX4y.s 			page 164


 7195 0b66 32000000 		.4byte	.LVL213
 7196 0b6a 0100     		.2byte	0x1
 7197 0b6c 53       		.byte	0x53
 7198 0b6d 00000000 		.4byte	0
 7199 0b71 00000000 		.4byte	0
 7200              	.LLST60:
 7201 0b75 14000000 		.4byte	.LVL205
 7202 0b79 20000000 		.4byte	.LVL207
 7203 0b7d 0300     		.2byte	0x3
 7204 0b7f 72       		.byte	0x72
 7205 0b80 10       		.sleb128 16
 7206 0b81 9F       		.byte	0x9f
 7207 0b82 2E000000 		.4byte	.LVL212
 7208 0b86 32000000 		.4byte	.LVL213
 7209 0b8a 0300     		.2byte	0x3
 7210 0b8c 72       		.byte	0x72
 7211 0b8d 10       		.sleb128 16
 7212 0b8e 9F       		.byte	0x9f
 7213 0b8f 00000000 		.4byte	0
 7214 0b93 00000000 		.4byte	0
 7215              	.LLST61:
 7216 0b97 00000000 		.4byte	.LVL215
 7217 0b9b 04000000 		.4byte	.LVL216
 7218 0b9f 0100     		.2byte	0x1
 7219 0ba1 50       		.byte	0x50
 7220 0ba2 04000000 		.4byte	.LVL216
 7221 0ba6 2A000000 		.4byte	.LVL217
 7222 0baa 0100     		.2byte	0x1
 7223 0bac 50       		.byte	0x50
 7224 0bad 00000000 		.4byte	0
 7225 0bb1 00000000 		.4byte	0
 7226              	.LLST62:
 7227 0bb5 08000000 		.4byte	.LVL219
 7228 0bb9 28000000 		.4byte	.LVL220
 7229 0bbd 0100     		.2byte	0x1
 7230 0bbf 53       		.byte	0x53
 7231 0bc0 44000000 		.4byte	.LVL221
 7232 0bc4 54000000 		.4byte	.LFE10
 7233 0bc8 0100     		.2byte	0x1
 7234 0bca 53       		.byte	0x53
 7235 0bcb 00000000 		.4byte	0
 7236 0bcf 00000000 		.4byte	0
 7237              	.LLST63:
 7238 0bd3 08000000 		.4byte	.LVL223
 7239 0bd7 2C000000 		.4byte	.LVL224
 7240 0bdb 0100     		.2byte	0x1
 7241 0bdd 53       		.byte	0x53
 7242 0bde 58000000 		.4byte	.LVL225
 7243 0be2 5C000000 		.4byte	.LVL226
 7244 0be6 0100     		.2byte	0x1
 7245 0be8 53       		.byte	0x53
 7246 0be9 00000000 		.4byte	0
 7247 0bed 00000000 		.4byte	0
 7248              	.LLST64:
 7249 0bf1 00000000 		.4byte	.LVL228
 7250 0bf5 48000000 		.4byte	.LVL232
 7251 0bf9 0200     		.2byte	0x2
ARM GAS  C:\Users\jon\AppData\Local\Temp\ccCLAX4y.s 			page 165


 7252 0bfb 30       		.byte	0x30
 7253 0bfc 9F       		.byte	0x9f
 7254 0bfd 48000000 		.4byte	.LVL232
 7255 0c01 4C000000 		.4byte	.LVL233
 7256 0c05 0200     		.2byte	0x2
 7257 0c07 31       		.byte	0x31
 7258 0c08 9F       		.byte	0x9f
 7259 0c09 4C000000 		.4byte	.LVL233
 7260 0c0d 54000000 		.4byte	.LVL234
 7261 0c11 0200     		.2byte	0x2
 7262 0c13 30       		.byte	0x30
 7263 0c14 9F       		.byte	0x9f
 7264 0c15 54000000 		.4byte	.LVL234
 7265 0c19 70000000 		.4byte	.LFE12
 7266 0c1d 0100     		.2byte	0x1
 7267 0c1f 50       		.byte	0x50
 7268 0c20 00000000 		.4byte	0
 7269 0c24 00000000 		.4byte	0
 7270              	.LLST65:
 7271 0c28 20000000 		.4byte	.LVL230
 7272 0c2c 24000000 		.4byte	.LVL231
 7273 0c30 1200     		.2byte	0x12
 7274 0c32 73       		.byte	0x73
 7275 0c33 00       		.sleb128 0
 7276 0c34 08       		.byte	0x8
 7277 0c35 FF       		.byte	0xff
 7278 0c36 1A       		.byte	0x1a
 7279 0c37 33       		.byte	0x33
 7280 0c38 24       		.byte	0x24
 7281 0c39 71       		.byte	0x71
 7282 0c3a 00       		.sleb128 0
 7283 0c3b 22       		.byte	0x22
 7284 0c3c 23       		.byte	0x23
 7285 0c3d 14       		.uleb128 0x14
 7286 0c3e 06       		.byte	0x6
 7287 0c3f 23       		.byte	0x23
 7288 0c40 04       		.uleb128 0x4
 7289 0c41 06       		.byte	0x6
 7290 0c42 23       		.byte	0x23
 7291 0c43 04       		.uleb128 0x4
 7292 0c44 00000000 		.4byte	0
 7293 0c48 00000000 		.4byte	0
 7294              	.LLST66:
 7295 0c4c 1C000000 		.4byte	.LVL229
 7296 0c50 20000000 		.4byte	.LVL230
 7297 0c54 0100     		.2byte	0x1
 7298 0c56 53       		.byte	0x53
 7299 0c57 00000000 		.4byte	0
 7300 0c5b 00000000 		.4byte	0
 7301              	.LLST67:
 7302 0c5f 1C000000 		.4byte	.LVL229
 7303 0c63 20000000 		.4byte	.LVL230
 7304 0c67 0300     		.2byte	0x3
 7305 0c69 71       		.byte	0x71
 7306 0c6a 10       		.sleb128 16
 7307 0c6b 9F       		.byte	0x9f
 7308 0c6c 00000000 		.4byte	0
ARM GAS  C:\Users\jon\AppData\Local\Temp\ccCLAX4y.s 			page 166


 7309 0c70 00000000 		.4byte	0
 7310              		.section	.debug_aranges,"",%progbits
 7311 0000 84000000 		.4byte	0x84
 7312 0004 0200     		.2byte	0x2
 7313 0006 00000000 		.4byte	.Ldebug_info0
 7314 000a 04       		.byte	0x4
 7315 000b 00       		.byte	0
 7316 000c 0000     		.2byte	0
 7317 000e 0000     		.2byte	0
 7318 0010 00000000 		.4byte	.LFB13
 7319 0014 60010000 		.4byte	.LFE13-.LFB13
 7320 0018 00000000 		.4byte	.LFB1
 7321 001c 48010000 		.4byte	.LFE1-.LFB1
 7322 0020 00000000 		.4byte	.LFB2
 7323 0024 BC020000 		.4byte	.LFE2-.LFB2
 7324 0028 00000000 		.4byte	.LFB3
 7325 002c 90000000 		.4byte	.LFE3-.LFB3
 7326 0030 00000000 		.4byte	.LFB4
 7327 0034 04060000 		.4byte	.LFE4-.LFB4
 7328 0038 00000000 		.4byte	.LFB0
 7329 003c 24040000 		.4byte	.LFE0-.LFB0
 7330 0040 00000000 		.4byte	.LFB5
 7331 0044 10000000 		.4byte	.LFE5-.LFB5
 7332 0048 00000000 		.4byte	.LFB6
 7333 004c 24000000 		.4byte	.LFE6-.LFB6
 7334 0050 00000000 		.4byte	.LFB7
 7335 0054 18000000 		.4byte	.LFE7-.LFB7
 7336 0058 00000000 		.4byte	.LFB8
 7337 005c 44000000 		.4byte	.LFE8-.LFB8
 7338 0060 00000000 		.4byte	.LFB9
 7339 0064 48000000 		.4byte	.LFE9-.LFB9
 7340 0068 00000000 		.4byte	.LFB10
 7341 006c 54000000 		.4byte	.LFE10-.LFB10
 7342 0070 00000000 		.4byte	.LFB11
 7343 0074 78000000 		.4byte	.LFE11-.LFB11
 7344 0078 00000000 		.4byte	.LFB12
 7345 007c 70000000 		.4byte	.LFE12-.LFB12
 7346 0080 00000000 		.4byte	0
 7347 0084 00000000 		.4byte	0
 7348              		.section	.debug_ranges,"",%progbits
 7349              	.Ldebug_ranges0:
 7350 0000 02000000 		.4byte	.LBB24
 7351 0004 04000000 		.4byte	.LBE24
 7352 0008 06000000 		.4byte	.LBB29
 7353 000c 0A000000 		.4byte	.LBE29
 7354 0010 0C000000 		.4byte	.LBB30
 7355 0014 12000000 		.4byte	.LBE30
 7356 0018 14000000 		.4byte	.LBB31
 7357 001c 22000000 		.4byte	.LBE31
 7358 0020 00000000 		.4byte	0
 7359 0024 00000000 		.4byte	0
 7360 0028 F2000000 		.4byte	.LBB43
 7361 002c 7C050000 		.4byte	.LBE43
 7362 0030 82050000 		.4byte	.LBB76
 7363 0034 04060000 		.4byte	.LBE76
 7364 0038 00000000 		.4byte	0
 7365 003c 00000000 		.4byte	0
ARM GAS  C:\Users\jon\AppData\Local\Temp\ccCLAX4y.s 			page 167


 7366 0040 F4000000 		.4byte	.LBB46
 7367 0044 F6000000 		.4byte	.LBE46
 7368 0048 F8000000 		.4byte	.LBB51
 7369 004c FC000000 		.4byte	.LBE51
 7370 0050 FE000000 		.4byte	.LBB52
 7371 0054 04010000 		.4byte	.LBE52
 7372 0058 06010000 		.4byte	.LBB53
 7373 005c 16010000 		.4byte	.LBE53
 7374 0060 00000000 		.4byte	0
 7375 0064 00000000 		.4byte	0
 7376 0068 40020000 		.4byte	.LBB54
 7377 006c 6E020000 		.4byte	.LBE54
 7378 0070 9A050000 		.4byte	.LBB72
 7379 0074 9E050000 		.4byte	.LBE72
 7380 0078 00000000 		.4byte	0
 7381 007c 00000000 		.4byte	0
 7382 0080 42020000 		.4byte	.LBB56
 7383 0084 44020000 		.4byte	.LBE56
 7384 0088 46020000 		.4byte	.LBB61
 7385 008c 4A020000 		.4byte	.LBE61
 7386 0090 4C020000 		.4byte	.LBB62
 7387 0094 52020000 		.4byte	.LBE62
 7388 0098 54020000 		.4byte	.LBB63
 7389 009c 62020000 		.4byte	.LBE63
 7390 00a0 00000000 		.4byte	0
 7391 00a4 00000000 		.4byte	0
 7392 00a8 96020000 		.4byte	.LBB65
 7393 00ac 98020000 		.4byte	.LBE65
 7394 00b0 A8020000 		.4byte	.LBB70
 7395 00b4 AA020000 		.4byte	.LBE70
 7396 00b8 FC020000 		.4byte	.LBB71
 7397 00bc 7C050000 		.4byte	.LBE71
 7398 00c0 A2050000 		.4byte	.LBB73
 7399 00c4 04060000 		.4byte	.LBE73
 7400 00c8 00000000 		.4byte	0
 7401 00cc 00000000 		.4byte	0
 7402 00d0 78000000 		.4byte	.LBB93
 7403 00d4 BA000000 		.4byte	.LBE93
 7404 00d8 BC000000 		.4byte	.LBB109
 7405 00dc C0000000 		.4byte	.LBE109
 7406 00e0 0E030000 		.4byte	.LBB124
 7407 00e4 14030000 		.4byte	.LBE124
 7408 00e8 00000000 		.4byte	0
 7409 00ec 00000000 		.4byte	0
 7410 00f0 7C000000 		.4byte	.LBB95
 7411 00f4 7E000000 		.4byte	.LBE95
 7412 00f8 80000000 		.4byte	.LBB102
 7413 00fc 82000000 		.4byte	.LBE102
 7414 0100 84000000 		.4byte	.LBB103
 7415 0104 86000000 		.4byte	.LBE103
 7416 0108 88000000 		.4byte	.LBB104
 7417 010c 8E000000 		.4byte	.LBE104
 7418 0110 90000000 		.4byte	.LBB105
 7419 0114 92000000 		.4byte	.LBE105
 7420 0118 94000000 		.4byte	.LBB106
 7421 011c 9E000000 		.4byte	.LBE106
 7422 0120 00000000 		.4byte	0
ARM GAS  C:\Users\jon\AppData\Local\Temp\ccCLAX4y.s 			page 168


 7423 0124 00000000 		.4byte	0
 7424 0128 D8000000 		.4byte	.LBB110
 7425 012c E0000000 		.4byte	.LBE110
 7426 0130 14030000 		.4byte	.LBB125
 7427 0134 1A030000 		.4byte	.LBE125
 7428 0138 00000000 		.4byte	0
 7429 013c 00000000 		.4byte	0
 7430 0140 04010000 		.4byte	.LBB113
 7431 0144 54010000 		.4byte	.LBE113
 7432 0148 E0030000 		.4byte	.LBB136
 7433 014c EC030000 		.4byte	.LBE136
 7434 0150 00000000 		.4byte	0
 7435 0154 00000000 		.4byte	0
 7436 0158 D2010000 		.4byte	.LBB118
 7437 015c D8010000 		.4byte	.LBE118
 7438 0160 DA010000 		.4byte	.LBB122
 7439 0164 E0010000 		.4byte	.LBE122
 7440 0168 E2010000 		.4byte	.LBB123
 7441 016c EE010000 		.4byte	.LBE123
 7442 0170 00000000 		.4byte	0
 7443 0174 00000000 		.4byte	0
 7444 0178 46030000 		.4byte	.LBB126
 7445 017c 4C030000 		.4byte	.LBE126
 7446 0180 4E030000 		.4byte	.LBB129
 7447 0184 52030000 		.4byte	.LBE129
 7448 0188 00000000 		.4byte	0
 7449 018c 00000000 		.4byte	0
 7450 0190 A2030000 		.4byte	.LBB130
 7451 0194 A4030000 		.4byte	.LBE130
 7452 0198 A6030000 		.4byte	.LBB134
 7453 019c AA030000 		.4byte	.LBE134
 7454 01a0 AC030000 		.4byte	.LBB135
 7455 01a4 C0030000 		.4byte	.LBE135
 7456 01a8 00000000 		.4byte	0
 7457 01ac 00000000 		.4byte	0
 7458 01b0 02000000 		.4byte	.LBB137
 7459 01b4 04000000 		.4byte	.LBE137
 7460 01b8 06000000 		.4byte	.LBB142
 7461 01bc 0A000000 		.4byte	.LBE142
 7462 01c0 0C000000 		.4byte	.LBB143
 7463 01c4 12000000 		.4byte	.LBE143
 7464 01c8 14000000 		.4byte	.LBB144
 7465 01cc 20000000 		.4byte	.LBE144
 7466 01d0 00000000 		.4byte	0
 7467 01d4 00000000 		.4byte	0
 7468 01d8 06000000 		.4byte	.LBB145
 7469 01dc 08000000 		.4byte	.LBE145
 7470 01e0 0A000000 		.4byte	.LBB151
 7471 01e4 0C000000 		.4byte	.LBE151
 7472 01e8 0E000000 		.4byte	.LBB152
 7473 01ec 10000000 		.4byte	.LBE152
 7474 01f0 12000000 		.4byte	.LBB153
 7475 01f4 18000000 		.4byte	.LBE153
 7476 01f8 1A000000 		.4byte	.LBB154
 7477 01fc 24000000 		.4byte	.LBE154
 7478 0200 00000000 		.4byte	0
 7479 0204 00000000 		.4byte	0
ARM GAS  C:\Users\jon\AppData\Local\Temp\ccCLAX4y.s 			page 169


 7480 0208 00000000 		.4byte	.LFB13
 7481 020c 60010000 		.4byte	.LFE13
 7482 0210 00000000 		.4byte	.LFB1
 7483 0214 48010000 		.4byte	.LFE1
 7484 0218 00000000 		.4byte	.LFB2
 7485 021c BC020000 		.4byte	.LFE2
 7486 0220 00000000 		.4byte	.LFB3
 7487 0224 90000000 		.4byte	.LFE3
 7488 0228 00000000 		.4byte	.LFB4
 7489 022c 04060000 		.4byte	.LFE4
 7490 0230 00000000 		.4byte	.LFB0
 7491 0234 24040000 		.4byte	.LFE0
 7492 0238 00000000 		.4byte	.LFB5
 7493 023c 10000000 		.4byte	.LFE5
 7494 0240 00000000 		.4byte	.LFB6
 7495 0244 24000000 		.4byte	.LFE6
 7496 0248 00000000 		.4byte	.LFB7
 7497 024c 18000000 		.4byte	.LFE7
 7498 0250 00000000 		.4byte	.LFB8
 7499 0254 44000000 		.4byte	.LFE8
 7500 0258 00000000 		.4byte	.LFB9
 7501 025c 48000000 		.4byte	.LFE9
 7502 0260 00000000 		.4byte	.LFB10
 7503 0264 54000000 		.4byte	.LFE10
 7504 0268 00000000 		.4byte	.LFB11
 7505 026c 78000000 		.4byte	.LFE11
 7506 0270 00000000 		.4byte	.LFB12
 7507 0274 70000000 		.4byte	.LFE12
 7508 0278 00000000 		.4byte	0
 7509 027c 00000000 		.4byte	0
 7510              		.section	.debug_line,"",%progbits
 7511              	.Ldebug_line0:
 7512 0000 32080000 		.section	.debug_str,"MS",%progbits,1
 7512      02007700 
 7512      00000201 
 7512      FB0E0D00 
 7512      01010101 
 7513              	.LASF56:
 7514 0000 72774472 		.ascii	"rwDr\000"
 7514      00
 7515              	.LASF100:
 7516 0005 55534255 		.ascii	"USBUART_1_DEVICE0_DESCR\000"
 7516      4152545F 
 7516      315F4445 
 7516      56494345 
 7516      305F4445 
 7517              	.LASF26:
 7518 001d 62756666 		.ascii	"bufferSize\000"
 7518      65725369 
 7518      7A6500
 7519              	.LASF87:
 7520 0028 636F6E66 		.ascii	"configurationN\000"
 7520      69677572 
 7520      6174696F 
 7520      6E4E00
 7521              	.LASF58:
 7522 0037 73696545 		.ascii	"sieEp\000"
ARM GAS  C:\Users\jon\AppData\Local\Temp\ccCLAX4y.s 			page 170


 7522      7000
 7523              	.LASF101:
 7524 003d 55534255 		.ascii	"USBUART_1_TABLE\000"
 7524      4152545F 
 7524      315F5441 
 7524      424C4500 
 7525              	.LASF27:
 7526 004d 696E7465 		.ascii	"interface\000"
 7526      72666163 
 7526      6500
 7527              	.LASF114:
 7528 0057 55534255 		.ascii	"USBUART_1_InitNoDataControlTransfer\000"
 7528      4152545F 
 7528      315F496E 
 7528      69744E6F 
 7528      44617461 
 7529              	.LASF8:
 7530 007b 756E7369 		.ascii	"unsigned int\000"
 7530      676E6564 
 7530      20696E74 
 7530      00
 7531              	.LASF86:
 7532 0088 696E7465 		.ascii	"interfaceNumber\000"
 7532      72666163 
 7532      654E756D 
 7532      62657200 
 7533              	.LASF88:
 7534 0098 626D5265 		.ascii	"bmRequestType\000"
 7534      71756573 
 7534      74547970 
 7534      6500
 7535              	.LASF16:
 7536 00a6 72656738 		.ascii	"reg8\000"
 7536      00
 7537              	.LASF70:
 7538 00ab 70446573 		.ascii	"pDescr\000"
 7538      637200
 7539              	.LASF105:
 7540 00b2 55534255 		.ascii	"USBUART_1_interfaceSetting\000"
 7540      4152545F 
 7540      315F696E 
 7540      74657266 
 7540      61636553 
 7541              	.LASF115:
 7542 00cd 55534255 		.ascii	"USBUART_1_InitControlRead\000"
 7542      4152545F 
 7542      315F496E 
 7542      6974436F 
 7542      6E74726F 
 7543              	.LASF29:
 7544 00e7 616C7453 		.ascii	"altSetting\000"
 7544      65747469 
 7544      6E6700
 7545              	.LASF81:
 7546 00f2 55534255 		.ascii	"USBUART_1_ValidateAlternateSetting\000"
 7546      4152545F 
 7546      315F5661 
ARM GAS  C:\Users\jon\AppData\Local\Temp\ccCLAX4y.s 			page 171


 7546      6C696461 
 7546      7465416C 
 7547              	.LASF22:
 7548 0115 6570546F 		.ascii	"epToggle\000"
 7548      67676C65 
 7548      00
 7549              	.LASF77:
 7550 011e 55534255 		.ascii	"USBUART_1_GetConfigTablePtr\000"
 7550      4152545F 
 7550      315F4765 
 7550      74436F6E 
 7550      66696754 
 7551              	.LASF12:
 7552 013a 666C6F61 		.ascii	"float\000"
 7552      7400
 7553              	.LASF78:
 7554 0140 55534255 		.ascii	"USBUART_1_GetInterfaceClassTablePtr\000"
 7554      4152545F 
 7554      315F4765 
 7554      74496E74 
 7554      65726661 
 7555              	.LASF28:
 7556 0164 545F5553 		.ascii	"T_USBUART_1_EP_CTL_BLOCK\000"
 7556      42554152 
 7556      545F315F 
 7556      45505F43 
 7556      544C5F42 
 7557              	.LASF117:
 7558 017d 474E5520 		.ascii	"GNU C11 5.4.1 20160609 (release) [ARM/embedded-5-br"
 7558      43313120 
 7558      352E342E 
 7558      31203230 
 7558      31363036 
 7559 01b0 616E6368 		.ascii	"anch revision 237715] -mcpu=cortex-m3 -mthumb -g -O"
 7559      20726576 
 7559      6973696F 
 7559      6E203233 
 7559      37373135 
 7560 01e3 33202D66 		.ascii	"3 -ffunction-sections -ffat-lto-objects\000"
 7560      66756E63 
 7560      74696F6E 
 7560      2D736563 
 7560      74696F6E 
 7561              	.LASF52:
 7562 020b 72775761 		.ascii	"rwWa\000"
 7562      00
 7563              	.LASF108:
 7564 0210 55534255 		.ascii	"USBUART_1_interfaceStatus\000"
 7564      4152545F 
 7564      315F696E 
 7564      74657266 
 7564      61636553 
 7565              	.LASF7:
 7566 022a 6C6F6E67 		.ascii	"long long unsigned int\000"
 7566      206C6F6E 
 7566      6720756E 
 7566      7369676E 
ARM GAS  C:\Users\jon\AppData\Local\Temp\ccCLAX4y.s 			page 172


 7566      65642069 
 7567              	.LASF66:
 7568 0241 55534255 		.ascii	"USBUART_1_ConfigAltChanged\000"
 7568      4152545F 
 7568      315F436F 
 7568      6E666967 
 7568      416C7443 
 7569              	.LASF113:
 7570 025c 55534255 		.ascii	"USBUART_1_Cdc_EpInit\000"
 7570      4152545F 
 7570      315F4364 
 7570      635F4570 
 7570      496E6974 
 7571              	.LASF96:
 7572 0271 55534255 		.ascii	"USBUART_1_device\000"
 7572      4152545F 
 7572      315F6465 
 7572      76696365 
 7572      00
 7573              	.LASF83:
 7574 0282 63757249 		.ascii	"curInterfacesNum\000"
 7574      6E746572 
 7574      66616365 
 7574      734E756D 
 7574      00
 7575              	.LASF76:
 7576 0293 55534255 		.ascii	"USBUART_1_EpStateInit\000"
 7576      4152545F 
 7576      315F4570 
 7576      53746174 
 7576      65496E69 
 7577              	.LASF61:
 7578 02a9 55534255 		.ascii	"USBUART_1_arb_eps_struct\000"
 7578      4152545F 
 7578      315F6172 
 7578      625F6570 
 7578      735F7374 
 7579              	.LASF98:
 7580 02c2 55534255 		.ascii	"USBUART_1_configurationChanged\000"
 7580      4152545F 
 7580      315F636F 
 7580      6E666967 
 7580      75726174 
 7581              	.LASF49:
 7582 02e1 6570496E 		.ascii	"epIntEn\000"
 7582      74456E00 
 7583              	.LASF68:
 7584 02e9 636F6E66 		.ascii	"confIndex\000"
 7584      496E6465 
 7584      7800
 7585              	.LASF80:
 7586 02f3 63757272 		.ascii	"currentInterfacesNum\000"
 7586      656E7449 
 7586      6E746572 
 7586      66616365 
 7586      734E756D 
 7587              	.LASF37:
ARM GAS  C:\Users\jon\AppData\Local\Temp\ccCLAX4y.s 			page 173


 7588 0308 70446174 		.ascii	"pData\000"
 7588      6100
 7589              	.LASF85:
 7590 030e 55534255 		.ascii	"USBUART_1_SetEndpointHalt\000"
 7590      4152545F 
 7590      315F5365 
 7590      74456E64 
 7590      706F696E 
 7591              	.LASF110:
 7592 0328 55534255 		.ascii	"USBUART_1_EP\000"
 7592      4152545F 
 7592      315F4550 
 7592      00
 7593              	.LASF38:
 7594 0335 70537461 		.ascii	"pStatusBlock\000"
 7594      74757342 
 7594      6C6F636B 
 7594      00
 7595              	.LASF36:
 7596 0342 636F756E 		.ascii	"count\000"
 7596      7400
 7597              	.LASF15:
 7598 0348 63686172 		.ascii	"char\000"
 7598      00
 7599              	.LASF32:
 7600 034d 545F5553 		.ascii	"T_USBUART_1_EP_SETTINGS_BLOCK\000"
 7600      42554152 
 7600      545F315F 
 7600      45505F53 
 7600      45545449 
 7601              	.LASF60:
 7602 036b 61726245 		.ascii	"arbEp\000"
 7602      7000
 7603              	.LASF121:
 7604 0371 55534255 		.ascii	"USBUART_1_HandleStandardRqst\000"
 7604      4152545F 
 7604      315F4861 
 7604      6E646C65 
 7604      5374616E 
 7605              	.LASF10:
 7606 038e 75696E74 		.ascii	"uint16\000"
 7606      313600
 7607              	.LASF107:
 7608 0395 55534255 		.ascii	"USBUART_1_deviceAddress\000"
 7608      4152545F 
 7608      315F6465 
 7608      76696365 
 7608      41646472 
 7609              	.LASF33:
 7610 03ad 73746174 		.ascii	"status\000"
 7610      757300
 7611              	.LASF43:
 7612 03b4 55534255 		.ascii	"USBUART_1_ep0_data_struct\000"
 7612      4152545F 
 7612      315F6570 
 7612      305F6461 
 7612      74615F73 
ARM GAS  C:\Users\jon\AppData\Local\Temp\ccCLAX4y.s 			page 174


 7613              	.LASF14:
 7614 03ce 63686172 		.ascii	"char8\000"
 7614      3800
 7615              	.LASF93:
 7616 03d4 55534255 		.ascii	"USBUART_1_TerminateEP\000"
 7616      4152545F 
 7616      315F5465 
 7616      726D696E 
 7616      61746545 
 7617              	.LASF25:
 7618 03ea 62756666 		.ascii	"buffOffset\000"
 7618      4F666673 
 7618      657400
 7619              	.LASF46:
 7620 03f5 65704372 		.ascii	"epCr0\000"
 7620      3000
 7621              	.LASF67:
 7622 03fb 55534255 		.ascii	"USBUART_1_Config\000"
 7622      4152545F 
 7622      315F436F 
 7622      6E666967 
 7622      00
 7623              	.LASF64:
 7624 040c 65705479 		.ascii	"epType\000"
 7624      706500
 7625              	.LASF75:
 7626 0413 55534255 		.ascii	"USBUART_1_ReadDieID\000"
 7626      4152545F 
 7626      315F5265 
 7626      61644469 
 7626      65494400 
 7627              	.LASF82:
 7628 0427 72657175 		.ascii	"requestHandled\000"
 7628      65737448 
 7628      616E646C 
 7628      656400
 7629              	.LASF6:
 7630 0436 6C6F6E67 		.ascii	"long long int\000"
 7630      206C6F6E 
 7630      6720696E 
 7630      7400
 7631              	.LASF74:
 7632 0444 55534255 		.ascii	"USBUART_1_ConfigReg\000"
 7632      4152545F 
 7632      315F436F 
 7632      6E666967 
 7632      52656700 
 7633              	.LASF31:
 7634 0458 624D6973 		.ascii	"bMisc\000"
 7634      6300
 7635              	.LASF44:
 7636 045e 6570436E 		.ascii	"epCnt0\000"
 7636      743000
 7637              	.LASF45:
 7638 0465 6570436E 		.ascii	"epCnt1\000"
 7638      743100
 7639              	.LASF95:
ARM GAS  C:\Users\jon\AppData\Local\Temp\ccCLAX4y.s 			page 175


 7640 046c 65704E75 		.ascii	"epNumber\000"
 7640      6D626572 
 7640      00
 7641              	.LASF41:
 7642 0475 545F5553 		.ascii	"T_USBUART_1_LUT\000"
 7642      42554152 
 7642      545F315F 
 7642      4C555400 
 7643              	.LASF84:
 7644 0485 55534255 		.ascii	"USBUART_1_ClearEndpointHalt\000"
 7644      4152545F 
 7644      315F436C 
 7644      65617245 
 7644      6E64706F 
 7645              	.LASF35:
 7646 04a1 545F5553 		.ascii	"T_USBUART_1_XFER_STATUS_BLOCK\000"
 7646      42554152 
 7646      545F315F 
 7646      58464552 
 7646      5F535441 
 7647              	.LASF92:
 7648 04bf 55534255 		.ascii	"USBUART_1_tBuffer\000"
 7648      4152545F 
 7648      315F7442 
 7648      75666665 
 7648      7200
 7649              	.LASF21:
 7650 04d1 68774570 		.ascii	"hwEpState\000"
 7650      53746174 
 7650      6500
 7651              	.LASF72:
 7652 04db 63646343 		.ascii	"cdcComNums\000"
 7652      6F6D4E75 
 7652      6D7300
 7653              	.LASF120:
 7654 04e6 55534255 		.ascii	"USBUART_1_GetDeviceTablePtr\000"
 7654      4152545F 
 7654      315F4765 
 7654      74446576 
 7654      69636554 
 7655              	.LASF11:
 7656 0502 75696E74 		.ascii	"uint32\000"
 7656      333200
 7657              	.LASF79:
 7658 0509 70496E74 		.ascii	"pInterfaceClass\000"
 7658      65726661 
 7658      6365436C 
 7658      61737300 
 7659              	.LASF94:
 7660 0519 64657363 		.ascii	"descr\000"
 7660      7200
 7661              	.LASF59:
 7662 051f 55534255 		.ascii	"USBUART_1_sie_eps_struct\000"
 7662      4152545F 
 7662      315F7369 
 7662      655F6570 
 7662      735F7374 
ARM GAS  C:\Users\jon\AppData\Local\Temp\ccCLAX4y.s 			page 176


 7663              	.LASF97:
 7664 0538 55534255 		.ascii	"USBUART_1_configuration\000"
 7664      4152545F 
 7664      315F636F 
 7664      6E666967 
 7664      75726174 
 7665              	.LASF116:
 7666 0550 55534255 		.ascii	"USBUART_1_DispatchClassRqst\000"
 7666      4152545F 
 7666      315F4469 
 7666      73706174 
 7666      6368436C 
 7667              	.LASF17:
 7668 056c 6C6F6E67 		.ascii	"long double\000"
 7668      20646F75 
 7668      626C6500 
 7669              	.LASF109:
 7670 0578 55534255 		.ascii	"USBUART_1_interfaceClass\000"
 7670      4152545F 
 7670      315F696E 
 7670      74657266 
 7670      61636543 
 7671              	.LASF104:
 7672 0591 55534255 		.ascii	"USBUART_1_interfaceNumber\000"
 7672      4152545F 
 7672      315F696E 
 7672      74657266 
 7672      6163654E 
 7673              	.LASF71:
 7674 05ab 62756666 		.ascii	"buffCount\000"
 7674      436F756E 
 7674      7400
 7675              	.LASF2:
 7676 05b5 73686F72 		.ascii	"short int\000"
 7676      7420696E 
 7676      7400
 7677              	.LASF24:
 7678 05bf 65704D6F 		.ascii	"epMode\000"
 7678      646500
 7679              	.LASF4:
 7680 05c6 6C6F6E67 		.ascii	"long int\000"
 7680      20696E74 
 7680      00
 7681              	.LASF34:
 7682 05cf 6C656E67 		.ascii	"length\000"
 7682      746800
 7683              	.LASF55:
 7684 05d6 72775261 		.ascii	"rwRaMsb\000"
 7684      4D736200 
 7685              	.LASF57:
 7686 05de 55534255 		.ascii	"USBUART_1_arb_ep_struct\000"
 7686      4152545F 
 7686      315F6172 
 7686      625F6570 
 7686      5F737472 
 7687              	.LASF99:
 7688 05f6 55534255 		.ascii	"USBUART_1_deviceStatus\000"
ARM GAS  C:\Users\jon\AppData\Local\Temp\ccCLAX4y.s 			page 177


 7688      4152545F 
 7688      315F6465 
 7688      76696365 
 7688      53746174 
 7689              	.LASF48:
 7690 060d 65704366 		.ascii	"epCfg\000"
 7690      6700
 7691              	.LASF106:
 7692 0613 55534255 		.ascii	"USBUART_1_interfaceSettingLast\000"
 7692      4152545F 
 7692      315F696E 
 7692      74657266 
 7692      61636553 
 7693              	.LASF62:
 7694 0632 70546D70 		.ascii	"pTmp\000"
 7694      00
 7695              	.LASF18:
 7696 0637 73697A65 		.ascii	"sizetype\000"
 7696      74797065 
 7696      00
 7697              	.LASF5:
 7698 0640 6C6F6E67 		.ascii	"long unsigned int\000"
 7698      20756E73 
 7698      69676E65 
 7698      6420696E 
 7698      7400
 7699              	.LASF63:
 7700 0652 63757245 		.ascii	"curEp\000"
 7700      7000
 7701              	.LASF90:
 7702 0658 6E537472 		.ascii	"nStr\000"
 7702      00
 7703              	.LASF111:
 7704 065d 55534255 		.ascii	"USBUART_1_currentTD\000"
 7704      4152545F 
 7704      315F6375 
 7704      7272656E 
 7704      74544400 
 7705              	.LASF119:
 7706 0671 433A5C55 		.ascii	"C:\\Users\\jon\\Sync\\Research\\PSoC Projects\\Cont"
 7706      73657273 
 7706      5C6A6F6E 
 7706      5C53796E 
 7706      635C5265 
 7707 069e 726F6C6C 		.ascii	"roller.cydsn\000"
 7707      65722E63 
 7707      7964736E 
 7707      00
 7708              	.LASF50:
 7709 06ab 65705372 		.ascii	"epSr\000"
 7709      00
 7710              	.LASF40:
 7711 06b0 705F6C69 		.ascii	"p_list\000"
 7711      737400
 7712              	.LASF89:
 7713 06b7 70537472 		.ascii	"pStr\000"
 7713      00
ARM GAS  C:\Users\jon\AppData\Local\Temp\ccCLAX4y.s 			page 178


 7714              	.LASF53:
 7715 06bc 72775761 		.ascii	"rwWaMsb\000"
 7715      4D736200 
 7716              	.LASF1:
 7717 06c4 756E7369 		.ascii	"unsigned char\000"
 7717      676E6564 
 7717      20636861 
 7717      7200
 7718              	.LASF112:
 7719 06d2 43794765 		.ascii	"CyGetUniqueId\000"
 7719      74556E69 
 7719      71756549 
 7719      6400
 7720              	.LASF91:
 7721 06e0 64657363 		.ascii	"descrLength\000"
 7721      724C656E 
 7721      67746800 
 7722              	.LASF69:
 7723 06ec 636C6561 		.ascii	"clearAltSetting\000"
 7723      72416C74 
 7723      53657474 
 7723      696E6700 
 7724              	.LASF30:
 7725 06fc 61747472 		.ascii	"attributes\000"
 7725      69627574 
 7725      657300
 7726              	.LASF23:
 7727 0707 61646472 		.ascii	"addr\000"
 7727      00
 7728              	.LASF103:
 7729 070c 55534255 		.ascii	"USBUART_1_idSerialNumberStringDescriptor\000"
 7729      4152545F 
 7729      315F6964 
 7729      53657269 
 7729      616C4E75 
 7730              	.LASF102:
 7731 0735 55534255 		.ascii	"USBUART_1_STRING_DESCRIPTORS\000"
 7731      4152545F 
 7731      315F5354 
 7731      52494E47 
 7731      5F444553 
 7732              	.LASF39:
 7733 0752 545F5553 		.ascii	"T_USBUART_1_TD\000"
 7733      42554152 
 7733      545F315F 
 7733      544400
 7734              	.LASF54:
 7735 0761 72775261 		.ascii	"rwRa\000"
 7735      00
 7736              	.LASF0:
 7737 0766 7369676E 		.ascii	"signed char\000"
 7737      65642063 
 7737      68617200 
 7738              	.LASF47:
 7739 0772 55534255 		.ascii	"USBUART_1_sie_ep_struct\000"
 7739      4152545F 
 7739      315F7369 
ARM GAS  C:\Users\jon\AppData\Local\Temp\ccCLAX4y.s 			page 179


 7739      655F6570 
 7739      5F737472 
 7740              	.LASF3:
 7741 078a 73686F72 		.ascii	"short unsigned int\000"
 7741      7420756E 
 7741      7369676E 
 7741      65642069 
 7741      6E7400
 7742              	.LASF73:
 7743 079d 756E6971 		.ascii	"uniqueId\000"
 7743      75654964 
 7743      00
 7744              	.LASF51:
 7745 07a6 72657365 		.ascii	"reserved\000"
 7745      72766564 
 7745      00
 7746              	.LASF9:
 7747 07af 75696E74 		.ascii	"uint8\000"
 7747      3800
 7748              	.LASF13:
 7749 07b5 646F7562 		.ascii	"double\000"
 7749      6C6500
 7750              	.LASF65:
 7751 07bc 696E7465 		.ascii	"interfaceNum\000"
 7751      72666163 
 7751      654E756D 
 7751      00
 7752              	.LASF118:
 7753 07c9 47656E65 		.ascii	"Generated_Source\\PSoC5\\USBUART_1_std.c\000"
 7753      72617465 
 7753      645F536F 
 7753      75726365 
 7753      5C50536F 
 7754              	.LASF19:
 7755 07f0 61747472 		.ascii	"attrib\000"
 7755      696200
 7756              	.LASF20:
 7757 07f7 61706945 		.ascii	"apiEpState\000"
 7757      70537461 
 7757      746500
 7758              	.LASF42:
 7759 0802 65704461 		.ascii	"epData\000"
 7759      746100
 7760              		.ident	"GCC: (GNU Tools for ARM Embedded Processors) 5.4.1 20160609 (release) [ARM/embedded-5-bran
