ARM GAS  C:\Users\jon\AppData\Local\Temp\ccCLAX4y.s 			page 1


   1              		.syntax unified
   2              		.cpu cortex-m3
   3              		.fpu softvfp
   4              		.eabi_attribute 20, 1
   5              		.eabi_attribute 21, 1
   6              		.eabi_attribute 23, 3
   7              		.eabi_attribute 24, 1
   8              		.eabi_attribute 25, 1
   9              		.eabi_attribute 26, 1
  10              		.eabi_attribute 30, 2
  11              		.eabi_attribute 34, 1
  12              		.eabi_attribute 18, 4
  13              		.thumb
  14              		.syntax unified
  15              		.file	"USBUART_1_std.c"
  16              		.text
  17              	.Ltext0:
  18              		.cfi_sections	.debug_frame
  19              		.section	.text.USBUART_1_ConfigAltChanged.part.0,"ax",%progbits
  20              		.align	2
  21              		.thumb
  22              		.thumb_func
  23              		.type	USBUART_1_ConfigAltChanged.part.0, %function
  24              	USBUART_1_ConfigAltChanged.part.0:
  25              	.LFB13:
  26              		.file 1 "Generated_Source\\PSoC5\\USBUART_1_std.c"
   1:Generated_Source\PSoC5/USBUART_1_std.c **** /***************************************************************************//**
   2:Generated_Source\PSoC5/USBUART_1_std.c **** * \file USBUART_1_std.c
   3:Generated_Source\PSoC5/USBUART_1_std.c **** * \version 3.20
   4:Generated_Source\PSoC5/USBUART_1_std.c **** *
   5:Generated_Source\PSoC5/USBUART_1_std.c **** * \brief
   6:Generated_Source\PSoC5/USBUART_1_std.c **** *  This file contains the USB Standard request handler.
   7:Generated_Source\PSoC5/USBUART_1_std.c **** *
   8:Generated_Source\PSoC5/USBUART_1_std.c **** ********************************************************************************
   9:Generated_Source\PSoC5/USBUART_1_std.c **** * \copyright
  10:Generated_Source\PSoC5/USBUART_1_std.c **** * Copyright 2008-2016, Cypress Semiconductor Corporation.  All rights reserved.
  11:Generated_Source\PSoC5/USBUART_1_std.c **** * You may use this file only in accordance with the license, terms, conditions,
  12:Generated_Source\PSoC5/USBUART_1_std.c **** * disclaimers, and limitations in the end user license agreement accompanying
  13:Generated_Source\PSoC5/USBUART_1_std.c **** * the software package with which this file was provided.
  14:Generated_Source\PSoC5/USBUART_1_std.c **** *******************************************************************************/
  15:Generated_Source\PSoC5/USBUART_1_std.c **** 
  16:Generated_Source\PSoC5/USBUART_1_std.c **** #include "USBUART_1_pvt.h"
  17:Generated_Source\PSoC5/USBUART_1_std.c **** 
  18:Generated_Source\PSoC5/USBUART_1_std.c **** /***************************************
  19:Generated_Source\PSoC5/USBUART_1_std.c **** *   Static data allocation
  20:Generated_Source\PSoC5/USBUART_1_std.c **** ***************************************/
  21:Generated_Source\PSoC5/USBUART_1_std.c **** 
  22:Generated_Source\PSoC5/USBUART_1_std.c **** #if defined(USBUART_1_ENABLE_FWSN_STRING)
  23:Generated_Source\PSoC5/USBUART_1_std.c ****     static volatile uint8* USBUART_1_fwSerialNumberStringDescriptor;
  24:Generated_Source\PSoC5/USBUART_1_std.c ****     static volatile uint8  USBUART_1_snStringConfirm = USBUART_1_FALSE;
  25:Generated_Source\PSoC5/USBUART_1_std.c **** #endif  /* (USBUART_1_ENABLE_FWSN_STRING) */
  26:Generated_Source\PSoC5/USBUART_1_std.c **** 
  27:Generated_Source\PSoC5/USBUART_1_std.c **** #if defined(USBUART_1_ENABLE_FWSN_STRING)
  28:Generated_Source\PSoC5/USBUART_1_std.c ****     /***************************************************************************
  29:Generated_Source\PSoC5/USBUART_1_std.c ****     * Function Name: USBUART_1_SerialNumString
  30:Generated_Source\PSoC5/USBUART_1_std.c ****     ************************************************************************//**
  31:Generated_Source\PSoC5/USBUART_1_std.c ****     *
ARM GAS  C:\Users\jon\AppData\Local\Temp\ccCLAX4y.s 			page 2


  32:Generated_Source\PSoC5/USBUART_1_std.c ****     *  This function is available only when the User Call Back option in the 
  33:Generated_Source\PSoC5/USBUART_1_std.c ****     *  Serial Number String descriptor properties is selected. Application 
  34:Generated_Source\PSoC5/USBUART_1_std.c ****     *  firmware can provide the source of the USB device serial number string 
  35:Generated_Source\PSoC5/USBUART_1_std.c ****     *  descriptor during run time. The default string is used if the application 
  36:Generated_Source\PSoC5/USBUART_1_std.c ****     *  firmware does not use this function or sets the wrong string descriptor.
  37:Generated_Source\PSoC5/USBUART_1_std.c ****     *
  38:Generated_Source\PSoC5/USBUART_1_std.c ****     *  \param snString:  Pointer to the user-defined string descriptor. The 
  39:Generated_Source\PSoC5/USBUART_1_std.c ****     *  string descriptor should meet the Universal Serial Bus Specification 
  40:Generated_Source\PSoC5/USBUART_1_std.c ****     *  revision 2.0 chapter 9.6.7
  41:Generated_Source\PSoC5/USBUART_1_std.c ****     *  Offset|Size|Value|Description
  42:Generated_Source\PSoC5/USBUART_1_std.c ****     *  ------|----|------|---------------------------------
  43:Generated_Source\PSoC5/USBUART_1_std.c ****     *  0     |1   |N     |Size of this descriptor in bytes
  44:Generated_Source\PSoC5/USBUART_1_std.c ****     *  1     |1   |0x03  |STRING Descriptor Type
  45:Generated_Source\PSoC5/USBUART_1_std.c ****     *  2     |N-2 |Number|UNICODE encoded string
  46:Generated_Source\PSoC5/USBUART_1_std.c ****     *  
  47:Generated_Source\PSoC5/USBUART_1_std.c ****     * *For example:* uint8 snString[16]={0x0E,0x03,'F',0,'W',0,'S',0,'N',0,'0',0,'1',0};
  48:Generated_Source\PSoC5/USBUART_1_std.c ****     *
  49:Generated_Source\PSoC5/USBUART_1_std.c ****     * \reentrant
  50:Generated_Source\PSoC5/USBUART_1_std.c ****     *  No.
  51:Generated_Source\PSoC5/USBUART_1_std.c ****     *
  52:Generated_Source\PSoC5/USBUART_1_std.c ****     ***************************************************************************/
  53:Generated_Source\PSoC5/USBUART_1_std.c ****     void  USBUART_1_SerialNumString(uint8 snString[]) 
  54:Generated_Source\PSoC5/USBUART_1_std.c ****     {
  55:Generated_Source\PSoC5/USBUART_1_std.c ****         USBUART_1_snStringConfirm = USBUART_1_FALSE;
  56:Generated_Source\PSoC5/USBUART_1_std.c ****         
  57:Generated_Source\PSoC5/USBUART_1_std.c ****         if (snString != NULL)
  58:Generated_Source\PSoC5/USBUART_1_std.c ****         {
  59:Generated_Source\PSoC5/USBUART_1_std.c ****             /* Check descriptor validation */
  60:Generated_Source\PSoC5/USBUART_1_std.c ****             if ((snString[0u] > 1u) && (snString[1u] == USBUART_1_DESCR_STRING))
  61:Generated_Source\PSoC5/USBUART_1_std.c ****             {
  62:Generated_Source\PSoC5/USBUART_1_std.c ****                 USBUART_1_fwSerialNumberStringDescriptor = snString;
  63:Generated_Source\PSoC5/USBUART_1_std.c ****                 USBUART_1_snStringConfirm = USBUART_1_TRUE;
  64:Generated_Source\PSoC5/USBUART_1_std.c ****             }
  65:Generated_Source\PSoC5/USBUART_1_std.c ****         }
  66:Generated_Source\PSoC5/USBUART_1_std.c ****     }
  67:Generated_Source\PSoC5/USBUART_1_std.c **** #endif  /* USBUART_1_ENABLE_FWSN_STRING */
  68:Generated_Source\PSoC5/USBUART_1_std.c **** 
  69:Generated_Source\PSoC5/USBUART_1_std.c **** 
  70:Generated_Source\PSoC5/USBUART_1_std.c **** /*******************************************************************************
  71:Generated_Source\PSoC5/USBUART_1_std.c **** * Function Name: USBUART_1_HandleStandardRqst
  72:Generated_Source\PSoC5/USBUART_1_std.c **** ****************************************************************************//**
  73:Generated_Source\PSoC5/USBUART_1_std.c **** *
  74:Generated_Source\PSoC5/USBUART_1_std.c **** *  This Routine dispatches standard requests
  75:Generated_Source\PSoC5/USBUART_1_std.c **** *
  76:Generated_Source\PSoC5/USBUART_1_std.c **** *
  77:Generated_Source\PSoC5/USBUART_1_std.c **** * \return
  78:Generated_Source\PSoC5/USBUART_1_std.c **** *  TRUE if request handled.
  79:Generated_Source\PSoC5/USBUART_1_std.c **** *
  80:Generated_Source\PSoC5/USBUART_1_std.c **** * \reentrant
  81:Generated_Source\PSoC5/USBUART_1_std.c **** *  No.
  82:Generated_Source\PSoC5/USBUART_1_std.c **** *
  83:Generated_Source\PSoC5/USBUART_1_std.c **** *******************************************************************************/
  84:Generated_Source\PSoC5/USBUART_1_std.c **** uint8 USBUART_1_HandleStandardRqst(void) 
  85:Generated_Source\PSoC5/USBUART_1_std.c **** {
  86:Generated_Source\PSoC5/USBUART_1_std.c ****     uint8 requestHandled = USBUART_1_FALSE;
  87:Generated_Source\PSoC5/USBUART_1_std.c ****     uint8 interfaceNumber;
  88:Generated_Source\PSoC5/USBUART_1_std.c ****     uint8 configurationN;
ARM GAS  C:\Users\jon\AppData\Local\Temp\ccCLAX4y.s 			page 3


  89:Generated_Source\PSoC5/USBUART_1_std.c ****     uint8 bmRequestType = USBUART_1_bmRequestTypeReg;
  90:Generated_Source\PSoC5/USBUART_1_std.c **** 
  91:Generated_Source\PSoC5/USBUART_1_std.c **** #if defined(USBUART_1_ENABLE_STRINGS)
  92:Generated_Source\PSoC5/USBUART_1_std.c ****     volatile uint8 *pStr = 0u;
  93:Generated_Source\PSoC5/USBUART_1_std.c ****     #if defined(USBUART_1_ENABLE_DESCRIPTOR_STRINGS)
  94:Generated_Source\PSoC5/USBUART_1_std.c ****         uint8 nStr;
  95:Generated_Source\PSoC5/USBUART_1_std.c ****         uint8 descrLength;
  96:Generated_Source\PSoC5/USBUART_1_std.c ****     #endif /* (USBUART_1_ENABLE_DESCRIPTOR_STRINGS) */
  97:Generated_Source\PSoC5/USBUART_1_std.c **** #endif /* (USBUART_1_ENABLE_STRINGS) */
  98:Generated_Source\PSoC5/USBUART_1_std.c ****     
  99:Generated_Source\PSoC5/USBUART_1_std.c ****     static volatile uint8 USBUART_1_tBuffer[USBUART_1_STATUS_LENGTH_MAX];
 100:Generated_Source\PSoC5/USBUART_1_std.c ****     const T_USBUART_1_LUT CYCODE *pTmp;
 101:Generated_Source\PSoC5/USBUART_1_std.c **** 
 102:Generated_Source\PSoC5/USBUART_1_std.c ****     USBUART_1_currentTD.count = 0u;
 103:Generated_Source\PSoC5/USBUART_1_std.c **** 
 104:Generated_Source\PSoC5/USBUART_1_std.c ****     if (USBUART_1_RQST_DIR_D2H == (bmRequestType & USBUART_1_RQST_DIR_MASK))
 105:Generated_Source\PSoC5/USBUART_1_std.c ****     {
 106:Generated_Source\PSoC5/USBUART_1_std.c ****         /* Control Read */
 107:Generated_Source\PSoC5/USBUART_1_std.c ****         switch (USBUART_1_bRequestReg)
 108:Generated_Source\PSoC5/USBUART_1_std.c ****         {
 109:Generated_Source\PSoC5/USBUART_1_std.c ****             case USBUART_1_GET_DESCRIPTOR:
 110:Generated_Source\PSoC5/USBUART_1_std.c ****                 if (USBUART_1_DESCR_DEVICE ==USBUART_1_wValueHiReg)
 111:Generated_Source\PSoC5/USBUART_1_std.c ****                 {
 112:Generated_Source\PSoC5/USBUART_1_std.c ****                     pTmp = USBUART_1_GetDeviceTablePtr();
 113:Generated_Source\PSoC5/USBUART_1_std.c ****                     USBUART_1_currentTD.pData = (volatile uint8 *)pTmp->p_list;
 114:Generated_Source\PSoC5/USBUART_1_std.c ****                     USBUART_1_currentTD.count = USBUART_1_DEVICE_DESCR_LENGTH;
 115:Generated_Source\PSoC5/USBUART_1_std.c ****                     
 116:Generated_Source\PSoC5/USBUART_1_std.c ****                     requestHandled  = USBUART_1_InitControlRead();
 117:Generated_Source\PSoC5/USBUART_1_std.c ****                 }
 118:Generated_Source\PSoC5/USBUART_1_std.c ****                 else if (USBUART_1_DESCR_CONFIG == USBUART_1_wValueHiReg)
 119:Generated_Source\PSoC5/USBUART_1_std.c ****                 {
 120:Generated_Source\PSoC5/USBUART_1_std.c ****                     pTmp = USBUART_1_GetConfigTablePtr((uint8) USBUART_1_wValueLoReg);
 121:Generated_Source\PSoC5/USBUART_1_std.c ****                     
 122:Generated_Source\PSoC5/USBUART_1_std.c ****                     /* Verify that requested descriptor exists */
 123:Generated_Source\PSoC5/USBUART_1_std.c ****                     if (pTmp != NULL)
 124:Generated_Source\PSoC5/USBUART_1_std.c ****                     {
 125:Generated_Source\PSoC5/USBUART_1_std.c ****                         USBUART_1_currentTD.pData = (volatile uint8 *)pTmp->p_list;
 126:Generated_Source\PSoC5/USBUART_1_std.c ****                         USBUART_1_currentTD.count = (uint16)((uint16)(USBUART_1_currentTD.pData)[US
 127:Generated_Source\PSoC5/USBUART_1_std.c ****                                                                             (USBUART_1_currentTD.pD
 128:Generated_Source\PSoC5/USBUART_1_std.c ****                         requestHandled  = USBUART_1_InitControlRead();
 129:Generated_Source\PSoC5/USBUART_1_std.c ****                     }
 130:Generated_Source\PSoC5/USBUART_1_std.c ****                 }
 131:Generated_Source\PSoC5/USBUART_1_std.c ****                 
 132:Generated_Source\PSoC5/USBUART_1_std.c ****             #if(USBUART_1_BOS_ENABLE)
 133:Generated_Source\PSoC5/USBUART_1_std.c ****                 else if (USBUART_1_DESCR_BOS == USBUART_1_wValueHiReg)
 134:Generated_Source\PSoC5/USBUART_1_std.c ****                 {
 135:Generated_Source\PSoC5/USBUART_1_std.c ****                     pTmp = USBUART_1_GetBOSPtr();
 136:Generated_Source\PSoC5/USBUART_1_std.c ****                     
 137:Generated_Source\PSoC5/USBUART_1_std.c ****                     /* Verify that requested descriptor exists */
 138:Generated_Source\PSoC5/USBUART_1_std.c ****                     if (pTmp != NULL)
 139:Generated_Source\PSoC5/USBUART_1_std.c ****                     {
 140:Generated_Source\PSoC5/USBUART_1_std.c ****                         USBUART_1_currentTD.pData = (volatile uint8 *)pTmp;
 141:Generated_Source\PSoC5/USBUART_1_std.c ****                         USBUART_1_currentTD.count = ((uint16)((uint16)(USBUART_1_currentTD.pData)[U
 142:Generated_Source\PSoC5/USBUART_1_std.c ****                                                                              (USBUART_1_currentTD.p
 143:Generated_Source\PSoC5/USBUART_1_std.c ****                         requestHandled  = USBUART_1_InitControlRead();
 144:Generated_Source\PSoC5/USBUART_1_std.c ****                     }
 145:Generated_Source\PSoC5/USBUART_1_std.c ****                 }
ARM GAS  C:\Users\jon\AppData\Local\Temp\ccCLAX4y.s 			page 4


 146:Generated_Source\PSoC5/USBUART_1_std.c ****             #endif /*(USBUART_1_BOS_ENABLE)*/
 147:Generated_Source\PSoC5/USBUART_1_std.c ****             
 148:Generated_Source\PSoC5/USBUART_1_std.c ****             #if defined(USBUART_1_ENABLE_STRINGS)
 149:Generated_Source\PSoC5/USBUART_1_std.c ****                 else if (USBUART_1_DESCR_STRING == USBUART_1_wValueHiReg)
 150:Generated_Source\PSoC5/USBUART_1_std.c ****                 {
 151:Generated_Source\PSoC5/USBUART_1_std.c ****                 /* Descriptor Strings */
 152:Generated_Source\PSoC5/USBUART_1_std.c ****                 #if defined(USBUART_1_ENABLE_DESCRIPTOR_STRINGS)
 153:Generated_Source\PSoC5/USBUART_1_std.c ****                     nStr = 0u;
 154:Generated_Source\PSoC5/USBUART_1_std.c ****                     pStr = (volatile uint8 *) &USBUART_1_STRING_DESCRIPTORS[0u];
 155:Generated_Source\PSoC5/USBUART_1_std.c ****                     
 156:Generated_Source\PSoC5/USBUART_1_std.c ****                     while ((USBUART_1_wValueLoReg > nStr) && (*pStr != 0u))
 157:Generated_Source\PSoC5/USBUART_1_std.c ****                     {
 158:Generated_Source\PSoC5/USBUART_1_std.c ****                         /* Read descriptor length from 1st byte */
 159:Generated_Source\PSoC5/USBUART_1_std.c ****                         descrLength = *pStr;
 160:Generated_Source\PSoC5/USBUART_1_std.c ****                         /* Move to next string descriptor */
 161:Generated_Source\PSoC5/USBUART_1_std.c ****                         pStr = &pStr[descrLength];
 162:Generated_Source\PSoC5/USBUART_1_std.c ****                         nStr++;
 163:Generated_Source\PSoC5/USBUART_1_std.c ****                     }
 164:Generated_Source\PSoC5/USBUART_1_std.c ****                 #endif /* (USBUART_1_ENABLE_DESCRIPTOR_STRINGS) */
 165:Generated_Source\PSoC5/USBUART_1_std.c ****                 
 166:Generated_Source\PSoC5/USBUART_1_std.c ****                 /* Microsoft OS String */
 167:Generated_Source\PSoC5/USBUART_1_std.c ****                 #if defined(USBUART_1_ENABLE_MSOS_STRING)
 168:Generated_Source\PSoC5/USBUART_1_std.c ****                     if (USBUART_1_STRING_MSOS == USBUART_1_wValueLoReg)
 169:Generated_Source\PSoC5/USBUART_1_std.c ****                     {
 170:Generated_Source\PSoC5/USBUART_1_std.c ****                         pStr = (volatile uint8 *)& USBUART_1_MSOS_DESCRIPTOR[0u];
 171:Generated_Source\PSoC5/USBUART_1_std.c ****                     }
 172:Generated_Source\PSoC5/USBUART_1_std.c ****                 #endif /* (USBUART_1_ENABLE_MSOS_STRING) */
 173:Generated_Source\PSoC5/USBUART_1_std.c ****                 
 174:Generated_Source\PSoC5/USBUART_1_std.c ****                 /* SN string */
 175:Generated_Source\PSoC5/USBUART_1_std.c ****                 #if defined(USBUART_1_ENABLE_SN_STRING)
 176:Generated_Source\PSoC5/USBUART_1_std.c ****                     if ((USBUART_1_wValueLoReg != 0u) && 
 177:Generated_Source\PSoC5/USBUART_1_std.c ****                         (USBUART_1_wValueLoReg == USBUART_1_DEVICE0_DESCR[USBUART_1_DEVICE_DESCR_SN
 178:Generated_Source\PSoC5/USBUART_1_std.c ****                     {
 179:Generated_Source\PSoC5/USBUART_1_std.c ****                     #if defined(USBUART_1_ENABLE_IDSN_STRING)
 180:Generated_Source\PSoC5/USBUART_1_std.c ****                         /* Read DIE ID and generate string descriptor in RAM */
 181:Generated_Source\PSoC5/USBUART_1_std.c ****                         USBUART_1_ReadDieID(USBUART_1_idSerialNumberStringDescriptor);
 182:Generated_Source\PSoC5/USBUART_1_std.c ****                         pStr = USBUART_1_idSerialNumberStringDescriptor;
 183:Generated_Source\PSoC5/USBUART_1_std.c ****                     #elif defined(USBUART_1_ENABLE_FWSN_STRING)
 184:Generated_Source\PSoC5/USBUART_1_std.c ****                         
 185:Generated_Source\PSoC5/USBUART_1_std.c ****                         if(USBUART_1_snStringConfirm != USBUART_1_FALSE)
 186:Generated_Source\PSoC5/USBUART_1_std.c ****                         {
 187:Generated_Source\PSoC5/USBUART_1_std.c ****                             pStr = USBUART_1_fwSerialNumberStringDescriptor;
 188:Generated_Source\PSoC5/USBUART_1_std.c ****                         }
 189:Generated_Source\PSoC5/USBUART_1_std.c ****                         else
 190:Generated_Source\PSoC5/USBUART_1_std.c ****                         {
 191:Generated_Source\PSoC5/USBUART_1_std.c ****                             pStr = (volatile uint8 *)&USBUART_1_SN_STRING_DESCRIPTOR[0u];
 192:Generated_Source\PSoC5/USBUART_1_std.c ****                         }
 193:Generated_Source\PSoC5/USBUART_1_std.c ****                     #else
 194:Generated_Source\PSoC5/USBUART_1_std.c ****                         pStr = (volatile uint8 *)&USBUART_1_SN_STRING_DESCRIPTOR[0u];
 195:Generated_Source\PSoC5/USBUART_1_std.c ****                     #endif  /* (USBUART_1_ENABLE_IDSN_STRING) */
 196:Generated_Source\PSoC5/USBUART_1_std.c ****                     }
 197:Generated_Source\PSoC5/USBUART_1_std.c ****                 #endif /* (USBUART_1_ENABLE_SN_STRING) */
 198:Generated_Source\PSoC5/USBUART_1_std.c ****                 
 199:Generated_Source\PSoC5/USBUART_1_std.c ****                     if (*pStr != 0u)
 200:Generated_Source\PSoC5/USBUART_1_std.c ****                     {
 201:Generated_Source\PSoC5/USBUART_1_std.c ****                         USBUART_1_currentTD.count = *pStr;
 202:Generated_Source\PSoC5/USBUART_1_std.c ****                         USBUART_1_currentTD.pData = pStr;
ARM GAS  C:\Users\jon\AppData\Local\Temp\ccCLAX4y.s 			page 5


 203:Generated_Source\PSoC5/USBUART_1_std.c ****                         requestHandled  = USBUART_1_InitControlRead();
 204:Generated_Source\PSoC5/USBUART_1_std.c ****                     }
 205:Generated_Source\PSoC5/USBUART_1_std.c ****                 }
 206:Generated_Source\PSoC5/USBUART_1_std.c ****             #endif /*  USBUART_1_ENABLE_STRINGS */
 207:Generated_Source\PSoC5/USBUART_1_std.c ****                 else
 208:Generated_Source\PSoC5/USBUART_1_std.c ****                 {
 209:Generated_Source\PSoC5/USBUART_1_std.c ****                     requestHandled = USBUART_1_DispatchClassRqst();
 210:Generated_Source\PSoC5/USBUART_1_std.c ****                 }
 211:Generated_Source\PSoC5/USBUART_1_std.c ****                 break;
 212:Generated_Source\PSoC5/USBUART_1_std.c ****                 
 213:Generated_Source\PSoC5/USBUART_1_std.c ****             case USBUART_1_GET_STATUS:
 214:Generated_Source\PSoC5/USBUART_1_std.c ****                 switch (bmRequestType & USBUART_1_RQST_RCPT_MASK)
 215:Generated_Source\PSoC5/USBUART_1_std.c ****                 {
 216:Generated_Source\PSoC5/USBUART_1_std.c ****                     case USBUART_1_RQST_RCPT_EP:
 217:Generated_Source\PSoC5/USBUART_1_std.c ****                         USBUART_1_currentTD.count = USBUART_1_EP_STATUS_LENGTH;
 218:Generated_Source\PSoC5/USBUART_1_std.c ****                         USBUART_1_tBuffer[0u]     = USBUART_1_EP[USBUART_1_wIndexLoReg & USBUART_1_
 219:Generated_Source\PSoC5/USBUART_1_std.c ****                         USBUART_1_tBuffer[1u]     = 0u;
 220:Generated_Source\PSoC5/USBUART_1_std.c ****                         USBUART_1_currentTD.pData = &USBUART_1_tBuffer[0u];
 221:Generated_Source\PSoC5/USBUART_1_std.c ****                         
 222:Generated_Source\PSoC5/USBUART_1_std.c ****                         requestHandled  = USBUART_1_InitControlRead();
 223:Generated_Source\PSoC5/USBUART_1_std.c ****                         break;
 224:Generated_Source\PSoC5/USBUART_1_std.c ****                     case USBUART_1_RQST_RCPT_DEV:
 225:Generated_Source\PSoC5/USBUART_1_std.c ****                         USBUART_1_currentTD.count = USBUART_1_DEVICE_STATUS_LENGTH;
 226:Generated_Source\PSoC5/USBUART_1_std.c ****                         USBUART_1_tBuffer[0u]     = USBUART_1_deviceStatus;
 227:Generated_Source\PSoC5/USBUART_1_std.c ****                         USBUART_1_tBuffer[1u]     = 0u;
 228:Generated_Source\PSoC5/USBUART_1_std.c ****                         USBUART_1_currentTD.pData = &USBUART_1_tBuffer[0u];
 229:Generated_Source\PSoC5/USBUART_1_std.c ****                         
 230:Generated_Source\PSoC5/USBUART_1_std.c ****                         requestHandled  = USBUART_1_InitControlRead();
 231:Generated_Source\PSoC5/USBUART_1_std.c ****                         break;
 232:Generated_Source\PSoC5/USBUART_1_std.c ****                     default:    /* requestHandled is initialized as FALSE by default */
 233:Generated_Source\PSoC5/USBUART_1_std.c ****                         break;
 234:Generated_Source\PSoC5/USBUART_1_std.c ****                 }
 235:Generated_Source\PSoC5/USBUART_1_std.c ****                 break;
 236:Generated_Source\PSoC5/USBUART_1_std.c ****                 
 237:Generated_Source\PSoC5/USBUART_1_std.c ****             case USBUART_1_GET_CONFIGURATION:
 238:Generated_Source\PSoC5/USBUART_1_std.c ****                 USBUART_1_currentTD.count = 1u;
 239:Generated_Source\PSoC5/USBUART_1_std.c ****                 USBUART_1_currentTD.pData = (volatile uint8 *) &USBUART_1_configuration;
 240:Generated_Source\PSoC5/USBUART_1_std.c ****                 requestHandled  = USBUART_1_InitControlRead();
 241:Generated_Source\PSoC5/USBUART_1_std.c ****                 break;
 242:Generated_Source\PSoC5/USBUART_1_std.c ****                 
 243:Generated_Source\PSoC5/USBUART_1_std.c ****             case USBUART_1_GET_INTERFACE:
 244:Generated_Source\PSoC5/USBUART_1_std.c ****                 USBUART_1_currentTD.count = 1u;
 245:Generated_Source\PSoC5/USBUART_1_std.c ****                 USBUART_1_currentTD.pData = (volatile uint8 *) &USBUART_1_interfaceSetting[USBUART_
 246:Generated_Source\PSoC5/USBUART_1_std.c ****                 requestHandled  = USBUART_1_InitControlRead();
 247:Generated_Source\PSoC5/USBUART_1_std.c ****                 break;
 248:Generated_Source\PSoC5/USBUART_1_std.c ****                 
 249:Generated_Source\PSoC5/USBUART_1_std.c ****             default: /* requestHandled is initialized as FALSE by default */
 250:Generated_Source\PSoC5/USBUART_1_std.c ****                 break;
 251:Generated_Source\PSoC5/USBUART_1_std.c ****         }
 252:Generated_Source\PSoC5/USBUART_1_std.c ****     }
 253:Generated_Source\PSoC5/USBUART_1_std.c ****     else
 254:Generated_Source\PSoC5/USBUART_1_std.c ****     {
 255:Generated_Source\PSoC5/USBUART_1_std.c ****         /* Control Write */
 256:Generated_Source\PSoC5/USBUART_1_std.c ****         switch (USBUART_1_bRequestReg)
 257:Generated_Source\PSoC5/USBUART_1_std.c ****         {
 258:Generated_Source\PSoC5/USBUART_1_std.c ****             case USBUART_1_SET_ADDRESS:
 259:Generated_Source\PSoC5/USBUART_1_std.c ****                 /* Store address to be set in USBUART_1_NoDataControlStatusStage(). */
ARM GAS  C:\Users\jon\AppData\Local\Temp\ccCLAX4y.s 			page 6


 260:Generated_Source\PSoC5/USBUART_1_std.c ****                 USBUART_1_deviceAddress = (uint8) USBUART_1_wValueLoReg;
 261:Generated_Source\PSoC5/USBUART_1_std.c ****                 requestHandled = USBUART_1_InitNoDataControlTransfer();
 262:Generated_Source\PSoC5/USBUART_1_std.c ****                 break;
 263:Generated_Source\PSoC5/USBUART_1_std.c ****                 
 264:Generated_Source\PSoC5/USBUART_1_std.c ****             case USBUART_1_SET_CONFIGURATION:
 265:Generated_Source\PSoC5/USBUART_1_std.c ****                 configurationN = USBUART_1_wValueLoReg;
 266:Generated_Source\PSoC5/USBUART_1_std.c ****                 
 267:Generated_Source\PSoC5/USBUART_1_std.c ****                 /* Verify that configuration descriptor exists */
 268:Generated_Source\PSoC5/USBUART_1_std.c ****                 if(configurationN > 0u)
 269:Generated_Source\PSoC5/USBUART_1_std.c ****                 {
 270:Generated_Source\PSoC5/USBUART_1_std.c ****                     pTmp = USBUART_1_GetConfigTablePtr((uint8) configurationN - 1u);
 271:Generated_Source\PSoC5/USBUART_1_std.c ****                 }
 272:Generated_Source\PSoC5/USBUART_1_std.c ****                 
 273:Generated_Source\PSoC5/USBUART_1_std.c ****                 /* Responds with a Request Error when configuration number is invalid */
 274:Generated_Source\PSoC5/USBUART_1_std.c ****                 if (((configurationN > 0u) && (pTmp != NULL)) || (configurationN == 0u))
 275:Generated_Source\PSoC5/USBUART_1_std.c ****                 {
 276:Generated_Source\PSoC5/USBUART_1_std.c ****                     /* Set new configuration if it has been changed */
 277:Generated_Source\PSoC5/USBUART_1_std.c ****                     if(configurationN != USBUART_1_configuration)
 278:Generated_Source\PSoC5/USBUART_1_std.c ****                     {
 279:Generated_Source\PSoC5/USBUART_1_std.c ****                         USBUART_1_configuration = (uint8) configurationN;
 280:Generated_Source\PSoC5/USBUART_1_std.c ****                         USBUART_1_configurationChanged = USBUART_1_TRUE;
 281:Generated_Source\PSoC5/USBUART_1_std.c ****                         USBUART_1_Config(USBUART_1_TRUE);
 282:Generated_Source\PSoC5/USBUART_1_std.c ****                     }
 283:Generated_Source\PSoC5/USBUART_1_std.c ****                     requestHandled = USBUART_1_InitNoDataControlTransfer();
 284:Generated_Source\PSoC5/USBUART_1_std.c ****                 }
 285:Generated_Source\PSoC5/USBUART_1_std.c ****                 break;
 286:Generated_Source\PSoC5/USBUART_1_std.c ****                 
 287:Generated_Source\PSoC5/USBUART_1_std.c ****             case USBUART_1_SET_INTERFACE:
 288:Generated_Source\PSoC5/USBUART_1_std.c ****                 if (0u != USBUART_1_ValidateAlternateSetting())
 289:Generated_Source\PSoC5/USBUART_1_std.c ****                 {
 290:Generated_Source\PSoC5/USBUART_1_std.c ****                     /* Get interface number from the request. */
 291:Generated_Source\PSoC5/USBUART_1_std.c ****                     interfaceNumber = USBUART_1_wIndexLoReg;
 292:Generated_Source\PSoC5/USBUART_1_std.c ****                     USBUART_1_interfaceNumber = (uint8) USBUART_1_wIndexLoReg;
 293:Generated_Source\PSoC5/USBUART_1_std.c ****                      
 294:Generated_Source\PSoC5/USBUART_1_std.c ****                     /* Check if alternate settings is changed for interface. */
 295:Generated_Source\PSoC5/USBUART_1_std.c ****                     if (USBUART_1_interfaceSettingLast[interfaceNumber] != USBUART_1_interfaceSetti
 296:Generated_Source\PSoC5/USBUART_1_std.c ****                     {
 297:Generated_Source\PSoC5/USBUART_1_std.c ****                         USBUART_1_configurationChanged = USBUART_1_TRUE;
 298:Generated_Source\PSoC5/USBUART_1_std.c ****                     
 299:Generated_Source\PSoC5/USBUART_1_std.c ****                         /* Change alternate setting for the endpoints. */
 300:Generated_Source\PSoC5/USBUART_1_std.c ****                     #if (USBUART_1_EP_MANAGEMENT_MANUAL && USBUART_1_EP_ALLOC_DYNAMIC)
 301:Generated_Source\PSoC5/USBUART_1_std.c ****                         USBUART_1_Config(USBUART_1_FALSE);
 302:Generated_Source\PSoC5/USBUART_1_std.c ****                     #else
 303:Generated_Source\PSoC5/USBUART_1_std.c ****                         USBUART_1_ConfigAltChanged();
 304:Generated_Source\PSoC5/USBUART_1_std.c ****                     #endif /* (USBUART_1_EP_MANAGEMENT_MANUAL && USBUART_1_EP_ALLOC_DYNAMIC) */
 305:Generated_Source\PSoC5/USBUART_1_std.c ****                     }
 306:Generated_Source\PSoC5/USBUART_1_std.c ****                     
 307:Generated_Source\PSoC5/USBUART_1_std.c ****                     requestHandled = USBUART_1_InitNoDataControlTransfer();
 308:Generated_Source\PSoC5/USBUART_1_std.c ****                 }
 309:Generated_Source\PSoC5/USBUART_1_std.c ****                 break;
 310:Generated_Source\PSoC5/USBUART_1_std.c ****                 
 311:Generated_Source\PSoC5/USBUART_1_std.c ****             case USBUART_1_CLEAR_FEATURE:
 312:Generated_Source\PSoC5/USBUART_1_std.c ****                 switch (bmRequestType & USBUART_1_RQST_RCPT_MASK)
 313:Generated_Source\PSoC5/USBUART_1_std.c ****                 {
 314:Generated_Source\PSoC5/USBUART_1_std.c ****                     case USBUART_1_RQST_RCPT_EP:
 315:Generated_Source\PSoC5/USBUART_1_std.c ****                         if (USBUART_1_wValueLoReg == USBUART_1_ENDPOINT_HALT)
 316:Generated_Source\PSoC5/USBUART_1_std.c ****                         {
ARM GAS  C:\Users\jon\AppData\Local\Temp\ccCLAX4y.s 			page 7


 317:Generated_Source\PSoC5/USBUART_1_std.c ****                             requestHandled = USBUART_1_ClearEndpointHalt();
 318:Generated_Source\PSoC5/USBUART_1_std.c ****                         }
 319:Generated_Source\PSoC5/USBUART_1_std.c ****                         break;
 320:Generated_Source\PSoC5/USBUART_1_std.c ****                     case USBUART_1_RQST_RCPT_DEV:
 321:Generated_Source\PSoC5/USBUART_1_std.c ****                         /* Clear device REMOTE_WAKEUP */
 322:Generated_Source\PSoC5/USBUART_1_std.c ****                         if (USBUART_1_wValueLoReg == USBUART_1_DEVICE_REMOTE_WAKEUP)
 323:Generated_Source\PSoC5/USBUART_1_std.c ****                         {
 324:Generated_Source\PSoC5/USBUART_1_std.c ****                             USBUART_1_deviceStatus &= (uint8)~USBUART_1_DEVICE_STATUS_REMOTE_WAKEUP
 325:Generated_Source\PSoC5/USBUART_1_std.c ****                             requestHandled = USBUART_1_InitNoDataControlTransfer();
 326:Generated_Source\PSoC5/USBUART_1_std.c ****                         }
 327:Generated_Source\PSoC5/USBUART_1_std.c ****                         break;
 328:Generated_Source\PSoC5/USBUART_1_std.c ****                     case USBUART_1_RQST_RCPT_IFC:
 329:Generated_Source\PSoC5/USBUART_1_std.c ****                         /* Validate interfaceNumber */
 330:Generated_Source\PSoC5/USBUART_1_std.c ****                         if (USBUART_1_wIndexLoReg < USBUART_1_MAX_INTERFACES_NUMBER)
 331:Generated_Source\PSoC5/USBUART_1_std.c ****                         {
 332:Generated_Source\PSoC5/USBUART_1_std.c ****                             USBUART_1_interfaceStatus[USBUART_1_wIndexLoReg] &= (uint8) ~USBUART_1_
 333:Generated_Source\PSoC5/USBUART_1_std.c ****                             requestHandled = USBUART_1_InitNoDataControlTransfer();
 334:Generated_Source\PSoC5/USBUART_1_std.c ****                         }
 335:Generated_Source\PSoC5/USBUART_1_std.c ****                         break;
 336:Generated_Source\PSoC5/USBUART_1_std.c ****                     default:    /* requestHandled is initialized as FALSE by default */
 337:Generated_Source\PSoC5/USBUART_1_std.c ****                         break;
 338:Generated_Source\PSoC5/USBUART_1_std.c ****                 }
 339:Generated_Source\PSoC5/USBUART_1_std.c ****                 break;
 340:Generated_Source\PSoC5/USBUART_1_std.c ****                 
 341:Generated_Source\PSoC5/USBUART_1_std.c ****             case USBUART_1_SET_FEATURE:
 342:Generated_Source\PSoC5/USBUART_1_std.c ****                 switch (bmRequestType & USBUART_1_RQST_RCPT_MASK)
 343:Generated_Source\PSoC5/USBUART_1_std.c ****                 {
 344:Generated_Source\PSoC5/USBUART_1_std.c ****                     case USBUART_1_RQST_RCPT_EP:
 345:Generated_Source\PSoC5/USBUART_1_std.c ****                         if (USBUART_1_wValueLoReg == USBUART_1_ENDPOINT_HALT)
 346:Generated_Source\PSoC5/USBUART_1_std.c ****                         {
 347:Generated_Source\PSoC5/USBUART_1_std.c ****                             requestHandled = USBUART_1_SetEndpointHalt();
 348:Generated_Source\PSoC5/USBUART_1_std.c ****                         }
 349:Generated_Source\PSoC5/USBUART_1_std.c ****                         break;
 350:Generated_Source\PSoC5/USBUART_1_std.c ****                         
 351:Generated_Source\PSoC5/USBUART_1_std.c ****                     case USBUART_1_RQST_RCPT_DEV:
 352:Generated_Source\PSoC5/USBUART_1_std.c ****                         /* Set device REMOTE_WAKEUP */
 353:Generated_Source\PSoC5/USBUART_1_std.c ****                         if (USBUART_1_wValueLoReg == USBUART_1_DEVICE_REMOTE_WAKEUP)
 354:Generated_Source\PSoC5/USBUART_1_std.c ****                         {
 355:Generated_Source\PSoC5/USBUART_1_std.c ****                             USBUART_1_deviceStatus |= USBUART_1_DEVICE_STATUS_REMOTE_WAKEUP;
 356:Generated_Source\PSoC5/USBUART_1_std.c ****                             requestHandled = USBUART_1_InitNoDataControlTransfer();
 357:Generated_Source\PSoC5/USBUART_1_std.c ****                         }
 358:Generated_Source\PSoC5/USBUART_1_std.c ****                         break;
 359:Generated_Source\PSoC5/USBUART_1_std.c ****                         
 360:Generated_Source\PSoC5/USBUART_1_std.c ****                     case USBUART_1_RQST_RCPT_IFC:
 361:Generated_Source\PSoC5/USBUART_1_std.c ****                         /* Validate interfaceNumber */
 362:Generated_Source\PSoC5/USBUART_1_std.c ****                         if (USBUART_1_wIndexLoReg < USBUART_1_MAX_INTERFACES_NUMBER)
 363:Generated_Source\PSoC5/USBUART_1_std.c ****                         {
 364:Generated_Source\PSoC5/USBUART_1_std.c ****                             USBUART_1_interfaceStatus[USBUART_1_wIndexLoReg] &= (uint8) ~USBUART_1_
 365:Generated_Source\PSoC5/USBUART_1_std.c ****                             requestHandled = USBUART_1_InitNoDataControlTransfer();
 366:Generated_Source\PSoC5/USBUART_1_std.c ****                         }
 367:Generated_Source\PSoC5/USBUART_1_std.c ****                         break;
 368:Generated_Source\PSoC5/USBUART_1_std.c ****                     
 369:Generated_Source\PSoC5/USBUART_1_std.c ****                     default:    /* requestHandled is initialized as FALSE by default */
 370:Generated_Source\PSoC5/USBUART_1_std.c ****                         break;
 371:Generated_Source\PSoC5/USBUART_1_std.c ****                 }
 372:Generated_Source\PSoC5/USBUART_1_std.c ****                 break;
 373:Generated_Source\PSoC5/USBUART_1_std.c ****                 
ARM GAS  C:\Users\jon\AppData\Local\Temp\ccCLAX4y.s 			page 8


 374:Generated_Source\PSoC5/USBUART_1_std.c ****             default:    /* requestHandled is initialized as FALSE by default */
 375:Generated_Source\PSoC5/USBUART_1_std.c ****                 break;
 376:Generated_Source\PSoC5/USBUART_1_std.c ****         }
 377:Generated_Source\PSoC5/USBUART_1_std.c ****     }
 378:Generated_Source\PSoC5/USBUART_1_std.c ****     
 379:Generated_Source\PSoC5/USBUART_1_std.c ****     return (requestHandled);
 380:Generated_Source\PSoC5/USBUART_1_std.c **** }
 381:Generated_Source\PSoC5/USBUART_1_std.c **** 
 382:Generated_Source\PSoC5/USBUART_1_std.c **** 
 383:Generated_Source\PSoC5/USBUART_1_std.c **** #if defined(USBUART_1_ENABLE_IDSN_STRING)
 384:Generated_Source\PSoC5/USBUART_1_std.c ****     /***************************************************************************
 385:Generated_Source\PSoC5/USBUART_1_std.c ****     * Function Name: USBUART_1_ReadDieID
 386:Generated_Source\PSoC5/USBUART_1_std.c ****     ************************************************************************//**
 387:Generated_Source\PSoC5/USBUART_1_std.c ****     *
 388:Generated_Source\PSoC5/USBUART_1_std.c ****     *  This routine read Die ID and generate Serial Number string descriptor.
 389:Generated_Source\PSoC5/USBUART_1_std.c ****     *
 390:Generated_Source\PSoC5/USBUART_1_std.c ****     *  \param descr:  pointer on string descriptor. This string size has to be equal or
 391:Generated_Source\PSoC5/USBUART_1_std.c ****     *          greater than USBUART_1_IDSN_DESCR_LENGTH.
 392:Generated_Source\PSoC5/USBUART_1_std.c ****     *
 393:Generated_Source\PSoC5/USBUART_1_std.c ****     *
 394:Generated_Source\PSoC5/USBUART_1_std.c ****     * \reentrant
 395:Generated_Source\PSoC5/USBUART_1_std.c ****     *  No.
 396:Generated_Source\PSoC5/USBUART_1_std.c ****     *
 397:Generated_Source\PSoC5/USBUART_1_std.c ****     ***************************************************************************/
 398:Generated_Source\PSoC5/USBUART_1_std.c ****     void USBUART_1_ReadDieID(uint8 descr[]) 
 399:Generated_Source\PSoC5/USBUART_1_std.c ****     {
 400:Generated_Source\PSoC5/USBUART_1_std.c ****         const char8 CYCODE hex[] = "0123456789ABCDEF";
 401:Generated_Source\PSoC5/USBUART_1_std.c ****         uint8 i;
 402:Generated_Source\PSoC5/USBUART_1_std.c ****         uint8 j = 0u;
 403:Generated_Source\PSoC5/USBUART_1_std.c ****         uint8 uniqueId[8u];
 404:Generated_Source\PSoC5/USBUART_1_std.c **** 
 405:Generated_Source\PSoC5/USBUART_1_std.c ****         if (NULL != descr)
 406:Generated_Source\PSoC5/USBUART_1_std.c ****         {
 407:Generated_Source\PSoC5/USBUART_1_std.c ****             /* Initialize descriptor header. */
 408:Generated_Source\PSoC5/USBUART_1_std.c ****             descr[0u] = USBUART_1_IDSN_DESCR_LENGTH;
 409:Generated_Source\PSoC5/USBUART_1_std.c ****             descr[1u] = USBUART_1_DESCR_STRING;
 410:Generated_Source\PSoC5/USBUART_1_std.c ****             
 411:Generated_Source\PSoC5/USBUART_1_std.c ****             /* Unique ID size is 8 bytes. */
 412:Generated_Source\PSoC5/USBUART_1_std.c ****             CyGetUniqueId((uint32 *) uniqueId);
 413:Generated_Source\PSoC5/USBUART_1_std.c **** 
 414:Generated_Source\PSoC5/USBUART_1_std.c ****             /* Fill descriptor with unique device ID. */
 415:Generated_Source\PSoC5/USBUART_1_std.c ****             for (i = 2u; i < USBUART_1_IDSN_DESCR_LENGTH; i += 4u)
 416:Generated_Source\PSoC5/USBUART_1_std.c ****             {
 417:Generated_Source\PSoC5/USBUART_1_std.c ****                 descr[i]      = (uint8) hex[(uniqueId[j] >> 4u)];
 418:Generated_Source\PSoC5/USBUART_1_std.c ****                 descr[i + 1u] = 0u;
 419:Generated_Source\PSoC5/USBUART_1_std.c ****                 descr[i + 2u] = (uint8) hex[(uniqueId[j] & 0x0Fu)];
 420:Generated_Source\PSoC5/USBUART_1_std.c ****                 descr[i + 3u] = 0u;
 421:Generated_Source\PSoC5/USBUART_1_std.c ****                 ++j;
 422:Generated_Source\PSoC5/USBUART_1_std.c ****             }
 423:Generated_Source\PSoC5/USBUART_1_std.c ****         }
 424:Generated_Source\PSoC5/USBUART_1_std.c ****     }
 425:Generated_Source\PSoC5/USBUART_1_std.c **** #endif /* (USBUART_1_ENABLE_IDSN_STRING) */
 426:Generated_Source\PSoC5/USBUART_1_std.c **** 
 427:Generated_Source\PSoC5/USBUART_1_std.c **** 
 428:Generated_Source\PSoC5/USBUART_1_std.c **** /*******************************************************************************
 429:Generated_Source\PSoC5/USBUART_1_std.c **** * Function Name: USBUART_1_ConfigReg
 430:Generated_Source\PSoC5/USBUART_1_std.c **** ****************************************************************************//**
ARM GAS  C:\Users\jon\AppData\Local\Temp\ccCLAX4y.s 			page 9


 431:Generated_Source\PSoC5/USBUART_1_std.c **** *
 432:Generated_Source\PSoC5/USBUART_1_std.c **** *  This routine configures hardware registers from the variables.
 433:Generated_Source\PSoC5/USBUART_1_std.c **** *  It is called from USBUART_1_Config() function and from RestoreConfig
 434:Generated_Source\PSoC5/USBUART_1_std.c **** *  after Wakeup.
 435:Generated_Source\PSoC5/USBUART_1_std.c **** *
 436:Generated_Source\PSoC5/USBUART_1_std.c **** *******************************************************************************/
 437:Generated_Source\PSoC5/USBUART_1_std.c **** void USBUART_1_ConfigReg(void) 
 438:Generated_Source\PSoC5/USBUART_1_std.c **** {
 439:Generated_Source\PSoC5/USBUART_1_std.c ****     uint8 ep;
 440:Generated_Source\PSoC5/USBUART_1_std.c **** 
 441:Generated_Source\PSoC5/USBUART_1_std.c **** #if (USBUART_1_EP_MANAGEMENT_DMA_AUTO)
 442:Generated_Source\PSoC5/USBUART_1_std.c ****     uint8 epType = 0u;
 443:Generated_Source\PSoC5/USBUART_1_std.c **** #endif /* (USBUART_1_EP_MANAGEMENT_DMA_AUTO) */
 444:Generated_Source\PSoC5/USBUART_1_std.c **** 
 445:Generated_Source\PSoC5/USBUART_1_std.c ****     /* Go thought all endpoints and set hardware configuration */
 446:Generated_Source\PSoC5/USBUART_1_std.c ****     for (ep = USBUART_1_EP1; ep < USBUART_1_MAX_EP; ++ep)
 447:Generated_Source\PSoC5/USBUART_1_std.c ****     {
 448:Generated_Source\PSoC5/USBUART_1_std.c ****         USBUART_1_ARB_EP_BASE.arbEp[ep].epCfg = USBUART_1_ARB_EPX_CFG_DEFAULT;
 449:Generated_Source\PSoC5/USBUART_1_std.c ****         
 450:Generated_Source\PSoC5/USBUART_1_std.c ****     #if (USBUART_1_EP_MANAGEMENT_DMA)
 451:Generated_Source\PSoC5/USBUART_1_std.c ****         /* Enable arbiter endpoint interrupt sources */
 452:Generated_Source\PSoC5/USBUART_1_std.c ****         USBUART_1_ARB_EP_BASE.arbEp[ep].epIntEn = USBUART_1_ARB_EPX_INT_MASK;
 453:Generated_Source\PSoC5/USBUART_1_std.c ****     #endif /* (USBUART_1_EP_MANAGEMENT_DMA) */
 454:Generated_Source\PSoC5/USBUART_1_std.c ****     
 455:Generated_Source\PSoC5/USBUART_1_std.c ****         if (USBUART_1_EP[ep].epMode != USBUART_1_MODE_DISABLE)
 456:Generated_Source\PSoC5/USBUART_1_std.c ****         {
 457:Generated_Source\PSoC5/USBUART_1_std.c ****             if (0u != (USBUART_1_EP[ep].addr & USBUART_1_DIR_IN))
 458:Generated_Source\PSoC5/USBUART_1_std.c ****             {
 459:Generated_Source\PSoC5/USBUART_1_std.c ****                 USBUART_1_SIE_EP_BASE.sieEp[ep].epCr0 = USBUART_1_MODE_NAK_IN;
 460:Generated_Source\PSoC5/USBUART_1_std.c ****                 
 461:Generated_Source\PSoC5/USBUART_1_std.c ****             #if (USBUART_1_EP_MANAGEMENT_DMA_AUTO && CY_PSOC4)
 462:Generated_Source\PSoC5/USBUART_1_std.c ****                 /* Clear DMA_TERMIN for IN endpoint. */
 463:Generated_Source\PSoC5/USBUART_1_std.c ****                 USBUART_1_ARB_EP_BASE.arbEp[ep].epIntEn &= (uint32) ~USBUART_1_ARB_EPX_INT_DMA_TERM
 464:Generated_Source\PSoC5/USBUART_1_std.c ****             #endif /* (USBUART_1_EP_MANAGEMENT_DMA_AUTO && CY_PSOC4) */
 465:Generated_Source\PSoC5/USBUART_1_std.c ****             }
 466:Generated_Source\PSoC5/USBUART_1_std.c ****             else
 467:Generated_Source\PSoC5/USBUART_1_std.c ****             {
 468:Generated_Source\PSoC5/USBUART_1_std.c ****                 USBUART_1_SIE_EP_BASE.sieEp[ep].epCr0 = USBUART_1_MODE_NAK_OUT;
 469:Generated_Source\PSoC5/USBUART_1_std.c **** 
 470:Generated_Source\PSoC5/USBUART_1_std.c ****             #if (USBUART_1_EP_MANAGEMENT_DMA_AUTO)
 471:Generated_Source\PSoC5/USBUART_1_std.c ****                 /* (CY_PSOC4): DMA_TERMIN for OUT endpoint is set above. */
 472:Generated_Source\PSoC5/USBUART_1_std.c ****                 
 473:Generated_Source\PSoC5/USBUART_1_std.c ****                 /* Prepare endpoint type mask. */
 474:Generated_Source\PSoC5/USBUART_1_std.c ****                 epType |= (uint8) (0x01u << (ep - USBUART_1_EP1));
 475:Generated_Source\PSoC5/USBUART_1_std.c ****             #endif /* (USBUART_1_EP_MANAGEMENT_DMA_AUTO) */
 476:Generated_Source\PSoC5/USBUART_1_std.c ****             }
 477:Generated_Source\PSoC5/USBUART_1_std.c ****         }
 478:Generated_Source\PSoC5/USBUART_1_std.c ****         else
 479:Generated_Source\PSoC5/USBUART_1_std.c ****         {
 480:Generated_Source\PSoC5/USBUART_1_std.c ****             USBUART_1_SIE_EP_BASE.sieEp[ep].epCr0 = USBUART_1_MODE_STALL_DATA_EP;
 481:Generated_Source\PSoC5/USBUART_1_std.c ****         }
 482:Generated_Source\PSoC5/USBUART_1_std.c ****         
 483:Generated_Source\PSoC5/USBUART_1_std.c ****     #if (!USBUART_1_EP_MANAGEMENT_DMA_AUTO)
 484:Generated_Source\PSoC5/USBUART_1_std.c ****         #if (CY_PSOC4)
 485:Generated_Source\PSoC5/USBUART_1_std.c ****             USBUART_1_ARB_EP16_BASE.arbEp[ep].rwRa16  = (uint32) USBUART_1_EP[ep].buffOffset;
 486:Generated_Source\PSoC5/USBUART_1_std.c ****             USBUART_1_ARB_EP16_BASE.arbEp[ep].rwWa16  = (uint32) USBUART_1_EP[ep].buffOffset;
 487:Generated_Source\PSoC5/USBUART_1_std.c ****         #else
ARM GAS  C:\Users\jon\AppData\Local\Temp\ccCLAX4y.s 			page 10


 488:Generated_Source\PSoC5/USBUART_1_std.c ****             USBUART_1_ARB_EP_BASE.arbEp[ep].rwRa    = LO8(USBUART_1_EP[ep].buffOffset);
 489:Generated_Source\PSoC5/USBUART_1_std.c ****             USBUART_1_ARB_EP_BASE.arbEp[ep].rwRaMsb = HI8(USBUART_1_EP[ep].buffOffset);
 490:Generated_Source\PSoC5/USBUART_1_std.c ****             USBUART_1_ARB_EP_BASE.arbEp[ep].rwWa    = LO8(USBUART_1_EP[ep].buffOffset);
 491:Generated_Source\PSoC5/USBUART_1_std.c ****             USBUART_1_ARB_EP_BASE.arbEp[ep].rwWaMsb = HI8(USBUART_1_EP[ep].buffOffset);
 492:Generated_Source\PSoC5/USBUART_1_std.c ****         #endif /* (CY_PSOC4) */
 493:Generated_Source\PSoC5/USBUART_1_std.c ****     #endif /* (!USBUART_1_EP_MANAGEMENT_DMA_AUTO) */
 494:Generated_Source\PSoC5/USBUART_1_std.c ****     }
 495:Generated_Source\PSoC5/USBUART_1_std.c **** 
 496:Generated_Source\PSoC5/USBUART_1_std.c **** #if (USBUART_1_EP_MANAGEMENT_DMA_AUTO)
 497:Generated_Source\PSoC5/USBUART_1_std.c ****      /* BUF_SIZE depend on DMA_THRESS value:0x55-32 bytes  0x44-16 bytes 0x33-8 bytes 0x22-4 bytes 
 498:Generated_Source\PSoC5/USBUART_1_std.c ****     USBUART_1_BUF_SIZE_REG = USBUART_1_DMA_BUF_SIZE;
 499:Generated_Source\PSoC5/USBUART_1_std.c **** 
 500:Generated_Source\PSoC5/USBUART_1_std.c ****     /* Configure DMA burst threshold */
 501:Generated_Source\PSoC5/USBUART_1_std.c **** #if (CY_PSOC4)
 502:Generated_Source\PSoC5/USBUART_1_std.c ****     USBUART_1_DMA_THRES16_REG   = USBUART_1_DMA_BYTES_PER_BURST;
 503:Generated_Source\PSoC5/USBUART_1_std.c **** #else
 504:Generated_Source\PSoC5/USBUART_1_std.c ****     USBUART_1_DMA_THRES_REG     = USBUART_1_DMA_BYTES_PER_BURST;
 505:Generated_Source\PSoC5/USBUART_1_std.c ****     USBUART_1_DMA_THRES_MSB_REG = 0u;
 506:Generated_Source\PSoC5/USBUART_1_std.c **** #endif /* (CY_PSOC4) */
 507:Generated_Source\PSoC5/USBUART_1_std.c ****     USBUART_1_EP_ACTIVE_REG = USBUART_1_DEFAULT_ARB_INT_EN;
 508:Generated_Source\PSoC5/USBUART_1_std.c ****     USBUART_1_EP_TYPE_REG   = epType;
 509:Generated_Source\PSoC5/USBUART_1_std.c ****     
 510:Generated_Source\PSoC5/USBUART_1_std.c ****     /* Cfg_cmp bit set to 1 once configuration is complete. */
 511:Generated_Source\PSoC5/USBUART_1_std.c ****     /* Lock arbiter configtuation */
 512:Generated_Source\PSoC5/USBUART_1_std.c ****     USBUART_1_ARB_CFG_REG |= (uint8)  USBUART_1_ARB_CFG_CFG_CMP;
 513:Generated_Source\PSoC5/USBUART_1_std.c ****     /* Cfg_cmp bit set to 0 during configuration of PFSUSB Registers. */
 514:Generated_Source\PSoC5/USBUART_1_std.c ****     USBUART_1_ARB_CFG_REG &= (uint8) ~USBUART_1_ARB_CFG_CFG_CMP;
 515:Generated_Source\PSoC5/USBUART_1_std.c **** 
 516:Generated_Source\PSoC5/USBUART_1_std.c **** #endif /* (USBUART_1_EP_MANAGEMENT_DMA_AUTO) */
 517:Generated_Source\PSoC5/USBUART_1_std.c **** 
 518:Generated_Source\PSoC5/USBUART_1_std.c ****     /* Enable interrupt SIE interurpt source from EP0-EP1 */
 519:Generated_Source\PSoC5/USBUART_1_std.c ****     USBUART_1_SIE_EP_INT_EN_REG = (uint8) USBUART_1_DEFAULT_SIE_EP_INT_EN;
 520:Generated_Source\PSoC5/USBUART_1_std.c **** }
 521:Generated_Source\PSoC5/USBUART_1_std.c **** 
 522:Generated_Source\PSoC5/USBUART_1_std.c **** 
 523:Generated_Source\PSoC5/USBUART_1_std.c **** /*******************************************************************************
 524:Generated_Source\PSoC5/USBUART_1_std.c **** * Function Name: USBUART_1_EpStateInit
 525:Generated_Source\PSoC5/USBUART_1_std.c **** ****************************************************************************//**
 526:Generated_Source\PSoC5/USBUART_1_std.c **** *
 527:Generated_Source\PSoC5/USBUART_1_std.c **** *  This routine initialize state of Data end points based of its type: 
 528:Generated_Source\PSoC5/USBUART_1_std.c **** *   IN  - USBUART_1_IN_BUFFER_EMPTY (USBUART_1_EVENT_PENDING)
 529:Generated_Source\PSoC5/USBUART_1_std.c **** *   OUT - USBUART_1_OUT_BUFFER_EMPTY (USBUART_1_NO_EVENT_PENDING)
 530:Generated_Source\PSoC5/USBUART_1_std.c **** *
 531:Generated_Source\PSoC5/USBUART_1_std.c **** *******************************************************************************/
 532:Generated_Source\PSoC5/USBUART_1_std.c **** void USBUART_1_EpStateInit(void) 
 533:Generated_Source\PSoC5/USBUART_1_std.c **** {
 534:Generated_Source\PSoC5/USBUART_1_std.c ****     uint8 i;
 535:Generated_Source\PSoC5/USBUART_1_std.c **** 
 536:Generated_Source\PSoC5/USBUART_1_std.c ****     for (i = USBUART_1_EP1; i < USBUART_1_MAX_EP; i++)
 537:Generated_Source\PSoC5/USBUART_1_std.c ****     { 
 538:Generated_Source\PSoC5/USBUART_1_std.c ****         if (0u != (USBUART_1_EP[i].addr & USBUART_1_DIR_IN))
 539:Generated_Source\PSoC5/USBUART_1_std.c ****         {
 540:Generated_Source\PSoC5/USBUART_1_std.c ****             /* IN Endpoint */
 541:Generated_Source\PSoC5/USBUART_1_std.c ****             USBUART_1_EP[i].apiEpState = USBUART_1_EVENT_PENDING;
 542:Generated_Source\PSoC5/USBUART_1_std.c ****         }
 543:Generated_Source\PSoC5/USBUART_1_std.c ****         else
 544:Generated_Source\PSoC5/USBUART_1_std.c ****         {
ARM GAS  C:\Users\jon\AppData\Local\Temp\ccCLAX4y.s 			page 11


 545:Generated_Source\PSoC5/USBUART_1_std.c ****             /* OUT Endpoint */
 546:Generated_Source\PSoC5/USBUART_1_std.c ****             USBUART_1_EP[i].apiEpState = USBUART_1_NO_EVENT_PENDING;
 547:Generated_Source\PSoC5/USBUART_1_std.c ****         }
 548:Generated_Source\PSoC5/USBUART_1_std.c ****     }
 549:Generated_Source\PSoC5/USBUART_1_std.c ****                     
 550:Generated_Source\PSoC5/USBUART_1_std.c **** }
 551:Generated_Source\PSoC5/USBUART_1_std.c **** 
 552:Generated_Source\PSoC5/USBUART_1_std.c **** 
 553:Generated_Source\PSoC5/USBUART_1_std.c **** /*******************************************************************************
 554:Generated_Source\PSoC5/USBUART_1_std.c **** * Function Name: USBUART_1_Config
 555:Generated_Source\PSoC5/USBUART_1_std.c **** ****************************************************************************//**
 556:Generated_Source\PSoC5/USBUART_1_std.c **** *
 557:Generated_Source\PSoC5/USBUART_1_std.c **** *  This routine configures endpoints for the entire configuration by scanning
 558:Generated_Source\PSoC5/USBUART_1_std.c **** *  the configuration descriptor.
 559:Generated_Source\PSoC5/USBUART_1_std.c **** *
 560:Generated_Source\PSoC5/USBUART_1_std.c **** *  \param clearAltSetting: It configures the bAlternateSetting 0 for each interface.
 561:Generated_Source\PSoC5/USBUART_1_std.c **** *
 562:Generated_Source\PSoC5/USBUART_1_std.c **** * USBUART_1_interfaceClass - Initialized class array for each interface.
 563:Generated_Source\PSoC5/USBUART_1_std.c **** *   It is used for handling Class specific requests depend on interface class.
 564:Generated_Source\PSoC5/USBUART_1_std.c **** *   Different classes in multiple Alternate settings does not supported.
 565:Generated_Source\PSoC5/USBUART_1_std.c **** *
 566:Generated_Source\PSoC5/USBUART_1_std.c **** * \reentrant
 567:Generated_Source\PSoC5/USBUART_1_std.c **** *  No.
 568:Generated_Source\PSoC5/USBUART_1_std.c **** *
 569:Generated_Source\PSoC5/USBUART_1_std.c **** *******************************************************************************/
 570:Generated_Source\PSoC5/USBUART_1_std.c **** void USBUART_1_Config(uint8 clearAltSetting) 
 571:Generated_Source\PSoC5/USBUART_1_std.c **** {
 572:Generated_Source\PSoC5/USBUART_1_std.c ****     uint8 ep;
 573:Generated_Source\PSoC5/USBUART_1_std.c ****     uint8 curEp;
 574:Generated_Source\PSoC5/USBUART_1_std.c ****     uint8 i;
 575:Generated_Source\PSoC5/USBUART_1_std.c ****     uint8 epType;
 576:Generated_Source\PSoC5/USBUART_1_std.c ****     const uint8 *pDescr;
 577:Generated_Source\PSoC5/USBUART_1_std.c ****     
 578:Generated_Source\PSoC5/USBUART_1_std.c ****     #if (!USBUART_1_EP_MANAGEMENT_DMA_AUTO)
 579:Generated_Source\PSoC5/USBUART_1_std.c ****         uint16 buffCount = 0u;
 580:Generated_Source\PSoC5/USBUART_1_std.c ****     #endif /* (!USBUART_1_EP_MANAGEMENT_DMA_AUTO) */
 581:Generated_Source\PSoC5/USBUART_1_std.c **** 
 582:Generated_Source\PSoC5/USBUART_1_std.c ****     const T_USBUART_1_LUT CYCODE *pTmp;
 583:Generated_Source\PSoC5/USBUART_1_std.c ****     const T_USBUART_1_EP_SETTINGS_BLOCK CYCODE *pEP;
 584:Generated_Source\PSoC5/USBUART_1_std.c **** 
 585:Generated_Source\PSoC5/USBUART_1_std.c ****     /* Clear endpoints settings */
 586:Generated_Source\PSoC5/USBUART_1_std.c ****     for (ep = 0u; ep < USBUART_1_MAX_EP; ++ep)
 587:Generated_Source\PSoC5/USBUART_1_std.c ****     {
 588:Generated_Source\PSoC5/USBUART_1_std.c ****         USBUART_1_EP[ep].attrib     = 0u;
 589:Generated_Source\PSoC5/USBUART_1_std.c ****         USBUART_1_EP[ep].hwEpState  = 0u;
 590:Generated_Source\PSoC5/USBUART_1_std.c ****         USBUART_1_EP[ep].epToggle   = 0u;
 591:Generated_Source\PSoC5/USBUART_1_std.c ****         USBUART_1_EP[ep].bufferSize = 0u;
 592:Generated_Source\PSoC5/USBUART_1_std.c ****         USBUART_1_EP[ep].interface  = 0u;
 593:Generated_Source\PSoC5/USBUART_1_std.c ****         USBUART_1_EP[ep].apiEpState = USBUART_1_NO_EVENT_PENDING;
 594:Generated_Source\PSoC5/USBUART_1_std.c ****         USBUART_1_EP[ep].epMode     = USBUART_1_MODE_DISABLE;   
 595:Generated_Source\PSoC5/USBUART_1_std.c ****     }
 596:Generated_Source\PSoC5/USBUART_1_std.c **** 
 597:Generated_Source\PSoC5/USBUART_1_std.c ****     /* Clear Alternate settings for all interfaces. */
 598:Generated_Source\PSoC5/USBUART_1_std.c ****     if (0u != clearAltSetting)
 599:Generated_Source\PSoC5/USBUART_1_std.c ****     {
 600:Generated_Source\PSoC5/USBUART_1_std.c ****         for (i = 0u; i < USBUART_1_MAX_INTERFACES_NUMBER; ++i)
 601:Generated_Source\PSoC5/USBUART_1_std.c ****         {
ARM GAS  C:\Users\jon\AppData\Local\Temp\ccCLAX4y.s 			page 12


 602:Generated_Source\PSoC5/USBUART_1_std.c ****             USBUART_1_interfaceSetting[i]     = 0u;
 603:Generated_Source\PSoC5/USBUART_1_std.c ****             USBUART_1_interfaceSettingLast[i] = 0u;
 604:Generated_Source\PSoC5/USBUART_1_std.c ****         }
 605:Generated_Source\PSoC5/USBUART_1_std.c ****     }
 606:Generated_Source\PSoC5/USBUART_1_std.c **** 
 607:Generated_Source\PSoC5/USBUART_1_std.c ****     /* Init Endpoints and Device Status if configured */
 608:Generated_Source\PSoC5/USBUART_1_std.c ****     if (USBUART_1_configuration > 0u)
 609:Generated_Source\PSoC5/USBUART_1_std.c ****     {
 610:Generated_Source\PSoC5/USBUART_1_std.c ****         #if defined(USBUART_1_ENABLE_CDC_CLASS)
 611:Generated_Source\PSoC5/USBUART_1_std.c ****             uint8 cdcComNums = 0u;
 612:Generated_Source\PSoC5/USBUART_1_std.c ****         #endif  /* (USBUART_1_ENABLE_CDC_CLASS) */  
 613:Generated_Source\PSoC5/USBUART_1_std.c **** 
 614:Generated_Source\PSoC5/USBUART_1_std.c ****         pTmp = USBUART_1_GetConfigTablePtr(USBUART_1_configuration - 1u);
 615:Generated_Source\PSoC5/USBUART_1_std.c ****         
 616:Generated_Source\PSoC5/USBUART_1_std.c ****         /* Set Power status for current configuration */
 617:Generated_Source\PSoC5/USBUART_1_std.c ****         pDescr = (const uint8 *)pTmp->p_list;
 618:Generated_Source\PSoC5/USBUART_1_std.c ****         if ((pDescr[USBUART_1_CONFIG_DESCR_ATTRIB] & USBUART_1_CONFIG_DESCR_ATTRIB_SELF_POWERED) !=
 619:Generated_Source\PSoC5/USBUART_1_std.c ****         {
 620:Generated_Source\PSoC5/USBUART_1_std.c ****             USBUART_1_deviceStatus |= (uint8)  USBUART_1_DEVICE_STATUS_SELF_POWERED;
 621:Generated_Source\PSoC5/USBUART_1_std.c ****         }
 622:Generated_Source\PSoC5/USBUART_1_std.c ****         else
 623:Generated_Source\PSoC5/USBUART_1_std.c ****         {
 624:Generated_Source\PSoC5/USBUART_1_std.c ****             USBUART_1_deviceStatus &= (uint8) ~USBUART_1_DEVICE_STATUS_SELF_POWERED;
 625:Generated_Source\PSoC5/USBUART_1_std.c ****         }
 626:Generated_Source\PSoC5/USBUART_1_std.c ****         
 627:Generated_Source\PSoC5/USBUART_1_std.c ****         /* Move to next element */
 628:Generated_Source\PSoC5/USBUART_1_std.c ****         pTmp = &pTmp[1u];
 629:Generated_Source\PSoC5/USBUART_1_std.c ****         ep = pTmp->c;  /* For this table, c is the number of endpoints configurations  */
 630:Generated_Source\PSoC5/USBUART_1_std.c **** 
 631:Generated_Source\PSoC5/USBUART_1_std.c ****         #if (USBUART_1_EP_MANAGEMENT_MANUAL && USBUART_1_EP_ALLOC_DYNAMIC)
 632:Generated_Source\PSoC5/USBUART_1_std.c ****             /* Configure for dynamic EP memory allocation */
 633:Generated_Source\PSoC5/USBUART_1_std.c ****             /* p_list points the endpoint setting table. */
 634:Generated_Source\PSoC5/USBUART_1_std.c ****             pEP = (T_USBUART_1_EP_SETTINGS_BLOCK *) pTmp->p_list;
 635:Generated_Source\PSoC5/USBUART_1_std.c ****             
 636:Generated_Source\PSoC5/USBUART_1_std.c ****             for (i = 0u; i < ep; i++)
 637:Generated_Source\PSoC5/USBUART_1_std.c ****             {     
 638:Generated_Source\PSoC5/USBUART_1_std.c ****                 /* Compare current Alternate setting with EP Alt */
 639:Generated_Source\PSoC5/USBUART_1_std.c ****                 if (USBUART_1_interfaceSetting[pEP->interface] == pEP->altSetting)
 640:Generated_Source\PSoC5/USBUART_1_std.c ****                 {                                                          
 641:Generated_Source\PSoC5/USBUART_1_std.c ****                     curEp  = pEP->addr & USBUART_1_DIR_UNUSED;
 642:Generated_Source\PSoC5/USBUART_1_std.c ****                     epType = pEP->attributes & USBUART_1_EP_TYPE_MASK;
 643:Generated_Source\PSoC5/USBUART_1_std.c ****                     
 644:Generated_Source\PSoC5/USBUART_1_std.c ****                     USBUART_1_EP[curEp].addr       = pEP->addr;
 645:Generated_Source\PSoC5/USBUART_1_std.c ****                     USBUART_1_EP[curEp].attrib     = pEP->attributes;
 646:Generated_Source\PSoC5/USBUART_1_std.c ****                     USBUART_1_EP[curEp].bufferSize = pEP->bufferSize;
 647:Generated_Source\PSoC5/USBUART_1_std.c **** 
 648:Generated_Source\PSoC5/USBUART_1_std.c ****                     if (0u != (pEP->addr & USBUART_1_DIR_IN))
 649:Generated_Source\PSoC5/USBUART_1_std.c ****                     {
 650:Generated_Source\PSoC5/USBUART_1_std.c ****                         /* IN Endpoint */
 651:Generated_Source\PSoC5/USBUART_1_std.c ****                         USBUART_1_EP[curEp].epMode     = USBUART_1_GET_ACTIVE_IN_EP_CR0_MODE(epType
 652:Generated_Source\PSoC5/USBUART_1_std.c ****                         USBUART_1_EP[curEp].apiEpState = USBUART_1_EVENT_PENDING;
 653:Generated_Source\PSoC5/USBUART_1_std.c ****                     
 654:Generated_Source\PSoC5/USBUART_1_std.c ****                     #if (defined(USBUART_1_ENABLE_MIDI_STREAMING) && (USBUART_1_MIDI_IN_BUFF_SIZE >
 655:Generated_Source\PSoC5/USBUART_1_std.c ****                         if ((pEP->bMisc == USBUART_1_CLASS_AUDIO) && (epType == USBUART_1_EP_TYPE_B
 656:Generated_Source\PSoC5/USBUART_1_std.c ****                         {
 657:Generated_Source\PSoC5/USBUART_1_std.c ****                             USBUART_1_midi_in_ep = curEp;
 658:Generated_Source\PSoC5/USBUART_1_std.c ****                         }
ARM GAS  C:\Users\jon\AppData\Local\Temp\ccCLAX4y.s 			page 13


 659:Generated_Source\PSoC5/USBUART_1_std.c ****                     #endif  /* (USBUART_1_ENABLE_MIDI_STREAMING) */
 660:Generated_Source\PSoC5/USBUART_1_std.c ****                     }
 661:Generated_Source\PSoC5/USBUART_1_std.c ****                     else
 662:Generated_Source\PSoC5/USBUART_1_std.c ****                     {
 663:Generated_Source\PSoC5/USBUART_1_std.c ****                         /* OUT Endpoint */
 664:Generated_Source\PSoC5/USBUART_1_std.c ****                         USBUART_1_EP[curEp].epMode     = USBUART_1_GET_ACTIVE_OUT_EP_CR0_MODE(epTyp
 665:Generated_Source\PSoC5/USBUART_1_std.c ****                         USBUART_1_EP[curEp].apiEpState = USBUART_1_NO_EVENT_PENDING;
 666:Generated_Source\PSoC5/USBUART_1_std.c ****                         
 667:Generated_Source\PSoC5/USBUART_1_std.c ****                     #if (defined(USBUART_1_ENABLE_MIDI_STREAMING) && (USBUART_1_MIDI_OUT_BUFF_SIZE 
 668:Generated_Source\PSoC5/USBUART_1_std.c ****                         if ((pEP->bMisc == USBUART_1_CLASS_AUDIO) && (epType == USBUART_1_EP_TYPE_B
 669:Generated_Source\PSoC5/USBUART_1_std.c ****                         {
 670:Generated_Source\PSoC5/USBUART_1_std.c ****                             USBUART_1_midi_out_ep = curEp;
 671:Generated_Source\PSoC5/USBUART_1_std.c ****                         }
 672:Generated_Source\PSoC5/USBUART_1_std.c ****                     #endif  /* (USBUART_1_ENABLE_MIDI_STREAMING) */
 673:Generated_Source\PSoC5/USBUART_1_std.c ****                     }
 674:Generated_Source\PSoC5/USBUART_1_std.c **** 
 675:Generated_Source\PSoC5/USBUART_1_std.c ****                 #if(defined (USBUART_1_ENABLE_CDC_CLASS))
 676:Generated_Source\PSoC5/USBUART_1_std.c ****                     if((pEP->bMisc == USBUART_1_CLASS_CDC_DATA) ||(pEP->bMisc == USBUART_1_CLASS_CD
 677:Generated_Source\PSoC5/USBUART_1_std.c ****                     {
 678:Generated_Source\PSoC5/USBUART_1_std.c ****                         cdcComNums = USBUART_1_Cdc_EpInit(pEP, curEp, cdcComNums);
 679:Generated_Source\PSoC5/USBUART_1_std.c ****                     }
 680:Generated_Source\PSoC5/USBUART_1_std.c ****                 #endif  /* (USBUART_1_ENABLE_CDC_CLASS) */
 681:Generated_Source\PSoC5/USBUART_1_std.c ****                 }
 682:Generated_Source\PSoC5/USBUART_1_std.c ****                 
 683:Generated_Source\PSoC5/USBUART_1_std.c ****                 pEP = &pEP[1u];
 684:Generated_Source\PSoC5/USBUART_1_std.c ****             }
 685:Generated_Source\PSoC5/USBUART_1_std.c ****             
 686:Generated_Source\PSoC5/USBUART_1_std.c ****         #else
 687:Generated_Source\PSoC5/USBUART_1_std.c ****             for (i = USBUART_1_EP1; i < USBUART_1_MAX_EP; ++i)
 688:Generated_Source\PSoC5/USBUART_1_std.c ****             {
 689:Generated_Source\PSoC5/USBUART_1_std.c ****                 /* p_list points the endpoint setting table. */
 690:Generated_Source\PSoC5/USBUART_1_std.c ****                 pEP = (const T_USBUART_1_EP_SETTINGS_BLOCK CYCODE *) pTmp->p_list;
 691:Generated_Source\PSoC5/USBUART_1_std.c ****                 /* Find max length for each EP and select it (length could be different in differen
 692:Generated_Source\PSoC5/USBUART_1_std.c ****                 /* but other settings should be correct with regards to Interface alt Setting */
 693:Generated_Source\PSoC5/USBUART_1_std.c ****                 
 694:Generated_Source\PSoC5/USBUART_1_std.c ****                 for (curEp = 0u; curEp < ep; ++curEp)
 695:Generated_Source\PSoC5/USBUART_1_std.c ****                 {
 696:Generated_Source\PSoC5/USBUART_1_std.c ****                     if (i == (pEP->addr & USBUART_1_DIR_UNUSED))
 697:Generated_Source\PSoC5/USBUART_1_std.c ****                     {
 698:Generated_Source\PSoC5/USBUART_1_std.c ****                         /* Compare endpoint buffers size with current size to find greater. */
 699:Generated_Source\PSoC5/USBUART_1_std.c ****                         if (USBUART_1_EP[i].bufferSize < pEP->bufferSize)
 700:Generated_Source\PSoC5/USBUART_1_std.c ****                         {
 701:Generated_Source\PSoC5/USBUART_1_std.c ****                             USBUART_1_EP[i].bufferSize = pEP->bufferSize;
 702:Generated_Source\PSoC5/USBUART_1_std.c ****                         }
 703:Generated_Source\PSoC5/USBUART_1_std.c ****                         
 704:Generated_Source\PSoC5/USBUART_1_std.c ****                         /* Compare current Alternate setting with EP Alt */
 705:Generated_Source\PSoC5/USBUART_1_std.c ****                         if (USBUART_1_interfaceSetting[pEP->interface] == pEP->altSetting)
 706:Generated_Source\PSoC5/USBUART_1_std.c ****                         {                            
 707:Generated_Source\PSoC5/USBUART_1_std.c ****                             USBUART_1_EP[i].addr = pEP->addr;
 708:Generated_Source\PSoC5/USBUART_1_std.c ****                             USBUART_1_EP[i].attrib = pEP->attributes;
 709:Generated_Source\PSoC5/USBUART_1_std.c ****                             
 710:Generated_Source\PSoC5/USBUART_1_std.c ****                             epType = pEP->attributes & USBUART_1_EP_TYPE_MASK;
 711:Generated_Source\PSoC5/USBUART_1_std.c ****                             
 712:Generated_Source\PSoC5/USBUART_1_std.c ****                             if (0u != (pEP->addr & USBUART_1_DIR_IN))
 713:Generated_Source\PSoC5/USBUART_1_std.c ****                             {
 714:Generated_Source\PSoC5/USBUART_1_std.c ****                                 /* IN Endpoint */
 715:Generated_Source\PSoC5/USBUART_1_std.c ****                                 USBUART_1_EP[i].epMode     = USBUART_1_GET_ACTIVE_IN_EP_CR0_MODE(ep
ARM GAS  C:\Users\jon\AppData\Local\Temp\ccCLAX4y.s 			page 14


 716:Generated_Source\PSoC5/USBUART_1_std.c ****                                 USBUART_1_EP[i].apiEpState = USBUART_1_EVENT_PENDING;
 717:Generated_Source\PSoC5/USBUART_1_std.c ****                                 
 718:Generated_Source\PSoC5/USBUART_1_std.c ****                             #if (defined(USBUART_1_ENABLE_MIDI_STREAMING) && (USBUART_1_MIDI_IN_BUF
 719:Generated_Source\PSoC5/USBUART_1_std.c ****                                 if ((pEP->bMisc == USBUART_1_CLASS_AUDIO) && (epType == USBUART_1_E
 720:Generated_Source\PSoC5/USBUART_1_std.c ****                                 {
 721:Generated_Source\PSoC5/USBUART_1_std.c ****                                     USBUART_1_midi_in_ep = i;
 722:Generated_Source\PSoC5/USBUART_1_std.c ****                                 }
 723:Generated_Source\PSoC5/USBUART_1_std.c ****                             #endif  /* (USBUART_1_ENABLE_MIDI_STREAMING) */
 724:Generated_Source\PSoC5/USBUART_1_std.c ****                             }
 725:Generated_Source\PSoC5/USBUART_1_std.c ****                             else
 726:Generated_Source\PSoC5/USBUART_1_std.c ****                             {
 727:Generated_Source\PSoC5/USBUART_1_std.c ****                                 /* OUT Endpoint */
 728:Generated_Source\PSoC5/USBUART_1_std.c ****                                 USBUART_1_EP[i].epMode     = USBUART_1_GET_ACTIVE_OUT_EP_CR0_MODE(e
 729:Generated_Source\PSoC5/USBUART_1_std.c ****                                 USBUART_1_EP[i].apiEpState = USBUART_1_NO_EVENT_PENDING;
 730:Generated_Source\PSoC5/USBUART_1_std.c ****                                 
 731:Generated_Source\PSoC5/USBUART_1_std.c ****                             #if (defined(USBUART_1_ENABLE_MIDI_STREAMING) && (USBUART_1_MIDI_OUT_BU
 732:Generated_Source\PSoC5/USBUART_1_std.c ****                                 if ((pEP->bMisc == USBUART_1_CLASS_AUDIO) && (epType == USBUART_1_E
 733:Generated_Source\PSoC5/USBUART_1_std.c ****                                 {
 734:Generated_Source\PSoC5/USBUART_1_std.c ****                                     USBUART_1_midi_out_ep = i;
 735:Generated_Source\PSoC5/USBUART_1_std.c ****                                 }
 736:Generated_Source\PSoC5/USBUART_1_std.c ****                             #endif  /* (USBUART_1_ENABLE_MIDI_STREAMING) */
 737:Generated_Source\PSoC5/USBUART_1_std.c ****                             }
 738:Generated_Source\PSoC5/USBUART_1_std.c **** 
 739:Generated_Source\PSoC5/USBUART_1_std.c ****                         #if (defined(USBUART_1_ENABLE_CDC_CLASS))
 740:Generated_Source\PSoC5/USBUART_1_std.c ****                             if((pEP->bMisc == USBUART_1_CLASS_CDC_DATA) ||(pEP->bMisc == USBUART_1_
 741:Generated_Source\PSoC5/USBUART_1_std.c ****                             {
 742:Generated_Source\PSoC5/USBUART_1_std.c ****                                 cdcComNums = USBUART_1_Cdc_EpInit(pEP, i, cdcComNums);
 743:Generated_Source\PSoC5/USBUART_1_std.c ****                             }
 744:Generated_Source\PSoC5/USBUART_1_std.c ****                         #endif  /* (USBUART_1_ENABLE_CDC_CLASS) */
 745:Generated_Source\PSoC5/USBUART_1_std.c **** 
 746:Generated_Source\PSoC5/USBUART_1_std.c ****                             #if (USBUART_1_EP_MANAGEMENT_DMA_AUTO)
 747:Generated_Source\PSoC5/USBUART_1_std.c ****                                 break;  /* Use first EP setting in Auto memory management */
 748:Generated_Source\PSoC5/USBUART_1_std.c ****                             #endif /* (USBUART_1_EP_MANAGEMENT_DMA_AUTO) */
 749:Generated_Source\PSoC5/USBUART_1_std.c ****                         }
 750:Generated_Source\PSoC5/USBUART_1_std.c ****                     }
 751:Generated_Source\PSoC5/USBUART_1_std.c ****                     
 752:Generated_Source\PSoC5/USBUART_1_std.c ****                     pEP = &pEP[1u];
 753:Generated_Source\PSoC5/USBUART_1_std.c ****                 }
 754:Generated_Source\PSoC5/USBUART_1_std.c ****             }
 755:Generated_Source\PSoC5/USBUART_1_std.c ****         #endif /*  (USBUART_1_EP_MANAGEMENT_MANUAL && USBUART_1_EP_ALLOC_DYNAMIC) */
 756:Generated_Source\PSoC5/USBUART_1_std.c **** 
 757:Generated_Source\PSoC5/USBUART_1_std.c ****         /* Init class array for each interface and interface number for each EP.
 758:Generated_Source\PSoC5/USBUART_1_std.c ****         *  It is used for handling Class specific requests directed to either an
 759:Generated_Source\PSoC5/USBUART_1_std.c ****         *  interface or the endpoint.
 760:Generated_Source\PSoC5/USBUART_1_std.c ****         */
 761:Generated_Source\PSoC5/USBUART_1_std.c ****         /* p_list points the endpoint setting table. */
 762:Generated_Source\PSoC5/USBUART_1_std.c ****         pEP = (const T_USBUART_1_EP_SETTINGS_BLOCK CYCODE *) pTmp->p_list;
 763:Generated_Source\PSoC5/USBUART_1_std.c ****         for (i = 0u; i < ep; i++)
 764:Generated_Source\PSoC5/USBUART_1_std.c ****         {
 765:Generated_Source\PSoC5/USBUART_1_std.c ****             /* Configure interface number for each EP */
 766:Generated_Source\PSoC5/USBUART_1_std.c ****             USBUART_1_EP[pEP->addr & USBUART_1_DIR_UNUSED].interface = pEP->interface;
 767:Generated_Source\PSoC5/USBUART_1_std.c ****             pEP = &pEP[1u];
 768:Generated_Source\PSoC5/USBUART_1_std.c ****         }
 769:Generated_Source\PSoC5/USBUART_1_std.c ****         
 770:Generated_Source\PSoC5/USBUART_1_std.c ****         /* Init pointer on interface class table */
 771:Generated_Source\PSoC5/USBUART_1_std.c ****         USBUART_1_interfaceClass = USBUART_1_GetInterfaceClassTablePtr();
 772:Generated_Source\PSoC5/USBUART_1_std.c ****         
ARM GAS  C:\Users\jon\AppData\Local\Temp\ccCLAX4y.s 			page 15


 773:Generated_Source\PSoC5/USBUART_1_std.c ****     /* Set the endpoint buffer addresses */
 774:Generated_Source\PSoC5/USBUART_1_std.c ****     #if (!USBUART_1_EP_MANAGEMENT_DMA_AUTO)
 775:Generated_Source\PSoC5/USBUART_1_std.c ****         buffCount = 0u;
 776:Generated_Source\PSoC5/USBUART_1_std.c ****         for (ep = USBUART_1_EP1; ep < USBUART_1_MAX_EP; ++ep)
 777:Generated_Source\PSoC5/USBUART_1_std.c ****         {
 778:Generated_Source\PSoC5/USBUART_1_std.c ****             USBUART_1_EP[ep].buffOffset = buffCount;        
 779:Generated_Source\PSoC5/USBUART_1_std.c ****             buffCount += USBUART_1_EP[ep].bufferSize;
 780:Generated_Source\PSoC5/USBUART_1_std.c ****             
 781:Generated_Source\PSoC5/USBUART_1_std.c ****         #if (USBUART_1_GEN_16BITS_EP_ACCESS)
 782:Generated_Source\PSoC5/USBUART_1_std.c ****             /* Align EP buffers to be event size to access 16-bits DR register. */
 783:Generated_Source\PSoC5/USBUART_1_std.c ****             buffCount += (0u != (buffCount & 0x01u)) ? 1u : 0u;
 784:Generated_Source\PSoC5/USBUART_1_std.c ****         #endif /* (USBUART_1_GEN_16BITS_EP_ACCESS) */            
 785:Generated_Source\PSoC5/USBUART_1_std.c ****         }
 786:Generated_Source\PSoC5/USBUART_1_std.c ****     #endif /* (!USBUART_1_EP_MANAGEMENT_DMA_AUTO) */
 787:Generated_Source\PSoC5/USBUART_1_std.c **** 
 788:Generated_Source\PSoC5/USBUART_1_std.c ****         /* Configure hardware registers */
 789:Generated_Source\PSoC5/USBUART_1_std.c ****         USBUART_1_ConfigReg();
 790:Generated_Source\PSoC5/USBUART_1_std.c ****     }
 791:Generated_Source\PSoC5/USBUART_1_std.c **** }
 792:Generated_Source\PSoC5/USBUART_1_std.c **** 
 793:Generated_Source\PSoC5/USBUART_1_std.c **** 
 794:Generated_Source\PSoC5/USBUART_1_std.c **** /*******************************************************************************
 795:Generated_Source\PSoC5/USBUART_1_std.c **** * Function Name: USBUART_1_ConfigAltChanged
 796:Generated_Source\PSoC5/USBUART_1_std.c **** ****************************************************************************//**
 797:Generated_Source\PSoC5/USBUART_1_std.c **** *
 798:Generated_Source\PSoC5/USBUART_1_std.c **** *  This routine update configuration for the required endpoints only.
 799:Generated_Source\PSoC5/USBUART_1_std.c **** *  It is called after SET_INTERFACE request when Static memory allocation used.
 800:Generated_Source\PSoC5/USBUART_1_std.c **** *
 801:Generated_Source\PSoC5/USBUART_1_std.c **** * \reentrant
 802:Generated_Source\PSoC5/USBUART_1_std.c **** *  No.
 803:Generated_Source\PSoC5/USBUART_1_std.c **** *
 804:Generated_Source\PSoC5/USBUART_1_std.c **** *******************************************************************************/
 805:Generated_Source\PSoC5/USBUART_1_std.c **** void USBUART_1_ConfigAltChanged(void) 
  27              		.loc 1 805 0
  28              		.cfi_startproc
  29              		@ args = 0, pretend = 0, frame = 0
  30              		@ frame_needed = 0, uses_anonymous_args = 0
 806:Generated_Source\PSoC5/USBUART_1_std.c **** {
 807:Generated_Source\PSoC5/USBUART_1_std.c ****     uint8 ep;
 808:Generated_Source\PSoC5/USBUART_1_std.c ****     uint8 curEp;
 809:Generated_Source\PSoC5/USBUART_1_std.c ****     uint8 epType;
 810:Generated_Source\PSoC5/USBUART_1_std.c ****     uint8 i;
 811:Generated_Source\PSoC5/USBUART_1_std.c ****     uint8 interfaceNum;
 812:Generated_Source\PSoC5/USBUART_1_std.c **** 
 813:Generated_Source\PSoC5/USBUART_1_std.c ****     const T_USBUART_1_LUT CYCODE *pTmp;
 814:Generated_Source\PSoC5/USBUART_1_std.c ****     const T_USBUART_1_EP_SETTINGS_BLOCK CYCODE *pEP;
 815:Generated_Source\PSoC5/USBUART_1_std.c **** 
 816:Generated_Source\PSoC5/USBUART_1_std.c ****     /* Init Endpoints and Device Status if configured */
 817:Generated_Source\PSoC5/USBUART_1_std.c ****     if (USBUART_1_configuration > 0u)
 818:Generated_Source\PSoC5/USBUART_1_std.c ****     {
 819:Generated_Source\PSoC5/USBUART_1_std.c ****         /* Get number of endpoints configurations (ep). */
 820:Generated_Source\PSoC5/USBUART_1_std.c ****         pTmp = USBUART_1_GetConfigTablePtr(USBUART_1_configuration - 1u);
  31              		.loc 1 820 0
  32 0000 4F4B     		ldr	r3, .L19
  33              	.LBB24:
  34              	.LBB25:
 821:Generated_Source\PSoC5/USBUART_1_std.c ****         pTmp = &pTmp[1u];
ARM GAS  C:\Users\jon\AppData\Local\Temp\ccCLAX4y.s 			page 16


 822:Generated_Source\PSoC5/USBUART_1_std.c ****         ep = pTmp->c;
 823:Generated_Source\PSoC5/USBUART_1_std.c **** 
 824:Generated_Source\PSoC5/USBUART_1_std.c ****         /* Get pointer to endpoints setting table (pEP). */
 825:Generated_Source\PSoC5/USBUART_1_std.c ****         pEP = (const T_USBUART_1_EP_SETTINGS_BLOCK CYCODE *) pTmp->p_list;
 826:Generated_Source\PSoC5/USBUART_1_std.c ****         
 827:Generated_Source\PSoC5/USBUART_1_std.c ****         /* Look through all possible endpoint configurations. Find endpoints 
 828:Generated_Source\PSoC5/USBUART_1_std.c ****         * which belong to current interface and alternate settings for 
 829:Generated_Source\PSoC5/USBUART_1_std.c ****         * re-configuration.
 830:Generated_Source\PSoC5/USBUART_1_std.c ****         */
 831:Generated_Source\PSoC5/USBUART_1_std.c ****         interfaceNum = USBUART_1_interfaceNumber;
 832:Generated_Source\PSoC5/USBUART_1_std.c ****         for (i = 0u; i < ep; i++)
 833:Generated_Source\PSoC5/USBUART_1_std.c ****         {
 834:Generated_Source\PSoC5/USBUART_1_std.c ****             /* Find endpoints which belong to current interface and alternate settings. */
 835:Generated_Source\PSoC5/USBUART_1_std.c ****             if ((interfaceNum == pEP->interface) && 
 836:Generated_Source\PSoC5/USBUART_1_std.c ****                 (USBUART_1_interfaceSetting[interfaceNum] == pEP->altSetting))
 837:Generated_Source\PSoC5/USBUART_1_std.c ****             {
 838:Generated_Source\PSoC5/USBUART_1_std.c ****                 curEp  = ((uint8) pEP->addr & USBUART_1_DIR_UNUSED);
 839:Generated_Source\PSoC5/USBUART_1_std.c ****                 epType = ((uint8) pEP->attributes & USBUART_1_EP_TYPE_MASK);
 840:Generated_Source\PSoC5/USBUART_1_std.c ****                 
 841:Generated_Source\PSoC5/USBUART_1_std.c ****                 /* Change the SIE mode for the selected EP to NAK ALL */
 842:Generated_Source\PSoC5/USBUART_1_std.c ****                 USBUART_1_EP[curEp].epToggle   = 0u;
 843:Generated_Source\PSoC5/USBUART_1_std.c ****                 USBUART_1_EP[curEp].addr       = pEP->addr;
 844:Generated_Source\PSoC5/USBUART_1_std.c ****                 USBUART_1_EP[curEp].attrib     = pEP->attributes;
 845:Generated_Source\PSoC5/USBUART_1_std.c ****                 USBUART_1_EP[curEp].bufferSize = pEP->bufferSize;
 846:Generated_Source\PSoC5/USBUART_1_std.c **** 
 847:Generated_Source\PSoC5/USBUART_1_std.c ****                 if (0u != (pEP->addr & USBUART_1_DIR_IN))
 848:Generated_Source\PSoC5/USBUART_1_std.c ****                 {
 849:Generated_Source\PSoC5/USBUART_1_std.c ****                     /* IN Endpoint */
 850:Generated_Source\PSoC5/USBUART_1_std.c ****                     USBUART_1_EP[curEp].epMode     = USBUART_1_GET_ACTIVE_IN_EP_CR0_MODE(epType);
 851:Generated_Source\PSoC5/USBUART_1_std.c ****                     USBUART_1_EP[curEp].apiEpState = USBUART_1_EVENT_PENDING;
 852:Generated_Source\PSoC5/USBUART_1_std.c ****                 }
 853:Generated_Source\PSoC5/USBUART_1_std.c ****                 else
 854:Generated_Source\PSoC5/USBUART_1_std.c ****                 {
 855:Generated_Source\PSoC5/USBUART_1_std.c ****                     /* OUT Endpoint */
 856:Generated_Source\PSoC5/USBUART_1_std.c ****                     USBUART_1_EP[curEp].epMode     = USBUART_1_GET_ACTIVE_OUT_EP_CR0_MODE(epType);
 857:Generated_Source\PSoC5/USBUART_1_std.c ****                     USBUART_1_EP[curEp].apiEpState = USBUART_1_NO_EVENT_PENDING;
 858:Generated_Source\PSoC5/USBUART_1_std.c ****                 }
 859:Generated_Source\PSoC5/USBUART_1_std.c ****                 
 860:Generated_Source\PSoC5/USBUART_1_std.c ****                 /* Make SIE to NAK any endpoint requests */
 861:Generated_Source\PSoC5/USBUART_1_std.c ****                 USBUART_1_SIE_EP_BASE.sieEp[curEp].epCr0 = USBUART_1_MODE_NAK_IN_OUT;
 862:Generated_Source\PSoC5/USBUART_1_std.c **** 
 863:Generated_Source\PSoC5/USBUART_1_std.c ****             #if (USBUART_1_EP_MANAGEMENT_DMA_AUTO)
 864:Generated_Source\PSoC5/USBUART_1_std.c ****                 /* Clear IN data ready. */
 865:Generated_Source\PSoC5/USBUART_1_std.c ****                 USBUART_1_ARB_EP_BASE.arbEp[curEp].epCfg &= (uint8) ~USBUART_1_ARB_EPX_CFG_IN_DATA_
 866:Generated_Source\PSoC5/USBUART_1_std.c **** 
 867:Generated_Source\PSoC5/USBUART_1_std.c ****                 /* Select endpoint number of reconfiguration */
 868:Generated_Source\PSoC5/USBUART_1_std.c ****                 USBUART_1_DYN_RECONFIG_REG = (uint8) ((curEp - 1u) << USBUART_1_DYN_RECONFIG_EP_SHI
 869:Generated_Source\PSoC5/USBUART_1_std.c ****                 
 870:Generated_Source\PSoC5/USBUART_1_std.c ****                 /* Request for dynamic re-configuration of endpoint. */
 871:Generated_Source\PSoC5/USBUART_1_std.c ****                 USBUART_1_DYN_RECONFIG_REG |= USBUART_1_DYN_RECONFIG_ENABLE;
 872:Generated_Source\PSoC5/USBUART_1_std.c ****                 
 873:Generated_Source\PSoC5/USBUART_1_std.c ****                 /* Wait until block is ready for re-configuration */
 874:Generated_Source\PSoC5/USBUART_1_std.c ****                 while (0u == (USBUART_1_DYN_RECONFIG_REG & USBUART_1_DYN_RECONFIG_RDY_STS))
 875:Generated_Source\PSoC5/USBUART_1_std.c ****                 {
 876:Generated_Source\PSoC5/USBUART_1_std.c ****                 }
 877:Generated_Source\PSoC5/USBUART_1_std.c ****                 
 878:Generated_Source\PSoC5/USBUART_1_std.c ****                 /* Once DYN_RECONFIG_RDY_STS bit is set, FW can change the EP configuration. */
ARM GAS  C:\Users\jon\AppData\Local\Temp\ccCLAX4y.s 			page 17


 879:Generated_Source\PSoC5/USBUART_1_std.c ****                 /* Change EP Type with new direction */
 880:Generated_Source\PSoC5/USBUART_1_std.c ****                 if (0u != (pEP->addr & USBUART_1_DIR_IN))
 881:Generated_Source\PSoC5/USBUART_1_std.c ****                 {
 882:Generated_Source\PSoC5/USBUART_1_std.c ****                     /* Set endpoint type: 0 - IN and 1 - OUT. */
 883:Generated_Source\PSoC5/USBUART_1_std.c ****                     USBUART_1_EP_TYPE_REG &= (uint8) ~(uint8)((uint8) 0x01u << (curEp - 1u));
 884:Generated_Source\PSoC5/USBUART_1_std.c ****                     
 885:Generated_Source\PSoC5/USBUART_1_std.c ****                 #if (CY_PSOC4)
 886:Generated_Source\PSoC5/USBUART_1_std.c ****                     /* Clear DMA_TERMIN for IN endpoint */
 887:Generated_Source\PSoC5/USBUART_1_std.c ****                     USBUART_1_ARB_EP_BASE.arbEp[curEp].epIntEn &= (uint32) ~USBUART_1_ARB_EPX_INT_D
 888:Generated_Source\PSoC5/USBUART_1_std.c ****                 #endif /* (CY_PSOC4) */
 889:Generated_Source\PSoC5/USBUART_1_std.c ****                 }
 890:Generated_Source\PSoC5/USBUART_1_std.c ****                 else
 891:Generated_Source\PSoC5/USBUART_1_std.c ****                 {
 892:Generated_Source\PSoC5/USBUART_1_std.c ****                     /* Set endpoint type: 0 - IN and 1- OUT. */
 893:Generated_Source\PSoC5/USBUART_1_std.c ****                     USBUART_1_EP_TYPE_REG |= (uint8) ((uint8) 0x01u << (curEp - 1u));
 894:Generated_Source\PSoC5/USBUART_1_std.c ****                     
 895:Generated_Source\PSoC5/USBUART_1_std.c ****                 #if (CY_PSOC4)
 896:Generated_Source\PSoC5/USBUART_1_std.c ****                     /* Set DMA_TERMIN for OUT endpoint */
 897:Generated_Source\PSoC5/USBUART_1_std.c ****                     USBUART_1_ARB_EP_BASE.arbEp[curEp].epIntEn |= (uint32) USBUART_1_ARB_EPX_INT_DM
 898:Generated_Source\PSoC5/USBUART_1_std.c ****                 #endif /* (CY_PSOC4) */
 899:Generated_Source\PSoC5/USBUART_1_std.c ****                 }
 900:Generated_Source\PSoC5/USBUART_1_std.c ****                 
 901:Generated_Source\PSoC5/USBUART_1_std.c ****                 /* Complete dynamic re-configuration: all endpoint related status and signals 
 902:Generated_Source\PSoC5/USBUART_1_std.c ****                 * are set into the default state.
 903:Generated_Source\PSoC5/USBUART_1_std.c ****                 */
 904:Generated_Source\PSoC5/USBUART_1_std.c ****                 USBUART_1_DYN_RECONFIG_REG &= (uint8) ~USBUART_1_DYN_RECONFIG_ENABLE;
 905:Generated_Source\PSoC5/USBUART_1_std.c **** 
 906:Generated_Source\PSoC5/USBUART_1_std.c ****             #else
 907:Generated_Source\PSoC5/USBUART_1_std.c ****                 USBUART_1_SIE_EP_BASE.sieEp[curEp].epCnt0 = HI8(USBUART_1_EP[curEp].bufferSize);
 908:Generated_Source\PSoC5/USBUART_1_std.c ****                 USBUART_1_SIE_EP_BASE.sieEp[curEp].epCnt1 = LO8(USBUART_1_EP[curEp].bufferSize);
 909:Generated_Source\PSoC5/USBUART_1_std.c ****                 
 910:Generated_Source\PSoC5/USBUART_1_std.c ****                 #if (CY_PSOC4)
 911:Generated_Source\PSoC5/USBUART_1_std.c ****                     USBUART_1_ARB_EP16_BASE.arbEp[curEp].rwRa16  = (uint32) USBUART_1_EP[curEp].buf
 912:Generated_Source\PSoC5/USBUART_1_std.c ****                     USBUART_1_ARB_EP16_BASE.arbEp[curEp].rwWa16  = (uint32) USBUART_1_EP[curEp].buf
 913:Generated_Source\PSoC5/USBUART_1_std.c ****                 #else
 914:Generated_Source\PSoC5/USBUART_1_std.c ****                     USBUART_1_ARB_EP_BASE.arbEp[curEp].rwRa    = LO8(USBUART_1_EP[curEp].buffOffset
 915:Generated_Source\PSoC5/USBUART_1_std.c ****                     USBUART_1_ARB_EP_BASE.arbEp[curEp].rwRaMsb = HI8(USBUART_1_EP[curEp].buffOffset
 916:Generated_Source\PSoC5/USBUART_1_std.c ****                     USBUART_1_ARB_EP_BASE.arbEp[curEp].rwWa    = LO8(USBUART_1_EP[curEp].buffOffset
 917:Generated_Source\PSoC5/USBUART_1_std.c ****                     USBUART_1_ARB_EP_BASE.arbEp[curEp].rwWaMsb = HI8(USBUART_1_EP[curEp].buffOffset
 918:Generated_Source\PSoC5/USBUART_1_std.c ****                 #endif /* (CY_PSOC4) */                
 919:Generated_Source\PSoC5/USBUART_1_std.c ****             #endif /* (USBUART_1_EP_MANAGEMENT_DMA_AUTO) */
 920:Generated_Source\PSoC5/USBUART_1_std.c ****             }
 921:Generated_Source\PSoC5/USBUART_1_std.c ****             
 922:Generated_Source\PSoC5/USBUART_1_std.c ****             pEP = &pEP[1u]; /* Get next EP element */
 923:Generated_Source\PSoC5/USBUART_1_std.c ****         }
 924:Generated_Source\PSoC5/USBUART_1_std.c ****         
 925:Generated_Source\PSoC5/USBUART_1_std.c ****         /* The main loop has to re-enable DMA and OUT endpoint */
 926:Generated_Source\PSoC5/USBUART_1_std.c ****     }
 927:Generated_Source\PSoC5/USBUART_1_std.c **** }
 928:Generated_Source\PSoC5/USBUART_1_std.c **** 
 929:Generated_Source\PSoC5/USBUART_1_std.c **** 
 930:Generated_Source\PSoC5/USBUART_1_std.c **** /*******************************************************************************
 931:Generated_Source\PSoC5/USBUART_1_std.c **** * Function Name: USBUART_1_GetConfigTablePtr
 932:Generated_Source\PSoC5/USBUART_1_std.c **** ****************************************************************************//**
 933:Generated_Source\PSoC5/USBUART_1_std.c **** *
 934:Generated_Source\PSoC5/USBUART_1_std.c **** *  This routine returns a pointer a configuration table entry
 935:Generated_Source\PSoC5/USBUART_1_std.c **** *
ARM GAS  C:\Users\jon\AppData\Local\Temp\ccCLAX4y.s 			page 18


 936:Generated_Source\PSoC5/USBUART_1_std.c **** *  \param confIndex:  Configuration Index
 937:Generated_Source\PSoC5/USBUART_1_std.c **** *
 938:Generated_Source\PSoC5/USBUART_1_std.c **** * \return
 939:Generated_Source\PSoC5/USBUART_1_std.c **** *  Device Descriptor pointer or NULL when descriptor does not exist.
 940:Generated_Source\PSoC5/USBUART_1_std.c **** *
 941:Generated_Source\PSoC5/USBUART_1_std.c **** *******************************************************************************/
 942:Generated_Source\PSoC5/USBUART_1_std.c **** const T_USBUART_1_LUT CYCODE *USBUART_1_GetConfigTablePtr(uint8 confIndex)
 943:Generated_Source\PSoC5/USBUART_1_std.c ****                                                         
 944:Generated_Source\PSoC5/USBUART_1_std.c **** {
 945:Generated_Source\PSoC5/USBUART_1_std.c ****     /* Device Table */
 946:Generated_Source\PSoC5/USBUART_1_std.c ****     const T_USBUART_1_LUT CYCODE *pTmp;
 947:Generated_Source\PSoC5/USBUART_1_std.c **** 
 948:Generated_Source\PSoC5/USBUART_1_std.c ****     pTmp = (const T_USBUART_1_LUT CYCODE *) USBUART_1_TABLE[USBUART_1_device].p_list;
  35              		.loc 1 948 0
  36 0002 5049     		ldr	r1, .L19+4
  37              	.LBE25:
  38              	.LBE24:
 820:Generated_Source\PSoC5/USBUART_1_std.c ****         pTmp = &pTmp[1u];
  39              		.loc 1 820 0
  40 0004 1B78     		ldrb	r3, [r3]	@ zero_extendqisi2
  41              	.LBB29:
  42              	.LBB26:
  43              		.loc 1 948 0
  44 0006 504A     		ldr	r2, .L19+8
  45 0008 0978     		ldrb	r1, [r1]	@ zero_extendqisi2
  46              	.LBE26:
  47              	.LBE29:
 820:Generated_Source\PSoC5/USBUART_1_std.c ****         pTmp = &pTmp[1u];
  48              		.loc 1 820 0
  49 000a 013B     		subs	r3, r3, #1
  50              	.LBB30:
  51              	.LBB27:
  52              		.loc 1 948 0
  53 000c 02EBC102 		add	r2, r2, r1, lsl #3
  54 0010 5268     		ldr	r2, [r2, #4]
  55              	.LBE27:
  56              	.LBE30:
 820:Generated_Source\PSoC5/USBUART_1_std.c ****         pTmp = &pTmp[1u];
  57              		.loc 1 820 0
  58 0012 DBB2     		uxtb	r3, r3
  59              	.LVL0:
  60              	.LBB31:
  61              	.LBB28:
 949:Generated_Source\PSoC5/USBUART_1_std.c **** 
 950:Generated_Source\PSoC5/USBUART_1_std.c ****     /* The first entry points to the Device Descriptor,
 951:Generated_Source\PSoC5/USBUART_1_std.c ****     *  the second entry point to the BOS Descriptor
 952:Generated_Source\PSoC5/USBUART_1_std.c ****     *  the rest configuration entries.
 953:Generated_Source\PSoC5/USBUART_1_std.c ****     *  Set pointer to the first Configuration Descriptor
 954:Generated_Source\PSoC5/USBUART_1_std.c ****     */
 955:Generated_Source\PSoC5/USBUART_1_std.c ****     pTmp = &pTmp[2u];
 956:Generated_Source\PSoC5/USBUART_1_std.c ****     /* For this table, c is the number of configuration descriptors  */
 957:Generated_Source\PSoC5/USBUART_1_std.c ****     if(confIndex >= pTmp->c)   /* Verify that required configuration descriptor exists */
  62              		.loc 1 957 0
  63 0014 117C     		ldrb	r1, [r2, #16]	@ zero_extendqisi2
  64 0016 9942     		cmp	r1, r3
  65 0018 40F28280 		bls	.L2
 958:Generated_Source\PSoC5/USBUART_1_std.c ****     {
ARM GAS  C:\Users\jon\AppData\Local\Temp\ccCLAX4y.s 			page 19


 959:Generated_Source\PSoC5/USBUART_1_std.c ****         pTmp = (const T_USBUART_1_LUT CYCODE *) NULL;
 960:Generated_Source\PSoC5/USBUART_1_std.c ****     }
 961:Generated_Source\PSoC5/USBUART_1_std.c ****     else
 962:Generated_Source\PSoC5/USBUART_1_std.c ****     {
 963:Generated_Source\PSoC5/USBUART_1_std.c ****         pTmp = (const T_USBUART_1_LUT CYCODE *) pTmp[confIndex].p_list;
  66              		.loc 1 963 0
  67 001c 02EBC303 		add	r3, r2, r3, lsl #3
  68              	.LVL1:
  69 0020 5B69     		ldr	r3, [r3, #20]
  70              	.LVL2:
  71              	.LBE28:
  72              	.LBE31:
 831:Generated_Source\PSoC5/USBUART_1_std.c ****         for (i = 0u; i < ep; i++)
  73              		.loc 1 831 0
  74 0022 4A49     		ldr	r1, .L19+12
 822:Generated_Source\PSoC5/USBUART_1_std.c **** 
  75              		.loc 1 822 0
  76 0024 1A7A     		ldrb	r2, [r3, #8]	@ zero_extendqisi2
  77              	.LVL3:
 831:Generated_Source\PSoC5/USBUART_1_std.c ****         for (i = 0u; i < ep; i++)
  78              		.loc 1 831 0
  79 0026 0878     		ldrb	r0, [r1]	@ zero_extendqisi2
 825:Generated_Source\PSoC5/USBUART_1_std.c ****         
  80              		.loc 1 825 0
  81 0028 DB68     		ldr	r3, [r3, #12]
  82              	.LVL4:
 831:Generated_Source\PSoC5/USBUART_1_std.c ****         for (i = 0u; i < ep; i++)
  83              		.loc 1 831 0
  84 002a C0B2     		uxtb	r0, r0
  85              	.LVL5:
 832:Generated_Source\PSoC5/USBUART_1_std.c ****         {
  86              		.loc 1 832 0
  87 002c 002A     		cmp	r2, #0
  88 002e 00F08680 		beq	.L15
  89 0032 511E     		subs	r1, r2, #1
  90 0034 C9B2     		uxtb	r1, r1
  91 0036 0231     		adds	r1, r1, #2
 805:Generated_Source\PSoC5/USBUART_1_std.c **** {
  92              		.loc 1 805 0
  93 0038 2DE9F047 		push	{r4, r5, r6, r7, r8, r9, r10, lr}
  94              		.cfi_def_cfa_offset 32
  95              		.cfi_offset 4, -32
  96              		.cfi_offset 5, -28
  97              		.cfi_offset 6, -24
  98              		.cfi_offset 7, -20
  99              		.cfi_offset 8, -16
 100              		.cfi_offset 9, -12
 101              		.cfi_offset 10, -8
 102              		.cfi_offset 14, -4
 103 003c 03EBC101 		add	r1, r3, r1, lsl #3
 836:Generated_Source\PSoC5/USBUART_1_std.c ****             {
 104              		.loc 1 836 0
 105 0040 434D     		ldr	r5, .L19+16
 842:Generated_Source\PSoC5/USBUART_1_std.c ****                 USBUART_1_EP[curEp].addr       = pEP->addr;
 106              		.loc 1 842 0
 107 0042 444E     		ldr	r6, .L19+20
 108 0044 0833     		adds	r3, r3, #8
ARM GAS  C:\Users\jon\AppData\Local\Temp\ccCLAX4y.s 			page 20


 109              	.LVL6:
 110 0046 0027     		movs	r7, #0
 861:Generated_Source\PSoC5/USBUART_1_std.c **** 
 111              		.loc 1 861 0
 112 0048 4FF0010E 		mov	lr, #1
 113 004c 02E0     		b	.L9
 114              	.LVL7:
 115              	.L4:
 116 004e 0833     		adds	r3, r3, #8
 117              	.LVL8:
 832:Generated_Source\PSoC5/USBUART_1_std.c ****         {
 118              		.loc 1 832 0
 119 0050 8B42     		cmp	r3, r1
 120 0052 63D0     		beq	.L17
 121              	.LVL9:
 122              	.L9:
 835:Generated_Source\PSoC5/USBUART_1_std.c ****                 (USBUART_1_interfaceSetting[interfaceNum] == pEP->altSetting))
 123              		.loc 1 835 0
 124 0054 13F8082C 		ldrb	r2, [r3, #-8]	@ zero_extendqisi2
 125 0058 8242     		cmp	r2, r0
 126 005a F8D1     		bne	.L4
 836:Generated_Source\PSoC5/USBUART_1_std.c ****             {
 127              		.loc 1 836 0
 128 005c 2A5C     		ldrb	r2, [r5, r0]	@ zero_extendqisi2
 835:Generated_Source\PSoC5/USBUART_1_std.c ****                 (USBUART_1_interfaceSetting[interfaceNum] == pEP->altSetting))
 129              		.loc 1 835 0
 130 005e 13F8074C 		ldrb	r4, [r3, #-7]	@ zero_extendqisi2
 131 0062 9442     		cmp	r4, r2
 132 0064 F3D1     		bne	.L4
 838:Generated_Source\PSoC5/USBUART_1_std.c ****                 epType = ((uint8) pEP->attributes & USBUART_1_EP_TYPE_MASK);
 133              		.loc 1 838 0
 134 0066 13F8062C 		ldrb	r2, [r3, #-6]	@ zero_extendqisi2
 839:Generated_Source\PSoC5/USBUART_1_std.c ****                 
 135              		.loc 1 839 0
 136 006a 13F805CC 		ldrb	ip, [r3, #-5]	@ zero_extendqisi2
 838:Generated_Source\PSoC5/USBUART_1_std.c ****                 epType = ((uint8) pEP->attributes & USBUART_1_EP_TYPE_MASK);
 137              		.loc 1 838 0
 138 006e 02F07F02 		and	r2, r2, #127
 139              	.LVL10:
 842:Generated_Source\PSoC5/USBUART_1_std.c ****                 USBUART_1_EP[curEp].addr       = pEP->addr;
 140              		.loc 1 842 0
 141 0072 4FEA4208 		lsl	r8, r2, #1
 142 0076 08EB0209 		add	r9, r8, r2
 143 007a 06EB8904 		add	r4, r6, r9, lsl #2
 144 007e E770     		strb	r7, [r4, #3]
 843:Generated_Source\PSoC5/USBUART_1_std.c ****                 USBUART_1_EP[curEp].attrib     = pEP->attributes;
 145              		.loc 1 843 0
 146 0080 13F806AC 		ldrb	r10, [r3, #-6]	@ zero_extendqisi2
 839:Generated_Source\PSoC5/USBUART_1_std.c ****                 
 147              		.loc 1 839 0
 148 0084 0CF0030C 		and	ip, ip, #3
 149              	.LVL11:
 843:Generated_Source\PSoC5/USBUART_1_std.c ****                 USBUART_1_EP[curEp].attrib     = pEP->attributes;
 150              		.loc 1 843 0
 151 0088 84F804A0 		strb	r10, [r4, #4]
 844:Generated_Source\PSoC5/USBUART_1_std.c ****                 USBUART_1_EP[curEp].bufferSize = pEP->bufferSize;
 152              		.loc 1 844 0
ARM GAS  C:\Users\jon\AppData\Local\Temp\ccCLAX4y.s 			page 21


 153 008c 13F805AC 		ldrb	r10, [r3, #-5]	@ zero_extendqisi2
 154 0090 06F829A0 		strb	r10, [r6, r9, lsl #2]
 845:Generated_Source\PSoC5/USBUART_1_std.c **** 
 155              		.loc 1 845 0
 156 0094 33F8049C 		ldrh	r9, [r3, #-4]
 157 0098 A4F80890 		strh	r9, [r4, #8]	@ movhi
 847:Generated_Source\PSoC5/USBUART_1_std.c ****                 {
 158              		.loc 1 847 0
 159 009c 13F9069C 		ldrsb	r9, [r3, #-6]
 160 00a0 B9F1000F 		cmp	r9, #0
 161 00a4 3FDB     		blt	.L18
 856:Generated_Source\PSoC5/USBUART_1_std.c ****                     USBUART_1_EP[curEp].apiEpState = USBUART_1_NO_EVENT_PENDING;
 162              		.loc 1 856 0
 163 00a6 BCF1010F 		cmp	ip, #1
 164 00aa 0CBF     		ite	eq
 165 00ac 4FF0050C 		moveq	ip, #5
 166              	.LVL12:
 167 00b0 4FF0090C 		movne	ip, #9
 168 00b4 84F805C0 		strb	ip, [r4, #5]
 857:Generated_Source\PSoC5/USBUART_1_std.c ****                 }
 169              		.loc 1 857 0
 170 00b8 6770     		strb	r7, [r4, #1]
 171              	.L7:
 172 00ba DFF8A0C0 		ldr	ip, .L19+28
 173 00be 4FEA0219 		lsl	r9, r2, #4
 174 00c2 CC44     		add	ip, ip, r9
 907:Generated_Source\PSoC5/USBUART_1_std.c ****                 USBUART_1_SIE_EP_BASE.sieEp[curEp].epCnt1 = LO8(USBUART_1_EP[curEp].bufferSize);
 175              		.loc 1 907 0
 176 00c4 4244     		add	r2, r2, r8
 177              	.LVL13:
 861:Generated_Source\PSoC5/USBUART_1_std.c **** 
 178              		.loc 1 861 0
 179 00c6 8CF802E0 		strb	lr, [ip, #2]
 907:Generated_Source\PSoC5/USBUART_1_std.c ****                 USBUART_1_SIE_EP_BASE.sieEp[curEp].epCnt1 = LO8(USBUART_1_EP[curEp].bufferSize);
 180              		.loc 1 907 0
 181 00ca 06EB8202 		add	r2, r6, r2, lsl #2
 182 00ce B2F80880 		ldrh	r8, [r2, #8]
 183 00d2 214C     		ldr	r4, .L19+24
 184 00d4 C8F30728 		ubfx	r8, r8, #8, #8
 185 00d8 8CF80080 		strb	r8, [ip]
 908:Generated_Source\PSoC5/USBUART_1_std.c ****                 
 186              		.loc 1 908 0
 187 00dc B2F80880 		ldrh	r8, [r2, #8]
 188 00e0 4C44     		add	r4, r4, r9
 189 00e2 5FFA88F8 		uxtb	r8, r8
 190 00e6 8CF80180 		strb	r8, [ip, #1]
 914:Generated_Source\PSoC5/USBUART_1_std.c ****                     USBUART_1_ARB_EP_BASE.arbEp[curEp].rwRaMsb = HI8(USBUART_1_EP[curEp].buffOffset
 191              		.loc 1 914 0
 192 00ea B2F806C0 		ldrh	ip, [r2, #6]
 193 00ee 0833     		adds	r3, r3, #8
 194              	.LVL14:
 195 00f0 5FFA8CFC 		uxtb	ip, ip
 196 00f4 84F806C0 		strb	ip, [r4, #6]
 915:Generated_Source\PSoC5/USBUART_1_std.c ****                     USBUART_1_ARB_EP_BASE.arbEp[curEp].rwWa    = LO8(USBUART_1_EP[curEp].buffOffset
 197              		.loc 1 915 0
 198 00f8 B2F806C0 		ldrh	ip, [r2, #6]
 832:Generated_Source\PSoC5/USBUART_1_std.c ****         {
ARM GAS  C:\Users\jon\AppData\Local\Temp\ccCLAX4y.s 			page 22


 199              		.loc 1 832 0
 200 00fc 8B42     		cmp	r3, r1
 915:Generated_Source\PSoC5/USBUART_1_std.c ****                     USBUART_1_ARB_EP_BASE.arbEp[curEp].rwWa    = LO8(USBUART_1_EP[curEp].buffOffset
 201              		.loc 1 915 0
 202 00fe CCF3072C 		ubfx	ip, ip, #8, #8
 203 0102 84F807C0 		strb	ip, [r4, #7]
 916:Generated_Source\PSoC5/USBUART_1_std.c ****                     USBUART_1_ARB_EP_BASE.arbEp[curEp].rwWaMsb = HI8(USBUART_1_EP[curEp].buffOffset
 204              		.loc 1 916 0
 205 0106 B2F806C0 		ldrh	ip, [r2, #6]
 206 010a 5FFA8CFC 		uxtb	ip, ip
 207 010e 84F804C0 		strb	ip, [r4, #4]
 917:Generated_Source\PSoC5/USBUART_1_std.c ****                 #endif /* (CY_PSOC4) */                
 208              		.loc 1 917 0
 209 0112 D288     		ldrh	r2, [r2, #6]
 210 0114 C2F30722 		ubfx	r2, r2, #8, #8
 211 0118 6271     		strb	r2, [r4, #5]
 212              	.LVL15:
 832:Generated_Source\PSoC5/USBUART_1_std.c ****         {
 213              		.loc 1 832 0
 214 011a 9BD1     		bne	.L9
 215              	.L17:
 216 011c BDE8F087 		pop	{r4, r5, r6, r7, r8, r9, r10, pc}
 217              	.LVL16:
 218              	.L2:
 219              		.cfi_def_cfa_offset 0
 220              		.cfi_restore 4
 221              		.cfi_restore 5
 222              		.cfi_restore 6
 223              		.cfi_restore 7
 224              		.cfi_restore 8
 225              		.cfi_restore 9
 226              		.cfi_restore 10
 227              		.cfi_restore 14
 822:Generated_Source\PSoC5/USBUART_1_std.c **** 
 228              		.loc 1 822 0
 229 0120 0023     		movs	r3, #0
 230 0122 1B7A     		ldrb	r3, [r3, #8]	@ zero_extendqisi2
 231 0124 FFDE     		.inst	0xdeff
 232              	.LVL17:
 233              	.L18:
 234              		.cfi_def_cfa_offset 32
 235              		.cfi_offset 4, -32
 236              		.cfi_offset 5, -28
 237              		.cfi_offset 6, -24
 238              		.cfi_offset 7, -20
 239              		.cfi_offset 8, -16
 240              		.cfi_offset 9, -12
 241              		.cfi_offset 10, -8
 242              		.cfi_offset 14, -4
 850:Generated_Source\PSoC5/USBUART_1_std.c ****                     USBUART_1_EP[curEp].apiEpState = USBUART_1_EVENT_PENDING;
 243              		.loc 1 850 0
 244 0126 BCF1010F 		cmp	ip, #1
 245 012a 0CBF     		ite	eq
 246 012c 4FF0070C 		moveq	ip, #7
 247              	.LVL18:
 248 0130 4FF00D0C 		movne	ip, #13
 249 0134 84F805C0 		strb	ip, [r4, #5]
ARM GAS  C:\Users\jon\AppData\Local\Temp\ccCLAX4y.s 			page 23


 851:Generated_Source\PSoC5/USBUART_1_std.c ****                 }
 250              		.loc 1 851 0
 251 0138 84F801E0 		strb	lr, [r4, #1]
 252 013c BDE7     		b	.L7
 253              	.LVL19:
 254              	.L15:
 255              		.cfi_def_cfa_offset 0
 256              		.cfi_restore 4
 257              		.cfi_restore 5
 258              		.cfi_restore 6
 259              		.cfi_restore 7
 260              		.cfi_restore 8
 261              		.cfi_restore 9
 262              		.cfi_restore 10
 263              		.cfi_restore 14
 264 013e 7047     		bx	lr
 265              	.L20:
 266              		.align	2
 267              	.L19:
 268 0140 00000000 		.word	USBUART_1_configuration
 269 0144 00000000 		.word	USBUART_1_device
 270 0148 00000000 		.word	USBUART_1_TABLE
 271 014c 00000000 		.word	USBUART_1_interfaceNumber
 272 0150 00000000 		.word	USBUART_1_interfaceSetting
 273 0154 00000000 		.word	USBUART_1_EP
 274 0158 70600040 		.word	1073766512
 275 015c FC5F0040 		.word	1073766396
 276              		.cfi_endproc
 277              	.LFE13:
 278              		.size	USBUART_1_ConfigAltChanged.part.0, .-USBUART_1_ConfigAltChanged.part.0
 279              		.section	.text.USBUART_1_ReadDieID,"ax",%progbits
 280              		.align	2
 281              		.global	USBUART_1_ReadDieID
 282              		.thumb
 283              		.thumb_func
 284              		.type	USBUART_1_ReadDieID, %function
 285              	USBUART_1_ReadDieID:
 286              	.LFB1:
 399:Generated_Source\PSoC5/USBUART_1_std.c ****         const char8 CYCODE hex[] = "0123456789ABCDEF";
 287              		.loc 1 399 0
 288              		.cfi_startproc
 289              		@ args = 0, pretend = 0, frame = 32
 290              		@ frame_needed = 0, uses_anonymous_args = 0
 291              	.LVL20:
 292 0000 2DE9F043 		push	{r4, r5, r6, r7, r8, r9, lr}
 293              		.cfi_def_cfa_offset 28
 294              		.cfi_offset 4, -28
 295              		.cfi_offset 5, -24
 296              		.cfi_offset 6, -20
 297              		.cfi_offset 7, -16
 298              		.cfi_offset 8, -12
 299              		.cfi_offset 9, -8
 300              		.cfi_offset 14, -4
 301 0004 0446     		mov	r4, r0
 302 0006 89B0     		sub	sp, sp, #36
 303              		.cfi_def_cfa_offset 64
 400:Generated_Source\PSoC5/USBUART_1_std.c ****         uint8 i;
ARM GAS  C:\Users\jon\AppData\Local\Temp\ccCLAX4y.s 			page 24


 304              		.loc 1 400 0
 305 0008 4E4E     		ldr	r6, .L25
 306 000a 03AD     		add	r5, sp, #12
 307 000c 0FCE     		ldmia	r6!, {r0, r1, r2, r3}
 308              	.LVL21:
 309 000e 0FC5     		stmia	r5!, {r0, r1, r2, r3}
 310 0010 3368     		ldr	r3, [r6]
 311 0012 2B70     		strb	r3, [r5]
 312              	.LVL22:
 405:Generated_Source\PSoC5/USBUART_1_std.c ****         {
 313              		.loc 1 405 0
 314 0014 002C     		cmp	r4, #0
 315 0016 00F09180 		beq	.L21
 408:Generated_Source\PSoC5/USBUART_1_std.c ****             descr[1u] = USBUART_1_DESCR_STRING;
 316              		.loc 1 408 0
 317 001a 2222     		movs	r2, #34
 409:Generated_Source\PSoC5/USBUART_1_std.c ****             
 318              		.loc 1 409 0
 319 001c 0323     		movs	r3, #3
 408:Generated_Source\PSoC5/USBUART_1_std.c ****             descr[1u] = USBUART_1_DESCR_STRING;
 320              		.loc 1 408 0
 321 001e 2270     		strb	r2, [r4]
 409:Generated_Source\PSoC5/USBUART_1_std.c ****             
 322              		.loc 1 409 0
 323 0020 6370     		strb	r3, [r4, #1]
 412:Generated_Source\PSoC5/USBUART_1_std.c **** 
 324              		.loc 1 412 0
 325 0022 01A8     		add	r0, sp, #4
 326 0024 FFF7FEFF 		bl	CyGetUniqueId
 327              	.LVL23:
 417:Generated_Source\PSoC5/USBUART_1_std.c ****                 descr[i + 1u] = 0u;
 328              		.loc 1 417 0
 329 0028 9DF80610 		ldrb	r1, [sp, #6]	@ zero_extendqisi2
 330 002c 9DF80450 		ldrb	r5, [sp, #4]	@ zero_extendqisi2
 331 0030 9DF80500 		ldrb	r0, [sp, #5]	@ zero_extendqisi2
 419:Generated_Source\PSoC5/USBUART_1_std.c ****                 descr[i + 3u] = 0u;
 332              		.loc 1 419 0
 333 0034 0DF1200E 		add	lr, sp, #32
 334 0038 01F00F08 		and	r8, r1, #15
 417:Generated_Source\PSoC5/USBUART_1_std.c ****                 descr[i + 1u] = 0u;
 335              		.loc 1 417 0
 336 003c 9DF80720 		ldrb	r2, [sp, #7]	@ zero_extendqisi2
 419:Generated_Source\PSoC5/USBUART_1_std.c ****                 descr[i + 3u] = 0u;
 337              		.loc 1 419 0
 338 0040 F044     		add	r8, r8, lr
 339 0042 05F00F07 		and	r7, r5, #15
 340 0046 00F00F06 		and	r6, r0, #15
 417:Generated_Source\PSoC5/USBUART_1_std.c ****                 descr[i + 1u] = 0u;
 341              		.loc 1 417 0
 342 004a 0EEB1515 		add	r5, lr, r5, lsr #4
 343 004e 15F814CC 		ldrb	ip, [r5, #-20]	@ zero_extendqisi2
 419:Generated_Source\PSoC5/USBUART_1_std.c ****                 descr[i + 3u] = 0u;
 344              		.loc 1 419 0
 345 0052 7644     		add	r6, r6, lr
 346 0054 18F8145C 		ldrb	r5, [r8, #-20]	@ zero_extendqisi2
 417:Generated_Source\PSoC5/USBUART_1_std.c ****                 descr[i + 1u] = 0u;
 347              		.loc 1 417 0
ARM GAS  C:\Users\jon\AppData\Local\Temp\ccCLAX4y.s 			page 25


 348 0058 0EEB1010 		add	r0, lr, r0, lsr #4
 349 005c 0EEB1111 		add	r1, lr, r1, lsr #4
 419:Generated_Source\PSoC5/USBUART_1_std.c ****                 descr[i + 3u] = 0u;
 350              		.loc 1 419 0
 351 0060 0DF12008 		add	r8, sp, #32
 352 0064 7744     		add	r7, r7, lr
 417:Generated_Source\PSoC5/USBUART_1_std.c ****                 descr[i + 1u] = 0u;
 353              		.loc 1 417 0
 354 0066 9DF80830 		ldrb	r3, [sp, #8]	@ zero_extendqisi2
 419:Generated_Source\PSoC5/USBUART_1_std.c ****                 descr[i + 3u] = 0u;
 355              		.loc 1 419 0
 356 006a 17F814EC 		ldrb	lr, [r7, #-20]	@ zero_extendqisi2
 357 006e 16F8147C 		ldrb	r7, [r6, #-20]	@ zero_extendqisi2
 417:Generated_Source\PSoC5/USBUART_1_std.c ****                 descr[i + 1u] = 0u;
 358              		.loc 1 417 0
 359 0072 10F8146C 		ldrb	r6, [r0, #-20]	@ zero_extendqisi2
 360 0076 11F8140C 		ldrb	r0, [r1, #-20]	@ zero_extendqisi2
 419:Generated_Source\PSoC5/USBUART_1_std.c ****                 descr[i + 3u] = 0u;
 361              		.loc 1 419 0
 362 007a 02F00F01 		and	r1, r2, #15
 417:Generated_Source\PSoC5/USBUART_1_std.c ****                 descr[i + 1u] = 0u;
 363              		.loc 1 417 0
 364 007e 08EB1212 		add	r2, r8, r2, lsr #4
 365 0082 12F8149C 		ldrb	r9, [r2, #-20]	@ zero_extendqisi2
 366 0086 08AA     		add	r2, sp, #32
 367 0088 02EB1312 		add	r2, r2, r3, lsr #4
 419:Generated_Source\PSoC5/USBUART_1_std.c ****                 descr[i + 3u] = 0u;
 368              		.loc 1 419 0
 369 008c 4144     		add	r1, r1, r8
 370 008e 11F8148C 		ldrb	r8, [r1, #-20]	@ zero_extendqisi2
 371 0092 03F00F03 		and	r3, r3, #15
 417:Generated_Source\PSoC5/USBUART_1_std.c ****                 descr[i + 1u] = 0u;
 372              		.loc 1 417 0
 373 0096 12F8141C 		ldrb	r1, [r2, #-20]	@ zero_extendqisi2
 419:Generated_Source\PSoC5/USBUART_1_std.c ****                 descr[i + 3u] = 0u;
 374              		.loc 1 419 0
 375 009a 08AA     		add	r2, sp, #32
 376 009c 1A44     		add	r2, r2, r3
 418:Generated_Source\PSoC5/USBUART_1_std.c ****                 descr[i + 2u] = (uint8) hex[(uniqueId[j] & 0x0Fu)];
 377              		.loc 1 418 0
 378 009e 0023     		movs	r3, #0
 417:Generated_Source\PSoC5/USBUART_1_std.c ****                 descr[i + 1u] = 0u;
 379              		.loc 1 417 0
 380 00a0 84F802C0 		strb	ip, [r4, #2]
 419:Generated_Source\PSoC5/USBUART_1_std.c ****                 descr[i + 3u] = 0u;
 381              		.loc 1 419 0
 382 00a4 2772     		strb	r7, [r4, #8]
 417:Generated_Source\PSoC5/USBUART_1_std.c ****                 descr[i + 1u] = 0u;
 383              		.loc 1 417 0
 384 00a6 A671     		strb	r6, [r4, #6]
 419:Generated_Source\PSoC5/USBUART_1_std.c ****                 descr[i + 3u] = 0u;
 385              		.loc 1 419 0
 386 00a8 2573     		strb	r5, [r4, #12]
 417:Generated_Source\PSoC5/USBUART_1_std.c ****                 descr[i + 1u] = 0u;
 387              		.loc 1 417 0
 388 00aa A072     		strb	r0, [r4, #10]
 389 00ac A174     		strb	r1, [r4, #18]
ARM GAS  C:\Users\jon\AppData\Local\Temp\ccCLAX4y.s 			page 26


 419:Generated_Source\PSoC5/USBUART_1_std.c ****                 descr[i + 3u] = 0u;
 390              		.loc 1 419 0
 391 00ae 84F804E0 		strb	lr, [r4, #4]
 392 00b2 84F81080 		strb	r8, [r4, #16]
 417:Generated_Source\PSoC5/USBUART_1_std.c ****                 descr[i + 1u] = 0u;
 393              		.loc 1 417 0
 394 00b6 84F80E90 		strb	r9, [r4, #14]
 418:Generated_Source\PSoC5/USBUART_1_std.c ****                 descr[i + 2u] = (uint8) hex[(uniqueId[j] & 0x0Fu)];
 395              		.loc 1 418 0
 396 00ba E370     		strb	r3, [r4, #3]
 420:Generated_Source\PSoC5/USBUART_1_std.c ****                 ++j;
 397              		.loc 1 420 0
 398 00bc 6371     		strb	r3, [r4, #5]
 399              	.LVL24:
 418:Generated_Source\PSoC5/USBUART_1_std.c ****                 descr[i + 2u] = (uint8) hex[(uniqueId[j] & 0x0Fu)];
 400              		.loc 1 418 0
 401 00be E371     		strb	r3, [r4, #7]
 420:Generated_Source\PSoC5/USBUART_1_std.c ****                 ++j;
 402              		.loc 1 420 0
 403 00c0 6372     		strb	r3, [r4, #9]
 404              	.LVL25:
 418:Generated_Source\PSoC5/USBUART_1_std.c ****                 descr[i + 2u] = (uint8) hex[(uniqueId[j] & 0x0Fu)];
 405              		.loc 1 418 0
 406 00c2 E372     		strb	r3, [r4, #11]
 420:Generated_Source\PSoC5/USBUART_1_std.c ****                 ++j;
 407              		.loc 1 420 0
 408 00c4 6373     		strb	r3, [r4, #13]
 409              	.LVL26:
 418:Generated_Source\PSoC5/USBUART_1_std.c ****                 descr[i + 2u] = (uint8) hex[(uniqueId[j] & 0x0Fu)];
 410              		.loc 1 418 0
 411 00c6 E373     		strb	r3, [r4, #15]
 420:Generated_Source\PSoC5/USBUART_1_std.c ****                 ++j;
 412              		.loc 1 420 0
 413 00c8 6374     		strb	r3, [r4, #17]
 414              	.LVL27:
 418:Generated_Source\PSoC5/USBUART_1_std.c ****                 descr[i + 2u] = (uint8) hex[(uniqueId[j] & 0x0Fu)];
 415              		.loc 1 418 0
 416 00ca E374     		strb	r3, [r4, #19]
 419:Generated_Source\PSoC5/USBUART_1_std.c ****                 descr[i + 3u] = 0u;
 417              		.loc 1 419 0
 418 00cc 12F814EC 		ldrb	lr, [r2, #-20]	@ zero_extendqisi2
 417:Generated_Source\PSoC5/USBUART_1_std.c ****                 descr[i + 1u] = 0u;
 419              		.loc 1 417 0
 420 00d0 9DF80900 		ldrb	r0, [sp, #9]	@ zero_extendqisi2
 421 00d4 9DF80A10 		ldrb	r1, [sp, #10]	@ zero_extendqisi2
 422 00d8 9DF80B20 		ldrb	r2, [sp, #11]	@ zero_extendqisi2
 419:Generated_Source\PSoC5/USBUART_1_std.c ****                 descr[i + 3u] = 0u;
 423              		.loc 1 419 0
 424 00dc 08AD     		add	r5, sp, #32
 425 00de 00F00F07 		and	r7, r0, #15
 426 00e2 01F00F06 		and	r6, r1, #15
 427 00e6 2F44     		add	r7, r7, r5
 417:Generated_Source\PSoC5/USBUART_1_std.c ****                 descr[i + 1u] = 0u;
 428              		.loc 1 417 0
 429 00e8 05EB1010 		add	r0, r5, r0, lsr #4
 430 00ec 05EB1111 		add	r1, r5, r1, lsr #4
 419:Generated_Source\PSoC5/USBUART_1_std.c ****                 descr[i + 3u] = 0u;
ARM GAS  C:\Users\jon\AppData\Local\Temp\ccCLAX4y.s 			page 27


 431              		.loc 1 419 0
 432 00f0 0DF1200C 		add	ip, sp, #32
 433 00f4 2E44     		add	r6, r6, r5
 434 00f6 02F00F05 		and	r5, r2, #15
 435 00fa 6544     		add	r5, r5, ip
 417:Generated_Source\PSoC5/USBUART_1_std.c ****                 descr[i + 1u] = 0u;
 436              		.loc 1 417 0
 437 00fc 0CEB1212 		add	r2, ip, r2, lsr #4
 419:Generated_Source\PSoC5/USBUART_1_std.c ****                 descr[i + 3u] = 0u;
 438              		.loc 1 419 0
 439 0100 16F8146C 		ldrb	r6, [r6, #-20]	@ zero_extendqisi2
 440 0104 17F814CC 		ldrb	ip, [r7, #-20]	@ zero_extendqisi2
 417:Generated_Source\PSoC5/USBUART_1_std.c ****                 descr[i + 1u] = 0u;
 441              		.loc 1 417 0
 442 0108 12F8142C 		ldrb	r2, [r2, #-20]	@ zero_extendqisi2
 443 010c 10F8147C 		ldrb	r7, [r0, #-20]	@ zero_extendqisi2
 444 0110 11F8140C 		ldrb	r0, [r1, #-20]	@ zero_extendqisi2
 419:Generated_Source\PSoC5/USBUART_1_std.c ****                 descr[i + 3u] = 0u;
 445              		.loc 1 419 0
 446 0114 15F8141C 		ldrb	r1, [r5, #-20]	@ zero_extendqisi2
 447 0118 84F814E0 		strb	lr, [r4, #20]
 420:Generated_Source\PSoC5/USBUART_1_std.c ****                 ++j;
 448              		.loc 1 420 0
 449 011c 6375     		strb	r3, [r4, #21]
 450              	.LVL28:
 418:Generated_Source\PSoC5/USBUART_1_std.c ****                 descr[i + 2u] = (uint8) hex[(uniqueId[j] & 0x0Fu)];
 451              		.loc 1 418 0
 452 011e E375     		strb	r3, [r4, #23]
 420:Generated_Source\PSoC5/USBUART_1_std.c ****                 ++j;
 453              		.loc 1 420 0
 454 0120 6376     		strb	r3, [r4, #25]
 455              	.LVL29:
 418:Generated_Source\PSoC5/USBUART_1_std.c ****                 descr[i + 2u] = (uint8) hex[(uniqueId[j] & 0x0Fu)];
 456              		.loc 1 418 0
 457 0122 E376     		strb	r3, [r4, #27]
 420:Generated_Source\PSoC5/USBUART_1_std.c ****                 ++j;
 458              		.loc 1 420 0
 459 0124 6377     		strb	r3, [r4, #29]
 460              	.LVL30:
 418:Generated_Source\PSoC5/USBUART_1_std.c ****                 descr[i + 2u] = (uint8) hex[(uniqueId[j] & 0x0Fu)];
 461              		.loc 1 418 0
 462 0126 E377     		strb	r3, [r4, #31]
 420:Generated_Source\PSoC5/USBUART_1_std.c ****                 ++j;
 463              		.loc 1 420 0
 464 0128 84F82130 		strb	r3, [r4, #33]
 465              	.LVL31:
 419:Generated_Source\PSoC5/USBUART_1_std.c ****                 descr[i + 3u] = 0u;
 466              		.loc 1 419 0
 467 012c 84F818C0 		strb	ip, [r4, #24]
 417:Generated_Source\PSoC5/USBUART_1_std.c ****                 descr[i + 1u] = 0u;
 468              		.loc 1 417 0
 469 0130 A775     		strb	r7, [r4, #22]
 419:Generated_Source\PSoC5/USBUART_1_std.c ****                 descr[i + 3u] = 0u;
 470              		.loc 1 419 0
 471 0132 2677     		strb	r6, [r4, #28]
 417:Generated_Source\PSoC5/USBUART_1_std.c ****                 descr[i + 1u] = 0u;
 472              		.loc 1 417 0
ARM GAS  C:\Users\jon\AppData\Local\Temp\ccCLAX4y.s 			page 28


 473 0134 A076     		strb	r0, [r4, #26]
 419:Generated_Source\PSoC5/USBUART_1_std.c ****                 descr[i + 3u] = 0u;
 474              		.loc 1 419 0
 475 0136 84F82010 		strb	r1, [r4, #32]
 417:Generated_Source\PSoC5/USBUART_1_std.c ****                 descr[i + 1u] = 0u;
 476              		.loc 1 417 0
 477 013a A277     		strb	r2, [r4, #30]
 478              	.LVL32:
 479              	.L21:
 424:Generated_Source\PSoC5/USBUART_1_std.c **** #endif /* (USBUART_1_ENABLE_IDSN_STRING) */
 480              		.loc 1 424 0
 481 013c 09B0     		add	sp, sp, #36
 482              		.cfi_def_cfa_offset 28
 483              		@ sp needed
 484 013e BDE8F083 		pop	{r4, r5, r6, r7, r8, r9, pc}
 485              	.LVL33:
 486              	.L26:
 487 0142 00BF     		.align	2
 488              	.L25:
 489 0144 00000000 		.word	.LC0
 490              		.cfi_endproc
 491              	.LFE1:
 492              		.size	USBUART_1_ReadDieID, .-USBUART_1_ReadDieID
 493              		.section	.text.USBUART_1_ConfigReg,"ax",%progbits
 494              		.align	2
 495              		.global	USBUART_1_ConfigReg
 496              		.thumb
 497              		.thumb_func
 498              		.type	USBUART_1_ConfigReg, %function
 499              	USBUART_1_ConfigReg:
 500              	.LFB2:
 438:Generated_Source\PSoC5/USBUART_1_std.c ****     uint8 ep;
 501              		.loc 1 438 0
 502              		.cfi_startproc
 503              		@ args = 0, pretend = 0, frame = 0
 504              		@ frame_needed = 0, uses_anonymous_args = 0
 505              		@ link register save eliminated.
 506              	.LVL34:
 507 0000 30B4     		push	{r4, r5}
 508              		.cfi_def_cfa_offset 8
 509              		.cfi_offset 4, -8
 510              		.cfi_offset 5, -4
 448:Generated_Source\PSoC5/USBUART_1_std.c ****         
 511              		.loc 1 448 0
 512 0002 9C49     		ldr	r1, .L53
 513 0004 0C22     		movs	r2, #12
 455:Generated_Source\PSoC5/USBUART_1_std.c ****         {
 514              		.loc 1 455 0
 515 0006 9C4B     		ldr	r3, .L53+4
 448:Generated_Source\PSoC5/USBUART_1_std.c ****         
 516              		.loc 1 448 0
 517 0008 0A70     		strb	r2, [r1]
 455:Generated_Source\PSoC5/USBUART_1_std.c ****         {
 518              		.loc 1 455 0
 519 000a 597C     		ldrb	r1, [r3, #17]	@ zero_extendqisi2
 520 000c 0029     		cmp	r1, #0
 521 000e 40F0E880 		bne	.L28
ARM GAS  C:\Users\jon\AppData\Local\Temp\ccCLAX4y.s 			page 29


 480:Generated_Source\PSoC5/USBUART_1_std.c ****         }
 522              		.loc 1 480 0
 523 0012 02F18042 		add	r2, r2, #1073741824
 524 0016 02F5C042 		add	r2, r2, #24576
 525 001a 8021     		movs	r1, #128
 526 001c 9170     		strb	r1, [r2, #2]
 527              	.L29:
 488:Generated_Source\PSoC5/USBUART_1_std.c ****             USBUART_1_ARB_EP_BASE.arbEp[ep].rwRaMsb = HI8(USBUART_1_EP[ep].buffOffset);
 528              		.loc 1 488 0
 529 001e 598A     		ldrh	r1, [r3, #18]
 530 0020 944A     		ldr	r2, .L53
 531 0022 C9B2     		uxtb	r1, r1
 532 0024 9171     		strb	r1, [r2, #6]
 489:Generated_Source\PSoC5/USBUART_1_std.c ****             USBUART_1_ARB_EP_BASE.arbEp[ep].rwWa    = LO8(USBUART_1_EP[ep].buffOffset);
 533              		.loc 1 489 0
 534 0026 598A     		ldrh	r1, [r3, #18]
 448:Generated_Source\PSoC5/USBUART_1_std.c ****         
 535              		.loc 1 448 0
 536 0028 944C     		ldr	r4, .L53+8
 489:Generated_Source\PSoC5/USBUART_1_std.c ****             USBUART_1_ARB_EP_BASE.arbEp[ep].rwWa    = LO8(USBUART_1_EP[ep].buffOffset);
 537              		.loc 1 489 0
 538 002a C1F30721 		ubfx	r1, r1, #8, #8
 539 002e D171     		strb	r1, [r2, #7]
 490:Generated_Source\PSoC5/USBUART_1_std.c ****             USBUART_1_ARB_EP_BASE.arbEp[ep].rwWaMsb = HI8(USBUART_1_EP[ep].buffOffset);
 540              		.loc 1 490 0
 541 0030 598A     		ldrh	r1, [r3, #18]
 448:Generated_Source\PSoC5/USBUART_1_std.c ****         
 542              		.loc 1 448 0
 543 0032 0C20     		movs	r0, #12
 490:Generated_Source\PSoC5/USBUART_1_std.c ****             USBUART_1_ARB_EP_BASE.arbEp[ep].rwWaMsb = HI8(USBUART_1_EP[ep].buffOffset);
 544              		.loc 1 490 0
 545 0034 C9B2     		uxtb	r1, r1
 546 0036 1171     		strb	r1, [r2, #4]
 491:Generated_Source\PSoC5/USBUART_1_std.c ****         #endif /* (CY_PSOC4) */
 547              		.loc 1 491 0
 548 0038 598A     		ldrh	r1, [r3, #18]
 488:Generated_Source\PSoC5/USBUART_1_std.c ****             USBUART_1_ARB_EP_BASE.arbEp[ep].rwRaMsb = HI8(USBUART_1_EP[ep].buffOffset);
 549              		.loc 1 488 0
 550 003a 8F4D     		ldr	r5, .L53+4
 491:Generated_Source\PSoC5/USBUART_1_std.c ****         #endif /* (CY_PSOC4) */
 551              		.loc 1 491 0
 552 003c C1F30721 		ubfx	r1, r1, #8, #8
 553 0040 5171     		strb	r1, [r2, #5]
 554              	.LVL35:
 448:Generated_Source\PSoC5/USBUART_1_std.c ****         
 555              		.loc 1 448 0
 556 0042 2070     		strb	r0, [r4]
 455:Generated_Source\PSoC5/USBUART_1_std.c ****         {
 557              		.loc 1 455 0
 558 0044 5A7F     		ldrb	r2, [r3, #29]	@ zero_extendqisi2
 559 0046 002A     		cmp	r2, #0
 560 0048 40F00881 		bne	.L31
 480:Generated_Source\PSoC5/USBUART_1_std.c ****         }
 561              		.loc 1 480 0
 562 004c 8C4A     		ldr	r2, .L53+12
 563 004e 8021     		movs	r1, #128
 564 0050 9170     		strb	r1, [r2, #2]
ARM GAS  C:\Users\jon\AppData\Local\Temp\ccCLAX4y.s 			page 30


 565              	.L32:
 488:Generated_Source\PSoC5/USBUART_1_std.c ****             USBUART_1_ARB_EP_BASE.arbEp[ep].rwRaMsb = HI8(USBUART_1_EP[ep].buffOffset);
 566              		.loc 1 488 0
 567 0052 D98B     		ldrh	r1, [r3, #30]
 568 0054 894A     		ldr	r2, .L53+8
 569 0056 C9B2     		uxtb	r1, r1
 570 0058 9171     		strb	r1, [r2, #6]
 489:Generated_Source\PSoC5/USBUART_1_std.c ****             USBUART_1_ARB_EP_BASE.arbEp[ep].rwWa    = LO8(USBUART_1_EP[ep].buffOffset);
 571              		.loc 1 489 0
 572 005a D98B     		ldrh	r1, [r3, #30]
 448:Generated_Source\PSoC5/USBUART_1_std.c ****         
 573              		.loc 1 448 0
 574 005c 894C     		ldr	r4, .L53+16
 489:Generated_Source\PSoC5/USBUART_1_std.c ****             USBUART_1_ARB_EP_BASE.arbEp[ep].rwWa    = LO8(USBUART_1_EP[ep].buffOffset);
 575              		.loc 1 489 0
 576 005e C1F30721 		ubfx	r1, r1, #8, #8
 577 0062 D171     		strb	r1, [r2, #7]
 490:Generated_Source\PSoC5/USBUART_1_std.c ****             USBUART_1_ARB_EP_BASE.arbEp[ep].rwWaMsb = HI8(USBUART_1_EP[ep].buffOffset);
 578              		.loc 1 490 0
 579 0064 D98B     		ldrh	r1, [r3, #30]
 448:Generated_Source\PSoC5/USBUART_1_std.c ****         
 580              		.loc 1 448 0
 581 0066 0C20     		movs	r0, #12
 490:Generated_Source\PSoC5/USBUART_1_std.c ****             USBUART_1_ARB_EP_BASE.arbEp[ep].rwWaMsb = HI8(USBUART_1_EP[ep].buffOffset);
 582              		.loc 1 490 0
 583 0068 C9B2     		uxtb	r1, r1
 584 006a 1171     		strb	r1, [r2, #4]
 491:Generated_Source\PSoC5/USBUART_1_std.c ****         #endif /* (CY_PSOC4) */
 585              		.loc 1 491 0
 586 006c D98B     		ldrh	r1, [r3, #30]
 488:Generated_Source\PSoC5/USBUART_1_std.c ****             USBUART_1_ARB_EP_BASE.arbEp[ep].rwRaMsb = HI8(USBUART_1_EP[ep].buffOffset);
 587              		.loc 1 488 0
 588 006e 824D     		ldr	r5, .L53+4
 491:Generated_Source\PSoC5/USBUART_1_std.c ****         #endif /* (CY_PSOC4) */
 589              		.loc 1 491 0
 590 0070 C1F30721 		ubfx	r1, r1, #8, #8
 591 0074 5171     		strb	r1, [r2, #5]
 592              	.LVL36:
 448:Generated_Source\PSoC5/USBUART_1_std.c ****         
 593              		.loc 1 448 0
 594 0076 2070     		strb	r0, [r4]
 455:Generated_Source\PSoC5/USBUART_1_std.c ****         {
 595              		.loc 1 455 0
 596 0078 93F82920 		ldrb	r2, [r3, #41]	@ zero_extendqisi2
 597 007c 002A     		cmp	r2, #0
 598 007e 40F0E380 		bne	.L34
 480:Generated_Source\PSoC5/USBUART_1_std.c ****         }
 599              		.loc 1 480 0
 600 0082 814A     		ldr	r2, .L53+20
 601 0084 8021     		movs	r1, #128
 602 0086 9170     		strb	r1, [r2, #2]
 603              	.L35:
 488:Generated_Source\PSoC5/USBUART_1_std.c ****             USBUART_1_ARB_EP_BASE.arbEp[ep].rwRaMsb = HI8(USBUART_1_EP[ep].buffOffset);
 604              		.loc 1 488 0
 605 0088 598D     		ldrh	r1, [r3, #42]
 606 008a 7E4A     		ldr	r2, .L53+16
 607 008c C9B2     		uxtb	r1, r1
ARM GAS  C:\Users\jon\AppData\Local\Temp\ccCLAX4y.s 			page 31


 608 008e 9171     		strb	r1, [r2, #6]
 489:Generated_Source\PSoC5/USBUART_1_std.c ****             USBUART_1_ARB_EP_BASE.arbEp[ep].rwWa    = LO8(USBUART_1_EP[ep].buffOffset);
 609              		.loc 1 489 0
 610 0090 598D     		ldrh	r1, [r3, #42]
 448:Generated_Source\PSoC5/USBUART_1_std.c ****         
 611              		.loc 1 448 0
 612 0092 7E4C     		ldr	r4, .L53+24
 489:Generated_Source\PSoC5/USBUART_1_std.c ****             USBUART_1_ARB_EP_BASE.arbEp[ep].rwWa    = LO8(USBUART_1_EP[ep].buffOffset);
 613              		.loc 1 489 0
 614 0094 C1F30721 		ubfx	r1, r1, #8, #8
 615 0098 D171     		strb	r1, [r2, #7]
 490:Generated_Source\PSoC5/USBUART_1_std.c ****             USBUART_1_ARB_EP_BASE.arbEp[ep].rwWaMsb = HI8(USBUART_1_EP[ep].buffOffset);
 616              		.loc 1 490 0
 617 009a 598D     		ldrh	r1, [r3, #42]
 448:Generated_Source\PSoC5/USBUART_1_std.c ****         
 618              		.loc 1 448 0
 619 009c 0C20     		movs	r0, #12
 490:Generated_Source\PSoC5/USBUART_1_std.c ****             USBUART_1_ARB_EP_BASE.arbEp[ep].rwWaMsb = HI8(USBUART_1_EP[ep].buffOffset);
 620              		.loc 1 490 0
 621 009e C9B2     		uxtb	r1, r1
 622 00a0 1171     		strb	r1, [r2, #4]
 491:Generated_Source\PSoC5/USBUART_1_std.c ****         #endif /* (CY_PSOC4) */
 623              		.loc 1 491 0
 624 00a2 598D     		ldrh	r1, [r3, #42]
 488:Generated_Source\PSoC5/USBUART_1_std.c ****             USBUART_1_ARB_EP_BASE.arbEp[ep].rwRaMsb = HI8(USBUART_1_EP[ep].buffOffset);
 625              		.loc 1 488 0
 626 00a4 744D     		ldr	r5, .L53+4
 491:Generated_Source\PSoC5/USBUART_1_std.c ****         #endif /* (CY_PSOC4) */
 627              		.loc 1 491 0
 628 00a6 C1F30721 		ubfx	r1, r1, #8, #8
 629 00aa 5171     		strb	r1, [r2, #5]
 630              	.LVL37:
 448:Generated_Source\PSoC5/USBUART_1_std.c ****         
 631              		.loc 1 448 0
 632 00ac 2070     		strb	r0, [r4]
 455:Generated_Source\PSoC5/USBUART_1_std.c ****         {
 633              		.loc 1 455 0
 634 00ae 93F83520 		ldrb	r2, [r3, #53]	@ zero_extendqisi2
 635 00b2 002A     		cmp	r2, #0
 636 00b4 40F0BE80 		bne	.L37
 480:Generated_Source\PSoC5/USBUART_1_std.c ****         }
 637              		.loc 1 480 0
 638 00b8 754A     		ldr	r2, .L53+28
 639 00ba 8021     		movs	r1, #128
 640 00bc 9170     		strb	r1, [r2, #2]
 641              	.L38:
 488:Generated_Source\PSoC5/USBUART_1_std.c ****             USBUART_1_ARB_EP_BASE.arbEp[ep].rwRaMsb = HI8(USBUART_1_EP[ep].buffOffset);
 642              		.loc 1 488 0
 643 00be D98E     		ldrh	r1, [r3, #54]
 644 00c0 724A     		ldr	r2, .L53+24
 645 00c2 C9B2     		uxtb	r1, r1
 646 00c4 9171     		strb	r1, [r2, #6]
 489:Generated_Source\PSoC5/USBUART_1_std.c ****             USBUART_1_ARB_EP_BASE.arbEp[ep].rwWa    = LO8(USBUART_1_EP[ep].buffOffset);
 647              		.loc 1 489 0
 648 00c6 D98E     		ldrh	r1, [r3, #54]
 448:Generated_Source\PSoC5/USBUART_1_std.c ****         
 649              		.loc 1 448 0
ARM GAS  C:\Users\jon\AppData\Local\Temp\ccCLAX4y.s 			page 32


 650 00c8 724C     		ldr	r4, .L53+32
 489:Generated_Source\PSoC5/USBUART_1_std.c ****             USBUART_1_ARB_EP_BASE.arbEp[ep].rwWa    = LO8(USBUART_1_EP[ep].buffOffset);
 651              		.loc 1 489 0
 652 00ca C1F30721 		ubfx	r1, r1, #8, #8
 653 00ce D171     		strb	r1, [r2, #7]
 490:Generated_Source\PSoC5/USBUART_1_std.c ****             USBUART_1_ARB_EP_BASE.arbEp[ep].rwWaMsb = HI8(USBUART_1_EP[ep].buffOffset);
 654              		.loc 1 490 0
 655 00d0 D98E     		ldrh	r1, [r3, #54]
 448:Generated_Source\PSoC5/USBUART_1_std.c ****         
 656              		.loc 1 448 0
 657 00d2 0C20     		movs	r0, #12
 490:Generated_Source\PSoC5/USBUART_1_std.c ****             USBUART_1_ARB_EP_BASE.arbEp[ep].rwWaMsb = HI8(USBUART_1_EP[ep].buffOffset);
 658              		.loc 1 490 0
 659 00d4 C9B2     		uxtb	r1, r1
 660 00d6 1171     		strb	r1, [r2, #4]
 491:Generated_Source\PSoC5/USBUART_1_std.c ****         #endif /* (CY_PSOC4) */
 661              		.loc 1 491 0
 662 00d8 D98E     		ldrh	r1, [r3, #54]
 488:Generated_Source\PSoC5/USBUART_1_std.c ****             USBUART_1_ARB_EP_BASE.arbEp[ep].rwRaMsb = HI8(USBUART_1_EP[ep].buffOffset);
 663              		.loc 1 488 0
 664 00da 674D     		ldr	r5, .L53+4
 491:Generated_Source\PSoC5/USBUART_1_std.c ****         #endif /* (CY_PSOC4) */
 665              		.loc 1 491 0
 666 00dc C1F30721 		ubfx	r1, r1, #8, #8
 667 00e0 5171     		strb	r1, [r2, #5]
 668              	.LVL38:
 448:Generated_Source\PSoC5/USBUART_1_std.c ****         
 669              		.loc 1 448 0
 670 00e2 2070     		strb	r0, [r4]
 455:Generated_Source\PSoC5/USBUART_1_std.c ****         {
 671              		.loc 1 455 0
 672 00e4 93F84120 		ldrb	r2, [r3, #65]	@ zero_extendqisi2
 673 00e8 002A     		cmp	r2, #0
 674 00ea 40F09980 		bne	.L40
 480:Generated_Source\PSoC5/USBUART_1_std.c ****         }
 675              		.loc 1 480 0
 676 00ee 6A4A     		ldr	r2, .L53+36
 677 00f0 8021     		movs	r1, #128
 678 00f2 9170     		strb	r1, [r2, #2]
 679              	.L41:
 488:Generated_Source\PSoC5/USBUART_1_std.c ****             USBUART_1_ARB_EP_BASE.arbEp[ep].rwRaMsb = HI8(USBUART_1_EP[ep].buffOffset);
 680              		.loc 1 488 0
 681 00f4 B3F84210 		ldrh	r1, [r3, #66]
 682 00f8 664A     		ldr	r2, .L53+32
 683 00fa C9B2     		uxtb	r1, r1
 684 00fc 9171     		strb	r1, [r2, #6]
 489:Generated_Source\PSoC5/USBUART_1_std.c ****             USBUART_1_ARB_EP_BASE.arbEp[ep].rwWa    = LO8(USBUART_1_EP[ep].buffOffset);
 685              		.loc 1 489 0
 686 00fe B3F84210 		ldrh	r1, [r3, #66]
 448:Generated_Source\PSoC5/USBUART_1_std.c ****         
 687              		.loc 1 448 0
 688 0102 664C     		ldr	r4, .L53+40
 489:Generated_Source\PSoC5/USBUART_1_std.c ****             USBUART_1_ARB_EP_BASE.arbEp[ep].rwWa    = LO8(USBUART_1_EP[ep].buffOffset);
 689              		.loc 1 489 0
 690 0104 C1F30721 		ubfx	r1, r1, #8, #8
 691 0108 D171     		strb	r1, [r2, #7]
 490:Generated_Source\PSoC5/USBUART_1_std.c ****             USBUART_1_ARB_EP_BASE.arbEp[ep].rwWaMsb = HI8(USBUART_1_EP[ep].buffOffset);
ARM GAS  C:\Users\jon\AppData\Local\Temp\ccCLAX4y.s 			page 33


 692              		.loc 1 490 0
 693 010a B3F84210 		ldrh	r1, [r3, #66]
 448:Generated_Source\PSoC5/USBUART_1_std.c ****         
 694              		.loc 1 448 0
 695 010e 0C20     		movs	r0, #12
 490:Generated_Source\PSoC5/USBUART_1_std.c ****             USBUART_1_ARB_EP_BASE.arbEp[ep].rwWaMsb = HI8(USBUART_1_EP[ep].buffOffset);
 696              		.loc 1 490 0
 697 0110 C9B2     		uxtb	r1, r1
 698 0112 1171     		strb	r1, [r2, #4]
 491:Generated_Source\PSoC5/USBUART_1_std.c ****         #endif /* (CY_PSOC4) */
 699              		.loc 1 491 0
 700 0114 B3F84210 		ldrh	r1, [r3, #66]
 488:Generated_Source\PSoC5/USBUART_1_std.c ****             USBUART_1_ARB_EP_BASE.arbEp[ep].rwRaMsb = HI8(USBUART_1_EP[ep].buffOffset);
 701              		.loc 1 488 0
 702 0118 574D     		ldr	r5, .L53+4
 491:Generated_Source\PSoC5/USBUART_1_std.c ****         #endif /* (CY_PSOC4) */
 703              		.loc 1 491 0
 704 011a C1F30721 		ubfx	r1, r1, #8, #8
 705 011e 5171     		strb	r1, [r2, #5]
 706              	.LVL39:
 448:Generated_Source\PSoC5/USBUART_1_std.c ****         
 707              		.loc 1 448 0
 708 0120 2070     		strb	r0, [r4]
 455:Generated_Source\PSoC5/USBUART_1_std.c ****         {
 709              		.loc 1 455 0
 710 0122 93F84D20 		ldrb	r2, [r3, #77]	@ zero_extendqisi2
 711 0126 002A     		cmp	r2, #0
 712 0128 70D1     		bne	.L43
 480:Generated_Source\PSoC5/USBUART_1_std.c ****         }
 713              		.loc 1 480 0
 714 012a 5D4A     		ldr	r2, .L53+44
 715 012c 8021     		movs	r1, #128
 716 012e 9170     		strb	r1, [r2, #2]
 717              	.L44:
 488:Generated_Source\PSoC5/USBUART_1_std.c ****             USBUART_1_ARB_EP_BASE.arbEp[ep].rwRaMsb = HI8(USBUART_1_EP[ep].buffOffset);
 718              		.loc 1 488 0
 719 0130 B3F84E10 		ldrh	r1, [r3, #78]
 720 0134 594A     		ldr	r2, .L53+40
 721 0136 C9B2     		uxtb	r1, r1
 722 0138 9171     		strb	r1, [r2, #6]
 489:Generated_Source\PSoC5/USBUART_1_std.c ****             USBUART_1_ARB_EP_BASE.arbEp[ep].rwWa    = LO8(USBUART_1_EP[ep].buffOffset);
 723              		.loc 1 489 0
 724 013a B3F84E10 		ldrh	r1, [r3, #78]
 448:Generated_Source\PSoC5/USBUART_1_std.c ****         
 725              		.loc 1 448 0
 726 013e 594C     		ldr	r4, .L53+48
 489:Generated_Source\PSoC5/USBUART_1_std.c ****             USBUART_1_ARB_EP_BASE.arbEp[ep].rwWa    = LO8(USBUART_1_EP[ep].buffOffset);
 727              		.loc 1 489 0
 728 0140 C1F30721 		ubfx	r1, r1, #8, #8
 729 0144 D171     		strb	r1, [r2, #7]
 490:Generated_Source\PSoC5/USBUART_1_std.c ****             USBUART_1_ARB_EP_BASE.arbEp[ep].rwWaMsb = HI8(USBUART_1_EP[ep].buffOffset);
 730              		.loc 1 490 0
 731 0146 B3F84E10 		ldrh	r1, [r3, #78]
 448:Generated_Source\PSoC5/USBUART_1_std.c ****         
 732              		.loc 1 448 0
 733 014a 0C20     		movs	r0, #12
 490:Generated_Source\PSoC5/USBUART_1_std.c ****             USBUART_1_ARB_EP_BASE.arbEp[ep].rwWaMsb = HI8(USBUART_1_EP[ep].buffOffset);
ARM GAS  C:\Users\jon\AppData\Local\Temp\ccCLAX4y.s 			page 34


 734              		.loc 1 490 0
 735 014c C9B2     		uxtb	r1, r1
 736 014e 1171     		strb	r1, [r2, #4]
 491:Generated_Source\PSoC5/USBUART_1_std.c ****         #endif /* (CY_PSOC4) */
 737              		.loc 1 491 0
 738 0150 B3F84E10 		ldrh	r1, [r3, #78]
 488:Generated_Source\PSoC5/USBUART_1_std.c ****             USBUART_1_ARB_EP_BASE.arbEp[ep].rwRaMsb = HI8(USBUART_1_EP[ep].buffOffset);
 739              		.loc 1 488 0
 740 0154 484D     		ldr	r5, .L53+4
 491:Generated_Source\PSoC5/USBUART_1_std.c ****         #endif /* (CY_PSOC4) */
 741              		.loc 1 491 0
 742 0156 C1F30721 		ubfx	r1, r1, #8, #8
 743 015a 5171     		strb	r1, [r2, #5]
 744              	.LVL40:
 448:Generated_Source\PSoC5/USBUART_1_std.c ****         
 745              		.loc 1 448 0
 746 015c 2070     		strb	r0, [r4]
 455:Generated_Source\PSoC5/USBUART_1_std.c ****         {
 747              		.loc 1 455 0
 748 015e 93F85920 		ldrb	r2, [r3, #89]	@ zero_extendqisi2
 749 0162 002A     		cmp	r2, #0
 750 0164 48D1     		bne	.L46
 480:Generated_Source\PSoC5/USBUART_1_std.c ****         }
 751              		.loc 1 480 0
 752 0166 504A     		ldr	r2, .L53+52
 753 0168 8021     		movs	r1, #128
 754 016a 9170     		strb	r1, [r2, #2]
 755              	.L47:
 488:Generated_Source\PSoC5/USBUART_1_std.c ****             USBUART_1_ARB_EP_BASE.arbEp[ep].rwRaMsb = HI8(USBUART_1_EP[ep].buffOffset);
 756              		.loc 1 488 0
 757 016c B3F85A10 		ldrh	r1, [r3, #90]
 758 0170 4C4A     		ldr	r2, .L53+48
 759 0172 C9B2     		uxtb	r1, r1
 760 0174 9171     		strb	r1, [r2, #6]
 489:Generated_Source\PSoC5/USBUART_1_std.c ****             USBUART_1_ARB_EP_BASE.arbEp[ep].rwWa    = LO8(USBUART_1_EP[ep].buffOffset);
 761              		.loc 1 489 0
 762 0176 B3F85A10 		ldrh	r1, [r3, #90]
 448:Generated_Source\PSoC5/USBUART_1_std.c ****         
 763              		.loc 1 448 0
 764 017a 4C4C     		ldr	r4, .L53+56
 489:Generated_Source\PSoC5/USBUART_1_std.c ****             USBUART_1_ARB_EP_BASE.arbEp[ep].rwWa    = LO8(USBUART_1_EP[ep].buffOffset);
 765              		.loc 1 489 0
 766 017c C1F30721 		ubfx	r1, r1, #8, #8
 767 0180 D171     		strb	r1, [r2, #7]
 490:Generated_Source\PSoC5/USBUART_1_std.c ****             USBUART_1_ARB_EP_BASE.arbEp[ep].rwWaMsb = HI8(USBUART_1_EP[ep].buffOffset);
 768              		.loc 1 490 0
 769 0182 B3F85A10 		ldrh	r1, [r3, #90]
 448:Generated_Source\PSoC5/USBUART_1_std.c ****         
 770              		.loc 1 448 0
 771 0186 0C20     		movs	r0, #12
 490:Generated_Source\PSoC5/USBUART_1_std.c ****             USBUART_1_ARB_EP_BASE.arbEp[ep].rwWaMsb = HI8(USBUART_1_EP[ep].buffOffset);
 772              		.loc 1 490 0
 773 0188 C9B2     		uxtb	r1, r1
 774 018a 1171     		strb	r1, [r2, #4]
 491:Generated_Source\PSoC5/USBUART_1_std.c ****         #endif /* (CY_PSOC4) */
 775              		.loc 1 491 0
 776 018c B3F85A10 		ldrh	r1, [r3, #90]
ARM GAS  C:\Users\jon\AppData\Local\Temp\ccCLAX4y.s 			page 35


 488:Generated_Source\PSoC5/USBUART_1_std.c ****             USBUART_1_ARB_EP_BASE.arbEp[ep].rwRaMsb = HI8(USBUART_1_EP[ep].buffOffset);
 777              		.loc 1 488 0
 778 0190 394D     		ldr	r5, .L53+4
 491:Generated_Source\PSoC5/USBUART_1_std.c ****         #endif /* (CY_PSOC4) */
 779              		.loc 1 491 0
 780 0192 C1F30721 		ubfx	r1, r1, #8, #8
 781 0196 5171     		strb	r1, [r2, #5]
 782              	.LVL41:
 448:Generated_Source\PSoC5/USBUART_1_std.c ****         
 783              		.loc 1 448 0
 784 0198 2070     		strb	r0, [r4]
 455:Generated_Source\PSoC5/USBUART_1_std.c ****         {
 785              		.loc 1 455 0
 786 019a 93F86520 		ldrb	r2, [r3, #101]	@ zero_extendqisi2
 787 019e 3AB3     		cbz	r2, .L49
 457:Generated_Source\PSoC5/USBUART_1_std.c ****             {
 788              		.loc 1 457 0
 789 01a0 95F86420 		ldrb	r2, [r5, #100]	@ zero_extendqisi2
 790 01a4 12F0800F 		tst	r2, #128
 459:Generated_Source\PSoC5/USBUART_1_std.c ****                 
 791              		.loc 1 459 0
 792 01a8 414A     		ldr	r2, .L53+60
 468:Generated_Source\PSoC5/USBUART_1_std.c **** 
 793              		.loc 1 468 0
 794 01aa 0ABF     		itet	eq
 795 01ac 0821     		moveq	r1, #8
 459:Generated_Source\PSoC5/USBUART_1_std.c ****                 
 796              		.loc 1 459 0
 797 01ae 9070     		strbne	r0, [r2, #2]
 468:Generated_Source\PSoC5/USBUART_1_std.c **** 
 798              		.loc 1 468 0
 799 01b0 9170     		strbeq	r1, [r2, #2]
 800              	.L51:
 488:Generated_Source\PSoC5/USBUART_1_std.c ****             USBUART_1_ARB_EP_BASE.arbEp[ep].rwRaMsb = HI8(USBUART_1_EP[ep].buffOffset);
 801              		.loc 1 488 0 discriminator 2
 802 01b2 B3F86610 		ldrh	r1, [r3, #102]
 803 01b6 3D4A     		ldr	r2, .L53+56
 804 01b8 C9B2     		uxtb	r1, r1
 805 01ba 9171     		strb	r1, [r2, #6]
 489:Generated_Source\PSoC5/USBUART_1_std.c ****             USBUART_1_ARB_EP_BASE.arbEp[ep].rwWa    = LO8(USBUART_1_EP[ep].buffOffset);
 806              		.loc 1 489 0 discriminator 2
 807 01bc B3F86610 		ldrh	r1, [r3, #102]
 519:Generated_Source\PSoC5/USBUART_1_std.c **** }
 808              		.loc 1 519 0 discriminator 2
 809 01c0 3C48     		ldr	r0, .L53+64
 489:Generated_Source\PSoC5/USBUART_1_std.c ****             USBUART_1_ARB_EP_BASE.arbEp[ep].rwWa    = LO8(USBUART_1_EP[ep].buffOffset);
 810              		.loc 1 489 0 discriminator 2
 811 01c2 C1F30721 		ubfx	r1, r1, #8, #8
 812 01c6 D171     		strb	r1, [r2, #7]
 490:Generated_Source\PSoC5/USBUART_1_std.c ****             USBUART_1_ARB_EP_BASE.arbEp[ep].rwWaMsb = HI8(USBUART_1_EP[ep].buffOffset);
 813              		.loc 1 490 0 discriminator 2
 814 01c8 B3F86610 		ldrh	r1, [r3, #102]
 519:Generated_Source\PSoC5/USBUART_1_std.c **** }
 815              		.loc 1 519 0 discriminator 2
 816 01cc FF24     		movs	r4, #255
 490:Generated_Source\PSoC5/USBUART_1_std.c ****             USBUART_1_ARB_EP_BASE.arbEp[ep].rwWaMsb = HI8(USBUART_1_EP[ep].buffOffset);
 817              		.loc 1 490 0 discriminator 2
ARM GAS  C:\Users\jon\AppData\Local\Temp\ccCLAX4y.s 			page 36


 818 01ce C9B2     		uxtb	r1, r1
 819 01d0 1171     		strb	r1, [r2, #4]
 491:Generated_Source\PSoC5/USBUART_1_std.c ****         #endif /* (CY_PSOC4) */
 820              		.loc 1 491 0 discriminator 2
 821 01d2 B3F86630 		ldrh	r3, [r3, #102]
 822 01d6 C3F30723 		ubfx	r3, r3, #8, #8
 823 01da 5371     		strb	r3, [r2, #5]
 824              	.LVL42:
 519:Generated_Source\PSoC5/USBUART_1_std.c **** }
 825              		.loc 1 519 0 discriminator 2
 826 01dc 0470     		strb	r4, [r0]
 520:Generated_Source\PSoC5/USBUART_1_std.c **** 
 827              		.loc 1 520 0 discriminator 2
 828 01de 30BC     		pop	{r4, r5}
 829              		.cfi_remember_state
 830              		.cfi_restore 5
 831              		.cfi_restore 4
 832              		.cfi_def_cfa_offset 0
 833 01e0 7047     		bx	lr
 834              	.LVL43:
 835              	.L28:
 836              		.cfi_restore_state
 457:Generated_Source\PSoC5/USBUART_1_std.c ****             {
 837              		.loc 1 457 0
 838 01e2 197C     		ldrb	r1, [r3, #16]	@ zero_extendqisi2
 839 01e4 0906     		lsls	r1, r1, #24
 840 01e6 42D4     		bmi	.L30
 468:Generated_Source\PSoC5/USBUART_1_std.c **** 
 841              		.loc 1 468 0
 842 01e8 334A     		ldr	r2, .L53+68
 843 01ea 0821     		movs	r1, #8
 844 01ec 9170     		strb	r1, [r2, #2]
 845 01ee 16E7     		b	.L29
 846              	.LVL44:
 847              	.L49:
 480:Generated_Source\PSoC5/USBUART_1_std.c ****         }
 848              		.loc 1 480 0
 849 01f0 2F4A     		ldr	r2, .L53+60
 850 01f2 8021     		movs	r1, #128
 851 01f4 9170     		strb	r1, [r2, #2]
 852 01f6 DCE7     		b	.L51
 853              	.LVL45:
 854              	.L46:
 457:Generated_Source\PSoC5/USBUART_1_std.c ****             {
 855              		.loc 1 457 0
 856 01f8 95F85820 		ldrb	r2, [r5, #88]	@ zero_extendqisi2
 857 01fc 12F0800F 		tst	r2, #128
 459:Generated_Source\PSoC5/USBUART_1_std.c ****                 
 858              		.loc 1 459 0
 859 0200 294A     		ldr	r2, .L53+52
 468:Generated_Source\PSoC5/USBUART_1_std.c **** 
 860              		.loc 1 468 0
 861 0202 06BF     		itte	eq
 862 0204 0821     		moveq	r1, #8
 863 0206 9170     		strbeq	r1, [r2, #2]
 459:Generated_Source\PSoC5/USBUART_1_std.c ****                 
 864              		.loc 1 459 0
ARM GAS  C:\Users\jon\AppData\Local\Temp\ccCLAX4y.s 			page 37


 865 0208 9070     		strbne	r0, [r2, #2]
 866 020a AFE7     		b	.L47
 867              	.LVL46:
 868              	.L43:
 457:Generated_Source\PSoC5/USBUART_1_std.c ****             {
 869              		.loc 1 457 0
 870 020c 95F84C20 		ldrb	r2, [r5, #76]	@ zero_extendqisi2
 871 0210 12F0800F 		tst	r2, #128
 459:Generated_Source\PSoC5/USBUART_1_std.c ****                 
 872              		.loc 1 459 0
 873 0214 224A     		ldr	r2, .L53+44
 468:Generated_Source\PSoC5/USBUART_1_std.c **** 
 874              		.loc 1 468 0
 875 0216 06BF     		itte	eq
 876 0218 0821     		moveq	r1, #8
 877 021a 9170     		strbeq	r1, [r2, #2]
 459:Generated_Source\PSoC5/USBUART_1_std.c ****                 
 878              		.loc 1 459 0
 879 021c 9070     		strbne	r0, [r2, #2]
 880 021e 87E7     		b	.L44
 881              	.LVL47:
 882              	.L40:
 457:Generated_Source\PSoC5/USBUART_1_std.c ****             {
 883              		.loc 1 457 0
 884 0220 95F84020 		ldrb	r2, [r5, #64]	@ zero_extendqisi2
 885 0224 12F0800F 		tst	r2, #128
 459:Generated_Source\PSoC5/USBUART_1_std.c ****                 
 886              		.loc 1 459 0
 887 0228 1B4A     		ldr	r2, .L53+36
 468:Generated_Source\PSoC5/USBUART_1_std.c **** 
 888              		.loc 1 468 0
 889 022a 06BF     		itte	eq
 890 022c 0821     		moveq	r1, #8
 891 022e 9170     		strbeq	r1, [r2, #2]
 459:Generated_Source\PSoC5/USBUART_1_std.c ****                 
 892              		.loc 1 459 0
 893 0230 9070     		strbne	r0, [r2, #2]
 894 0232 5FE7     		b	.L41
 895              	.LVL48:
 896              	.L37:
 457:Generated_Source\PSoC5/USBUART_1_std.c ****             {
 897              		.loc 1 457 0
 898 0234 95F83420 		ldrb	r2, [r5, #52]	@ zero_extendqisi2
 899 0238 12F0800F 		tst	r2, #128
 459:Generated_Source\PSoC5/USBUART_1_std.c ****                 
 900              		.loc 1 459 0
 901 023c 144A     		ldr	r2, .L53+28
 468:Generated_Source\PSoC5/USBUART_1_std.c **** 
 902              		.loc 1 468 0
 903 023e 06BF     		itte	eq
 904 0240 0821     		moveq	r1, #8
 905 0242 9170     		strbeq	r1, [r2, #2]
 459:Generated_Source\PSoC5/USBUART_1_std.c ****                 
 906              		.loc 1 459 0
 907 0244 9070     		strbne	r0, [r2, #2]
 908 0246 3AE7     		b	.L38
 909              	.LVL49:
ARM GAS  C:\Users\jon\AppData\Local\Temp\ccCLAX4y.s 			page 38


 910              	.L34:
 457:Generated_Source\PSoC5/USBUART_1_std.c ****             {
 911              		.loc 1 457 0
 912 0248 95F82820 		ldrb	r2, [r5, #40]	@ zero_extendqisi2
 913 024c 12F0800F 		tst	r2, #128
 459:Generated_Source\PSoC5/USBUART_1_std.c ****                 
 914              		.loc 1 459 0
 915 0250 0D4A     		ldr	r2, .L53+20
 468:Generated_Source\PSoC5/USBUART_1_std.c **** 
 916              		.loc 1 468 0
 917 0252 06BF     		itte	eq
 918 0254 0821     		moveq	r1, #8
 919 0256 9170     		strbeq	r1, [r2, #2]
 459:Generated_Source\PSoC5/USBUART_1_std.c ****                 
 920              		.loc 1 459 0
 921 0258 9070     		strbne	r0, [r2, #2]
 922 025a 15E7     		b	.L35
 923              	.LVL50:
 924              	.L31:
 457:Generated_Source\PSoC5/USBUART_1_std.c ****             {
 925              		.loc 1 457 0
 926 025c 2A7F     		ldrb	r2, [r5, #28]	@ zero_extendqisi2
 927 025e 12F0800F 		tst	r2, #128
 459:Generated_Source\PSoC5/USBUART_1_std.c ****                 
 928              		.loc 1 459 0
 929 0262 074A     		ldr	r2, .L53+12
 468:Generated_Source\PSoC5/USBUART_1_std.c **** 
 930              		.loc 1 468 0
 931 0264 06BF     		itte	eq
 932 0266 0821     		moveq	r1, #8
 933 0268 9170     		strbeq	r1, [r2, #2]
 459:Generated_Source\PSoC5/USBUART_1_std.c ****                 
 934              		.loc 1 459 0
 935 026a 9070     		strbne	r0, [r2, #2]
 936 026c F1E6     		b	.L32
 937              	.LVL51:
 938              	.L30:
 939 026e 1249     		ldr	r1, .L53+68
 940 0270 8A70     		strb	r2, [r1, #2]
 941 0272 D4E6     		b	.L29
 942              	.L54:
 943              		.align	2
 944              	.L53:
 945 0274 80600040 		.word	1073766528
 946 0278 00000000 		.word	USBUART_1_EP
 947 027c 90600040 		.word	1073766544
 948 0280 1C600040 		.word	1073766428
 949 0284 A0600040 		.word	1073766560
 950 0288 2C600040 		.word	1073766444
 951 028c B0600040 		.word	1073766576
 952 0290 3C600040 		.word	1073766460
 953 0294 C0600040 		.word	1073766592
 954 0298 4C600040 		.word	1073766476
 955 029c D0600040 		.word	1073766608
 956 02a0 5C600040 		.word	1073766492
 957 02a4 E0600040 		.word	1073766624
 958 02a8 6C600040 		.word	1073766508
ARM GAS  C:\Users\jon\AppData\Local\Temp\ccCLAX4y.s 			page 39


 959 02ac F0600040 		.word	1073766640
 960 02b0 7C600040 		.word	1073766524
 961 02b4 0A600040 		.word	1073766410
 962 02b8 0C600040 		.word	1073766412
 963              		.cfi_endproc
 964              	.LFE2:
 965              		.size	USBUART_1_ConfigReg, .-USBUART_1_ConfigReg
 966              		.section	.text.USBUART_1_EpStateInit,"ax",%progbits
 967              		.align	2
 968              		.global	USBUART_1_EpStateInit
 969              		.thumb
 970              		.thumb_func
 971              		.type	USBUART_1_EpStateInit, %function
 972              	USBUART_1_EpStateInit:
 973              	.LFB3:
 533:Generated_Source\PSoC5/USBUART_1_std.c ****     uint8 i;
 974              		.loc 1 533 0
 975              		.cfi_startproc
 976              		@ args = 0, pretend = 0, frame = 0
 977              		@ frame_needed = 0, uses_anonymous_args = 0
 978              		@ link register save eliminated.
 979              	.LVL52:
 538:Generated_Source\PSoC5/USBUART_1_std.c ****         {
 980              		.loc 1 538 0
 981 0000 224B     		ldr	r3, .L72
 982 0002 1A7C     		ldrb	r2, [r3, #16]	@ zero_extendqisi2
 983 0004 1206     		lsls	r2, r2, #24
 546:Generated_Source\PSoC5/USBUART_1_std.c ****         }
 984              		.loc 1 546 0
 985 0006 54BF     		ite	pl
 986 0008 0022     		movpl	r2, #0
 541:Generated_Source\PSoC5/USBUART_1_std.c ****         }
 987              		.loc 1 541 0
 988 000a 0122     		movmi	r2, #1
 989 000c 5A73     		strb	r2, [r3, #13]
 538:Generated_Source\PSoC5/USBUART_1_std.c ****         {
 990              		.loc 1 538 0
 991 000e 197F     		ldrb	r1, [r3, #28]	@ zero_extendqisi2
 992 0010 1E4A     		ldr	r2, .L72
 993 0012 0806     		lsls	r0, r1, #24
 546:Generated_Source\PSoC5/USBUART_1_std.c ****         }
 994              		.loc 1 546 0
 995 0014 54BF     		ite	pl
 996 0016 0021     		movpl	r1, #0
 541:Generated_Source\PSoC5/USBUART_1_std.c ****         }
 997              		.loc 1 541 0
 998 0018 0121     		movmi	r1, #1
 999 001a 5176     		strb	r1, [r2, #25]
 538:Generated_Source\PSoC5/USBUART_1_std.c ****         {
 1000              		.loc 1 538 0
 1001 001c 93F82810 		ldrb	r1, [r3, #40]	@ zero_extendqisi2
 1002 0020 1A4A     		ldr	r2, .L72
 1003 0022 0906     		lsls	r1, r1, #24
 546:Generated_Source\PSoC5/USBUART_1_std.c ****         }
 1004              		.loc 1 546 0
 1005 0024 54BF     		ite	pl
 1006 0026 0021     		movpl	r1, #0
ARM GAS  C:\Users\jon\AppData\Local\Temp\ccCLAX4y.s 			page 40


 541:Generated_Source\PSoC5/USBUART_1_std.c ****         }
 1007              		.loc 1 541 0
 1008 0028 0121     		movmi	r1, #1
 1009 002a 82F82510 		strb	r1, [r2, #37]
 538:Generated_Source\PSoC5/USBUART_1_std.c ****         {
 1010              		.loc 1 538 0
 1011 002e 93F83410 		ldrb	r1, [r3, #52]	@ zero_extendqisi2
 1012 0032 164A     		ldr	r2, .L72
 1013 0034 0806     		lsls	r0, r1, #24
 546:Generated_Source\PSoC5/USBUART_1_std.c ****         }
 1014              		.loc 1 546 0
 1015 0036 54BF     		ite	pl
 1016 0038 0021     		movpl	r1, #0
 541:Generated_Source\PSoC5/USBUART_1_std.c ****         }
 1017              		.loc 1 541 0
 1018 003a 0121     		movmi	r1, #1
 1019 003c 82F83110 		strb	r1, [r2, #49]
 538:Generated_Source\PSoC5/USBUART_1_std.c ****         {
 1020              		.loc 1 538 0
 1021 0040 93F84010 		ldrb	r1, [r3, #64]	@ zero_extendqisi2
 1022 0044 114A     		ldr	r2, .L72
 1023 0046 0906     		lsls	r1, r1, #24
 546:Generated_Source\PSoC5/USBUART_1_std.c ****         }
 1024              		.loc 1 546 0
 1025 0048 54BF     		ite	pl
 1026 004a 0021     		movpl	r1, #0
 541:Generated_Source\PSoC5/USBUART_1_std.c ****         }
 1027              		.loc 1 541 0
 1028 004c 0121     		movmi	r1, #1
 1029 004e 82F83D10 		strb	r1, [r2, #61]
 538:Generated_Source\PSoC5/USBUART_1_std.c ****         {
 1030              		.loc 1 538 0
 1031 0052 93F84C10 		ldrb	r1, [r3, #76]	@ zero_extendqisi2
 1032 0056 0D4A     		ldr	r2, .L72
 1033 0058 0806     		lsls	r0, r1, #24
 546:Generated_Source\PSoC5/USBUART_1_std.c ****         }
 1034              		.loc 1 546 0
 1035 005a 54BF     		ite	pl
 1036 005c 0021     		movpl	r1, #0
 541:Generated_Source\PSoC5/USBUART_1_std.c ****         }
 1037              		.loc 1 541 0
 1038 005e 0121     		movmi	r1, #1
 1039 0060 82F84910 		strb	r1, [r2, #73]
 538:Generated_Source\PSoC5/USBUART_1_std.c ****         {
 1040              		.loc 1 538 0
 1041 0064 93F85810 		ldrb	r1, [r3, #88]	@ zero_extendqisi2
 1042 0068 084A     		ldr	r2, .L72
 1043 006a 0906     		lsls	r1, r1, #24
 546:Generated_Source\PSoC5/USBUART_1_std.c ****         }
 1044              		.loc 1 546 0
 1045 006c 54BF     		ite	pl
 1046 006e 0021     		movpl	r1, #0
 541:Generated_Source\PSoC5/USBUART_1_std.c ****         }
 1047              		.loc 1 541 0
 1048 0070 0121     		movmi	r1, #1
 1049 0072 82F85510 		strb	r1, [r2, #85]
 538:Generated_Source\PSoC5/USBUART_1_std.c ****         {
ARM GAS  C:\Users\jon\AppData\Local\Temp\ccCLAX4y.s 			page 41


 1050              		.loc 1 538 0
 1051 0076 93F86420 		ldrb	r2, [r3, #100]	@ zero_extendqisi2
 1052 007a 044B     		ldr	r3, .L72
 1053 007c 1206     		lsls	r2, r2, #24
 541:Generated_Source\PSoC5/USBUART_1_std.c ****         }
 1054              		.loc 1 541 0
 1055 007e 4CBF     		ite	mi
 1056 0080 0122     		movmi	r2, #1
 546:Generated_Source\PSoC5/USBUART_1_std.c ****         }
 1057              		.loc 1 546 0
 1058 0082 0022     		movpl	r2, #0
 1059 0084 83F86120 		strb	r2, [r3, #97]
 1060              	.LVL53:
 1061 0088 7047     		bx	lr
 1062              	.L73:
 1063 008a 00BF     		.align	2
 1064              	.L72:
 1065 008c 00000000 		.word	USBUART_1_EP
 1066              		.cfi_endproc
 1067              	.LFE3:
 1068              		.size	USBUART_1_EpStateInit, .-USBUART_1_EpStateInit
 1069              		.section	.text.USBUART_1_Config,"ax",%progbits
 1070              		.align	2
 1071              		.global	USBUART_1_Config
 1072              		.thumb
 1073              		.thumb_func
 1074              		.type	USBUART_1_Config, %function
 1075              	USBUART_1_Config:
 1076              	.LFB4:
 571:Generated_Source\PSoC5/USBUART_1_std.c ****     uint8 ep;
 1077              		.loc 1 571 0
 1078              		.cfi_startproc
 1079              		@ args = 0, pretend = 0, frame = 16
 1080              		@ frame_needed = 0, uses_anonymous_args = 0
 1081              	.LVL54:
 1082 0000 2DE9F04F 		push	{r4, r5, r6, r7, r8, r9, r10, fp, lr}
 1083              		.cfi_def_cfa_offset 36
 1084              		.cfi_offset 4, -36
 1085              		.cfi_offset 5, -32
 1086              		.cfi_offset 6, -28
 1087              		.cfi_offset 7, -24
 1088              		.cfi_offset 8, -20
 1089              		.cfi_offset 9, -16
 1090              		.cfi_offset 10, -12
 1091              		.cfi_offset 11, -8
 1092              		.cfi_offset 14, -4
 588:Generated_Source\PSoC5/USBUART_1_std.c ****         USBUART_1_EP[ep].hwEpState  = 0u;
 1093              		.loc 1 588 0
 1094 0004 594D     		ldr	r5, .L137
 1095 0006 0023     		movs	r3, #0
 1096 0008 2B70     		strb	r3, [r5]
 571:Generated_Source\PSoC5/USBUART_1_std.c ****     uint8 ep;
 1097              		.loc 1 571 0
 1098 000a 85B0     		sub	sp, sp, #20
 1099              		.cfi_def_cfa_offset 56
 589:Generated_Source\PSoC5/USBUART_1_std.c ****         USBUART_1_EP[ep].epToggle   = 0u;
 1100              		.loc 1 589 0
ARM GAS  C:\Users\jon\AppData\Local\Temp\ccCLAX4y.s 			page 42


 1101 000c AB70     		strb	r3, [r5, #2]
 590:Generated_Source\PSoC5/USBUART_1_std.c ****         USBUART_1_EP[ep].bufferSize = 0u;
 1102              		.loc 1 590 0
 1103 000e EB70     		strb	r3, [r5, #3]
 591:Generated_Source\PSoC5/USBUART_1_std.c ****         USBUART_1_EP[ep].interface  = 0u;
 1104              		.loc 1 591 0
 1105 0010 2B81     		strh	r3, [r5, #8]	@ movhi
 592:Generated_Source\PSoC5/USBUART_1_std.c ****         USBUART_1_EP[ep].apiEpState = USBUART_1_NO_EVENT_PENDING;
 1106              		.loc 1 592 0
 1107 0012 AB72     		strb	r3, [r5, #10]
 593:Generated_Source\PSoC5/USBUART_1_std.c ****         USBUART_1_EP[ep].epMode     = USBUART_1_MODE_DISABLE;   
 1108              		.loc 1 593 0
 1109 0014 6B70     		strb	r3, [r5, #1]
 594:Generated_Source\PSoC5/USBUART_1_std.c ****     }
 1110              		.loc 1 594 0
 1111 0016 6B71     		strb	r3, [r5, #5]
 1112              	.LVL55:
 588:Generated_Source\PSoC5/USBUART_1_std.c ****         USBUART_1_EP[ep].hwEpState  = 0u;
 1113              		.loc 1 588 0
 1114 0018 2B73     		strb	r3, [r5, #12]
 589:Generated_Source\PSoC5/USBUART_1_std.c ****         USBUART_1_EP[ep].epToggle   = 0u;
 1115              		.loc 1 589 0
 1116 001a AB73     		strb	r3, [r5, #14]
 590:Generated_Source\PSoC5/USBUART_1_std.c ****         USBUART_1_EP[ep].bufferSize = 0u;
 1117              		.loc 1 590 0
 1118 001c EB73     		strb	r3, [r5, #15]
 591:Generated_Source\PSoC5/USBUART_1_std.c ****         USBUART_1_EP[ep].interface  = 0u;
 1119              		.loc 1 591 0
 1120 001e AB82     		strh	r3, [r5, #20]	@ movhi
 592:Generated_Source\PSoC5/USBUART_1_std.c ****         USBUART_1_EP[ep].apiEpState = USBUART_1_NO_EVENT_PENDING;
 1121              		.loc 1 592 0
 1122 0020 AB75     		strb	r3, [r5, #22]
 593:Generated_Source\PSoC5/USBUART_1_std.c ****         USBUART_1_EP[ep].epMode     = USBUART_1_MODE_DISABLE;   
 1123              		.loc 1 593 0
 1124 0022 6B73     		strb	r3, [r5, #13]
 594:Generated_Source\PSoC5/USBUART_1_std.c ****     }
 1125              		.loc 1 594 0
 1126 0024 6B74     		strb	r3, [r5, #17]
 1127              	.LVL56:
 588:Generated_Source\PSoC5/USBUART_1_std.c ****         USBUART_1_EP[ep].hwEpState  = 0u;
 1128              		.loc 1 588 0
 1129 0026 2B76     		strb	r3, [r5, #24]
 589:Generated_Source\PSoC5/USBUART_1_std.c ****         USBUART_1_EP[ep].epToggle   = 0u;
 1130              		.loc 1 589 0
 1131 0028 AB76     		strb	r3, [r5, #26]
 590:Generated_Source\PSoC5/USBUART_1_std.c ****         USBUART_1_EP[ep].bufferSize = 0u;
 1132              		.loc 1 590 0
 1133 002a EB76     		strb	r3, [r5, #27]
 591:Generated_Source\PSoC5/USBUART_1_std.c ****         USBUART_1_EP[ep].interface  = 0u;
 1134              		.loc 1 591 0
 1135 002c 2B84     		strh	r3, [r5, #32]	@ movhi
 592:Generated_Source\PSoC5/USBUART_1_std.c ****         USBUART_1_EP[ep].apiEpState = USBUART_1_NO_EVENT_PENDING;
 1136              		.loc 1 592 0
 1137 002e 85F82230 		strb	r3, [r5, #34]
 593:Generated_Source\PSoC5/USBUART_1_std.c ****         USBUART_1_EP[ep].epMode     = USBUART_1_MODE_DISABLE;   
 1138              		.loc 1 593 0
 1139 0032 6B76     		strb	r3, [r5, #25]
ARM GAS  C:\Users\jon\AppData\Local\Temp\ccCLAX4y.s 			page 43


 594:Generated_Source\PSoC5/USBUART_1_std.c ****     }
 1140              		.loc 1 594 0
 1141 0034 6B77     		strb	r3, [r5, #29]
 1142              	.LVL57:
 588:Generated_Source\PSoC5/USBUART_1_std.c ****         USBUART_1_EP[ep].hwEpState  = 0u;
 1143              		.loc 1 588 0
 1144 0036 85F82430 		strb	r3, [r5, #36]
 589:Generated_Source\PSoC5/USBUART_1_std.c ****         USBUART_1_EP[ep].epToggle   = 0u;
 1145              		.loc 1 589 0
 1146 003a 85F82630 		strb	r3, [r5, #38]
 590:Generated_Source\PSoC5/USBUART_1_std.c ****         USBUART_1_EP[ep].bufferSize = 0u;
 1147              		.loc 1 590 0
 1148 003e 85F82730 		strb	r3, [r5, #39]
 591:Generated_Source\PSoC5/USBUART_1_std.c ****         USBUART_1_EP[ep].interface  = 0u;
 1149              		.loc 1 591 0
 1150 0042 AB85     		strh	r3, [r5, #44]	@ movhi
 592:Generated_Source\PSoC5/USBUART_1_std.c ****         USBUART_1_EP[ep].apiEpState = USBUART_1_NO_EVENT_PENDING;
 1151              		.loc 1 592 0
 1152 0044 85F82E30 		strb	r3, [r5, #46]
 593:Generated_Source\PSoC5/USBUART_1_std.c ****         USBUART_1_EP[ep].epMode     = USBUART_1_MODE_DISABLE;   
 1153              		.loc 1 593 0
 1154 0048 85F82530 		strb	r3, [r5, #37]
 594:Generated_Source\PSoC5/USBUART_1_std.c ****     }
 1155              		.loc 1 594 0
 1156 004c 85F82930 		strb	r3, [r5, #41]
 1157              	.LVL58:
 588:Generated_Source\PSoC5/USBUART_1_std.c ****         USBUART_1_EP[ep].hwEpState  = 0u;
 1158              		.loc 1 588 0
 1159 0050 85F83030 		strb	r3, [r5, #48]
 589:Generated_Source\PSoC5/USBUART_1_std.c ****         USBUART_1_EP[ep].epToggle   = 0u;
 1160              		.loc 1 589 0
 1161 0054 85F83230 		strb	r3, [r5, #50]
 590:Generated_Source\PSoC5/USBUART_1_std.c ****         USBUART_1_EP[ep].bufferSize = 0u;
 1162              		.loc 1 590 0
 1163 0058 85F83330 		strb	r3, [r5, #51]
 591:Generated_Source\PSoC5/USBUART_1_std.c ****         USBUART_1_EP[ep].interface  = 0u;
 1164              		.loc 1 591 0
 1165 005c 2B87     		strh	r3, [r5, #56]	@ movhi
 592:Generated_Source\PSoC5/USBUART_1_std.c ****         USBUART_1_EP[ep].apiEpState = USBUART_1_NO_EVENT_PENDING;
 1166              		.loc 1 592 0
 1167 005e 85F83A30 		strb	r3, [r5, #58]
 593:Generated_Source\PSoC5/USBUART_1_std.c ****         USBUART_1_EP[ep].epMode     = USBUART_1_MODE_DISABLE;   
 1168              		.loc 1 593 0
 1169 0062 85F83130 		strb	r3, [r5, #49]
 594:Generated_Source\PSoC5/USBUART_1_std.c ****     }
 1170              		.loc 1 594 0
 1171 0066 85F83530 		strb	r3, [r5, #53]
 1172              	.LVL59:
 588:Generated_Source\PSoC5/USBUART_1_std.c ****         USBUART_1_EP[ep].hwEpState  = 0u;
 1173              		.loc 1 588 0
 1174 006a 85F83C30 		strb	r3, [r5, #60]
 589:Generated_Source\PSoC5/USBUART_1_std.c ****         USBUART_1_EP[ep].epToggle   = 0u;
 1175              		.loc 1 589 0
 1176 006e 85F83E30 		strb	r3, [r5, #62]
 590:Generated_Source\PSoC5/USBUART_1_std.c ****         USBUART_1_EP[ep].bufferSize = 0u;
 1177              		.loc 1 590 0
 1178 0072 85F83F30 		strb	r3, [r5, #63]
ARM GAS  C:\Users\jon\AppData\Local\Temp\ccCLAX4y.s 			page 44


 591:Generated_Source\PSoC5/USBUART_1_std.c ****         USBUART_1_EP[ep].interface  = 0u;
 1179              		.loc 1 591 0
 1180 0076 A5F84430 		strh	r3, [r5, #68]	@ movhi
 592:Generated_Source\PSoC5/USBUART_1_std.c ****         USBUART_1_EP[ep].apiEpState = USBUART_1_NO_EVENT_PENDING;
 1181              		.loc 1 592 0
 1182 007a 85F84630 		strb	r3, [r5, #70]
 593:Generated_Source\PSoC5/USBUART_1_std.c ****         USBUART_1_EP[ep].epMode     = USBUART_1_MODE_DISABLE;   
 1183              		.loc 1 593 0
 1184 007e 85F83D30 		strb	r3, [r5, #61]
 594:Generated_Source\PSoC5/USBUART_1_std.c ****     }
 1185              		.loc 1 594 0
 1186 0082 85F84130 		strb	r3, [r5, #65]
 1187              	.LVL60:
 588:Generated_Source\PSoC5/USBUART_1_std.c ****         USBUART_1_EP[ep].hwEpState  = 0u;
 1188              		.loc 1 588 0
 1189 0086 85F84830 		strb	r3, [r5, #72]
 589:Generated_Source\PSoC5/USBUART_1_std.c ****         USBUART_1_EP[ep].epToggle   = 0u;
 1190              		.loc 1 589 0
 1191 008a 85F84A30 		strb	r3, [r5, #74]
 590:Generated_Source\PSoC5/USBUART_1_std.c ****         USBUART_1_EP[ep].bufferSize = 0u;
 1192              		.loc 1 590 0
 1193 008e 85F84B30 		strb	r3, [r5, #75]
 591:Generated_Source\PSoC5/USBUART_1_std.c ****         USBUART_1_EP[ep].interface  = 0u;
 1194              		.loc 1 591 0
 1195 0092 A5F85030 		strh	r3, [r5, #80]	@ movhi
 592:Generated_Source\PSoC5/USBUART_1_std.c ****         USBUART_1_EP[ep].apiEpState = USBUART_1_NO_EVENT_PENDING;
 1196              		.loc 1 592 0
 1197 0096 85F85230 		strb	r3, [r5, #82]
 593:Generated_Source\PSoC5/USBUART_1_std.c ****         USBUART_1_EP[ep].epMode     = USBUART_1_MODE_DISABLE;   
 1198              		.loc 1 593 0
 1199 009a 85F84930 		strb	r3, [r5, #73]
 594:Generated_Source\PSoC5/USBUART_1_std.c ****     }
 1200              		.loc 1 594 0
 1201 009e 85F84D30 		strb	r3, [r5, #77]
 1202              	.LVL61:
 588:Generated_Source\PSoC5/USBUART_1_std.c ****         USBUART_1_EP[ep].hwEpState  = 0u;
 1203              		.loc 1 588 0
 1204 00a2 85F85430 		strb	r3, [r5, #84]
 589:Generated_Source\PSoC5/USBUART_1_std.c ****         USBUART_1_EP[ep].epToggle   = 0u;
 1205              		.loc 1 589 0
 1206 00a6 85F85630 		strb	r3, [r5, #86]
 590:Generated_Source\PSoC5/USBUART_1_std.c ****         USBUART_1_EP[ep].bufferSize = 0u;
 1207              		.loc 1 590 0
 1208 00aa 85F85730 		strb	r3, [r5, #87]
 591:Generated_Source\PSoC5/USBUART_1_std.c ****         USBUART_1_EP[ep].interface  = 0u;
 1209              		.loc 1 591 0
 1210 00ae A5F85C30 		strh	r3, [r5, #92]	@ movhi
 592:Generated_Source\PSoC5/USBUART_1_std.c ****         USBUART_1_EP[ep].apiEpState = USBUART_1_NO_EVENT_PENDING;
 1211              		.loc 1 592 0
 1212 00b2 85F85E30 		strb	r3, [r5, #94]
 593:Generated_Source\PSoC5/USBUART_1_std.c ****         USBUART_1_EP[ep].epMode     = USBUART_1_MODE_DISABLE;   
 1213              		.loc 1 593 0
 1214 00b6 85F85530 		strb	r3, [r5, #85]
 594:Generated_Source\PSoC5/USBUART_1_std.c ****     }
 1215              		.loc 1 594 0
 1216 00ba 85F85930 		strb	r3, [r5, #89]
 1217              	.LVL62:
ARM GAS  C:\Users\jon\AppData\Local\Temp\ccCLAX4y.s 			page 45


 588:Generated_Source\PSoC5/USBUART_1_std.c ****         USBUART_1_EP[ep].hwEpState  = 0u;
 1218              		.loc 1 588 0
 1219 00be 85F86030 		strb	r3, [r5, #96]
 589:Generated_Source\PSoC5/USBUART_1_std.c ****         USBUART_1_EP[ep].epToggle   = 0u;
 1220              		.loc 1 589 0
 1221 00c2 85F86230 		strb	r3, [r5, #98]
 590:Generated_Source\PSoC5/USBUART_1_std.c ****         USBUART_1_EP[ep].bufferSize = 0u;
 1222              		.loc 1 590 0
 1223 00c6 85F86330 		strb	r3, [r5, #99]
 591:Generated_Source\PSoC5/USBUART_1_std.c ****         USBUART_1_EP[ep].interface  = 0u;
 1224              		.loc 1 591 0
 1225 00ca A5F86830 		strh	r3, [r5, #104]	@ movhi
 592:Generated_Source\PSoC5/USBUART_1_std.c ****         USBUART_1_EP[ep].apiEpState = USBUART_1_NO_EVENT_PENDING;
 1226              		.loc 1 592 0
 1227 00ce 85F86A30 		strb	r3, [r5, #106]
 593:Generated_Source\PSoC5/USBUART_1_std.c ****         USBUART_1_EP[ep].epMode     = USBUART_1_MODE_DISABLE;   
 1228              		.loc 1 593 0
 1229 00d2 85F86130 		strb	r3, [r5, #97]
 594:Generated_Source\PSoC5/USBUART_1_std.c ****     }
 1230              		.loc 1 594 0
 1231 00d6 85F86530 		strb	r3, [r5, #101]
 1232              	.LVL63:
 598:Generated_Source\PSoC5/USBUART_1_std.c ****     {
 1233              		.loc 1 598 0
 1234 00da 28B1     		cbz	r0, .L75
 1235              	.LVL64:
 602:Generated_Source\PSoC5/USBUART_1_std.c ****             USBUART_1_interfaceSettingLast[i] = 0u;
 1236              		.loc 1 602 0 discriminator 1
 1237 00dc 2449     		ldr	r1, .L137+4
 603:Generated_Source\PSoC5/USBUART_1_std.c ****         }
 1238              		.loc 1 603 0 discriminator 1
 1239 00de 254A     		ldr	r2, .L137+8
 602:Generated_Source\PSoC5/USBUART_1_std.c ****             USBUART_1_interfaceSettingLast[i] = 0u;
 1240              		.loc 1 602 0 discriminator 1
 1241 00e0 0B70     		strb	r3, [r1]
 603:Generated_Source\PSoC5/USBUART_1_std.c ****         }
 1242              		.loc 1 603 0 discriminator 1
 1243 00e2 1370     		strb	r3, [r2]
 1244              	.LVL65:
 602:Generated_Source\PSoC5/USBUART_1_std.c ****             USBUART_1_interfaceSettingLast[i] = 0u;
 1245              		.loc 1 602 0 discriminator 1
 1246 00e4 4B70     		strb	r3, [r1, #1]
 603:Generated_Source\PSoC5/USBUART_1_std.c ****         }
 1247              		.loc 1 603 0 discriminator 1
 1248 00e6 5370     		strb	r3, [r2, #1]
 1249              	.LVL66:
 1250              	.L75:
 608:Generated_Source\PSoC5/USBUART_1_std.c ****     {
 1251              		.loc 1 608 0
 1252 00e8 234B     		ldr	r3, .L137+12
 1253 00ea 1B78     		ldrb	r3, [r3]	@ zero_extendqisi2
 1254 00ec 002B     		cmp	r3, #0
 1255 00ee 00F04582 		beq	.L74
 1256              	.LVL67:
 1257              	.LBB43:
 1258              	.LBB44:
 1259              	.LBB45:
ARM GAS  C:\Users\jon\AppData\Local\Temp\ccCLAX4y.s 			page 46


 614:Generated_Source\PSoC5/USBUART_1_std.c ****         
 1260              		.loc 1 614 0
 1261 00f2 214B     		ldr	r3, .L137+12
 1262              	.LBB46:
 1263              	.LBB47:
 948:Generated_Source\PSoC5/USBUART_1_std.c **** 
 1264              		.loc 1 948 0
 1265 00f4 214A     		ldr	r2, .L137+16
 1266              	.LBE47:
 1267              	.LBE46:
 614:Generated_Source\PSoC5/USBUART_1_std.c ****         
 1268              		.loc 1 614 0
 1269 00f6 1B78     		ldrb	r3, [r3]	@ zero_extendqisi2
 1270              	.LBB51:
 1271              	.LBB48:
 948:Generated_Source\PSoC5/USBUART_1_std.c **** 
 1272              		.loc 1 948 0
 1273 00f8 2149     		ldr	r1, .L137+20
 1274 00fa 1278     		ldrb	r2, [r2]	@ zero_extendqisi2
 1275              	.LBE48:
 1276              	.LBE51:
 614:Generated_Source\PSoC5/USBUART_1_std.c ****         
 1277              		.loc 1 614 0
 1278 00fc 013B     		subs	r3, r3, #1
 1279              	.LBB52:
 1280              	.LBB49:
 948:Generated_Source\PSoC5/USBUART_1_std.c **** 
 1281              		.loc 1 948 0
 1282 00fe 01EBC202 		add	r2, r1, r2, lsl #3
 1283 0102 5268     		ldr	r2, [r2, #4]
 1284              	.LBE49:
 1285              	.LBE52:
 614:Generated_Source\PSoC5/USBUART_1_std.c ****         
 1286              		.loc 1 614 0
 1287 0104 DBB2     		uxtb	r3, r3
 1288              	.LVL68:
 1289              	.LBB53:
 1290              	.LBB50:
 957:Generated_Source\PSoC5/USBUART_1_std.c ****     {
 1291              		.loc 1 957 0
 1292 0106 117C     		ldrb	r1, [r2, #16]	@ zero_extendqisi2
 1293 0108 9942     		cmp	r1, r3
 1294 010a 40F23A82 		bls	.L77
 1295              		.loc 1 963 0
 1296 010e 02EBC303 		add	r3, r2, r3, lsl #3
 1297              	.LVL69:
 1298 0112 D3F814A0 		ldr	r10, [r3, #20]
 1299              	.LVL70:
 1300              	.LBE50:
 1301              	.LBE53:
 620:Generated_Source\PSoC5/USBUART_1_std.c ****         }
 1302              		.loc 1 620 0
 1303 0116 1B4A     		ldr	r2, .L137+24
 618:Generated_Source\PSoC5/USBUART_1_std.c ****         {
 1304              		.loc 1 618 0
 1305 0118 DAF80430 		ldr	r3, [r10, #4]
 629:Generated_Source\PSoC5/USBUART_1_std.c **** 
ARM GAS  C:\Users\jon\AppData\Local\Temp\ccCLAX4y.s 			page 47


 1306              		.loc 1 629 0
 1307 011c 9AF808B0 		ldrb	fp, [r10, #8]	@ zero_extendqisi2
 1308              	.LVL71:
 618:Generated_Source\PSoC5/USBUART_1_std.c ****         {
 1309              		.loc 1 618 0
 1310 0120 DB79     		ldrb	r3, [r3, #7]	@ zero_extendqisi2
 629:Generated_Source\PSoC5/USBUART_1_std.c **** 
 1311              		.loc 1 629 0
 1312 0122 0126     		movs	r6, #1
 618:Generated_Source\PSoC5/USBUART_1_std.c ****         {
 1313              		.loc 1 618 0
 1314 0124 13F0400F 		tst	r3, #64
 620:Generated_Source\PSoC5/USBUART_1_std.c ****         }
 1315              		.loc 1 620 0
 1316 0128 1378     		ldrb	r3, [r2]	@ zero_extendqisi2
 629:Generated_Source\PSoC5/USBUART_1_std.c **** 
 1317              		.loc 1 629 0
 1318 012a DAF80C40 		ldr	r4, [r10, #12]
 620:Generated_Source\PSoC5/USBUART_1_std.c ****         }
 1319              		.loc 1 620 0
 1320 012e 14BF     		ite	ne
 1321 0130 43F00103 		orrne	r3, r3, #1
 624:Generated_Source\PSoC5/USBUART_1_std.c ****         }
 1322              		.loc 1 624 0
 1323 0134 03F0FE03 		andeq	r3, r3, #254
 1324 0138 1370     		strb	r3, [r2]
 1325 013a 0BF1FF33 		add	r3, fp, #-1
 1326 013e DBB2     		uxtb	r3, r3
 1327 0140 0393     		str	r3, [sp, #12]
 1328 0142 3344     		add	r3, r3, r6
 1329 0144 DB00     		lsls	r3, r3, #3
 1330 0146 0193     		str	r3, [sp, #4]
 1331 0148 5346     		mov	r3, r10
 705:Generated_Source\PSoC5/USBUART_1_std.c ****                         {                            
 1332              		.loc 1 705 0
 1333 014a DFF82490 		ldr	r9, .L137+4
 611:Generated_Source\PSoC5/USBUART_1_std.c ****         #endif  /* (USBUART_1_ENABLE_CDC_CLASS) */  
 1334              		.loc 1 611 0
 1335 014e 0022     		movs	r2, #0
 1336              	.LVL72:
 1337              	.L88:
 1338 0150 5FFA86FA 		uxtb	r10, r6
 1339              	.LVL73:
 694:Generated_Source\PSoC5/USBUART_1_std.c ****                 {
 1340              		.loc 1 694 0
 1341 0154 BBF1000F 		cmp	fp, #0
 1342 0158 00F02182 		beq	.L118
 1343 015c 0199     		ldr	r1, [sp, #4]
 699:Generated_Source\PSoC5/USBUART_1_std.c ****                         {
 1344              		.loc 1 699 0
 1345 015e 06EB4608 		add	r8, r6, r6, lsl #1
 1346 0162 4FEA8808 		lsl	r8, r8, #2
 1347 0166 6718     		adds	r7, r4, r1
 1348 0168 11E0     		b	.L87
 1349              	.L138:
 1350 016a 00BF     		.align	2
 1351              	.L137:
ARM GAS  C:\Users\jon\AppData\Local\Temp\ccCLAX4y.s 			page 48


 1352 016c 00000000 		.word	USBUART_1_EP
 1353 0170 00000000 		.word	USBUART_1_interfaceSetting
 1354 0174 00000000 		.word	USBUART_1_interfaceSettingLast
 1355 0178 00000000 		.word	USBUART_1_configuration
 1356 017c 00000000 		.word	USBUART_1_device
 1357 0180 00000000 		.word	USBUART_1_TABLE
 1358 0184 00000000 		.word	USBUART_1_deviceStatus
 1359              	.LVL74:
 1360              	.L81:
 752:Generated_Source\PSoC5/USBUART_1_std.c ****                 }
 1361              		.loc 1 752 0
 1362 0188 0834     		adds	r4, r4, #8
 1363              	.LVL75:
 694:Generated_Source\PSoC5/USBUART_1_std.c ****                 {
 1364              		.loc 1 694 0
 1365 018a BC42     		cmp	r4, r7
 1366 018c 3CD0     		beq	.L135
 1367              	.LVL76:
 1368              	.L87:
 696:Generated_Source\PSoC5/USBUART_1_std.c ****                     {
 1369              		.loc 1 696 0
 1370 018e A178     		ldrb	r1, [r4, #2]	@ zero_extendqisi2
 1371 0190 01F07F0E 		and	lr, r1, #127
 1372 0194 7645     		cmp	r6, lr
 1373 0196 F7D1     		bne	.L81
 699:Generated_Source\PSoC5/USBUART_1_std.c ****                         {
 1374              		.loc 1 699 0
 1375 0198 05EB080C 		add	ip, r5, r8
 1376 019c BCF808E0 		ldrh	lr, [ip, #8]
 1377 01a0 A088     		ldrh	r0, [r4, #4]
 1378 01a2 1FFA8EFE 		uxth	lr, lr
 1379 01a6 8645     		cmp	lr, r0
 701:Generated_Source\PSoC5/USBUART_1_std.c ****                         }
 1380              		.loc 1 701 0
 1381 01a8 38BF     		it	cc
 1382 01aa ACF80800 		strhcc	r0, [ip, #8]	@ movhi
 705:Generated_Source\PSoC5/USBUART_1_std.c ****                         {                            
 1383              		.loc 1 705 0
 1384 01ae 2078     		ldrb	r0, [r4]	@ zero_extendqisi2
 1385 01b0 94F801E0 		ldrb	lr, [r4, #1]	@ zero_extendqisi2
 1386 01b4 19F80000 		ldrb	r0, [r9, r0]	@ zero_extendqisi2
 1387 01b8 8645     		cmp	lr, r0
 1388 01ba E5D1     		bne	.L81
 707:Generated_Source\PSoC5/USBUART_1_std.c ****                             USBUART_1_EP[i].attrib = pEP->attributes;
 1389              		.loc 1 707 0
 1390 01bc 05EB0800 		add	r0, r5, r8
 1391 01c0 0171     		strb	r1, [r0, #4]
 708:Generated_Source\PSoC5/USBUART_1_std.c ****                             
 1392              		.loc 1 708 0
 1393 01c2 E178     		ldrb	r1, [r4, #3]	@ zero_extendqisi2
 1394 01c4 05F80810 		strb	r1, [r5, r8]
 712:Generated_Source\PSoC5/USBUART_1_std.c ****                             {
 1395              		.loc 1 712 0
 1396 01c8 94F902E0 		ldrsb	lr, [r4, #2]
 710:Generated_Source\PSoC5/USBUART_1_std.c ****                             
 1397              		.loc 1 710 0
 1398 01cc E178     		ldrb	r1, [r4, #3]	@ zero_extendqisi2
ARM GAS  C:\Users\jon\AppData\Local\Temp\ccCLAX4y.s 			page 49


 712:Generated_Source\PSoC5/USBUART_1_std.c ****                             {
 1399              		.loc 1 712 0
 1400 01ce BEF1000F 		cmp	lr, #0
 710:Generated_Source\PSoC5/USBUART_1_std.c ****                             
 1401              		.loc 1 710 0
 1402 01d2 01F00301 		and	r1, r1, #3
 1403              	.LVL77:
 712:Generated_Source\PSoC5/USBUART_1_std.c ****                             {
 1404              		.loc 1 712 0
 1405 01d6 C0F2D781 		blt	.L136
 728:Generated_Source\PSoC5/USBUART_1_std.c ****                                 USBUART_1_EP[i].apiEpState = USBUART_1_NO_EVENT_PENDING;
 1406              		.loc 1 728 0
 1407 01da 0129     		cmp	r1, #1
 1408 01dc 14BF     		ite	ne
 1409 01de 0921     		movne	r1, #9
 1410              	.LVL78:
 1411 01e0 0521     		moveq	r1, #5
 1412 01e2 4171     		strb	r1, [r0, #5]
 1413              	.LVL79:
 729:Generated_Source\PSoC5/USBUART_1_std.c ****                                 
 1414              		.loc 1 729 0
 1415 01e4 4FF00001 		mov	r1, #0
 1416 01e8 4170     		strb	r1, [r0, #1]
 1417              	.L85:
 740:Generated_Source\PSoC5/USBUART_1_std.c ****                             {
 1418              		.loc 1 740 0
 1419 01ea A179     		ldrb	r1, [r4, #6]	@ zero_extendqisi2
 1420 01ec 01F0F701 		and	r1, r1, #247
 1421 01f0 0229     		cmp	r1, #2
 1422 01f2 C9D1     		bne	.L81
 742:Generated_Source\PSoC5/USBUART_1_std.c ****                             }
 1423              		.loc 1 742 0
 1424 01f4 2046     		mov	r0, r4
 1425 01f6 5146     		mov	r1, r10
 1426 01f8 0293     		str	r3, [sp, #8]
 1427 01fa FFF7FEFF 		bl	USBUART_1_Cdc_EpInit
 1428              	.LVL80:
 752:Generated_Source\PSoC5/USBUART_1_std.c ****                 }
 1429              		.loc 1 752 0
 1430 01fe 0834     		adds	r4, r4, #8
 1431              	.LVL81:
 694:Generated_Source\PSoC5/USBUART_1_std.c ****                 {
 1432              		.loc 1 694 0
 1433 0200 BC42     		cmp	r4, r7
 742:Generated_Source\PSoC5/USBUART_1_std.c ****                             }
 1434              		.loc 1 742 0
 1435 0202 0246     		mov	r2, r0
 1436 0204 029B     		ldr	r3, [sp, #8]
 1437              	.LVL82:
 694:Generated_Source\PSoC5/USBUART_1_std.c ****                 {
 1438              		.loc 1 694 0
 1439 0206 C2D1     		bne	.L87
 1440              	.L135:
 1441 0208 D968     		ldr	r1, [r3, #12]
 1442              	.LVL83:
 1443              	.L80:
 1444 020a 0136     		adds	r6, r6, #1
ARM GAS  C:\Users\jon\AppData\Local\Temp\ccCLAX4y.s 			page 50


 1445              	.LVL84:
 687:Generated_Source\PSoC5/USBUART_1_std.c ****             {
 1446              		.loc 1 687 0
 1447 020c 092E     		cmp	r6, #9
 1448 020e 0C46     		mov	r4, r1
 1449 0210 9ED1     		bne	.L88
 1450              	.LVL85:
 763:Generated_Source\PSoC5/USBUART_1_std.c ****         {
 1451              		.loc 1 763 0
 1452 0212 BBF1000F 		cmp	fp, #0
 1453 0216 13D0     		beq	.L93
 1454 0218 0398     		ldr	r0, [sp, #12]
 1455 021a 01F10802 		add	r2, r1, #8
 1456              	.LVL86:
 1457 021e 0230     		adds	r0, r0, #2
 1458 0220 01EBC000 		add	r0, r1, r0, lsl #3
 1459              	.LVL87:
 1460              	.L92:
 766:Generated_Source\PSoC5/USBUART_1_std.c ****             pEP = &pEP[1u];
 1461              		.loc 1 766 0
 1462 0224 12F8063C 		ldrb	r3, [r2, #-6]	@ zero_extendqisi2
 1463 0228 12F8081C 		ldrb	r1, [r2, #-8]	@ zero_extendqisi2
 1464 022c 03F07F03 		and	r3, r3, #127
 1465 0230 03EB4303 		add	r3, r3, r3, lsl #1
 1466 0234 0832     		adds	r2, r2, #8
 1467              	.LVL88:
 1468 0236 05EB8303 		add	r3, r5, r3, lsl #2
 763:Generated_Source\PSoC5/USBUART_1_std.c ****         {
 1469              		.loc 1 763 0
 1470 023a 8242     		cmp	r2, r0
 766:Generated_Source\PSoC5/USBUART_1_std.c ****             pEP = &pEP[1u];
 1471              		.loc 1 766 0
 1472 023c 9972     		strb	r1, [r3, #10]
 1473              	.LVL89:
 763:Generated_Source\PSoC5/USBUART_1_std.c ****         {
 1474              		.loc 1 763 0
 1475 023e F1D1     		bne	.L92
 1476              	.L93:
 1477              	.LBB54:
 1478              	.LBB55:
 964:Generated_Source\PSoC5/USBUART_1_std.c ****     }
 965:Generated_Source\PSoC5/USBUART_1_std.c **** 
 966:Generated_Source\PSoC5/USBUART_1_std.c ****     return (pTmp);
 967:Generated_Source\PSoC5/USBUART_1_std.c **** }
 968:Generated_Source\PSoC5/USBUART_1_std.c **** 
 969:Generated_Source\PSoC5/USBUART_1_std.c **** 
 970:Generated_Source\PSoC5/USBUART_1_std.c **** #if (USBUART_1_BOS_ENABLE)
 971:Generated_Source\PSoC5/USBUART_1_std.c ****     /*******************************************************************************
 972:Generated_Source\PSoC5/USBUART_1_std.c ****     * Function Name: USBUART_1_GetBOSPtr
 973:Generated_Source\PSoC5/USBUART_1_std.c ****     ****************************************************************************//**
 974:Generated_Source\PSoC5/USBUART_1_std.c ****     *
 975:Generated_Source\PSoC5/USBUART_1_std.c ****     *  This routine returns a pointer a BOS table entry
 976:Generated_Source\PSoC5/USBUART_1_std.c ****     *
 977:Generated_Source\PSoC5/USBUART_1_std.c ****     *  
 978:Generated_Source\PSoC5/USBUART_1_std.c ****     *
 979:Generated_Source\PSoC5/USBUART_1_std.c ****     * \return
 980:Generated_Source\PSoC5/USBUART_1_std.c ****     *  BOS Descriptor pointer or NULL when descriptor does not exist.
ARM GAS  C:\Users\jon\AppData\Local\Temp\ccCLAX4y.s 			page 51


 981:Generated_Source\PSoC5/USBUART_1_std.c ****     *
 982:Generated_Source\PSoC5/USBUART_1_std.c ****     *******************************************************************************/
 983:Generated_Source\PSoC5/USBUART_1_std.c ****     const T_USBUART_1_LUT CYCODE *USBUART_1_GetBOSPtr(void)
 984:Generated_Source\PSoC5/USBUART_1_std.c ****                                                             
 985:Generated_Source\PSoC5/USBUART_1_std.c ****     {
 986:Generated_Source\PSoC5/USBUART_1_std.c ****         /* Device Table */
 987:Generated_Source\PSoC5/USBUART_1_std.c ****         const T_USBUART_1_LUT CYCODE *pTmp;
 988:Generated_Source\PSoC5/USBUART_1_std.c **** 
 989:Generated_Source\PSoC5/USBUART_1_std.c ****         pTmp = (const T_USBUART_1_LUT CYCODE *) USBUART_1_TABLE[USBUART_1_device].p_list;
 990:Generated_Source\PSoC5/USBUART_1_std.c **** 
 991:Generated_Source\PSoC5/USBUART_1_std.c ****         /* The first entry points to the Device Descriptor,
 992:Generated_Source\PSoC5/USBUART_1_std.c ****         *  the second entry points to the BOS Descriptor
 993:Generated_Source\PSoC5/USBUART_1_std.c ****         */
 994:Generated_Source\PSoC5/USBUART_1_std.c ****         pTmp = &pTmp[1u];
 995:Generated_Source\PSoC5/USBUART_1_std.c ****         pTmp = (const T_USBUART_1_LUT CYCODE *) pTmp->p_list;
 996:Generated_Source\PSoC5/USBUART_1_std.c ****         return (pTmp);
 997:Generated_Source\PSoC5/USBUART_1_std.c ****     }
 998:Generated_Source\PSoC5/USBUART_1_std.c **** #endif /* (USBUART_1_BOS_ENABLE) */
 999:Generated_Source\PSoC5/USBUART_1_std.c **** 
1000:Generated_Source\PSoC5/USBUART_1_std.c **** 
1001:Generated_Source\PSoC5/USBUART_1_std.c **** /*******************************************************************************
1002:Generated_Source\PSoC5/USBUART_1_std.c **** * Function Name: USBUART_1_GetDeviceTablePtr
1003:Generated_Source\PSoC5/USBUART_1_std.c **** ****************************************************************************//**
1004:Generated_Source\PSoC5/USBUART_1_std.c **** *
1005:Generated_Source\PSoC5/USBUART_1_std.c **** *  This routine returns a pointer to the Device table
1006:Generated_Source\PSoC5/USBUART_1_std.c **** *
1007:Generated_Source\PSoC5/USBUART_1_std.c **** * \return
1008:Generated_Source\PSoC5/USBUART_1_std.c **** *  Device Table pointer
1009:Generated_Source\PSoC5/USBUART_1_std.c **** *
1010:Generated_Source\PSoC5/USBUART_1_std.c **** *******************************************************************************/
1011:Generated_Source\PSoC5/USBUART_1_std.c **** const T_USBUART_1_LUT CYCODE *USBUART_1_GetDeviceTablePtr(void)
1012:Generated_Source\PSoC5/USBUART_1_std.c ****                                                             
1013:Generated_Source\PSoC5/USBUART_1_std.c **** {
1014:Generated_Source\PSoC5/USBUART_1_std.c ****     /* Device Table */
1015:Generated_Source\PSoC5/USBUART_1_std.c ****     return( (const T_USBUART_1_LUT CYCODE *) USBUART_1_TABLE[USBUART_1_device].p_list );
1016:Generated_Source\PSoC5/USBUART_1_std.c **** }
1017:Generated_Source\PSoC5/USBUART_1_std.c **** 
1018:Generated_Source\PSoC5/USBUART_1_std.c **** 
1019:Generated_Source\PSoC5/USBUART_1_std.c **** /*******************************************************************************
1020:Generated_Source\PSoC5/USBUART_1_std.c **** * Function Name: USB_GetInterfaceClassTablePtr
1021:Generated_Source\PSoC5/USBUART_1_std.c **** ****************************************************************************//**
1022:Generated_Source\PSoC5/USBUART_1_std.c **** *
1023:Generated_Source\PSoC5/USBUART_1_std.c **** *  This routine returns Interface Class table pointer, which contains
1024:Generated_Source\PSoC5/USBUART_1_std.c **** *  the relation between interface number and interface class.
1025:Generated_Source\PSoC5/USBUART_1_std.c **** *
1026:Generated_Source\PSoC5/USBUART_1_std.c **** * \return
1027:Generated_Source\PSoC5/USBUART_1_std.c **** *  Interface Class table pointer.
1028:Generated_Source\PSoC5/USBUART_1_std.c **** *
1029:Generated_Source\PSoC5/USBUART_1_std.c **** *******************************************************************************/
1030:Generated_Source\PSoC5/USBUART_1_std.c **** const uint8 CYCODE *USBUART_1_GetInterfaceClassTablePtr(void)
1031:Generated_Source\PSoC5/USBUART_1_std.c ****                                                         
1032:Generated_Source\PSoC5/USBUART_1_std.c **** {
1033:Generated_Source\PSoC5/USBUART_1_std.c ****     const T_USBUART_1_LUT CYCODE *pTmp;
1034:Generated_Source\PSoC5/USBUART_1_std.c ****     const uint8 CYCODE *pInterfaceClass;
1035:Generated_Source\PSoC5/USBUART_1_std.c ****     uint8 currentInterfacesNum;
1036:Generated_Source\PSoC5/USBUART_1_std.c **** 
1037:Generated_Source\PSoC5/USBUART_1_std.c ****     pTmp = USBUART_1_GetConfigTablePtr(USBUART_1_configuration - 1u);
ARM GAS  C:\Users\jon\AppData\Local\Temp\ccCLAX4y.s 			page 52


 1479              		.loc 1 1037 0
 1480 0240 B74B     		ldr	r3, .L139
 1481              	.LBB56:
 1482              	.LBB57:
 948:Generated_Source\PSoC5/USBUART_1_std.c **** 
 1483              		.loc 1 948 0
 1484 0242 B84A     		ldr	r2, .L139+4
 1485              	.LBE57:
 1486              	.LBE56:
 1487              		.loc 1 1037 0
 1488 0244 1B78     		ldrb	r3, [r3]	@ zero_extendqisi2
 1489              	.LBB61:
 1490              	.LBB58:
 948:Generated_Source\PSoC5/USBUART_1_std.c **** 
 1491              		.loc 1 948 0
 1492 0246 B849     		ldr	r1, .L139+8
 1493 0248 1278     		ldrb	r2, [r2]	@ zero_extendqisi2
 1494              	.LBE58:
 1495              	.LBE61:
 1496              		.loc 1 1037 0
 1497 024a 013B     		subs	r3, r3, #1
 1498              	.LBB62:
 1499              	.LBB59:
 948:Generated_Source\PSoC5/USBUART_1_std.c **** 
 1500              		.loc 1 948 0
 1501 024c 01EBC202 		add	r2, r1, r2, lsl #3
 1502 0250 5268     		ldr	r2, [r2, #4]
 1503              	.LBE59:
 1504              	.LBE62:
 1505              		.loc 1 1037 0
 1506 0252 DBB2     		uxtb	r3, r3
 1507              	.LVL90:
 1508              	.LBB63:
 1509              	.LBB60:
 957:Generated_Source\PSoC5/USBUART_1_std.c ****     {
 1510              		.loc 1 957 0
 1511 0254 117C     		ldrb	r1, [r2, #16]	@ zero_extendqisi2
 1512 0256 9942     		cmp	r1, r3
 1513 0258 40F29F81 		bls	.L121
 963:Generated_Source\PSoC5/USBUART_1_std.c ****     }
 1514              		.loc 1 963 0
 1515 025c 02EBC303 		add	r3, r2, r3, lsl #3
 1516              	.LVL91:
 1517 0260 5B69     		ldr	r3, [r3, #20]
 1518              	.LVL92:
 1519              	.LBE60:
 1520              	.LBE63:
1038:Generated_Source\PSoC5/USBUART_1_std.c ****     if (pTmp != NULL)
 1521              		.loc 1 1038 0
 1522 0262 23B1     		cbz	r3, .L90
 1523              	.LVL93:
1039:Generated_Source\PSoC5/USBUART_1_std.c ****     {
1040:Generated_Source\PSoC5/USBUART_1_std.c ****         currentInterfacesNum  = ((const uint8 *) pTmp->p_list)[USBUART_1_CONFIG_DESCR_NUM_INTERFACE
 1524              		.loc 1 1040 0
 1525 0264 5A68     		ldr	r2, [r3, #4]
1041:Generated_Source\PSoC5/USBUART_1_std.c ****         /* Third entry in the LUT starts the Interface Table pointers */
1042:Generated_Source\PSoC5/USBUART_1_std.c ****         /* The INTERFACE_CLASS table is located after all interfaces */
ARM GAS  C:\Users\jon\AppData\Local\Temp\ccCLAX4y.s 			page 53


1043:Generated_Source\PSoC5/USBUART_1_std.c ****         pTmp = &pTmp[currentInterfacesNum + 2u];
 1526              		.loc 1 1043 0
 1527 0266 1279     		ldrb	r2, [r2, #4]	@ zero_extendqisi2
 1528              	.LVL94:
1044:Generated_Source\PSoC5/USBUART_1_std.c ****         pInterfaceClass = (const uint8 CYCODE *) pTmp->p_list;
 1529              		.loc 1 1044 0
 1530 0268 03EBC203 		add	r3, r3, r2, lsl #3
 1531              	.LVL95:
 1532 026c 5B69     		ldr	r3, [r3, #20]
 1533              	.LVL96:
 1534              	.L90:
 1535              	.LBE55:
 1536              	.LBE54:
 778:Generated_Source\PSoC5/USBUART_1_std.c ****             buffCount += USBUART_1_EP[ep].bufferSize;
 1537              		.loc 1 778 0
 1538 026e 0022     		movs	r2, #0
 1539 0270 6A82     		strh	r2, [r5, #18]	@ movhi
 779:Generated_Source\PSoC5/USBUART_1_std.c ****             
 1540              		.loc 1 779 0
 1541 0272 AC8A     		ldrh	r4, [r5, #20]
 771:Generated_Source\PSoC5/USBUART_1_std.c ****         
 1542              		.loc 1 771 0
 1543 0274 AD4E     		ldr	r6, .L139+12
 779:Generated_Source\PSoC5/USBUART_1_std.c ****             
 1544              		.loc 1 779 0
 1545 0276 A4B2     		uxth	r4, r4
 783:Generated_Source\PSoC5/USBUART_1_std.c ****         #endif /* (USBUART_1_GEN_16BITS_EP_ACCESS) */            
 1546              		.loc 1 783 0
 1547 0278 04F00102 		and	r2, r4, #1
 1548 027c 1444     		add	r4, r4, r2
 1549 027e A4B2     		uxth	r4, r4
 778:Generated_Source\PSoC5/USBUART_1_std.c ****             buffCount += USBUART_1_EP[ep].bufferSize;
 1550              		.loc 1 778 0
 1551 0280 EC83     		strh	r4, [r5, #30]	@ movhi
 779:Generated_Source\PSoC5/USBUART_1_std.c ****             
 1552              		.loc 1 779 0
 1553 0282 2A8C     		ldrh	r2, [r5, #32]
 771:Generated_Source\PSoC5/USBUART_1_std.c ****         
 1554              		.loc 1 771 0
 1555 0284 3360     		str	r3, [r6]
 779:Generated_Source\PSoC5/USBUART_1_std.c ****             
 1556              		.loc 1 779 0
 1557 0286 1444     		add	r4, r4, r2
 1558 0288 A4B2     		uxth	r4, r4
 783:Generated_Source\PSoC5/USBUART_1_std.c ****         #endif /* (USBUART_1_GEN_16BITS_EP_ACCESS) */            
 1559              		.loc 1 783 0
 1560 028a 04F00102 		and	r2, r4, #1
 1561 028e 1444     		add	r4, r4, r2
 1562 0290 A4B2     		uxth	r4, r4
 778:Generated_Source\PSoC5/USBUART_1_std.c ****             buffCount += USBUART_1_EP[ep].bufferSize;
 1563              		.loc 1 778 0
 1564 0292 6C85     		strh	r4, [r5, #42]	@ movhi
 779:Generated_Source\PSoC5/USBUART_1_std.c ****             
 1565              		.loc 1 779 0
 1566 0294 AA8D     		ldrh	r2, [r5, #44]
 1567              	.LBB65:
 1568              	.LBB66:
ARM GAS  C:\Users\jon\AppData\Local\Temp\ccCLAX4y.s 			page 54


 448:Generated_Source\PSoC5/USBUART_1_std.c ****         
 1569              		.loc 1 448 0
 1570 0296 A648     		ldr	r0, .L139+16
 1571              	.LBE66:
 1572              	.LBE65:
 779:Generated_Source\PSoC5/USBUART_1_std.c ****             
 1573              		.loc 1 779 0
 1574 0298 1444     		add	r4, r4, r2
 1575 029a A4B2     		uxth	r4, r4
 783:Generated_Source\PSoC5/USBUART_1_std.c ****         #endif /* (USBUART_1_GEN_16BITS_EP_ACCESS) */            
 1576              		.loc 1 783 0
 1577 029c 04F00102 		and	r2, r4, #1
 1578 02a0 1444     		add	r4, r4, r2
 1579 02a2 A4B2     		uxth	r4, r4
 778:Generated_Source\PSoC5/USBUART_1_std.c ****             buffCount += USBUART_1_EP[ep].bufferSize;
 1580              		.loc 1 778 0
 1581 02a4 EC86     		strh	r4, [r5, #54]	@ movhi
 779:Generated_Source\PSoC5/USBUART_1_std.c ****             
 1582              		.loc 1 779 0
 1583 02a6 2A8F     		ldrh	r2, [r5, #56]
 1584              	.LBB70:
 1585              	.LBB67:
 448:Generated_Source\PSoC5/USBUART_1_std.c ****         
 1586              		.loc 1 448 0
 1587 02a8 0C21     		movs	r1, #12
 1588              	.LVL97:
 1589              	.LBE67:
 1590              	.LBE70:
 779:Generated_Source\PSoC5/USBUART_1_std.c ****             
 1591              		.loc 1 779 0
 1592 02aa A318     		adds	r3, r4, r2
 1593 02ac 9AB2     		uxth	r2, r3
 1594              	.LVL98:
 783:Generated_Source\PSoC5/USBUART_1_std.c ****         #endif /* (USBUART_1_GEN_16BITS_EP_ACCESS) */            
 1595              		.loc 1 783 0
 1596 02ae 02F00103 		and	r3, r2, #1
 1597 02b2 1344     		add	r3, r3, r2
 1598 02b4 9AB2     		uxth	r2, r3
 1599              	.LVL99:
 778:Generated_Source\PSoC5/USBUART_1_std.c ****             buffCount += USBUART_1_EP[ep].bufferSize;
 1600              		.loc 1 778 0
 1601 02b6 A5F84220 		strh	r2, [r5, #66]	@ movhi
 779:Generated_Source\PSoC5/USBUART_1_std.c ****             
 1602              		.loc 1 779 0
 1603 02ba B5F84430 		ldrh	r3, [r5, #68]
 778:Generated_Source\PSoC5/USBUART_1_std.c ****             buffCount += USBUART_1_EP[ep].bufferSize;
 1604              		.loc 1 778 0
 1605 02be 9D4C     		ldr	r4, .L139+20
 779:Generated_Source\PSoC5/USBUART_1_std.c ****             
 1606              		.loc 1 779 0
 1607 02c0 1344     		add	r3, r3, r2
 1608 02c2 9AB2     		uxth	r2, r3
 1609              	.LVL100:
 783:Generated_Source\PSoC5/USBUART_1_std.c ****         #endif /* (USBUART_1_GEN_16BITS_EP_ACCESS) */            
 1610              		.loc 1 783 0
 1611 02c4 02F00103 		and	r3, r2, #1
 1612 02c8 1344     		add	r3, r3, r2
ARM GAS  C:\Users\jon\AppData\Local\Temp\ccCLAX4y.s 			page 55


 1613 02ca 9AB2     		uxth	r2, r3
 1614              	.LVL101:
 778:Generated_Source\PSoC5/USBUART_1_std.c ****             buffCount += USBUART_1_EP[ep].bufferSize;
 1615              		.loc 1 778 0
 1616 02cc A5F84E20 		strh	r2, [r5, #78]	@ movhi
 779:Generated_Source\PSoC5/USBUART_1_std.c ****             
 1617              		.loc 1 779 0
 1618 02d0 B5F85030 		ldrh	r3, [r5, #80]
 1619 02d4 1344     		add	r3, r3, r2
 1620 02d6 9AB2     		uxth	r2, r3
 1621              	.LVL102:
 783:Generated_Source\PSoC5/USBUART_1_std.c ****         #endif /* (USBUART_1_GEN_16BITS_EP_ACCESS) */            
 1622              		.loc 1 783 0
 1623 02d8 02F00103 		and	r3, r2, #1
 1624 02dc 1344     		add	r3, r3, r2
 1625 02de 9AB2     		uxth	r2, r3
 1626              	.LVL103:
 778:Generated_Source\PSoC5/USBUART_1_std.c ****             buffCount += USBUART_1_EP[ep].bufferSize;
 1627              		.loc 1 778 0
 1628 02e0 A5F85A20 		strh	r2, [r5, #90]	@ movhi
 779:Generated_Source\PSoC5/USBUART_1_std.c ****             
 1629              		.loc 1 779 0
 1630 02e4 B5F85C30 		ldrh	r3, [r5, #92]
 1631 02e8 1344     		add	r3, r3, r2
 1632 02ea 9BB2     		uxth	r3, r3
 1633              	.LVL104:
 783:Generated_Source\PSoC5/USBUART_1_std.c ****         #endif /* (USBUART_1_GEN_16BITS_EP_ACCESS) */            
 1634              		.loc 1 783 0
 1635 02ec 03F00102 		and	r2, r3, #1
 1636 02f0 1344     		add	r3, r3, r2
 1637              	.LVL105:
 1638 02f2 9BB2     		uxth	r3, r3
 1639              	.LVL106:
 778:Generated_Source\PSoC5/USBUART_1_std.c ****             buffCount += USBUART_1_EP[ep].bufferSize;
 1640              		.loc 1 778 0
 1641 02f4 A5F86630 		strh	r3, [r5, #102]	@ movhi
 779:Generated_Source\PSoC5/USBUART_1_std.c ****             
 1642              		.loc 1 779 0
 1643 02f8 B5F86830 		ldrh	r3, [r5, #104]
 1644              	.LVL107:
 1645              	.LBB71:
 1646              	.LBB68:
 448:Generated_Source\PSoC5/USBUART_1_std.c ****         
 1647              		.loc 1 448 0
 1648 02fc 0170     		strb	r1, [r0]
 455:Generated_Source\PSoC5/USBUART_1_std.c ****         {
 1649              		.loc 1 455 0
 1650 02fe 6B7C     		ldrb	r3, [r5, #17]	@ zero_extendqisi2
 1651 0300 002B     		cmp	r3, #0
 1652 0302 00F06A81 		beq	.L94
 457:Generated_Source\PSoC5/USBUART_1_std.c ****             {
 1653              		.loc 1 457 0
 1654 0306 237C     		ldrb	r3, [r4, #16]	@ zero_extendqisi2
 1655 0308 13F0800F 		tst	r3, #128
 459:Generated_Source\PSoC5/USBUART_1_std.c ****                 
 1656              		.loc 1 459 0
 1657 030c 8A4B     		ldr	r3, .L139+24
ARM GAS  C:\Users\jon\AppData\Local\Temp\ccCLAX4y.s 			page 56


 468:Generated_Source\PSoC5/USBUART_1_std.c **** 
 1658              		.loc 1 468 0
 1659 030e 06BF     		itte	eq
 1660 0310 0822     		moveq	r2, #8
 1661 0312 9A70     		strbeq	r2, [r3, #2]
 459:Generated_Source\PSoC5/USBUART_1_std.c ****                 
 1662              		.loc 1 459 0
 1663 0314 9970     		strbne	r1, [r3, #2]
 1664              	.L96:
 488:Generated_Source\PSoC5/USBUART_1_std.c ****             USBUART_1_ARB_EP_BASE.arbEp[ep].rwRaMsb = HI8(USBUART_1_EP[ep].buffOffset);
 1665              		.loc 1 488 0
 1666 0316 6A8A     		ldrh	r2, [r5, #18]
 1667 0318 854B     		ldr	r3, .L139+16
 1668 031a D2B2     		uxtb	r2, r2
 1669 031c 9A71     		strb	r2, [r3, #6]
 489:Generated_Source\PSoC5/USBUART_1_std.c ****             USBUART_1_ARB_EP_BASE.arbEp[ep].rwWa    = LO8(USBUART_1_EP[ep].buffOffset);
 1670              		.loc 1 489 0
 1671 031e 6A8A     		ldrh	r2, [r5, #18]
 448:Generated_Source\PSoC5/USBUART_1_std.c ****         
 1672              		.loc 1 448 0
 1673 0320 8648     		ldr	r0, .L139+28
 489:Generated_Source\PSoC5/USBUART_1_std.c ****             USBUART_1_ARB_EP_BASE.arbEp[ep].rwWa    = LO8(USBUART_1_EP[ep].buffOffset);
 1674              		.loc 1 489 0
 1675 0322 C2F30722 		ubfx	r2, r2, #8, #8
 1676 0326 DA71     		strb	r2, [r3, #7]
 490:Generated_Source\PSoC5/USBUART_1_std.c ****             USBUART_1_ARB_EP_BASE.arbEp[ep].rwWaMsb = HI8(USBUART_1_EP[ep].buffOffset);
 1677              		.loc 1 490 0
 1678 0328 6A8A     		ldrh	r2, [r5, #18]
 448:Generated_Source\PSoC5/USBUART_1_std.c ****         
 1679              		.loc 1 448 0
 1680 032a 0C21     		movs	r1, #12
 490:Generated_Source\PSoC5/USBUART_1_std.c ****             USBUART_1_ARB_EP_BASE.arbEp[ep].rwWaMsb = HI8(USBUART_1_EP[ep].buffOffset);
 1681              		.loc 1 490 0
 1682 032c D2B2     		uxtb	r2, r2
 1683 032e 1A71     		strb	r2, [r3, #4]
 491:Generated_Source\PSoC5/USBUART_1_std.c ****         #endif /* (CY_PSOC4) */
 1684              		.loc 1 491 0
 1685 0330 6A8A     		ldrh	r2, [r5, #18]
 488:Generated_Source\PSoC5/USBUART_1_std.c ****             USBUART_1_ARB_EP_BASE.arbEp[ep].rwRaMsb = HI8(USBUART_1_EP[ep].buffOffset);
 1686              		.loc 1 488 0
 1687 0332 804C     		ldr	r4, .L139+20
 491:Generated_Source\PSoC5/USBUART_1_std.c ****         #endif /* (CY_PSOC4) */
 1688              		.loc 1 491 0
 1689 0334 C2F30722 		ubfx	r2, r2, #8, #8
 1690 0338 5A71     		strb	r2, [r3, #5]
 1691              	.LVL108:
 448:Generated_Source\PSoC5/USBUART_1_std.c ****         
 1692              		.loc 1 448 0
 1693 033a 0170     		strb	r1, [r0]
 455:Generated_Source\PSoC5/USBUART_1_std.c ****         {
 1694              		.loc 1 455 0
 1695 033c 6B7F     		ldrb	r3, [r5, #29]	@ zero_extendqisi2
 1696 033e 002B     		cmp	r3, #0
 1697 0340 00F04781 		beq	.L97
 457:Generated_Source\PSoC5/USBUART_1_std.c ****             {
 1698              		.loc 1 457 0
 1699 0344 237F     		ldrb	r3, [r4, #28]	@ zero_extendqisi2
ARM GAS  C:\Users\jon\AppData\Local\Temp\ccCLAX4y.s 			page 57


 1700 0346 13F0800F 		tst	r3, #128
 459:Generated_Source\PSoC5/USBUART_1_std.c ****                 
 1701              		.loc 1 459 0
 1702 034a 7D4B     		ldr	r3, .L139+32
 468:Generated_Source\PSoC5/USBUART_1_std.c **** 
 1703              		.loc 1 468 0
 1704 034c 06BF     		itte	eq
 1705 034e 0822     		moveq	r2, #8
 1706 0350 9A70     		strbeq	r2, [r3, #2]
 459:Generated_Source\PSoC5/USBUART_1_std.c ****                 
 1707              		.loc 1 459 0
 1708 0352 9970     		strbne	r1, [r3, #2]
 1709              	.L99:
 488:Generated_Source\PSoC5/USBUART_1_std.c ****             USBUART_1_ARB_EP_BASE.arbEp[ep].rwRaMsb = HI8(USBUART_1_EP[ep].buffOffset);
 1710              		.loc 1 488 0
 1711 0354 EA8B     		ldrh	r2, [r5, #30]
 1712 0356 794B     		ldr	r3, .L139+28
 1713 0358 D2B2     		uxtb	r2, r2
 1714 035a 9A71     		strb	r2, [r3, #6]
 489:Generated_Source\PSoC5/USBUART_1_std.c ****             USBUART_1_ARB_EP_BASE.arbEp[ep].rwWa    = LO8(USBUART_1_EP[ep].buffOffset);
 1715              		.loc 1 489 0
 1716 035c EA8B     		ldrh	r2, [r5, #30]
 448:Generated_Source\PSoC5/USBUART_1_std.c ****         
 1717              		.loc 1 448 0
 1718 035e 7948     		ldr	r0, .L139+36
 489:Generated_Source\PSoC5/USBUART_1_std.c ****             USBUART_1_ARB_EP_BASE.arbEp[ep].rwWa    = LO8(USBUART_1_EP[ep].buffOffset);
 1719              		.loc 1 489 0
 1720 0360 C2F30722 		ubfx	r2, r2, #8, #8
 1721 0364 DA71     		strb	r2, [r3, #7]
 490:Generated_Source\PSoC5/USBUART_1_std.c ****             USBUART_1_ARB_EP_BASE.arbEp[ep].rwWaMsb = HI8(USBUART_1_EP[ep].buffOffset);
 1722              		.loc 1 490 0
 1723 0366 EA8B     		ldrh	r2, [r5, #30]
 448:Generated_Source\PSoC5/USBUART_1_std.c ****         
 1724              		.loc 1 448 0
 1725 0368 0C21     		movs	r1, #12
 490:Generated_Source\PSoC5/USBUART_1_std.c ****             USBUART_1_ARB_EP_BASE.arbEp[ep].rwWaMsb = HI8(USBUART_1_EP[ep].buffOffset);
 1726              		.loc 1 490 0
 1727 036a D2B2     		uxtb	r2, r2
 1728 036c 1A71     		strb	r2, [r3, #4]
 491:Generated_Source\PSoC5/USBUART_1_std.c ****         #endif /* (CY_PSOC4) */
 1729              		.loc 1 491 0
 1730 036e EA8B     		ldrh	r2, [r5, #30]
 488:Generated_Source\PSoC5/USBUART_1_std.c ****             USBUART_1_ARB_EP_BASE.arbEp[ep].rwRaMsb = HI8(USBUART_1_EP[ep].buffOffset);
 1731              		.loc 1 488 0
 1732 0370 704C     		ldr	r4, .L139+20
 491:Generated_Source\PSoC5/USBUART_1_std.c ****         #endif /* (CY_PSOC4) */
 1733              		.loc 1 491 0
 1734 0372 C2F30722 		ubfx	r2, r2, #8, #8
 1735 0376 5A71     		strb	r2, [r3, #5]
 1736              	.LVL109:
 448:Generated_Source\PSoC5/USBUART_1_std.c ****         
 1737              		.loc 1 448 0
 1738 0378 0170     		strb	r1, [r0]
 455:Generated_Source\PSoC5/USBUART_1_std.c ****         {
 1739              		.loc 1 455 0
 1740 037a 95F82930 		ldrb	r3, [r5, #41]	@ zero_extendqisi2
 1741 037e 002B     		cmp	r3, #0
ARM GAS  C:\Users\jon\AppData\Local\Temp\ccCLAX4y.s 			page 58


 1742 0380 00F02381 		beq	.L100
 457:Generated_Source\PSoC5/USBUART_1_std.c ****             {
 1743              		.loc 1 457 0
 1744 0384 94F82830 		ldrb	r3, [r4, #40]	@ zero_extendqisi2
 1745 0388 13F0800F 		tst	r3, #128
 459:Generated_Source\PSoC5/USBUART_1_std.c ****                 
 1746              		.loc 1 459 0
 1747 038c 6E4B     		ldr	r3, .L139+40
 468:Generated_Source\PSoC5/USBUART_1_std.c **** 
 1748              		.loc 1 468 0
 1749 038e 06BF     		itte	eq
 1750 0390 0822     		moveq	r2, #8
 1751 0392 9A70     		strbeq	r2, [r3, #2]
 459:Generated_Source\PSoC5/USBUART_1_std.c ****                 
 1752              		.loc 1 459 0
 1753 0394 9970     		strbne	r1, [r3, #2]
 1754              	.L102:
 488:Generated_Source\PSoC5/USBUART_1_std.c ****             USBUART_1_ARB_EP_BASE.arbEp[ep].rwRaMsb = HI8(USBUART_1_EP[ep].buffOffset);
 1755              		.loc 1 488 0
 1756 0396 6A8D     		ldrh	r2, [r5, #42]
 1757 0398 6A4B     		ldr	r3, .L139+36
 1758 039a D2B2     		uxtb	r2, r2
 1759 039c 9A71     		strb	r2, [r3, #6]
 489:Generated_Source\PSoC5/USBUART_1_std.c ****             USBUART_1_ARB_EP_BASE.arbEp[ep].rwWa    = LO8(USBUART_1_EP[ep].buffOffset);
 1760              		.loc 1 489 0
 1761 039e 6A8D     		ldrh	r2, [r5, #42]
 448:Generated_Source\PSoC5/USBUART_1_std.c ****         
 1762              		.loc 1 448 0
 1763 03a0 6A48     		ldr	r0, .L139+44
 489:Generated_Source\PSoC5/USBUART_1_std.c ****             USBUART_1_ARB_EP_BASE.arbEp[ep].rwWa    = LO8(USBUART_1_EP[ep].buffOffset);
 1764              		.loc 1 489 0
 1765 03a2 C2F30722 		ubfx	r2, r2, #8, #8
 1766 03a6 DA71     		strb	r2, [r3, #7]
 490:Generated_Source\PSoC5/USBUART_1_std.c ****             USBUART_1_ARB_EP_BASE.arbEp[ep].rwWaMsb = HI8(USBUART_1_EP[ep].buffOffset);
 1767              		.loc 1 490 0
 1768 03a8 6A8D     		ldrh	r2, [r5, #42]
 448:Generated_Source\PSoC5/USBUART_1_std.c ****         
 1769              		.loc 1 448 0
 1770 03aa 0C21     		movs	r1, #12
 490:Generated_Source\PSoC5/USBUART_1_std.c ****             USBUART_1_ARB_EP_BASE.arbEp[ep].rwWaMsb = HI8(USBUART_1_EP[ep].buffOffset);
 1771              		.loc 1 490 0
 1772 03ac D2B2     		uxtb	r2, r2
 1773 03ae 1A71     		strb	r2, [r3, #4]
 491:Generated_Source\PSoC5/USBUART_1_std.c ****         #endif /* (CY_PSOC4) */
 1774              		.loc 1 491 0
 1775 03b0 6A8D     		ldrh	r2, [r5, #42]
 488:Generated_Source\PSoC5/USBUART_1_std.c ****             USBUART_1_ARB_EP_BASE.arbEp[ep].rwRaMsb = HI8(USBUART_1_EP[ep].buffOffset);
 1776              		.loc 1 488 0
 1777 03b2 604C     		ldr	r4, .L139+20
 491:Generated_Source\PSoC5/USBUART_1_std.c ****         #endif /* (CY_PSOC4) */
 1778              		.loc 1 491 0
 1779 03b4 C2F30722 		ubfx	r2, r2, #8, #8
 1780 03b8 5A71     		strb	r2, [r3, #5]
 1781              	.LVL110:
 448:Generated_Source\PSoC5/USBUART_1_std.c ****         
 1782              		.loc 1 448 0
 1783 03ba 0170     		strb	r1, [r0]
ARM GAS  C:\Users\jon\AppData\Local\Temp\ccCLAX4y.s 			page 59


 455:Generated_Source\PSoC5/USBUART_1_std.c ****         {
 1784              		.loc 1 455 0
 1785 03bc 95F83530 		ldrb	r3, [r5, #53]	@ zero_extendqisi2
 1786 03c0 002B     		cmp	r3, #0
 1787 03c2 00F0FE80 		beq	.L103
 457:Generated_Source\PSoC5/USBUART_1_std.c ****             {
 1788              		.loc 1 457 0
 1789 03c6 94F83430 		ldrb	r3, [r4, #52]	@ zero_extendqisi2
 1790 03ca 13F0800F 		tst	r3, #128
 459:Generated_Source\PSoC5/USBUART_1_std.c ****                 
 1791              		.loc 1 459 0
 1792 03ce 604B     		ldr	r3, .L139+48
 468:Generated_Source\PSoC5/USBUART_1_std.c **** 
 1793              		.loc 1 468 0
 1794 03d0 06BF     		itte	eq
 1795 03d2 0822     		moveq	r2, #8
 1796 03d4 9A70     		strbeq	r2, [r3, #2]
 459:Generated_Source\PSoC5/USBUART_1_std.c ****                 
 1797              		.loc 1 459 0
 1798 03d6 9970     		strbne	r1, [r3, #2]
 1799              	.L105:
 488:Generated_Source\PSoC5/USBUART_1_std.c ****             USBUART_1_ARB_EP_BASE.arbEp[ep].rwRaMsb = HI8(USBUART_1_EP[ep].buffOffset);
 1800              		.loc 1 488 0
 1801 03d8 EA8E     		ldrh	r2, [r5, #54]
 1802 03da 5C4B     		ldr	r3, .L139+44
 1803 03dc D2B2     		uxtb	r2, r2
 1804 03de 9A71     		strb	r2, [r3, #6]
 489:Generated_Source\PSoC5/USBUART_1_std.c ****             USBUART_1_ARB_EP_BASE.arbEp[ep].rwWa    = LO8(USBUART_1_EP[ep].buffOffset);
 1805              		.loc 1 489 0
 1806 03e0 EA8E     		ldrh	r2, [r5, #54]
 448:Generated_Source\PSoC5/USBUART_1_std.c ****         
 1807              		.loc 1 448 0
 1808 03e2 5C48     		ldr	r0, .L139+52
 489:Generated_Source\PSoC5/USBUART_1_std.c ****             USBUART_1_ARB_EP_BASE.arbEp[ep].rwWa    = LO8(USBUART_1_EP[ep].buffOffset);
 1809              		.loc 1 489 0
 1810 03e4 C2F30722 		ubfx	r2, r2, #8, #8
 1811 03e8 DA71     		strb	r2, [r3, #7]
 490:Generated_Source\PSoC5/USBUART_1_std.c ****             USBUART_1_ARB_EP_BASE.arbEp[ep].rwWaMsb = HI8(USBUART_1_EP[ep].buffOffset);
 1812              		.loc 1 490 0
 1813 03ea EA8E     		ldrh	r2, [r5, #54]
 448:Generated_Source\PSoC5/USBUART_1_std.c ****         
 1814              		.loc 1 448 0
 1815 03ec 0C21     		movs	r1, #12
 490:Generated_Source\PSoC5/USBUART_1_std.c ****             USBUART_1_ARB_EP_BASE.arbEp[ep].rwWaMsb = HI8(USBUART_1_EP[ep].buffOffset);
 1816              		.loc 1 490 0
 1817 03ee D2B2     		uxtb	r2, r2
 1818 03f0 1A71     		strb	r2, [r3, #4]
 491:Generated_Source\PSoC5/USBUART_1_std.c ****         #endif /* (CY_PSOC4) */
 1819              		.loc 1 491 0
 1820 03f2 EA8E     		ldrh	r2, [r5, #54]
 488:Generated_Source\PSoC5/USBUART_1_std.c ****             USBUART_1_ARB_EP_BASE.arbEp[ep].rwRaMsb = HI8(USBUART_1_EP[ep].buffOffset);
 1821              		.loc 1 488 0
 1822 03f4 4F4C     		ldr	r4, .L139+20
 491:Generated_Source\PSoC5/USBUART_1_std.c ****         #endif /* (CY_PSOC4) */
 1823              		.loc 1 491 0
 1824 03f6 C2F30722 		ubfx	r2, r2, #8, #8
 1825 03fa 5A71     		strb	r2, [r3, #5]
ARM GAS  C:\Users\jon\AppData\Local\Temp\ccCLAX4y.s 			page 60


 1826              	.LVL111:
 448:Generated_Source\PSoC5/USBUART_1_std.c ****         
 1827              		.loc 1 448 0
 1828 03fc 0170     		strb	r1, [r0]
 455:Generated_Source\PSoC5/USBUART_1_std.c ****         {
 1829              		.loc 1 455 0
 1830 03fe 95F84130 		ldrb	r3, [r5, #65]	@ zero_extendqisi2
 1831 0402 002B     		cmp	r3, #0
 1832 0404 00F0D980 		beq	.L106
 457:Generated_Source\PSoC5/USBUART_1_std.c ****             {
 1833              		.loc 1 457 0
 1834 0408 94F84030 		ldrb	r3, [r4, #64]	@ zero_extendqisi2
 1835 040c 13F0800F 		tst	r3, #128
 459:Generated_Source\PSoC5/USBUART_1_std.c ****                 
 1836              		.loc 1 459 0
 1837 0410 514B     		ldr	r3, .L139+56
 468:Generated_Source\PSoC5/USBUART_1_std.c **** 
 1838              		.loc 1 468 0
 1839 0412 06BF     		itte	eq
 1840 0414 0822     		moveq	r2, #8
 1841 0416 9A70     		strbeq	r2, [r3, #2]
 459:Generated_Source\PSoC5/USBUART_1_std.c ****                 
 1842              		.loc 1 459 0
 1843 0418 9970     		strbne	r1, [r3, #2]
 1844              	.L108:
 488:Generated_Source\PSoC5/USBUART_1_std.c ****             USBUART_1_ARB_EP_BASE.arbEp[ep].rwRaMsb = HI8(USBUART_1_EP[ep].buffOffset);
 1845              		.loc 1 488 0
 1846 041a B5F84220 		ldrh	r2, [r5, #66]
 1847 041e 4D4B     		ldr	r3, .L139+52
 1848 0420 D2B2     		uxtb	r2, r2
 1849 0422 9A71     		strb	r2, [r3, #6]
 489:Generated_Source\PSoC5/USBUART_1_std.c ****             USBUART_1_ARB_EP_BASE.arbEp[ep].rwWa    = LO8(USBUART_1_EP[ep].buffOffset);
 1850              		.loc 1 489 0
 1851 0424 B5F84220 		ldrh	r2, [r5, #66]
 448:Generated_Source\PSoC5/USBUART_1_std.c ****         
 1852              		.loc 1 448 0
 1853 0428 4C48     		ldr	r0, .L139+60
 489:Generated_Source\PSoC5/USBUART_1_std.c ****             USBUART_1_ARB_EP_BASE.arbEp[ep].rwWa    = LO8(USBUART_1_EP[ep].buffOffset);
 1854              		.loc 1 489 0
 1855 042a C2F30722 		ubfx	r2, r2, #8, #8
 1856 042e DA71     		strb	r2, [r3, #7]
 490:Generated_Source\PSoC5/USBUART_1_std.c ****             USBUART_1_ARB_EP_BASE.arbEp[ep].rwWaMsb = HI8(USBUART_1_EP[ep].buffOffset);
 1857              		.loc 1 490 0
 1858 0430 B5F84220 		ldrh	r2, [r5, #66]
 448:Generated_Source\PSoC5/USBUART_1_std.c ****         
 1859              		.loc 1 448 0
 1860 0434 0C21     		movs	r1, #12
 490:Generated_Source\PSoC5/USBUART_1_std.c ****             USBUART_1_ARB_EP_BASE.arbEp[ep].rwWaMsb = HI8(USBUART_1_EP[ep].buffOffset);
 1861              		.loc 1 490 0
 1862 0436 D2B2     		uxtb	r2, r2
 1863 0438 1A71     		strb	r2, [r3, #4]
 491:Generated_Source\PSoC5/USBUART_1_std.c ****         #endif /* (CY_PSOC4) */
 1864              		.loc 1 491 0
 1865 043a B5F84220 		ldrh	r2, [r5, #66]
 488:Generated_Source\PSoC5/USBUART_1_std.c ****             USBUART_1_ARB_EP_BASE.arbEp[ep].rwRaMsb = HI8(USBUART_1_EP[ep].buffOffset);
 1866              		.loc 1 488 0
 1867 043e 3D4C     		ldr	r4, .L139+20
ARM GAS  C:\Users\jon\AppData\Local\Temp\ccCLAX4y.s 			page 61


 491:Generated_Source\PSoC5/USBUART_1_std.c ****         #endif /* (CY_PSOC4) */
 1868              		.loc 1 491 0
 1869 0440 C2F30722 		ubfx	r2, r2, #8, #8
 1870 0444 5A71     		strb	r2, [r3, #5]
 1871              	.LVL112:
 448:Generated_Source\PSoC5/USBUART_1_std.c ****         
 1872              		.loc 1 448 0
 1873 0446 0170     		strb	r1, [r0]
 455:Generated_Source\PSoC5/USBUART_1_std.c ****         {
 1874              		.loc 1 455 0
 1875 0448 95F84D30 		ldrb	r3, [r5, #77]	@ zero_extendqisi2
 1876 044c 002B     		cmp	r3, #0
 1877 044e 00F0B080 		beq	.L109
 457:Generated_Source\PSoC5/USBUART_1_std.c ****             {
 1878              		.loc 1 457 0
 1879 0452 94F84C30 		ldrb	r3, [r4, #76]	@ zero_extendqisi2
 1880 0456 13F0800F 		tst	r3, #128
 459:Generated_Source\PSoC5/USBUART_1_std.c ****                 
 1881              		.loc 1 459 0
 1882 045a 414B     		ldr	r3, .L139+64
 468:Generated_Source\PSoC5/USBUART_1_std.c **** 
 1883              		.loc 1 468 0
 1884 045c 06BF     		itte	eq
 1885 045e 0822     		moveq	r2, #8
 1886 0460 9A70     		strbeq	r2, [r3, #2]
 459:Generated_Source\PSoC5/USBUART_1_std.c ****                 
 1887              		.loc 1 459 0
 1888 0462 9970     		strbne	r1, [r3, #2]
 1889              	.L111:
 488:Generated_Source\PSoC5/USBUART_1_std.c ****             USBUART_1_ARB_EP_BASE.arbEp[ep].rwRaMsb = HI8(USBUART_1_EP[ep].buffOffset);
 1890              		.loc 1 488 0
 1891 0464 B5F84E20 		ldrh	r2, [r5, #78]
 1892 0468 3C4B     		ldr	r3, .L139+60
 1893 046a D2B2     		uxtb	r2, r2
 1894 046c 9A71     		strb	r2, [r3, #6]
 489:Generated_Source\PSoC5/USBUART_1_std.c ****             USBUART_1_ARB_EP_BASE.arbEp[ep].rwWa    = LO8(USBUART_1_EP[ep].buffOffset);
 1895              		.loc 1 489 0
 1896 046e B5F84E20 		ldrh	r2, [r5, #78]
 448:Generated_Source\PSoC5/USBUART_1_std.c ****         
 1897              		.loc 1 448 0
 1898 0472 3C48     		ldr	r0, .L139+68
 489:Generated_Source\PSoC5/USBUART_1_std.c ****             USBUART_1_ARB_EP_BASE.arbEp[ep].rwWa    = LO8(USBUART_1_EP[ep].buffOffset);
 1899              		.loc 1 489 0
 1900 0474 C2F30722 		ubfx	r2, r2, #8, #8
 1901 0478 DA71     		strb	r2, [r3, #7]
 490:Generated_Source\PSoC5/USBUART_1_std.c ****             USBUART_1_ARB_EP_BASE.arbEp[ep].rwWaMsb = HI8(USBUART_1_EP[ep].buffOffset);
 1902              		.loc 1 490 0
 1903 047a B5F84E20 		ldrh	r2, [r5, #78]
 448:Generated_Source\PSoC5/USBUART_1_std.c ****         
 1904              		.loc 1 448 0
 1905 047e 0C21     		movs	r1, #12
 490:Generated_Source\PSoC5/USBUART_1_std.c ****             USBUART_1_ARB_EP_BASE.arbEp[ep].rwWaMsb = HI8(USBUART_1_EP[ep].buffOffset);
 1906              		.loc 1 490 0
 1907 0480 D2B2     		uxtb	r2, r2
 1908 0482 1A71     		strb	r2, [r3, #4]
 491:Generated_Source\PSoC5/USBUART_1_std.c ****         #endif /* (CY_PSOC4) */
 1909              		.loc 1 491 0
ARM GAS  C:\Users\jon\AppData\Local\Temp\ccCLAX4y.s 			page 62


 1910 0484 B5F84E20 		ldrh	r2, [r5, #78]
 488:Generated_Source\PSoC5/USBUART_1_std.c ****             USBUART_1_ARB_EP_BASE.arbEp[ep].rwRaMsb = HI8(USBUART_1_EP[ep].buffOffset);
 1911              		.loc 1 488 0
 1912 0488 2A4C     		ldr	r4, .L139+20
 491:Generated_Source\PSoC5/USBUART_1_std.c ****         #endif /* (CY_PSOC4) */
 1913              		.loc 1 491 0
 1914 048a C2F30722 		ubfx	r2, r2, #8, #8
 1915 048e 5A71     		strb	r2, [r3, #5]
 1916              	.LVL113:
 448:Generated_Source\PSoC5/USBUART_1_std.c ****         
 1917              		.loc 1 448 0
 1918 0490 0170     		strb	r1, [r0]
 455:Generated_Source\PSoC5/USBUART_1_std.c ****         {
 1919              		.loc 1 455 0
 1920 0492 95F85930 		ldrb	r3, [r5, #89]	@ zero_extendqisi2
 1921 0496 002B     		cmp	r3, #0
 1922 0498 00F08780 		beq	.L112
 457:Generated_Source\PSoC5/USBUART_1_std.c ****             {
 1923              		.loc 1 457 0
 1924 049c 94F85830 		ldrb	r3, [r4, #88]	@ zero_extendqisi2
 1925 04a0 13F0800F 		tst	r3, #128
 459:Generated_Source\PSoC5/USBUART_1_std.c ****                 
 1926              		.loc 1 459 0
 1927 04a4 304B     		ldr	r3, .L139+72
 468:Generated_Source\PSoC5/USBUART_1_std.c **** 
 1928              		.loc 1 468 0
 1929 04a6 06BF     		itte	eq
 1930 04a8 0822     		moveq	r2, #8
 1931 04aa 9A70     		strbeq	r2, [r3, #2]
 459:Generated_Source\PSoC5/USBUART_1_std.c ****                 
 1932              		.loc 1 459 0
 1933 04ac 9970     		strbne	r1, [r3, #2]
 1934              	.L114:
 488:Generated_Source\PSoC5/USBUART_1_std.c ****             USBUART_1_ARB_EP_BASE.arbEp[ep].rwRaMsb = HI8(USBUART_1_EP[ep].buffOffset);
 1935              		.loc 1 488 0
 1936 04ae B5F85A20 		ldrh	r2, [r5, #90]
 1937 04b2 2C4B     		ldr	r3, .L139+68
 1938 04b4 D2B2     		uxtb	r2, r2
 1939 04b6 9A71     		strb	r2, [r3, #6]
 489:Generated_Source\PSoC5/USBUART_1_std.c ****             USBUART_1_ARB_EP_BASE.arbEp[ep].rwWa    = LO8(USBUART_1_EP[ep].buffOffset);
 1940              		.loc 1 489 0
 1941 04b8 B5F85A20 		ldrh	r2, [r5, #90]
 448:Generated_Source\PSoC5/USBUART_1_std.c ****         
 1942              		.loc 1 448 0
 1943 04bc 2B48     		ldr	r0, .L139+76
 489:Generated_Source\PSoC5/USBUART_1_std.c ****             USBUART_1_ARB_EP_BASE.arbEp[ep].rwWa    = LO8(USBUART_1_EP[ep].buffOffset);
 1944              		.loc 1 489 0
 1945 04be C2F30722 		ubfx	r2, r2, #8, #8
 1946 04c2 DA71     		strb	r2, [r3, #7]
 490:Generated_Source\PSoC5/USBUART_1_std.c ****             USBUART_1_ARB_EP_BASE.arbEp[ep].rwWaMsb = HI8(USBUART_1_EP[ep].buffOffset);
 1947              		.loc 1 490 0
 1948 04c4 B5F85A20 		ldrh	r2, [r5, #90]
 448:Generated_Source\PSoC5/USBUART_1_std.c ****         
 1949              		.loc 1 448 0
 1950 04c8 0C21     		movs	r1, #12
 490:Generated_Source\PSoC5/USBUART_1_std.c ****             USBUART_1_ARB_EP_BASE.arbEp[ep].rwWaMsb = HI8(USBUART_1_EP[ep].buffOffset);
 1951              		.loc 1 490 0
ARM GAS  C:\Users\jon\AppData\Local\Temp\ccCLAX4y.s 			page 63


 1952 04ca D2B2     		uxtb	r2, r2
 1953 04cc 1A71     		strb	r2, [r3, #4]
 491:Generated_Source\PSoC5/USBUART_1_std.c ****         #endif /* (CY_PSOC4) */
 1954              		.loc 1 491 0
 1955 04ce B5F85A20 		ldrh	r2, [r5, #90]
 488:Generated_Source\PSoC5/USBUART_1_std.c ****             USBUART_1_ARB_EP_BASE.arbEp[ep].rwRaMsb = HI8(USBUART_1_EP[ep].buffOffset);
 1956              		.loc 1 488 0
 1957 04d2 184C     		ldr	r4, .L139+20
 491:Generated_Source\PSoC5/USBUART_1_std.c ****         #endif /* (CY_PSOC4) */
 1958              		.loc 1 491 0
 1959 04d4 C2F30722 		ubfx	r2, r2, #8, #8
 1960 04d8 5A71     		strb	r2, [r3, #5]
 1961              	.LVL114:
 448:Generated_Source\PSoC5/USBUART_1_std.c ****         
 1962              		.loc 1 448 0
 1963 04da 0170     		strb	r1, [r0]
 455:Generated_Source\PSoC5/USBUART_1_std.c ****         {
 1964              		.loc 1 455 0
 1965 04dc 95F86530 		ldrb	r3, [r5, #101]	@ zero_extendqisi2
 1966 04e0 002B     		cmp	r3, #0
 1967 04e2 5ED0     		beq	.L115
 457:Generated_Source\PSoC5/USBUART_1_std.c ****             {
 1968              		.loc 1 457 0
 1969 04e4 94F86430 		ldrb	r3, [r4, #100]	@ zero_extendqisi2
 1970 04e8 13F0800F 		tst	r3, #128
 459:Generated_Source\PSoC5/USBUART_1_std.c ****                 
 1971              		.loc 1 459 0
 1972 04ec 204B     		ldr	r3, .L139+80
 468:Generated_Source\PSoC5/USBUART_1_std.c **** 
 1973              		.loc 1 468 0
 1974 04ee 0ABF     		itet	eq
 1975 04f0 0822     		moveq	r2, #8
 459:Generated_Source\PSoC5/USBUART_1_std.c ****                 
 1976              		.loc 1 459 0
 1977 04f2 9970     		strbne	r1, [r3, #2]
 468:Generated_Source\PSoC5/USBUART_1_std.c **** 
 1978              		.loc 1 468 0
 1979 04f4 9A70     		strbeq	r2, [r3, #2]
 1980              	.L117:
 488:Generated_Source\PSoC5/USBUART_1_std.c ****             USBUART_1_ARB_EP_BASE.arbEp[ep].rwRaMsb = HI8(USBUART_1_EP[ep].buffOffset);
 1981              		.loc 1 488 0
 1982 04f6 B5F86620 		ldrh	r2, [r5, #102]
 1983 04fa 1C4B     		ldr	r3, .L139+76
 1984 04fc D2B2     		uxtb	r2, r2
 1985 04fe 9A71     		strb	r2, [r3, #6]
 489:Generated_Source\PSoC5/USBUART_1_std.c ****             USBUART_1_ARB_EP_BASE.arbEp[ep].rwWa    = LO8(USBUART_1_EP[ep].buffOffset);
 1986              		.loc 1 489 0
 1987 0500 B5F86620 		ldrh	r2, [r5, #102]
 519:Generated_Source\PSoC5/USBUART_1_std.c **** }
 1988              		.loc 1 519 0
 1989 0504 1B49     		ldr	r1, .L139+84
 489:Generated_Source\PSoC5/USBUART_1_std.c ****             USBUART_1_ARB_EP_BASE.arbEp[ep].rwWa    = LO8(USBUART_1_EP[ep].buffOffset);
 1990              		.loc 1 489 0
 1991 0506 C2F30722 		ubfx	r2, r2, #8, #8
 1992 050a DA71     		strb	r2, [r3, #7]
 490:Generated_Source\PSoC5/USBUART_1_std.c ****             USBUART_1_ARB_EP_BASE.arbEp[ep].rwWaMsb = HI8(USBUART_1_EP[ep].buffOffset);
 1993              		.loc 1 490 0
ARM GAS  C:\Users\jon\AppData\Local\Temp\ccCLAX4y.s 			page 64


 1994 050c B5F86620 		ldrh	r2, [r5, #102]
 519:Generated_Source\PSoC5/USBUART_1_std.c **** }
 1995              		.loc 1 519 0
 1996 0510 FF20     		movs	r0, #255
 490:Generated_Source\PSoC5/USBUART_1_std.c ****             USBUART_1_ARB_EP_BASE.arbEp[ep].rwWaMsb = HI8(USBUART_1_EP[ep].buffOffset);
 1997              		.loc 1 490 0
 1998 0512 D2B2     		uxtb	r2, r2
 1999 0514 1A71     		strb	r2, [r3, #4]
 491:Generated_Source\PSoC5/USBUART_1_std.c ****         #endif /* (CY_PSOC4) */
 2000              		.loc 1 491 0
 2001 0516 B5F86620 		ldrh	r2, [r5, #102]
 2002 051a C2F30722 		ubfx	r2, r2, #8, #8
 2003 051e 2BE0     		b	.L140
 2004              	.L141:
 2005              		.align	2
 2006              	.L139:
 2007 0520 00000000 		.word	USBUART_1_configuration
 2008 0524 00000000 		.word	USBUART_1_device
 2009 0528 00000000 		.word	USBUART_1_TABLE
 2010 052c 00000000 		.word	USBUART_1_interfaceClass
 2011 0530 80600040 		.word	1073766528
 2012 0534 00000000 		.word	USBUART_1_EP
 2013 0538 0C600040 		.word	1073766412
 2014 053c 90600040 		.word	1073766544
 2015 0540 1C600040 		.word	1073766428
 2016 0544 A0600040 		.word	1073766560
 2017 0548 2C600040 		.word	1073766444
 2018 054c B0600040 		.word	1073766576
 2019 0550 3C600040 		.word	1073766460
 2020 0554 C0600040 		.word	1073766592
 2021 0558 4C600040 		.word	1073766476
 2022 055c D0600040 		.word	1073766608
 2023 0560 5C600040 		.word	1073766492
 2024 0564 E0600040 		.word	1073766624
 2025 0568 6C600040 		.word	1073766508
 2026 056c F0600040 		.word	1073766640
 2027 0570 7C600040 		.word	1073766524
 2028 0574 0A600040 		.word	1073766410
 2029              	.L140:
 2030 0578 5A71     		strb	r2, [r3, #5]
 2031              	.LVL115:
 519:Generated_Source\PSoC5/USBUART_1_std.c **** }
 2032              		.loc 1 519 0
 2033 057a 0870     		strb	r0, [r1]
 2034              	.LVL116:
 2035              	.L74:
 2036              	.LBE68:
 2037              	.LBE71:
 2038              	.LBE45:
 2039              	.LBE44:
 2040              	.LBE43:
 791:Generated_Source\PSoC5/USBUART_1_std.c **** 
 2041              		.loc 1 791 0
 2042 057c 05B0     		add	sp, sp, #20
 2043              		.cfi_remember_state
 2044              		.cfi_def_cfa_offset 36
 2045              		@ sp needed
ARM GAS  C:\Users\jon\AppData\Local\Temp\ccCLAX4y.s 			page 65


 2046 057e BDE8F08F 		pop	{r4, r5, r6, r7, r8, r9, r10, fp, pc}
 2047              	.LVL117:
 2048              	.L77:
 2049              		.cfi_restore_state
 2050              	.LBB76:
 2051              	.LBB75:
 2052              	.LBB74:
 617:Generated_Source\PSoC5/USBUART_1_std.c ****         if ((pDescr[USBUART_1_CONFIG_DESCR_ATTRIB] & USBUART_1_CONFIG_DESCR_ATTRIB_SELF_POWERED) !=
 2053              		.loc 1 617 0
 2054 0582 0023     		movs	r3, #0
 2055 0584 5B68     		ldr	r3, [r3, #4]
 2056 0586 FFDE     		.inst	0xdeff
 2057              	.LVL118:
 2058              	.L136:
 715:Generated_Source\PSoC5/USBUART_1_std.c ****                                 USBUART_1_EP[i].apiEpState = USBUART_1_EVENT_PENDING;
 2059              		.loc 1 715 0
 2060 0588 0129     		cmp	r1, #1
 2061 058a 14BF     		ite	ne
 2062 058c 0D21     		movne	r1, #13
 2063              	.LVL119:
 2064 058e 0721     		moveq	r1, #7
 2065 0590 4171     		strb	r1, [r0, #5]
 2066              	.LVL120:
 716:Generated_Source\PSoC5/USBUART_1_std.c ****                                 
 2067              		.loc 1 716 0
 2068 0592 4FF00101 		mov	r1, #1
 2069 0596 4170     		strb	r1, [r0, #1]
 2070 0598 27E6     		b	.L85
 2071              	.LVL121:
 2072              	.L121:
 2073              	.LBB72:
 2074              	.LBB64:
1045:Generated_Source\PSoC5/USBUART_1_std.c ****     }
1046:Generated_Source\PSoC5/USBUART_1_std.c ****     else
1047:Generated_Source\PSoC5/USBUART_1_std.c ****     {
1048:Generated_Source\PSoC5/USBUART_1_std.c ****         pInterfaceClass = (const uint8 CYCODE *) NULL;
 2075              		.loc 1 1048 0
 2076 059a 0023     		movs	r3, #0
 2077              	.LVL122:
 2078 059c 67E6     		b	.L90
 2079              	.LVL123:
 2080              	.L118:
 2081              	.LBE64:
 2082              	.LBE72:
 694:Generated_Source\PSoC5/USBUART_1_std.c ****                 {
 2083              		.loc 1 694 0
 2084 059e 2146     		mov	r1, r4
 2085 05a0 33E6     		b	.L80
 2086              	.LVL124:
 2087              	.L115:
 2088              	.LBB73:
 2089              	.LBB69:
 480:Generated_Source\PSoC5/USBUART_1_std.c ****         }
 2090              		.loc 1 480 0
 2091 05a2 104B     		ldr	r3, .L142
 2092 05a4 8022     		movs	r2, #128
 2093 05a6 9A70     		strb	r2, [r3, #2]
ARM GAS  C:\Users\jon\AppData\Local\Temp\ccCLAX4y.s 			page 66


 2094 05a8 A5E7     		b	.L117
 2095              	.LVL125:
 2096              	.L112:
 2097 05aa 0F4B     		ldr	r3, .L142+4
 2098 05ac 8022     		movs	r2, #128
 2099 05ae 9A70     		strb	r2, [r3, #2]
 2100 05b0 7DE7     		b	.L114
 2101              	.LVL126:
 2102              	.L109:
 2103 05b2 0E4B     		ldr	r3, .L142+8
 2104 05b4 8022     		movs	r2, #128
 2105 05b6 9A70     		strb	r2, [r3, #2]
 2106 05b8 54E7     		b	.L111
 2107              	.LVL127:
 2108              	.L106:
 2109 05ba 0D4B     		ldr	r3, .L142+12
 2110 05bc 8022     		movs	r2, #128
 2111 05be 9A70     		strb	r2, [r3, #2]
 2112 05c0 2BE7     		b	.L108
 2113              	.LVL128:
 2114              	.L103:
 2115 05c2 0C4B     		ldr	r3, .L142+16
 2116 05c4 8022     		movs	r2, #128
 2117 05c6 9A70     		strb	r2, [r3, #2]
 2118 05c8 06E7     		b	.L105
 2119              	.LVL129:
 2120              	.L100:
 2121 05ca 0B4B     		ldr	r3, .L142+20
 2122 05cc 8022     		movs	r2, #128
 2123 05ce 9A70     		strb	r2, [r3, #2]
 2124 05d0 E1E6     		b	.L102
 2125              	.LVL130:
 2126              	.L97:
 2127 05d2 0A4B     		ldr	r3, .L142+24
 2128 05d4 8022     		movs	r2, #128
 2129 05d6 9A70     		strb	r2, [r3, #2]
 2130 05d8 BCE6     		b	.L99
 2131              	.LVL131:
 2132              	.L94:
 2133 05da 094B     		ldr	r3, .L142+28
 2134 05dc 8022     		movs	r2, #128
 2135 05de 9A70     		strb	r2, [r3, #2]
 2136 05e0 99E6     		b	.L96
 2137              	.L143:
 2138 05e2 00BF     		.align	2
 2139              	.L142:
 2140 05e4 7C600040 		.word	1073766524
 2141 05e8 6C600040 		.word	1073766508
 2142 05ec 5C600040 		.word	1073766492
 2143 05f0 4C600040 		.word	1073766476
 2144 05f4 3C600040 		.word	1073766460
 2145 05f8 2C600040 		.word	1073766444
 2146 05fc 1C600040 		.word	1073766428
 2147 0600 0C600040 		.word	1073766412
 2148              	.LBE69:
 2149              	.LBE73:
 2150              	.LBE74:
ARM GAS  C:\Users\jon\AppData\Local\Temp\ccCLAX4y.s 			page 67


 2151              	.LBE75:
 2152              	.LBE76:
 2153              		.cfi_endproc
 2154              	.LFE4:
 2155              		.size	USBUART_1_Config, .-USBUART_1_Config
 2156              		.section	.text.USBUART_1_HandleStandardRqst,"ax",%progbits
 2157              		.align	2
 2158              		.global	USBUART_1_HandleStandardRqst
 2159              		.thumb
 2160              		.thumb_func
 2161              		.type	USBUART_1_HandleStandardRqst, %function
 2162              	USBUART_1_HandleStandardRqst:
 2163              	.LFB0:
  85:Generated_Source\PSoC5/USBUART_1_std.c ****     uint8 requestHandled = USBUART_1_FALSE;
 2164              		.loc 1 85 0
 2165              		.cfi_startproc
 2166              		@ args = 0, pretend = 0, frame = 0
 2167              		@ frame_needed = 0, uses_anonymous_args = 0
 2168              	.LVL132:
 2169 0000 70B5     		push	{r4, r5, r6, lr}
 2170              		.cfi_def_cfa_offset 16
 2171              		.cfi_offset 4, -16
 2172              		.cfi_offset 5, -12
 2173              		.cfi_offset 6, -8
 2174              		.cfi_offset 14, -4
  89:Generated_Source\PSoC5/USBUART_1_std.c **** 
 2175              		.loc 1 89 0
 2176 0002 A34A     		ldr	r2, .L226
 102:Generated_Source\PSoC5/USBUART_1_std.c **** 
 2177              		.loc 1 102 0
 2178 0004 A34C     		ldr	r4, .L226+4
  89:Generated_Source\PSoC5/USBUART_1_std.c **** 
 2179              		.loc 1 89 0
 2180 0006 1378     		ldrb	r3, [r2]	@ zero_extendqisi2
 102:Generated_Source\PSoC5/USBUART_1_std.c **** 
 2181              		.loc 1 102 0
 2182 0008 0021     		movs	r1, #0
  89:Generated_Source\PSoC5/USBUART_1_std.c **** 
 2183              		.loc 1 89 0
 2184 000a DBB2     		uxtb	r3, r3
 2185              	.LVL133:
 102:Generated_Source\PSoC5/USBUART_1_std.c **** 
 2186              		.loc 1 102 0
 2187 000c 2180     		strh	r1, [r4]	@ movhi
 104:Generated_Source\PSoC5/USBUART_1_std.c ****     {
 2188              		.loc 1 104 0
 2189 000e 1906     		lsls	r1, r3, #24
 107:Generated_Source\PSoC5/USBUART_1_std.c ****         {
 2190              		.loc 1 107 0
 2191 0010 5278     		ldrb	r2, [r2, #1]	@ zero_extendqisi2
 104:Generated_Source\PSoC5/USBUART_1_std.c ****     {
 2192              		.loc 1 104 0
 2193 0012 16D4     		bmi	.L218
 256:Generated_Source\PSoC5/USBUART_1_std.c ****         {
 2194              		.loc 1 256 0
 2195 0014 013A     		subs	r2, r2, #1
 2196 0016 0A2A     		cmp	r2, #10
ARM GAS  C:\Users\jon\AppData\Local\Temp\ccCLAX4y.s 			page 68


 2197 0018 11D8     		bhi	.L206
 2198 001a DFE812F0 		tbh	[pc, r2, lsl #1]
 2199              	.L163:
 2200 001e 6500     		.2byte	(.L162-.L163)/2
 2201 0020 1000     		.2byte	(.L206-.L163)/2
 2202 0022 9B00     		.2byte	(.L164-.L163)/2
 2203 0024 1000     		.2byte	(.L206-.L163)/2
 2204 0026 CC00     		.2byte	(.L165-.L163)/2
 2205 0028 1000     		.2byte	(.L206-.L163)/2
 2206 002a 1000     		.2byte	(.L206-.L163)/2
 2207 002c 1000     		.2byte	(.L206-.L163)/2
 2208 002e D500     		.2byte	(.L166-.L163)/2
 2209 0030 1000     		.2byte	(.L206-.L163)/2
 2210 0032 2D00     		.2byte	(.L167-.L163)/2
 2211              	.LVL134:
 2212              		.p2align 1
 2213              	.L182:
 362:Generated_Source\PSoC5/USBUART_1_std.c ****                         {
 2214              		.loc 1 362 0
 2215 0034 964B     		ldr	r3, .L226
 2216 0036 1A79     		ldrb	r2, [r3, #4]	@ zero_extendqisi2
 2217 0038 012A     		cmp	r2, #1
 2218 003a 40F27B81 		bls	.L219
 2219              	.LVL135:
 2220              	.L206:
 380:Generated_Source\PSoC5/USBUART_1_std.c **** 
 2221              		.loc 1 380 0
 2222 003e 0020     		movs	r0, #0
 2223 0040 70BD     		pop	{r4, r5, r6, pc}
 2224              	.LVL136:
 2225              	.L218:
 107:Generated_Source\PSoC5/USBUART_1_std.c ****         {
 2226              		.loc 1 107 0
 2227 0042 0A2A     		cmp	r2, #10
 2228 0044 FBD8     		bhi	.L206
 2229 0046 01A1     		adr	r1, .L148
 2230 0048 51F822F0 		ldr	pc, [r1, r2, lsl #2]
 2231              		.p2align 2
 2232              	.L148:
 2233 004c C9020000 		.word	.L147+1
 2234 0050 3F000000 		.word	.L206+1
 2235 0054 3F000000 		.word	.L206+1
 2236 0058 3F000000 		.word	.L206+1
 2237 005c 3F000000 		.word	.L206+1
 2238 0060 3F000000 		.word	.L206+1
 2239 0064 27020000 		.word	.L149+1
 2240 0068 3F000000 		.word	.L206+1
 2241 006c FF020000 		.word	.L150+1
 2242 0070 3F000000 		.word	.L206+1
 2243 0074 11020000 		.word	.L151+1
 2244              		.p2align 1
 2245              	.L167:
 2246              	.LVL137:
 2247              	.LBB93:
 2248              	.LBB94:
1049:Generated_Source\PSoC5/USBUART_1_std.c ****     }
1050:Generated_Source\PSoC5/USBUART_1_std.c **** 
ARM GAS  C:\Users\jon\AppData\Local\Temp\ccCLAX4y.s 			page 69


1051:Generated_Source\PSoC5/USBUART_1_std.c ****     return (pInterfaceClass);
1052:Generated_Source\PSoC5/USBUART_1_std.c **** }
1053:Generated_Source\PSoC5/USBUART_1_std.c **** 
1054:Generated_Source\PSoC5/USBUART_1_std.c **** 
1055:Generated_Source\PSoC5/USBUART_1_std.c **** /*******************************************************************************
1056:Generated_Source\PSoC5/USBUART_1_std.c **** * Function Name: USBUART_1_TerminateEP
1057:Generated_Source\PSoC5/USBUART_1_std.c **** ****************************************************************************//**
1058:Generated_Source\PSoC5/USBUART_1_std.c **** *
1059:Generated_Source\PSoC5/USBUART_1_std.c **** *  This function terminates the specified USBFS endpoint.
1060:Generated_Source\PSoC5/USBUART_1_std.c **** *  This function should be used before endpoint reconfiguration.
1061:Generated_Source\PSoC5/USBUART_1_std.c **** *
1062:Generated_Source\PSoC5/USBUART_1_std.c **** *  \param ep Contains the data endpoint number.
1063:Generated_Source\PSoC5/USBUART_1_std.c **** *
1064:Generated_Source\PSoC5/USBUART_1_std.c **** *  \reentrant
1065:Generated_Source\PSoC5/USBUART_1_std.c **** *  No.
1066:Generated_Source\PSoC5/USBUART_1_std.c **** *
1067:Generated_Source\PSoC5/USBUART_1_std.c **** * \sideeffect
1068:Generated_Source\PSoC5/USBUART_1_std.c **** * 
1069:Generated_Source\PSoC5/USBUART_1_std.c **** * The device responds with a NAK for any transactions on the selected endpoint.
1070:Generated_Source\PSoC5/USBUART_1_std.c **** *   
1071:Generated_Source\PSoC5/USBUART_1_std.c **** *******************************************************************************/
1072:Generated_Source\PSoC5/USBUART_1_std.c **** void USBUART_1_TerminateEP(uint8 epNumber) 
1073:Generated_Source\PSoC5/USBUART_1_std.c **** {
1074:Generated_Source\PSoC5/USBUART_1_std.c ****     /* Get endpoint number */
1075:Generated_Source\PSoC5/USBUART_1_std.c ****     epNumber &= USBUART_1_DIR_UNUSED;
1076:Generated_Source\PSoC5/USBUART_1_std.c **** 
1077:Generated_Source\PSoC5/USBUART_1_std.c ****     if ((epNumber > USBUART_1_EP0) && (epNumber < USBUART_1_MAX_EP))
1078:Generated_Source\PSoC5/USBUART_1_std.c ****     {
1079:Generated_Source\PSoC5/USBUART_1_std.c ****         /* Set the endpoint Halt */
1080:Generated_Source\PSoC5/USBUART_1_std.c ****         USBUART_1_EP[epNumber].hwEpState |= USBUART_1_ENDPOINT_STATUS_HALT;
1081:Generated_Source\PSoC5/USBUART_1_std.c **** 
1082:Generated_Source\PSoC5/USBUART_1_std.c ****         /* Clear the data toggle */
1083:Generated_Source\PSoC5/USBUART_1_std.c ****         USBUART_1_EP[epNumber].epToggle = 0u;
1084:Generated_Source\PSoC5/USBUART_1_std.c ****         USBUART_1_EP[epNumber].apiEpState = USBUART_1_NO_EVENT_ALLOWED;
1085:Generated_Source\PSoC5/USBUART_1_std.c **** 
1086:Generated_Source\PSoC5/USBUART_1_std.c ****         if ((USBUART_1_EP[epNumber].addr & USBUART_1_DIR_IN) != 0u)
1087:Generated_Source\PSoC5/USBUART_1_std.c ****         {   
1088:Generated_Source\PSoC5/USBUART_1_std.c ****             /* IN Endpoint */
1089:Generated_Source\PSoC5/USBUART_1_std.c ****             USBUART_1_SIE_EP_BASE.sieEp[epNumber].epCr0 = USBUART_1_MODE_NAK_IN;
1090:Generated_Source\PSoC5/USBUART_1_std.c ****         }
1091:Generated_Source\PSoC5/USBUART_1_std.c ****         else
1092:Generated_Source\PSoC5/USBUART_1_std.c ****         {
1093:Generated_Source\PSoC5/USBUART_1_std.c ****             /* OUT Endpoint */
1094:Generated_Source\PSoC5/USBUART_1_std.c ****             USBUART_1_SIE_EP_BASE.sieEp[epNumber].epCr0 = USBUART_1_MODE_NAK_OUT;
1095:Generated_Source\PSoC5/USBUART_1_std.c ****         }
1096:Generated_Source\PSoC5/USBUART_1_std.c ****     }
1097:Generated_Source\PSoC5/USBUART_1_std.c **** }
1098:Generated_Source\PSoC5/USBUART_1_std.c **** 
1099:Generated_Source\PSoC5/USBUART_1_std.c **** 
1100:Generated_Source\PSoC5/USBUART_1_std.c **** /*******************************************************************************
1101:Generated_Source\PSoC5/USBUART_1_std.c **** * Function Name: USBUART_1_SetEndpointHalt
1102:Generated_Source\PSoC5/USBUART_1_std.c **** ****************************************************************************//**
1103:Generated_Source\PSoC5/USBUART_1_std.c **** *
1104:Generated_Source\PSoC5/USBUART_1_std.c **** *  This routine handles set endpoint halt.
1105:Generated_Source\PSoC5/USBUART_1_std.c **** *
1106:Generated_Source\PSoC5/USBUART_1_std.c **** * \return
1107:Generated_Source\PSoC5/USBUART_1_std.c **** *  requestHandled.
ARM GAS  C:\Users\jon\AppData\Local\Temp\ccCLAX4y.s 			page 70


1108:Generated_Source\PSoC5/USBUART_1_std.c **** *
1109:Generated_Source\PSoC5/USBUART_1_std.c **** * \reentrant
1110:Generated_Source\PSoC5/USBUART_1_std.c **** *  No.
1111:Generated_Source\PSoC5/USBUART_1_std.c **** *
1112:Generated_Source\PSoC5/USBUART_1_std.c **** *******************************************************************************/
1113:Generated_Source\PSoC5/USBUART_1_std.c **** uint8 USBUART_1_SetEndpointHalt(void) 
1114:Generated_Source\PSoC5/USBUART_1_std.c **** {
1115:Generated_Source\PSoC5/USBUART_1_std.c ****     uint8 requestHandled = USBUART_1_FALSE;
1116:Generated_Source\PSoC5/USBUART_1_std.c ****     uint8 ep;
1117:Generated_Source\PSoC5/USBUART_1_std.c ****     
1118:Generated_Source\PSoC5/USBUART_1_std.c ****     /* Set endpoint halt */
1119:Generated_Source\PSoC5/USBUART_1_std.c ****     ep = USBUART_1_wIndexLoReg & USBUART_1_DIR_UNUSED;
1120:Generated_Source\PSoC5/USBUART_1_std.c **** 
1121:Generated_Source\PSoC5/USBUART_1_std.c ****     if ((ep > USBUART_1_EP0) && (ep < USBUART_1_MAX_EP))
1122:Generated_Source\PSoC5/USBUART_1_std.c ****     {
1123:Generated_Source\PSoC5/USBUART_1_std.c ****         /* Set the endpoint Halt */
1124:Generated_Source\PSoC5/USBUART_1_std.c ****         USBUART_1_EP[ep].hwEpState |= (USBUART_1_ENDPOINT_STATUS_HALT);
1125:Generated_Source\PSoC5/USBUART_1_std.c **** 
1126:Generated_Source\PSoC5/USBUART_1_std.c ****         /* Clear the data toggle */
1127:Generated_Source\PSoC5/USBUART_1_std.c ****         USBUART_1_EP[ep].epToggle = 0u;
1128:Generated_Source\PSoC5/USBUART_1_std.c ****         USBUART_1_EP[ep].apiEpState |= USBUART_1_NO_EVENT_ALLOWED;
1129:Generated_Source\PSoC5/USBUART_1_std.c **** 
1130:Generated_Source\PSoC5/USBUART_1_std.c ****         if ((USBUART_1_EP[ep].addr & USBUART_1_DIR_IN) != 0u)
1131:Generated_Source\PSoC5/USBUART_1_std.c ****         {
1132:Generated_Source\PSoC5/USBUART_1_std.c ****             /* IN Endpoint */
1133:Generated_Source\PSoC5/USBUART_1_std.c ****             USBUART_1_SIE_EP_BASE.sieEp[ep].epCr0 = (USBUART_1_MODE_STALL_DATA_EP | 
1134:Generated_Source\PSoC5/USBUART_1_std.c ****                                                             USBUART_1_MODE_ACK_IN);
1135:Generated_Source\PSoC5/USBUART_1_std.c ****         }
1136:Generated_Source\PSoC5/USBUART_1_std.c ****         else
1137:Generated_Source\PSoC5/USBUART_1_std.c ****         {
1138:Generated_Source\PSoC5/USBUART_1_std.c ****             /* OUT Endpoint */
1139:Generated_Source\PSoC5/USBUART_1_std.c ****             USBUART_1_SIE_EP_BASE.sieEp[ep].epCr0 = (USBUART_1_MODE_STALL_DATA_EP | 
1140:Generated_Source\PSoC5/USBUART_1_std.c ****                                                             USBUART_1_MODE_ACK_OUT);
1141:Generated_Source\PSoC5/USBUART_1_std.c ****         }
1142:Generated_Source\PSoC5/USBUART_1_std.c ****         requestHandled = USBUART_1_InitNoDataControlTransfer();
1143:Generated_Source\PSoC5/USBUART_1_std.c ****     }
1144:Generated_Source\PSoC5/USBUART_1_std.c **** 
1145:Generated_Source\PSoC5/USBUART_1_std.c ****     return (requestHandled);
1146:Generated_Source\PSoC5/USBUART_1_std.c **** }
1147:Generated_Source\PSoC5/USBUART_1_std.c **** 
1148:Generated_Source\PSoC5/USBUART_1_std.c **** 
1149:Generated_Source\PSoC5/USBUART_1_std.c **** /*******************************************************************************
1150:Generated_Source\PSoC5/USBUART_1_std.c **** * Function Name: USBUART_1_ClearEndpointHalt
1151:Generated_Source\PSoC5/USBUART_1_std.c **** ****************************************************************************//**
1152:Generated_Source\PSoC5/USBUART_1_std.c **** *
1153:Generated_Source\PSoC5/USBUART_1_std.c **** *  This routine handles clear endpoint halt.
1154:Generated_Source\PSoC5/USBUART_1_std.c **** *
1155:Generated_Source\PSoC5/USBUART_1_std.c **** * \return
1156:Generated_Source\PSoC5/USBUART_1_std.c **** *  requestHandled.
1157:Generated_Source\PSoC5/USBUART_1_std.c **** *
1158:Generated_Source\PSoC5/USBUART_1_std.c **** * \reentrant
1159:Generated_Source\PSoC5/USBUART_1_std.c **** *  No.
1160:Generated_Source\PSoC5/USBUART_1_std.c **** *
1161:Generated_Source\PSoC5/USBUART_1_std.c **** *******************************************************************************/
1162:Generated_Source\PSoC5/USBUART_1_std.c **** uint8 USBUART_1_ClearEndpointHalt(void) 
1163:Generated_Source\PSoC5/USBUART_1_std.c **** {
1164:Generated_Source\PSoC5/USBUART_1_std.c ****     uint8 requestHandled = USBUART_1_FALSE;
ARM GAS  C:\Users\jon\AppData\Local\Temp\ccCLAX4y.s 			page 71


1165:Generated_Source\PSoC5/USBUART_1_std.c ****     uint8 ep;
1166:Generated_Source\PSoC5/USBUART_1_std.c **** 
1167:Generated_Source\PSoC5/USBUART_1_std.c ****     /* Clear endpoint halt */
1168:Generated_Source\PSoC5/USBUART_1_std.c ****     ep = USBUART_1_wIndexLoReg & USBUART_1_DIR_UNUSED;
1169:Generated_Source\PSoC5/USBUART_1_std.c **** 
1170:Generated_Source\PSoC5/USBUART_1_std.c ****     if ((ep > USBUART_1_EP0) && (ep < USBUART_1_MAX_EP))
1171:Generated_Source\PSoC5/USBUART_1_std.c ****     {
1172:Generated_Source\PSoC5/USBUART_1_std.c ****         /* Clear the endpoint Halt */
1173:Generated_Source\PSoC5/USBUART_1_std.c ****         USBUART_1_EP[ep].hwEpState &= (uint8) ~USBUART_1_ENDPOINT_STATUS_HALT;
1174:Generated_Source\PSoC5/USBUART_1_std.c **** 
1175:Generated_Source\PSoC5/USBUART_1_std.c ****         /* Clear the data toggle */
1176:Generated_Source\PSoC5/USBUART_1_std.c ****         USBUART_1_EP[ep].epToggle = 0u;
1177:Generated_Source\PSoC5/USBUART_1_std.c ****         
1178:Generated_Source\PSoC5/USBUART_1_std.c ****         /* Clear toggle bit for already armed packet */
1179:Generated_Source\PSoC5/USBUART_1_std.c ****         USBUART_1_SIE_EP_BASE.sieEp[ep].epCnt0 &= (uint8) ~(uint8)USBUART_1_EPX_CNT_DATA_TOGGLE;
1180:Generated_Source\PSoC5/USBUART_1_std.c ****         
1181:Generated_Source\PSoC5/USBUART_1_std.c ****         /* Return API State as it was defined before */
1182:Generated_Source\PSoC5/USBUART_1_std.c ****         USBUART_1_EP[ep].apiEpState &= (uint8) ~USBUART_1_NO_EVENT_ALLOWED;
1183:Generated_Source\PSoC5/USBUART_1_std.c **** 
1184:Generated_Source\PSoC5/USBUART_1_std.c ****         if ((USBUART_1_EP[ep].addr & USBUART_1_DIR_IN) != 0u)
1185:Generated_Source\PSoC5/USBUART_1_std.c ****         {
1186:Generated_Source\PSoC5/USBUART_1_std.c ****             /* IN Endpoint */
1187:Generated_Source\PSoC5/USBUART_1_std.c ****             if(USBUART_1_EP[ep].apiEpState == USBUART_1_IN_BUFFER_EMPTY)
1188:Generated_Source\PSoC5/USBUART_1_std.c ****             {       
1189:Generated_Source\PSoC5/USBUART_1_std.c ****                 /* Wait for next packet from application */
1190:Generated_Source\PSoC5/USBUART_1_std.c ****                 USBUART_1_SIE_EP_BASE.sieEp[ep].epCr0 = USBUART_1_MODE_NAK_IN;
1191:Generated_Source\PSoC5/USBUART_1_std.c ****             }
1192:Generated_Source\PSoC5/USBUART_1_std.c ****             else    /* Continue armed transfer */
1193:Generated_Source\PSoC5/USBUART_1_std.c ****             {
1194:Generated_Source\PSoC5/USBUART_1_std.c ****                 USBUART_1_SIE_EP_BASE.sieEp[ep].epCr0 = USBUART_1_MODE_ACK_IN;
1195:Generated_Source\PSoC5/USBUART_1_std.c ****             }
1196:Generated_Source\PSoC5/USBUART_1_std.c ****         }
1197:Generated_Source\PSoC5/USBUART_1_std.c ****         else
1198:Generated_Source\PSoC5/USBUART_1_std.c ****         {
1199:Generated_Source\PSoC5/USBUART_1_std.c ****             /* OUT Endpoint */
1200:Generated_Source\PSoC5/USBUART_1_std.c ****             if (USBUART_1_EP[ep].apiEpState == USBUART_1_OUT_BUFFER_FULL)
1201:Generated_Source\PSoC5/USBUART_1_std.c ****             {       
1202:Generated_Source\PSoC5/USBUART_1_std.c ****                 /* Allow application to read full buffer */
1203:Generated_Source\PSoC5/USBUART_1_std.c ****                 USBUART_1_SIE_EP_BASE.sieEp[ep].epCr0 = USBUART_1_MODE_NAK_OUT;
1204:Generated_Source\PSoC5/USBUART_1_std.c ****             }
1205:Generated_Source\PSoC5/USBUART_1_std.c ****             else    /* Mark endpoint as empty, so it will be reloaded */
1206:Generated_Source\PSoC5/USBUART_1_std.c ****             {
1207:Generated_Source\PSoC5/USBUART_1_std.c ****                 USBUART_1_SIE_EP_BASE.sieEp[ep].epCr0 = USBUART_1_MODE_ACK_OUT;
1208:Generated_Source\PSoC5/USBUART_1_std.c ****             }
1209:Generated_Source\PSoC5/USBUART_1_std.c ****         }
1210:Generated_Source\PSoC5/USBUART_1_std.c ****         
1211:Generated_Source\PSoC5/USBUART_1_std.c ****         requestHandled = USBUART_1_InitNoDataControlTransfer();
1212:Generated_Source\PSoC5/USBUART_1_std.c ****     }
1213:Generated_Source\PSoC5/USBUART_1_std.c **** 
1214:Generated_Source\PSoC5/USBUART_1_std.c ****     return(requestHandled);
1215:Generated_Source\PSoC5/USBUART_1_std.c **** }
1216:Generated_Source\PSoC5/USBUART_1_std.c **** 
1217:Generated_Source\PSoC5/USBUART_1_std.c **** 
1218:Generated_Source\PSoC5/USBUART_1_std.c **** /*******************************************************************************
1219:Generated_Source\PSoC5/USBUART_1_std.c **** * Function Name: USBUART_1_ValidateAlternateSetting
1220:Generated_Source\PSoC5/USBUART_1_std.c **** ****************************************************************************//**
1221:Generated_Source\PSoC5/USBUART_1_std.c **** *
ARM GAS  C:\Users\jon\AppData\Local\Temp\ccCLAX4y.s 			page 72


1222:Generated_Source\PSoC5/USBUART_1_std.c **** *  Validates (and records) a SET INTERFACE request.
1223:Generated_Source\PSoC5/USBUART_1_std.c **** *
1224:Generated_Source\PSoC5/USBUART_1_std.c **** * \return
1225:Generated_Source\PSoC5/USBUART_1_std.c **** *  requestHandled.
1226:Generated_Source\PSoC5/USBUART_1_std.c **** *
1227:Generated_Source\PSoC5/USBUART_1_std.c **** * \reentrant
1228:Generated_Source\PSoC5/USBUART_1_std.c **** *  No.
1229:Generated_Source\PSoC5/USBUART_1_std.c **** *
1230:Generated_Source\PSoC5/USBUART_1_std.c **** *******************************************************************************/
1231:Generated_Source\PSoC5/USBUART_1_std.c **** uint8 USBUART_1_ValidateAlternateSetting(void) 
1232:Generated_Source\PSoC5/USBUART_1_std.c **** {
1233:Generated_Source\PSoC5/USBUART_1_std.c ****     uint8 requestHandled = USBUART_1_FALSE;
1234:Generated_Source\PSoC5/USBUART_1_std.c ****     
1235:Generated_Source\PSoC5/USBUART_1_std.c ****     uint8 interfaceNum;
1236:Generated_Source\PSoC5/USBUART_1_std.c ****     uint8 curInterfacesNum;
1237:Generated_Source\PSoC5/USBUART_1_std.c ****     const T_USBUART_1_LUT CYCODE *pTmp;
1238:Generated_Source\PSoC5/USBUART_1_std.c ****     
1239:Generated_Source\PSoC5/USBUART_1_std.c ****     /* Get interface number from the request. */
1240:Generated_Source\PSoC5/USBUART_1_std.c ****     interfaceNum = (uint8) USBUART_1_wIndexLoReg;
 2249              		.loc 1 1240 0
 2250 0078 854B     		ldr	r3, .L226
 2251              	.LVL138:
1241:Generated_Source\PSoC5/USBUART_1_std.c ****     
1242:Generated_Source\PSoC5/USBUART_1_std.c ****     /* Get number of interfaces for current configuration. */
1243:Generated_Source\PSoC5/USBUART_1_std.c ****     pTmp = USBUART_1_GetConfigTablePtr(USBUART_1_configuration - 1u);
 2252              		.loc 1 1243 0
 2253 007a 8748     		ldr	r0, .L226+8
 2254              	.LBB95:
 2255              	.LBB96:
 948:Generated_Source\PSoC5/USBUART_1_std.c **** 
 2256              		.loc 1 948 0
 2257 007c 874C     		ldr	r4, .L226+12
 2258              	.LBE96:
 2259              	.LBE95:
1240:Generated_Source\PSoC5/USBUART_1_std.c ****     
 2260              		.loc 1 1240 0
 2261 007e 1A79     		ldrb	r2, [r3, #4]	@ zero_extendqisi2
 2262              	.LBB102:
 2263              	.LBB97:
 948:Generated_Source\PSoC5/USBUART_1_std.c **** 
 2264              		.loc 1 948 0
 2265 0080 8749     		ldr	r1, .L226+16
 2266              	.LBE97:
 2267              	.LBE102:
 2268              		.loc 1 1243 0
 2269 0082 0378     		ldrb	r3, [r0]	@ zero_extendqisi2
 2270              	.LBB103:
 2271              	.LBB98:
 948:Generated_Source\PSoC5/USBUART_1_std.c **** 
 2272              		.loc 1 948 0
 2273 0084 2478     		ldrb	r4, [r4]	@ zero_extendqisi2
 2274              	.LBE98:
 2275              	.LBE103:
 2276              		.loc 1 1243 0
 2277 0086 013B     		subs	r3, r3, #1
 2278              	.LBB104:
 2279              	.LBB99:
ARM GAS  C:\Users\jon\AppData\Local\Temp\ccCLAX4y.s 			page 73


 948:Generated_Source\PSoC5/USBUART_1_std.c **** 
 2280              		.loc 1 948 0
 2281 0088 01EBC401 		add	r1, r1, r4, lsl #3
 2282 008c 4968     		ldr	r1, [r1, #4]
 2283              	.LBE99:
 2284              	.LBE104:
 2285              		.loc 1 1243 0
 2286 008e DBB2     		uxtb	r3, r3
 2287              	.LBB105:
 2288              	.LBB100:
 957:Generated_Source\PSoC5/USBUART_1_std.c ****     {
 2289              		.loc 1 957 0
 2290 0090 0C7C     		ldrb	r4, [r1, #16]	@ zero_extendqisi2
 2291              	.LBE100:
 2292              	.LBE105:
1240:Generated_Source\PSoC5/USBUART_1_std.c ****     
 2293              		.loc 1 1240 0
 2294 0092 D2B2     		uxtb	r2, r2
 2295              	.LVL139:
 2296              	.LBB106:
 2297              	.LBB101:
 957:Generated_Source\PSoC5/USBUART_1_std.c ****     {
 2298              		.loc 1 957 0
 2299 0094 9C42     		cmp	r4, r3
 2300 0096 40F23A81 		bls	.L170
 2301              	.LVL140:
 963:Generated_Source\PSoC5/USBUART_1_std.c ****     }
 2302              		.loc 1 963 0
 2303 009a 01EBC303 		add	r3, r1, r3, lsl #3
 2304              	.LVL141:
