ARM GAS  C:\Users\jon\AppData\Local\Temp\ccwaPz7c.s 			page 1


   1              		.syntax unified
   2              		.cpu cortex-m3
   3              		.fpu softvfp
   4              		.eabi_attribute 20, 1
   5              		.eabi_attribute 21, 1
   6              		.eabi_attribute 23, 3
   7              		.eabi_attribute 24, 1
   8              		.eabi_attribute 25, 1
   9              		.eabi_attribute 26, 1
  10              		.eabi_attribute 30, 2
  11              		.eabi_attribute 34, 1
  12              		.eabi_attribute 18, 4
  13              		.thumb
  14              		.syntax unified
  15              		.file	"USBUART_1.c"
  16              		.text
  17              	.Ltext0:
  18              		.cfi_sections	.debug_frame
  19              		.section	.text.USBUART_1_Init,"ax",%progbits
  20              		.align	2
  21              		.global	USBUART_1_Init
  22              		.thumb
  23              		.thumb_func
  24              		.type	USBUART_1_Init, %function
  25              	USBUART_1_Init:
  26              	.LFB1:
  27              		.file 1 "Generated_Source\\PSoC5\\USBUART_1.c"
   1:Generated_Source\PSoC5/USBUART_1.c **** /***************************************************************************//**
   2:Generated_Source\PSoC5/USBUART_1.c **** * \file USBUART_1.c
   3:Generated_Source\PSoC5/USBUART_1.c **** * \version 3.20
   4:Generated_Source\PSoC5/USBUART_1.c **** *
   5:Generated_Source\PSoC5/USBUART_1.c **** * \brief
   6:Generated_Source\PSoC5/USBUART_1.c **** *  This file contains the global USBFS API functions.
   7:Generated_Source\PSoC5/USBUART_1.c **** *
   8:Generated_Source\PSoC5/USBUART_1.c **** * Note:
   9:Generated_Source\PSoC5/USBUART_1.c **** *  Many of the functions use an endpoint number. SRAM arrays are sized with 9
  10:Generated_Source\PSoC5/USBUART_1.c **** *  elements, so they are indexed directly by epNumber.  The SIE and ARB
  11:Generated_Source\PSoC5/USBUART_1.c **** *  registers are indexed by variations of epNumber - 1.
  12:Generated_Source\PSoC5/USBUART_1.c **** *
  13:Generated_Source\PSoC5/USBUART_1.c **** ********************************************************************************
  14:Generated_Source\PSoC5/USBUART_1.c **** * \copyright
  15:Generated_Source\PSoC5/USBUART_1.c **** * Copyright 2008-2016, Cypress Semiconductor Corporation.  All rights reserved.
  16:Generated_Source\PSoC5/USBUART_1.c **** * You may use this file only in accordance with the license, terms, conditions,
  17:Generated_Source\PSoC5/USBUART_1.c **** * disclaimers, and limitations in the end user license agreement accompanying
  18:Generated_Source\PSoC5/USBUART_1.c **** * the software package with which this file was provided.
  19:Generated_Source\PSoC5/USBUART_1.c **** *******************************************************************************/
  20:Generated_Source\PSoC5/USBUART_1.c **** 
  21:Generated_Source\PSoC5/USBUART_1.c **** #include "USBUART_1_pvt.h"
  22:Generated_Source\PSoC5/USBUART_1.c **** #include "USBUART_1_cydmac.h"
  23:Generated_Source\PSoC5/USBUART_1.c **** #include "USBUART_1_hid.h"
  24:Generated_Source\PSoC5/USBUART_1.c **** #include "USBUART_1_Dp.h"
  25:Generated_Source\PSoC5/USBUART_1.c **** 
  26:Generated_Source\PSoC5/USBUART_1.c **** 
  27:Generated_Source\PSoC5/USBUART_1.c **** /***************************************
  28:Generated_Source\PSoC5/USBUART_1.c **** * Global data allocation
  29:Generated_Source\PSoC5/USBUART_1.c **** ***************************************/
  30:Generated_Source\PSoC5/USBUART_1.c **** 
ARM GAS  C:\Users\jon\AppData\Local\Temp\ccwaPz7c.s 			page 2


  31:Generated_Source\PSoC5/USBUART_1.c **** /** Indicates whether the USBFS has been initialized. The variable is
  32:Generated_Source\PSoC5/USBUART_1.c **** * initialized to 0 after device reset and set to 1 the first time USBFS_Start()
  33:Generated_Source\PSoC5/USBUART_1.c **** * is called. This allows the Component to restart without reinitialization after
  34:Generated_Source\PSoC5/USBUART_1.c **** * the first call to the USBFS_Start() routine.
  35:Generated_Source\PSoC5/USBUART_1.c **** * If re-initialization of the Component is required, the variable should be set
  36:Generated_Source\PSoC5/USBUART_1.c **** * to 0 before the USBFS_Start() routine is called. Alternatively, the USBFS can
  37:Generated_Source\PSoC5/USBUART_1.c **** * be reinitialized by calling both USBFS_Init() and USBFS_InitComponent()
  38:Generated_Source\PSoC5/USBUART_1.c **** * functions.
  39:Generated_Source\PSoC5/USBUART_1.c **** */
  40:Generated_Source\PSoC5/USBUART_1.c **** uint8 USBUART_1_initVar = 0u;
  41:Generated_Source\PSoC5/USBUART_1.c **** 
  42:Generated_Source\PSoC5/USBUART_1.c **** #if (USBUART_1_EP_MANAGEMENT_DMA)
  43:Generated_Source\PSoC5/USBUART_1.c ****     #if (CY_PSOC4)
  44:Generated_Source\PSoC5/USBUART_1.c ****         static void USBUART_1_InitEpDma(void);
  45:Generated_Source\PSoC5/USBUART_1.c **** 
  46:Generated_Source\PSoC5/USBUART_1.c ****         /* DMA chanels assigend for endpoints. */
  47:Generated_Source\PSoC5/USBUART_1.c ****         const uint8 USBUART_1_DmaChan[USBUART_1_MAX_EP] =
  48:Generated_Source\PSoC5/USBUART_1.c ****         {
  49:Generated_Source\PSoC5/USBUART_1.c ****             0u,
  50:Generated_Source\PSoC5/USBUART_1.c ****             0u,
  51:Generated_Source\PSoC5/USBUART_1.c ****             0u,
  52:Generated_Source\PSoC5/USBUART_1.c ****             0u,
  53:Generated_Source\PSoC5/USBUART_1.c ****             0u,
  54:Generated_Source\PSoC5/USBUART_1.c ****             0u,
  55:Generated_Source\PSoC5/USBUART_1.c ****             0u,
  56:Generated_Source\PSoC5/USBUART_1.c ****             0u,
  57:Generated_Source\PSoC5/USBUART_1.c ****             0u,
  58:Generated_Source\PSoC5/USBUART_1.c ****         };        
  59:Generated_Source\PSoC5/USBUART_1.c ****     #else
  60:Generated_Source\PSoC5/USBUART_1.c ****         /* DMA chanels assigend for endpoints. */
  61:Generated_Source\PSoC5/USBUART_1.c ****         uint8 USBUART_1_DmaChan[USBUART_1_MAX_EP];
  62:Generated_Source\PSoC5/USBUART_1.c ****         
  63:Generated_Source\PSoC5/USBUART_1.c ****         /* DMA TDs require for PSoC 3/5LP operation. */
  64:Generated_Source\PSoC5/USBUART_1.c ****         uint8 USBUART_1_DmaTd[USBUART_1_MAX_EP];
  65:Generated_Source\PSoC5/USBUART_1.c ****     #endif /* (CY_PSOC4) */
  66:Generated_Source\PSoC5/USBUART_1.c **** #endif /* (USBUART_1_EP_MANAGEMENT_DMA) */
  67:Generated_Source\PSoC5/USBUART_1.c **** 
  68:Generated_Source\PSoC5/USBUART_1.c **** #if (USBUART_1_EP_MANAGEMENT_DMA_AUTO)
  69:Generated_Source\PSoC5/USBUART_1.c **** #if (CY_PSOC4)
  70:Generated_Source\PSoC5/USBUART_1.c ****     /* Number of DMA bursts. */
  71:Generated_Source\PSoC5/USBUART_1.c ****     uint8  USBUART_1_DmaEpBurstCnt   [USBUART_1_MAX_EP];
  72:Generated_Source\PSoC5/USBUART_1.c ****     
  73:Generated_Source\PSoC5/USBUART_1.c ****     /* Number of bytes to transfer in last DMA burst. */
  74:Generated_Source\PSoC5/USBUART_1.c ****     uint8  USBUART_1_DmaEpLastBurstEl[USBUART_1_MAX_EP];
  75:Generated_Source\PSoC5/USBUART_1.c **** 
  76:Generated_Source\PSoC5/USBUART_1.c ****     /* Storage for arrays above. */
  77:Generated_Source\PSoC5/USBUART_1.c ****     uint8  USBUART_1_DmaEpBurstCntBackup  [USBUART_1_MAX_EP];
  78:Generated_Source\PSoC5/USBUART_1.c ****     uint32 USBUART_1_DmaEpBufferAddrBackup[USBUART_1_MAX_EP];
  79:Generated_Source\PSoC5/USBUART_1.c ****      
  80:Generated_Source\PSoC5/USBUART_1.c ****     /* DMA trigger mux output for usb.dma_req[0-7]. */
  81:Generated_Source\PSoC5/USBUART_1.c ****     const uint8 USBUART_1_DmaReqOut[USBUART_1_MAX_EP] =
  82:Generated_Source\PSoC5/USBUART_1.c ****     {
  83:Generated_Source\PSoC5/USBUART_1.c ****         0u,
  84:Generated_Source\PSoC5/USBUART_1.c ****         USBUART_1_ep1_dma__TR_OUTPUT,
  85:Generated_Source\PSoC5/USBUART_1.c ****         USBUART_1_ep2_dma__TR_OUTPUT,
  86:Generated_Source\PSoC5/USBUART_1.c ****         USBUART_1_ep3_dma__TR_OUTPUT,
  87:Generated_Source\PSoC5/USBUART_1.c ****         0u,
ARM GAS  C:\Users\jon\AppData\Local\Temp\ccwaPz7c.s 			page 3


  88:Generated_Source\PSoC5/USBUART_1.c ****         0u,
  89:Generated_Source\PSoC5/USBUART_1.c ****         0u,
  90:Generated_Source\PSoC5/USBUART_1.c ****         0u,
  91:Generated_Source\PSoC5/USBUART_1.c ****         0u,
  92:Generated_Source\PSoC5/USBUART_1.c ****     };
  93:Generated_Source\PSoC5/USBUART_1.c **** 
  94:Generated_Source\PSoC5/USBUART_1.c ****     /* DMA trigger mux output for usb.dma_burstend[0-7]. */
  95:Generated_Source\PSoC5/USBUART_1.c ****     const uint8 USBUART_1_DmaBurstEndOut[USBUART_1_MAX_EP] =
  96:Generated_Source\PSoC5/USBUART_1.c ****     {
  97:Generated_Source\PSoC5/USBUART_1.c ****         0u,
  98:Generated_Source\PSoC5/USBUART_1.c ****         USBUART_1_BURSTEND_0_TR_OUTPUT,
  99:Generated_Source\PSoC5/USBUART_1.c ****         USBUART_1_BURSTEND_1_TR_OUTPUT,
 100:Generated_Source\PSoC5/USBUART_1.c ****         USBUART_1_BURSTEND_2_TR_OUTPUT,
 101:Generated_Source\PSoC5/USBUART_1.c ****         USBUART_1_BURSTEND_3_TR_OUTPUT,
 102:Generated_Source\PSoC5/USBUART_1.c ****         USBUART_1_BURSTEND_4_TR_OUTPUT,
 103:Generated_Source\PSoC5/USBUART_1.c ****         USBUART_1_BURSTEND_5_TR_OUTPUT,
 104:Generated_Source\PSoC5/USBUART_1.c ****         USBUART_1_BURSTEND_6_TR_OUTPUT,
 105:Generated_Source\PSoC5/USBUART_1.c ****         USBUART_1_BURSTEND_7_TR_OUTPUT
 106:Generated_Source\PSoC5/USBUART_1.c ****     };
 107:Generated_Source\PSoC5/USBUART_1.c ****     
 108:Generated_Source\PSoC5/USBUART_1.c **** #else
 109:Generated_Source\PSoC5/USBUART_1.c ****     #if (USBUART_1_EP_DMA_AUTO_OPT == 0u)
 110:Generated_Source\PSoC5/USBUART_1.c ****         static uint8 clearInDataRdyStatus = USBUART_1_ARB_EPX_CFG_DEFAULT;
 111:Generated_Source\PSoC5/USBUART_1.c ****         uint8 USBUART_1_DmaNextTd[USBUART_1_MAX_EP];
 112:Generated_Source\PSoC5/USBUART_1.c ****         const uint8 USBUART_1_epX_TD_TERMOUT_EN[USBUART_1_MAX_EP] =
 113:Generated_Source\PSoC5/USBUART_1.c ****         {
 114:Generated_Source\PSoC5/USBUART_1.c ****             0u,
 115:Generated_Source\PSoC5/USBUART_1.c ****             0u,
 116:Generated_Source\PSoC5/USBUART_1.c ****             0u,
 117:Generated_Source\PSoC5/USBUART_1.c ****             0u,
 118:Generated_Source\PSoC5/USBUART_1.c ****             0u,
 119:Generated_Source\PSoC5/USBUART_1.c ****             0u,
 120:Generated_Source\PSoC5/USBUART_1.c ****             0u,
 121:Generated_Source\PSoC5/USBUART_1.c ****             0u,
 122:Generated_Source\PSoC5/USBUART_1.c ****             0u,
 123:Generated_Source\PSoC5/USBUART_1.c ****         };
 124:Generated_Source\PSoC5/USBUART_1.c **** 
 125:Generated_Source\PSoC5/USBUART_1.c ****         volatile uint16 USBUART_1_inLength[USBUART_1_MAX_EP];
 126:Generated_Source\PSoC5/USBUART_1.c ****         const uint8 *USBUART_1_inDataPointer[USBUART_1_MAX_EP];
 127:Generated_Source\PSoC5/USBUART_1.c ****         volatile uint8 USBUART_1_inBufFull[USBUART_1_MAX_EP];
 128:Generated_Source\PSoC5/USBUART_1.c ****     #endif /* (USBUART_1_EP_DMA_AUTO_OPT == 0u) */
 129:Generated_Source\PSoC5/USBUART_1.c **** #endif /* (CY_PSOC4) */
 130:Generated_Source\PSoC5/USBUART_1.c **** #endif /* (USBUART_1_EP_MANAGEMENT_DMA_AUTO) */
 131:Generated_Source\PSoC5/USBUART_1.c **** 
 132:Generated_Source\PSoC5/USBUART_1.c **** 
 133:Generated_Source\PSoC5/USBUART_1.c **** /*******************************************************************************
 134:Generated_Source\PSoC5/USBUART_1.c **** * Function Name: USBUART_1_Start
 135:Generated_Source\PSoC5/USBUART_1.c **** ****************************************************************************//**
 136:Generated_Source\PSoC5/USBUART_1.c **** *
 137:Generated_Source\PSoC5/USBUART_1.c **** *   This function performs all required initialization for the USBFS component.
 138:Generated_Source\PSoC5/USBUART_1.c **** *   After this function call, the USB device initiates communication with the
 139:Generated_Source\PSoC5/USBUART_1.c **** *   host by pull-up D+ line. This is the preferred method to begin component
 140:Generated_Source\PSoC5/USBUART_1.c **** *   operation.
 141:Generated_Source\PSoC5/USBUART_1.c **** *
 142:Generated_Source\PSoC5/USBUART_1.c **** *   Note that global interrupts have to be enabled because interrupts are
 143:Generated_Source\PSoC5/USBUART_1.c **** *   required for USBFS component operation.
 144:Generated_Source\PSoC5/USBUART_1.c **** *
ARM GAS  C:\Users\jon\AppData\Local\Temp\ccwaPz7c.s 			page 4


 145:Generated_Source\PSoC5/USBUART_1.c **** *   PSoC 4200L devices: when USBFS component configured to DMA with Automatic
 146:Generated_Source\PSoC5/USBUART_1.c **** *   Buffer Management, the DMA interrupt priority is changed to the highest
 147:Generated_Source\PSoC5/USBUART_1.c **** *   (priority 0) inside this function.
 148:Generated_Source\PSoC5/USBUART_1.c **** *
 149:Generated_Source\PSoC5/USBUART_1.c **** *   PSoC 3/PSoC 5LP devices: when USBFS component configured to DMA with
 150:Generated_Source\PSoC5/USBUART_1.c **** *   Automatic Buffer Management, the Arbiter interrupt priority is changed to
 151:Generated_Source\PSoC5/USBUART_1.c **** *   the highest (priority 0) inside this function.
 152:Generated_Source\PSoC5/USBUART_1.c **** *
 153:Generated_Source\PSoC5/USBUART_1.c **** *  \param device
 154:Generated_Source\PSoC5/USBUART_1.c **** *          Contains the device number of the desired device descriptor.
 155:Generated_Source\PSoC5/USBUART_1.c **** *          The device number can be found in the Device Descriptor Tab of
 156:Generated_Source\PSoC5/USBUART_1.c **** *          "Configure" dialog, under the settings of desired Device Descriptor,
 157:Generated_Source\PSoC5/USBUART_1.c **** *          in the "Device Number" field.
 158:Generated_Source\PSoC5/USBUART_1.c **** *  \param mode:
 159:Generated_Source\PSoC5/USBUART_1.c **** *   The operating voltage. This determines whether the voltage regulator
 160:Generated_Source\PSoC5/USBUART_1.c **** *   is enabled for 5V operation or if pass through mode is used for 3.3V
 161:Generated_Source\PSoC5/USBUART_1.c **** *   operation. Symbolic names and their associated values are given in the
 162:Generated_Source\PSoC5/USBUART_1.c **** *   following list.
 163:Generated_Source\PSoC5/USBUART_1.c **** *
 164:Generated_Source\PSoC5/USBUART_1.c **** *       *USBUART_1_3V_OPERATION* - Disable voltage regulator and pass-
 165:Generated_Source\PSoC5/USBUART_1.c **** *                                      through Vcc for pull-up
 166:Generated_Source\PSoC5/USBUART_1.c **** *
 167:Generated_Source\PSoC5/USBUART_1.c **** *       *USBUART_1_5V_OPERATION* - Enable voltage regulator and use
 168:Generated_Source\PSoC5/USBUART_1.c **** *                                      regulator for pull-up
 169:Generated_Source\PSoC5/USBUART_1.c **** *
 170:Generated_Source\PSoC5/USBUART_1.c **** *       *USBUART_1_DWR_POWER_OPERATION* - Enable or disable the voltage
 171:Generated_Source\PSoC5/USBUART_1.c **** *                                      regulator depending on the power supply
 172:Generated_Source\PSoC5/USBUART_1.c **** *                                      voltage configuration in the DWR tab.
 173:Generated_Source\PSoC5/USBUART_1.c **** *                                      For PSoC 3/5LP devices, the VDDD supply
 174:Generated_Source\PSoC5/USBUART_1.c **** *                                      voltage is considered and for PSoC 4A-L,
 175:Generated_Source\PSoC5/USBUART_1.c **** *                                      the VBUS supply voltage is considered.*
 176:Generated_Source\PSoC5/USBUART_1.c **** * \globalvars
 177:Generated_Source\PSoC5/USBUART_1.c **** *  \ref USBUART_1_initVar
 178:Generated_Source\PSoC5/USBUART_1.c **** *
 179:Generated_Source\PSoC5/USBUART_1.c **** * \sideeffect
 180:Generated_Source\PSoC5/USBUART_1.c **** *   This function will reset all communication states to default.
 181:Generated_Source\PSoC5/USBUART_1.c **** *
 182:Generated_Source\PSoC5/USBUART_1.c **** * \reentrant
 183:Generated_Source\PSoC5/USBUART_1.c **** *  No.
 184:Generated_Source\PSoC5/USBUART_1.c **** *
 185:Generated_Source\PSoC5/USBUART_1.c **** *******************************************************************************/
 186:Generated_Source\PSoC5/USBUART_1.c **** void USBUART_1_Start(uint8 device, uint8 mode) 
 187:Generated_Source\PSoC5/USBUART_1.c **** {
 188:Generated_Source\PSoC5/USBUART_1.c ****     if (0u == USBUART_1_initVar)
 189:Generated_Source\PSoC5/USBUART_1.c ****     {
 190:Generated_Source\PSoC5/USBUART_1.c ****         USBUART_1_Init();
 191:Generated_Source\PSoC5/USBUART_1.c ****         USBUART_1_initVar = 1u;
 192:Generated_Source\PSoC5/USBUART_1.c ****     }
 193:Generated_Source\PSoC5/USBUART_1.c **** 
 194:Generated_Source\PSoC5/USBUART_1.c ****     USBUART_1_InitComponent(device, mode);
 195:Generated_Source\PSoC5/USBUART_1.c **** }
 196:Generated_Source\PSoC5/USBUART_1.c **** 
 197:Generated_Source\PSoC5/USBUART_1.c **** 
 198:Generated_Source\PSoC5/USBUART_1.c **** /*******************************************************************************
 199:Generated_Source\PSoC5/USBUART_1.c **** * Function Name: USBUART_1_Init
 200:Generated_Source\PSoC5/USBUART_1.c **** ****************************************************************************//**
 201:Generated_Source\PSoC5/USBUART_1.c **** *
ARM GAS  C:\Users\jon\AppData\Local\Temp\ccwaPz7c.s 			page 5


 202:Generated_Source\PSoC5/USBUART_1.c **** * This function initializes or restores the component according to the
 203:Generated_Source\PSoC5/USBUART_1.c **** * customizer Configure dialog settings. It is not necessary to call
 204:Generated_Source\PSoC5/USBUART_1.c **** * USBUART_1_Init() because the USBUART_1_Start() routine calls
 205:Generated_Source\PSoC5/USBUART_1.c **** * this function and is the preferred method to begin component operation.
 206:Generated_Source\PSoC5/USBUART_1.c **** *
 207:Generated_Source\PSoC5/USBUART_1.c **** * \reentrant
 208:Generated_Source\PSoC5/USBUART_1.c **** *  No.
 209:Generated_Source\PSoC5/USBUART_1.c **** *
 210:Generated_Source\PSoC5/USBUART_1.c **** *******************************************************************************/
 211:Generated_Source\PSoC5/USBUART_1.c **** void USBUART_1_Init(void) 
 212:Generated_Source\PSoC5/USBUART_1.c **** {
  28              		.loc 1 212 0
  29              		.cfi_startproc
  30              		@ args = 0, pretend = 0, frame = 0
  31              		@ frame_needed = 0, uses_anonymous_args = 0
  32 0000 F8B5     		push	{r3, r4, r5, r6, r7, lr}
  33              		.cfi_def_cfa_offset 24
  34              		.cfi_offset 3, -24
  35              		.cfi_offset 4, -20
  36              		.cfi_offset 5, -16
  37              		.cfi_offset 6, -12
  38              		.cfi_offset 7, -8
  39              		.cfi_offset 14, -4
 213:Generated_Source\PSoC5/USBUART_1.c **** #if (CY_PSOC4)
 214:Generated_Source\PSoC5/USBUART_1.c ****     /* Enable clock to USB IP. */
 215:Generated_Source\PSoC5/USBUART_1.c ****     USBUART_1_USB_CLK_EN_REG = USBUART_1_USB_CLK_CSR_CLK_EN;
 216:Generated_Source\PSoC5/USBUART_1.c **** 
 217:Generated_Source\PSoC5/USBUART_1.c ****     /* The internal regulator (CR1.REG_ENABLE) is enabled in
 218:Generated_Source\PSoC5/USBUART_1.c ****     * USBUART_1_InitComponent() if it is required.
 219:Generated_Source\PSoC5/USBUART_1.c ****     */
 220:Generated_Source\PSoC5/USBUART_1.c **** 
 221:Generated_Source\PSoC5/USBUART_1.c ****     /* Enable USBIO control on drive mode of D+ and D- pins. */
 222:Generated_Source\PSoC5/USBUART_1.c ****     USBUART_1_USBIO_CR1_REG &= ~ (uint32) USBUART_1_USBIO_CR1_IOMODE;
 223:Generated_Source\PSoC5/USBUART_1.c **** 
 224:Generated_Source\PSoC5/USBUART_1.c ****     /* Set number of LF CLK to detect UBS bus reset. */
 225:Generated_Source\PSoC5/USBUART_1.c ****     USBUART_1_BUS_RST_CNT_REG = USBUART_1_DEFUALT_BUS_RST_CNT;
 226:Generated_Source\PSoC5/USBUART_1.c **** 
 227:Generated_Source\PSoC5/USBUART_1.c ****     /* Select VBUS detection source and clear PHY isolate. The application level
 228:Generated_Source\PSoC5/USBUART_1.c ****     * must ensure that VBUS is valid. There is no need to wait 2us before VBUS is valid.
 229:Generated_Source\PSoC5/USBUART_1.c ****     */
 230:Generated_Source\PSoC5/USBUART_1.c ****     USBUART_1_POWER_CTRL_REG = USBUART_1_DEFAULT_POWER_CTRL_VBUS;
 231:Generated_Source\PSoC5/USBUART_1.c **** 
 232:Generated_Source\PSoC5/USBUART_1.c ****     /* Enable PHY detector and single-ended and differential receivers. */
 233:Generated_Source\PSoC5/USBUART_1.c ****     USBUART_1_POWER_CTRL_REG |= USBUART_1_DEFAULT_POWER_CTRL_PHY;
 234:Generated_Source\PSoC5/USBUART_1.c **** 
 235:Generated_Source\PSoC5/USBUART_1.c ****     /* Suspend clear sequence. */
 236:Generated_Source\PSoC5/USBUART_1.c ****     USBUART_1_POWER_CTRL_REG &= (uint32) ~USBUART_1_POWER_CTRL_SUSPEND;
 237:Generated_Source\PSoC5/USBUART_1.c ****     CyDelayUs(USBUART_1_WAIT_SUSPEND_DEL_DISABLE);
 238:Generated_Source\PSoC5/USBUART_1.c ****     USBUART_1_POWER_CTRL_REG &= (uint32) ~USBUART_1_POWER_CTRL_SUSPEND_DEL;
 239:Generated_Source\PSoC5/USBUART_1.c **** 
 240:Generated_Source\PSoC5/USBUART_1.c ****     /* Sets IMO lock options and clear all other bits. */
 241:Generated_Source\PSoC5/USBUART_1.c ****     USBUART_1_CR1_REG = USBUART_1_DEFUALT_CR1;
 242:Generated_Source\PSoC5/USBUART_1.c **** 
 243:Generated_Source\PSoC5/USBUART_1.c ****     /* Configure level (hi, lo, med) for each interrupt source. */
 244:Generated_Source\PSoC5/USBUART_1.c ****     USBUART_1_INTR_LVL_SEL_REG = USBUART_1_DEFAULT_INTR_LVL_SEL;
 245:Generated_Source\PSoC5/USBUART_1.c **** 
 246:Generated_Source\PSoC5/USBUART_1.c ****     /* Configure interrupt sources from: SOF, Bus Reset and EP0. */
ARM GAS  C:\Users\jon\AppData\Local\Temp\ccwaPz7c.s 			page 6


 247:Generated_Source\PSoC5/USBUART_1.c ****     USBUART_1_INTR_SIE_MASK_REG = USBUART_1_DEFAULT_INTR_SIE_MASK;
 248:Generated_Source\PSoC5/USBUART_1.c **** 
 249:Generated_Source\PSoC5/USBUART_1.c **** #else
 250:Generated_Source\PSoC5/USBUART_1.c ****     uint8 enableInterrupts = CyEnterCriticalSection();
  40              		.loc 1 250 0
  41 0002 FFF7FEFF 		bl	CyEnterCriticalSection
  42              	.LVL0:
 251:Generated_Source\PSoC5/USBUART_1.c **** 
 252:Generated_Source\PSoC5/USBUART_1.c **** #if (USBUART_1_EP_MANAGEMENT_DMA)
 253:Generated_Source\PSoC5/USBUART_1.c ****     uint16 i;
 254:Generated_Source\PSoC5/USBUART_1.c **** #endif /* (USBUART_1_EP_MANAGEMENT_DMA) */
 255:Generated_Source\PSoC5/USBUART_1.c **** 
 256:Generated_Source\PSoC5/USBUART_1.c ****     /* Enable USB block. */
 257:Generated_Source\PSoC5/USBUART_1.c ****     USBUART_1_PM_ACT_CFG_REG |= USBUART_1_PM_ACT_EN_FSUSB;
  43              		.loc 1 257 0
  44 0006 434A     		ldr	r2, .L3
 258:Generated_Source\PSoC5/USBUART_1.c ****     /* Enable USB block for Standby Power Mode. */
 259:Generated_Source\PSoC5/USBUART_1.c ****     USBUART_1_PM_STBY_CFG_REG |= USBUART_1_PM_STBY_EN_FSUSB;
  45              		.loc 1 259 0
  46 0008 4349     		ldr	r1, .L3+4
 257:Generated_Source\PSoC5/USBUART_1.c ****     /* Enable USB block for Standby Power Mode. */
  47              		.loc 1 257 0
  48 000a 1378     		ldrb	r3, [r2]	@ zero_extendqisi2
 250:Generated_Source\PSoC5/USBUART_1.c **** 
  49              		.loc 1 250 0
  50 000c 0746     		mov	r7, r0
  51              	.LVL1:
 257:Generated_Source\PSoC5/USBUART_1.c ****     /* Enable USB block for Standby Power Mode. */
  52              		.loc 1 257 0
  53 000e 43F00103 		orr	r3, r3, #1
  54 0012 1370     		strb	r3, [r2]
  55              		.loc 1 259 0
  56 0014 0B78     		ldrb	r3, [r1]	@ zero_extendqisi2
 260:Generated_Source\PSoC5/USBUART_1.c **** 
 261:Generated_Source\PSoC5/USBUART_1.c ****     /* Enable core clock. */
 262:Generated_Source\PSoC5/USBUART_1.c ****     USBUART_1_USB_CLK_EN_REG = USBUART_1_USB_CLK_ENABLE;
  57              		.loc 1 262 0
  58 0016 414C     		ldr	r4, .L3+8
 263:Generated_Source\PSoC5/USBUART_1.c **** 
 264:Generated_Source\PSoC5/USBUART_1.c ****     USBUART_1_CR1_REG = USBUART_1_CR1_ENABLE_LOCK;
  59              		.loc 1 264 0
  60 0018 4148     		ldr	r0, .L3+12
 262:Generated_Source\PSoC5/USBUART_1.c **** 
  61              		.loc 1 262 0
  62 001a 0126     		movs	r6, #1
  63              		.loc 1 264 0
  64 001c 0225     		movs	r5, #2
 265:Generated_Source\PSoC5/USBUART_1.c **** 
 266:Generated_Source\PSoC5/USBUART_1.c ****     /* ENABLING USBIO PADS IN USB MODE FROM I/O MODE. */
 267:Generated_Source\PSoC5/USBUART_1.c ****     /* Ensure USB transmit enable is low (USB_USBIO_CR0.ten). - Manual Transmission - Disabled. */
 268:Generated_Source\PSoC5/USBUART_1.c ****     USBUART_1_USBIO_CR0_REG &= (uint8) ~USBUART_1_USBIO_CR0_TEN;
  65              		.loc 1 268 0
  66 001e 02F5E352 		add	r2, r2, #7264
 259:Generated_Source\PSoC5/USBUART_1.c **** 
  67              		.loc 1 259 0
  68 0022 43F00103 		orr	r3, r3, #1
  69 0026 0B70     		strb	r3, [r1]
ARM GAS  C:\Users\jon\AppData\Local\Temp\ccwaPz7c.s 			page 7


  70              		.loc 1 268 0
  71 0028 0B32     		adds	r2, r2, #11
 262:Generated_Source\PSoC5/USBUART_1.c **** 
  72              		.loc 1 262 0
  73 002a 2670     		strb	r6, [r4]
 264:Generated_Source\PSoC5/USBUART_1.c **** 
  74              		.loc 1 264 0
  75 002c 0570     		strb	r5, [r0]
  76              		.loc 1 268 0
  77 002e 1378     		ldrb	r3, [r2]	@ zero_extendqisi2
 269:Generated_Source\PSoC5/USBUART_1.c ****     CyDelayUs(USBUART_1_WAIT_REG_STABILITY_50NS);  /* ~50ns delay. */
 270:Generated_Source\PSoC5/USBUART_1.c ****     /* Disable USBIO by asserting PM.USB_CR0.fsusbio_pd_n(Inverted.
 271:Generated_Source\PSoC5/USBUART_1.c ****     *  high. These bits will be set low by the power manager out-of-reset.
 272:Generated_Source\PSoC5/USBUART_1.c ****     *  Also confirm USBIO pull-up is disabled.
 273:Generated_Source\PSoC5/USBUART_1.c ****     */
 274:Generated_Source\PSoC5/USBUART_1.c ****     USBUART_1_PM_USB_CR0_REG &= (uint8) ~(USBUART_1_PM_USB_CR0_PD_N |
  78              		.loc 1 274 0
  79 0030 A4F5E854 		sub	r4, r4, #7424
 268:Generated_Source\PSoC5/USBUART_1.c ****     CyDelayUs(USBUART_1_WAIT_REG_STABILITY_50NS);  /* ~50ns delay. */
  80              		.loc 1 268 0
  81 0034 03F07F03 		and	r3, r3, #127
  82              		.loc 1 274 0
  83 0038 093C     		subs	r4, r4, #9
 268:Generated_Source\PSoC5/USBUART_1.c ****     CyDelayUs(USBUART_1_WAIT_REG_STABILITY_50NS);  /* ~50ns delay. */
  84              		.loc 1 268 0
  85 003a 1370     		strb	r3, [r2]
 269:Generated_Source\PSoC5/USBUART_1.c ****     CyDelayUs(USBUART_1_WAIT_REG_STABILITY_50NS);  /* ~50ns delay. */
  86              		.loc 1 269 0
  87 003c 0020     		movs	r0, #0
  88 003e FFF7FEFF 		bl	CyDelayUs
  89              	.LVL2:
  90              		.loc 1 274 0
  91 0042 2378     		ldrb	r3, [r4]	@ zero_extendqisi2
 275:Generated_Source\PSoC5/USBUART_1.c ****                                                  USBUART_1_PM_USB_CR0_PD_PULLUP_N);
 276:Generated_Source\PSoC5/USBUART_1.c **** 
 277:Generated_Source\PSoC5/USBUART_1.c ****     /* Select IOMODE to USB mode. */
 278:Generated_Source\PSoC5/USBUART_1.c ****     USBUART_1_USBIO_CR1_REG &= (uint8) ~USBUART_1_USBIO_CR1_IOMODE;
  92              		.loc 1 278 0
  93 0044 374A     		ldr	r2, .L3+16
 274:Generated_Source\PSoC5/USBUART_1.c ****                                                  USBUART_1_PM_USB_CR0_PD_PULLUP_N);
  94              		.loc 1 274 0
  95 0046 03F0F903 		and	r3, r3, #249
  96 004a 2370     		strb	r3, [r4]
  97              		.loc 1 278 0
  98 004c 1378     		ldrb	r3, [r2]	@ zero_extendqisi2
 279:Generated_Source\PSoC5/USBUART_1.c **** 
 280:Generated_Source\PSoC5/USBUART_1.c ****     /* Enable USBIO reference by setting PM.USB_CR0.fsusbio_ref_en. */
 281:Generated_Source\PSoC5/USBUART_1.c ****     USBUART_1_PM_USB_CR0_REG |= USBUART_1_PM_USB_CR0_REF_EN;
 282:Generated_Source\PSoC5/USBUART_1.c ****     /* Reference is available for 1us after regulator is enabled. */
 283:Generated_Source\PSoC5/USBUART_1.c ****     CyDelayUs(USBUART_1_WAIT_REG_STABILITY_1US);
  99              		.loc 1 283 0
 100 004e 3046     		mov	r0, r6
 278:Generated_Source\PSoC5/USBUART_1.c **** 
 101              		.loc 1 278 0
 102 0050 03F0DF03 		and	r3, r3, #223
 103 0054 1370     		strb	r3, [r2]
 281:Generated_Source\PSoC5/USBUART_1.c ****     /* Reference is available for 1us after regulator is enabled. */
ARM GAS  C:\Users\jon\AppData\Local\Temp\ccwaPz7c.s 			page 8


 104              		.loc 1 281 0
 105 0056 2378     		ldrb	r3, [r4]	@ zero_extendqisi2
 106 0058 3343     		orrs	r3, r3, r6
 107 005a 2370     		strb	r3, [r4]
 108              		.loc 1 283 0
 109 005c FFF7FEFF 		bl	CyDelayUs
 110              	.LVL3:
 284:Generated_Source\PSoC5/USBUART_1.c ****     /* OR 40us after power is restored. */
 285:Generated_Source\PSoC5/USBUART_1.c ****     CyDelayUs(USBUART_1_WAIT_VREF_RESTORE);
 111              		.loc 1 285 0
 112 0060 2820     		movs	r0, #40
 113 0062 FFF7FEFF 		bl	CyDelayUs
 114              	.LVL4:
 286:Generated_Source\PSoC5/USBUART_1.c ****     /* Ensure single-ended disable bits are low (PRT15.INP_DIS[7:6])(input receiver enabled). */
 287:Generated_Source\PSoC5/USBUART_1.c ****     USBUART_1_DM_INP_DIS_REG &= (uint8) ~USBUART_1_DM_MASK;
 115              		.loc 1 287 0
 116 0066 304B     		ldr	r3, .L3+20
 288:Generated_Source\PSoC5/USBUART_1.c ****     USBUART_1_DP_INP_DIS_REG &= (uint8) ~USBUART_1_DP_MASK;
 289:Generated_Source\PSoC5/USBUART_1.c **** 
 290:Generated_Source\PSoC5/USBUART_1.c ****     /* Enable USBIO. */
 291:Generated_Source\PSoC5/USBUART_1.c ****     USBUART_1_PM_USB_CR0_REG |= USBUART_1_PM_USB_CR0_PD_N;
 292:Generated_Source\PSoC5/USBUART_1.c ****     CyDelayUs(USBUART_1_WAIT_PD_PULLUP_N_ENABLE);
 117              		.loc 1 292 0
 118 0068 2846     		mov	r0, r5
 287:Generated_Source\PSoC5/USBUART_1.c ****     USBUART_1_DP_INP_DIS_REG &= (uint8) ~USBUART_1_DP_MASK;
 119              		.loc 1 287 0
 120 006a 1A78     		ldrb	r2, [r3]	@ zero_extendqisi2
 121 006c 02F07F02 		and	r2, r2, #127
 122 0070 1A70     		strb	r2, [r3]
 288:Generated_Source\PSoC5/USBUART_1.c ****     USBUART_1_DP_INP_DIS_REG &= (uint8) ~USBUART_1_DP_MASK;
 123              		.loc 1 288 0
 124 0072 1A78     		ldrb	r2, [r3]	@ zero_extendqisi2
 125 0074 02F0BF02 		and	r2, r2, #191
 126 0078 1A70     		strb	r2, [r3]
 291:Generated_Source\PSoC5/USBUART_1.c ****     CyDelayUs(USBUART_1_WAIT_PD_PULLUP_N_ENABLE);
 127              		.loc 1 291 0
 128 007a 2378     		ldrb	r3, [r4]	@ zero_extendqisi2
 129 007c 2B43     		orrs	r3, r3, r5
 130 007e 2370     		strb	r3, [r4]
 131              		.loc 1 292 0
 132 0080 FFF7FEFF 		bl	CyDelayUs
 133              	.LVL5:
 293:Generated_Source\PSoC5/USBUART_1.c ****     /* Set USBIO pull-up enable. */
 294:Generated_Source\PSoC5/USBUART_1.c ****     USBUART_1_PM_USB_CR0_REG |= USBUART_1_PM_USB_CR0_PD_PULLUP_N;
 134              		.loc 1 294 0
 135 0084 2378     		ldrb	r3, [r4]	@ zero_extendqisi2
 295:Generated_Source\PSoC5/USBUART_1.c **** 
 296:Generated_Source\PSoC5/USBUART_1.c ****     /* Reset Arbiter Write Address register for endpoint 1. */
 297:Generated_Source\PSoC5/USBUART_1.c ****     CY_SET_REG8(USBUART_1_ARB_RW1_WA_PTR,     0u);
 136              		.loc 1 297 0
 137 0086 DFF8C4E0 		ldr	lr, .L3+56
 298:Generated_Source\PSoC5/USBUART_1.c ****     CY_SET_REG8(USBUART_1_ARB_RW1_WA_MSB_PTR, 0u);
 138              		.loc 1 298 0
 139 008a 2849     		ldr	r1, .L3+24
 294:Generated_Source\PSoC5/USBUART_1.c **** 
 140              		.loc 1 294 0
 141 008c 43F00403 		orr	r3, r3, #4
ARM GAS  C:\Users\jon\AppData\Local\Temp\ccwaPz7c.s 			page 9


 297:Generated_Source\PSoC5/USBUART_1.c ****     CY_SET_REG8(USBUART_1_ARB_RW1_WA_MSB_PTR, 0u);
 142              		.loc 1 297 0
 143 0090 0022     		movs	r2, #0
 294:Generated_Source\PSoC5/USBUART_1.c **** 
 144              		.loc 1 294 0
 145 0092 2370     		strb	r3, [r4]
 299:Generated_Source\PSoC5/USBUART_1.c **** 
 300:Generated_Source\PSoC5/USBUART_1.c **** #if (USBUART_1_EP_MANAGEMENT_DMA)
 301:Generated_Source\PSoC5/USBUART_1.c ****     /* Initialize transfer descriptor. This will be used to detect DMA state - initialized or not. 
 302:Generated_Source\PSoC5/USBUART_1.c ****     for (i = 0u; i < USBUART_1_MAX_EP; ++i)
 303:Generated_Source\PSoC5/USBUART_1.c ****     {
 304:Generated_Source\PSoC5/USBUART_1.c ****         USBUART_1_DmaTd[i] = DMA_INVALID_TD;
 305:Generated_Source\PSoC5/USBUART_1.c **** 
 306:Generated_Source\PSoC5/USBUART_1.c ****     #if (USBUART_1_EP_MANAGEMENT_DMA_AUTO && (USBUART_1_EP_DMA_AUTO_OPT == 0u))
 307:Generated_Source\PSoC5/USBUART_1.c ****         USBUART_1_DmaNextTd[i] = DMA_INVALID_TD;
 308:Generated_Source\PSoC5/USBUART_1.c ****     #endif /* (USBUART_1_EP_MANAGEMENT_DMA_AUTO && (USBUART_1_EP_DMA_AUTO_OPT == 0u)) */
 309:Generated_Source\PSoC5/USBUART_1.c ****     }
 310:Generated_Source\PSoC5/USBUART_1.c **** #endif /* (USBUART_1_EP_MANAGEMENT_DMA) */
 311:Generated_Source\PSoC5/USBUART_1.c **** 
 312:Generated_Source\PSoC5/USBUART_1.c ****     CyExitCriticalSection(enableInterrupts);
 146              		.loc 1 312 0
 147 0094 3846     		mov	r0, r7
 297:Generated_Source\PSoC5/USBUART_1.c ****     CY_SET_REG8(USBUART_1_ARB_RW1_WA_MSB_PTR, 0u);
 148              		.loc 1 297 0
 149 0096 8EF80020 		strb	r2, [lr]
 298:Generated_Source\PSoC5/USBUART_1.c **** 
 150              		.loc 1 298 0
 151 009a 0A70     		strb	r2, [r1]
 152              		.loc 1 312 0
 153 009c FFF7FEFF 		bl	CyExitCriticalSection
 154              	.LVL6:
 313:Generated_Source\PSoC5/USBUART_1.c **** #endif /* (CY_PSOC4) */
 314:Generated_Source\PSoC5/USBUART_1.c **** 
 315:Generated_Source\PSoC5/USBUART_1.c ****     /* Configure interrupts from USB block. */
 316:Generated_Source\PSoC5/USBUART_1.c **** #if (CY_PSOC4)
 317:Generated_Source\PSoC5/USBUART_1.c ****     /* Configure hi_int: set handler and priority. */
 318:Generated_Source\PSoC5/USBUART_1.c ****     CyIntSetPriority     (USBUART_1_INTR_HI_VECT_NUM,  USBUART_1_INTR_HI_PRIORITY);
 319:Generated_Source\PSoC5/USBUART_1.c ****     (void) CyIntSetVector(USBUART_1_INTR_HI_VECT_NUM, &USBUART_1_INTR_HI_ISR);
 320:Generated_Source\PSoC5/USBUART_1.c **** 
 321:Generated_Source\PSoC5/USBUART_1.c ****     /* Configure lo_int: set handler and priority. */
 322:Generated_Source\PSoC5/USBUART_1.c ****     CyIntSetPriority     (USBUART_1_INTR_LO_VECT_NUM,  USBUART_1_INTR_LO_PRIORITY);
 323:Generated_Source\PSoC5/USBUART_1.c ****     (void) CyIntSetVector(USBUART_1_INTR_LO_VECT_NUM, &USBUART_1_INTR_LO_ISR);
 324:Generated_Source\PSoC5/USBUART_1.c **** 
 325:Generated_Source\PSoC5/USBUART_1.c ****     /* Configure med_int: set handler and priority (routed through DSI). */
 326:Generated_Source\PSoC5/USBUART_1.c ****     CyIntSetPriority     (USBUART_1_INTR_MED_VECT_NUM,  USBUART_1_INTR_MED_PRIORITY);
 327:Generated_Source\PSoC5/USBUART_1.c ****     (void) CyIntSetVector(USBUART_1_INTR_MED_VECT_NUM, &USBUART_1_INTR_MED_ISR);
 328:Generated_Source\PSoC5/USBUART_1.c **** 
 329:Generated_Source\PSoC5/USBUART_1.c **** #else
 330:Generated_Source\PSoC5/USBUART_1.c ****     /* Set bus reset interrupt. */
 331:Generated_Source\PSoC5/USBUART_1.c ****     CyIntSetPriority(USBUART_1_BUS_RESET_VECT_NUM, USBUART_1_BUS_RESET_PRIOR);
 155              		.loc 1 331 0
 156 00a0 0721     		movs	r1, #7
 157 00a2 1720     		movs	r0, #23
 158 00a4 FFF7FEFF 		bl	CyIntSetPriority
 159              	.LVL7:
 332:Generated_Source\PSoC5/USBUART_1.c ****     (void) CyIntSetVector(USBUART_1_BUS_RESET_VECT_NUM,   &USBUART_1_BUS_RESET_ISR);
 160              		.loc 1 332 0
ARM GAS  C:\Users\jon\AppData\Local\Temp\ccwaPz7c.s 			page 10


 161 00a8 2149     		ldr	r1, .L3+28
 162 00aa 1720     		movs	r0, #23
 163 00ac FFF7FEFF 		bl	CyIntSetVector
 164              	.LVL8:
 333:Generated_Source\PSoC5/USBUART_1.c **** 
 334:Generated_Source\PSoC5/USBUART_1.c ****     /* Set Control Endpoint Interrupt. */
 335:Generated_Source\PSoC5/USBUART_1.c ****     CyIntSetPriority(USBUART_1_EP_0_VECT_NUM, USBUART_1_EP_0_PRIOR);
 165              		.loc 1 335 0
 166 00b0 0721     		movs	r1, #7
 167 00b2 1820     		movs	r0, #24
 168 00b4 FFF7FEFF 		bl	CyIntSetPriority
 169              	.LVL9:
 336:Generated_Source\PSoC5/USBUART_1.c ****     (void) CyIntSetVector(USBUART_1_EP_0_VECT_NUM,   &USBUART_1_EP_0_ISR);
 170              		.loc 1 336 0
 171 00b8 1E49     		ldr	r1, .L3+32
 172 00ba 1820     		movs	r0, #24
 173 00bc FFF7FEFF 		bl	CyIntSetVector
 174              	.LVL10:
 337:Generated_Source\PSoC5/USBUART_1.c **** 
 338:Generated_Source\PSoC5/USBUART_1.c ****     /* Set SOF interrupt. */
 339:Generated_Source\PSoC5/USBUART_1.c ****     #if (USBUART_1_SOF_ISR_ACTIVE)
 340:Generated_Source\PSoC5/USBUART_1.c ****         CyIntSetPriority     (USBUART_1_SOF_VECT_NUM,  USBUART_1_SOF_PRIOR);
 175              		.loc 1 340 0
 176 00c0 0721     		movs	r1, #7
 177 00c2 1520     		movs	r0, #21
 178 00c4 FFF7FEFF 		bl	CyIntSetPriority
 179              	.LVL11:
 341:Generated_Source\PSoC5/USBUART_1.c ****         (void) CyIntSetVector(USBUART_1_SOF_VECT_NUM, &USBUART_1_SOF_ISR);
 180              		.loc 1 341 0
 181 00c8 1B49     		ldr	r1, .L3+36
 182 00ca 1520     		movs	r0, #21
 183 00cc FFF7FEFF 		bl	CyIntSetVector
 184              	.LVL12:
 342:Generated_Source\PSoC5/USBUART_1.c ****     #endif /* (USBUART_1_SOF_ISR_ACTIVE) */
 343:Generated_Source\PSoC5/USBUART_1.c **** 
 344:Generated_Source\PSoC5/USBUART_1.c ****     /* Set Data Endpoint 1 Interrupt. */
 345:Generated_Source\PSoC5/USBUART_1.c ****     #if (USBUART_1_EP1_ISR_ACTIVE)
 346:Generated_Source\PSoC5/USBUART_1.c ****         CyIntSetPriority     (USBUART_1_EP_1_VECT_NUM,  USBUART_1_EP_1_PRIOR);
 185              		.loc 1 346 0
 186 00d0 3046     		mov	r0, r6
 187 00d2 0721     		movs	r1, #7
 188 00d4 FFF7FEFF 		bl	CyIntSetPriority
 189              	.LVL13:
 347:Generated_Source\PSoC5/USBUART_1.c ****         (void) CyIntSetVector(USBUART_1_EP_1_VECT_NUM,  &USBUART_1_EP_1_ISR);
 190              		.loc 1 347 0
 191 00d8 3046     		mov	r0, r6
 192 00da 1849     		ldr	r1, .L3+40
 193 00dc FFF7FEFF 		bl	CyIntSetVector
 194              	.LVL14:
 348:Generated_Source\PSoC5/USBUART_1.c ****     #endif /* (USBUART_1_EP1_ISR_ACTIVE) */
 349:Generated_Source\PSoC5/USBUART_1.c **** 
 350:Generated_Source\PSoC5/USBUART_1.c ****     /* Set Data Endpoint 2 Interrupt. */
 351:Generated_Source\PSoC5/USBUART_1.c ****     #if (USBUART_1_EP2_ISR_ACTIVE)
 352:Generated_Source\PSoC5/USBUART_1.c ****         CyIntSetPriority     (USBUART_1_EP_2_VECT_NUM,  USBUART_1_EP_2_PRIOR);
 195              		.loc 1 352 0
 196 00e0 2846     		mov	r0, r5
 197 00e2 0721     		movs	r1, #7
ARM GAS  C:\Users\jon\AppData\Local\Temp\ccwaPz7c.s 			page 11


 198 00e4 FFF7FEFF 		bl	CyIntSetPriority
 199              	.LVL15:
 353:Generated_Source\PSoC5/USBUART_1.c ****         (void) CyIntSetVector(USBUART_1_EP_2_VECT_NUM, &USBUART_1_EP_2_ISR);
 200              		.loc 1 353 0
 201 00e8 2846     		mov	r0, r5
 202 00ea 1549     		ldr	r1, .L3+44
 203 00ec FFF7FEFF 		bl	CyIntSetVector
 204              	.LVL16:
 354:Generated_Source\PSoC5/USBUART_1.c ****     #endif /* (USBUART_1_EP2_ISR_ACTIVE) */
 355:Generated_Source\PSoC5/USBUART_1.c **** 
 356:Generated_Source\PSoC5/USBUART_1.c ****     /* Set Data Endpoint 3 Interrupt. */
 357:Generated_Source\PSoC5/USBUART_1.c ****     #if (USBUART_1_EP3_ISR_ACTIVE)
 358:Generated_Source\PSoC5/USBUART_1.c ****         CyIntSetPriority     (USBUART_1_EP_3_VECT_NUM,  USBUART_1_EP_3_PRIOR);
 205              		.loc 1 358 0
 206 00f0 0721     		movs	r1, #7
 207 00f2 0320     		movs	r0, #3
 208 00f4 FFF7FEFF 		bl	CyIntSetPriority
 209              	.LVL17:
 359:Generated_Source\PSoC5/USBUART_1.c ****         (void) CyIntSetVector(USBUART_1_EP_3_VECT_NUM, &USBUART_1_EP_3_ISR);
 210              		.loc 1 359 0
 211 00f8 1249     		ldr	r1, .L3+48
 212 00fa 0320     		movs	r0, #3
 213 00fc FFF7FEFF 		bl	CyIntSetVector
 214              	.LVL18:
 360:Generated_Source\PSoC5/USBUART_1.c ****     #endif /* (USBUART_1_EP3_ISR_ACTIVE) */
 361:Generated_Source\PSoC5/USBUART_1.c **** 
 362:Generated_Source\PSoC5/USBUART_1.c ****     /* Set Data Endpoint 4 Interrupt. */
 363:Generated_Source\PSoC5/USBUART_1.c ****     #if (USBUART_1_EP4_ISR_ACTIVE)
 364:Generated_Source\PSoC5/USBUART_1.c ****         CyIntSetPriority     (USBUART_1_EP_4_VECT_NUM,  USBUART_1_EP_4_PRIOR);
 365:Generated_Source\PSoC5/USBUART_1.c ****         (void) CyIntSetVector(USBUART_1_EP_4_VECT_NUM, &USBUART_1_EP_4_ISR);
 366:Generated_Source\PSoC5/USBUART_1.c ****     #endif /* (USBUART_1_EP4_ISR_ACTIVE) */
 367:Generated_Source\PSoC5/USBUART_1.c **** 
 368:Generated_Source\PSoC5/USBUART_1.c ****     /* Set Data Endpoint 5 Interrupt. */
 369:Generated_Source\PSoC5/USBUART_1.c ****     #if (USBUART_1_EP5_ISR_ACTIVE)
 370:Generated_Source\PSoC5/USBUART_1.c ****         CyIntSetPriority     (USBUART_1_EP_5_VECT_NUM,  USBUART_1_EP_5_PRIOR);
 371:Generated_Source\PSoC5/USBUART_1.c ****         (void) CyIntSetVector(USBUART_1_EP_5_VECT_NUM, &USBUART_1_EP_5_ISR);
 372:Generated_Source\PSoC5/USBUART_1.c ****     #endif /* (USBUART_1_EP5_ISR_ACTIVE) */
 373:Generated_Source\PSoC5/USBUART_1.c **** 
 374:Generated_Source\PSoC5/USBUART_1.c ****     /* Set Data Endpoint 6 Interrupt. */
 375:Generated_Source\PSoC5/USBUART_1.c ****     #if (USBUART_1_EP6_ISR_ACTIVE)
 376:Generated_Source\PSoC5/USBUART_1.c ****         CyIntSetPriority     (USBUART_1_EP_6_VECT_NUM,  USBUART_1_EP_6_PRIOR);
 377:Generated_Source\PSoC5/USBUART_1.c ****         (void) CyIntSetVector(USBUART_1_EP_6_VECT_NUM, &USBUART_1_EP_6_ISR);
 378:Generated_Source\PSoC5/USBUART_1.c ****     #endif /* (USBUART_1_EP6_ISR_ACTIVE) */
 379:Generated_Source\PSoC5/USBUART_1.c **** 
 380:Generated_Source\PSoC5/USBUART_1.c ****      /* Set Data Endpoint 7 Interrupt. */
 381:Generated_Source\PSoC5/USBUART_1.c ****     #if (USBUART_1_EP7_ISR_ACTIVE)
 382:Generated_Source\PSoC5/USBUART_1.c ****         CyIntSetPriority     (USBUART_1_EP_7_VECT_NUM,  USBUART_1_EP_7_PRIOR);
 383:Generated_Source\PSoC5/USBUART_1.c ****         (void) CyIntSetVector(USBUART_1_EP_7_VECT_NUM, &USBUART_1_EP_7_ISR);
 384:Generated_Source\PSoC5/USBUART_1.c ****     #endif /* (USBUART_1_EP7_ISR_ACTIVE) */
 385:Generated_Source\PSoC5/USBUART_1.c **** 
 386:Generated_Source\PSoC5/USBUART_1.c ****     /* Set Data Endpoint 8 Interrupt. */
 387:Generated_Source\PSoC5/USBUART_1.c ****     #if (USBUART_1_EP8_ISR_ACTIVE)
 388:Generated_Source\PSoC5/USBUART_1.c ****         CyIntSetPriority     (USBUART_1_EP_8_VECT_NUM,  USBUART_1_EP_8_PRIOR);
 389:Generated_Source\PSoC5/USBUART_1.c ****         (void) CyIntSetVector(USBUART_1_EP_8_VECT_NUM, &USBUART_1_EP_8_ISR);
 390:Generated_Source\PSoC5/USBUART_1.c ****     #endif /* (USBUART_1_EP8_ISR_ACTIVE) */
 391:Generated_Source\PSoC5/USBUART_1.c **** 
 392:Generated_Source\PSoC5/USBUART_1.c ****     /* Set ARB Interrupt. */
ARM GAS  C:\Users\jon\AppData\Local\Temp\ccwaPz7c.s 			page 12


 393:Generated_Source\PSoC5/USBUART_1.c ****     #if (USBUART_1_EP_MANAGEMENT_DMA && USBUART_1_ARB_ISR_ACTIVE)
 394:Generated_Source\PSoC5/USBUART_1.c ****         CyIntSetPriority     (USBUART_1_ARB_VECT_NUM,  USBUART_1_ARB_PRIOR);
 395:Generated_Source\PSoC5/USBUART_1.c ****         (void) CyIntSetVector(USBUART_1_ARB_VECT_NUM, &USBUART_1_ARB_ISR);
 396:Generated_Source\PSoC5/USBUART_1.c ****     #endif /* (USBUART_1_EP_MANAGEMENT_DMA && USBUART_1_ARB_ISR_ACTIVE) */
 397:Generated_Source\PSoC5/USBUART_1.c **** #endif /* (CY_PSOC4) */
 398:Generated_Source\PSoC5/USBUART_1.c **** 
 399:Generated_Source\PSoC5/USBUART_1.c ****     /* Common: Configure GPIO interrupt for wakeup. */
 400:Generated_Source\PSoC5/USBUART_1.c **** #if (USBUART_1_DP_ISR_ACTIVE)
 401:Generated_Source\PSoC5/USBUART_1.c ****     CyIntSetPriority     (USBUART_1_DP_INTC_VECT_NUM,  USBUART_1_DP_INTC_PRIORITY);
 215              		.loc 1 401 0
 216 0100 0721     		movs	r1, #7
 217 0102 0C20     		movs	r0, #12
 218 0104 FFF7FEFF 		bl	CyIntSetPriority
 219              	.LVL19:
 402:Generated_Source\PSoC5/USBUART_1.c ****     (void) CyIntSetVector(USBUART_1_DP_INTC_VECT_NUM, &USBUART_1_DP_ISR);
 403:Generated_Source\PSoC5/USBUART_1.c **** #endif /* (USBUART_1_DP_ISR_ACTIVE) */
 404:Generated_Source\PSoC5/USBUART_1.c **** 
 405:Generated_Source\PSoC5/USBUART_1.c **** #if (USBUART_1_EP_MANAGEMENT_DMA && CY_PSOC4)
 406:Generated_Source\PSoC5/USBUART_1.c ****     /* Initialize DMA channels. */
 407:Generated_Source\PSoC5/USBUART_1.c ****     USBUART_1_InitEpDma();
 408:Generated_Source\PSoC5/USBUART_1.c **** #endif /* (USBUART_1_EP_MANAGEMENT_DMA && CY_PSOC4) */
 409:Generated_Source\PSoC5/USBUART_1.c **** }
 220              		.loc 1 409 0
 221 0108 BDE8F840 		pop	{r3, r4, r5, r6, r7, lr}
 222              		.cfi_restore 14
 223              		.cfi_restore 7
 224              		.cfi_restore 6
 225              		.cfi_restore 5
 226              		.cfi_restore 4
 227              		.cfi_restore 3
 228              		.cfi_def_cfa_offset 0
 229              	.LVL20:
 402:Generated_Source\PSoC5/USBUART_1.c ****     (void) CyIntSetVector(USBUART_1_DP_INTC_VECT_NUM, &USBUART_1_DP_ISR);
 230              		.loc 1 402 0
 231 010c 0E49     		ldr	r1, .L3+52
 232 010e 0C20     		movs	r0, #12
 233 0110 FFF7FEBF 		b	CyIntSetVector
 234              	.LVL21:
 235              	.L4:
 236              		.align	2
 237              	.L3:
 238 0114 A5430040 		.word	1073759141
 239 0118 B5430040 		.word	1073759157
 240 011c 9D600040 		.word	1073766557
 241 0120 09600040 		.word	1073766409
 242 0124 12600040 		.word	1073766418
 243 0128 F8510040 		.word	1073762808
 244 012c 85600040 		.word	1073766533
 245 0130 00000000 		.word	USBUART_1_BUS_RESET_ISR
 246 0134 00000000 		.word	USBUART_1_EP_0_ISR
 247 0138 00000000 		.word	USBUART_1_SOF_ISR
 248 013c 00000000 		.word	USBUART_1_EP_1_ISR
 249 0140 00000000 		.word	USBUART_1_EP_2_ISR
 250 0144 00000000 		.word	USBUART_1_EP_3_ISR
 251 0148 00000000 		.word	USBUART_1_DP_ISR
 252 014c 84600040 		.word	1073766532
 253              		.cfi_endproc
ARM GAS  C:\Users\jon\AppData\Local\Temp\ccwaPz7c.s 			page 13


 254              	.LFE1:
 255              		.size	USBUART_1_Init, .-USBUART_1_Init
 256              		.section	.text.USBUART_1_Start,"ax",%progbits
 257              		.align	2
 258              		.global	USBUART_1_Start
 259              		.thumb
 260              		.thumb_func
 261              		.type	USBUART_1_Start, %function
 262              	USBUART_1_Start:
 263              	.LFB0:
 187:Generated_Source\PSoC5/USBUART_1.c ****     if (0u == USBUART_1_initVar)
 264              		.loc 1 187 0
 265              		.cfi_startproc
 266              		@ args = 0, pretend = 0, frame = 0
 267              		@ frame_needed = 0, uses_anonymous_args = 0
 268              	.LVL22:
 269 0000 2DE9F041 		push	{r4, r5, r6, r7, r8, lr}
 270              		.cfi_def_cfa_offset 24
 271              		.cfi_offset 4, -24
 272              		.cfi_offset 5, -20
 273              		.cfi_offset 6, -16
 274              		.cfi_offset 7, -12
 275              		.cfi_offset 8, -8
 276              		.cfi_offset 14, -4
 188:Generated_Source\PSoC5/USBUART_1.c ****     {
 277              		.loc 1 188 0
 278 0004 224D     		ldr	r5, .L16
 187:Generated_Source\PSoC5/USBUART_1.c ****     if (0u == USBUART_1_initVar)
 279              		.loc 1 187 0
 280 0006 8046     		mov	r8, r0
 188:Generated_Source\PSoC5/USBUART_1.c ****     {
 281              		.loc 1 188 0
 282 0008 2B78     		ldrb	r3, [r5]	@ zero_extendqisi2
 187:Generated_Source\PSoC5/USBUART_1.c ****     if (0u == USBUART_1_initVar)
 283              		.loc 1 187 0
 284 000a 0C46     		mov	r4, r1
 188:Generated_Source\PSoC5/USBUART_1.c ****     {
 285              		.loc 1 188 0
 286 000c 1BB9     		cbnz	r3, .L6
 190:Generated_Source\PSoC5/USBUART_1.c ****         USBUART_1_initVar = 1u;
 287              		.loc 1 190 0
 288 000e FFF7FEFF 		bl	USBUART_1_Init
 289              	.LVL23:
 191:Generated_Source\PSoC5/USBUART_1.c ****     }
 290              		.loc 1 191 0
 291 0012 0123     		movs	r3, #1
 292 0014 2B70     		strb	r3, [r5]
 293              	.L6:
 294              	.LVL24:
 295              	.LBB11:
 296              	.LBB12:
 410:Generated_Source\PSoC5/USBUART_1.c **** 
 411:Generated_Source\PSoC5/USBUART_1.c **** 
 412:Generated_Source\PSoC5/USBUART_1.c **** /*******************************************************************************
 413:Generated_Source\PSoC5/USBUART_1.c **** * Function Name: USBUART_1_InitComponent
 414:Generated_Source\PSoC5/USBUART_1.c **** ****************************************************************************//**
 415:Generated_Source\PSoC5/USBUART_1.c **** *
ARM GAS  C:\Users\jon\AppData\Local\Temp\ccwaPz7c.s 			page 14


 416:Generated_Source\PSoC5/USBUART_1.c **** *   This function initializes the component’s global variables and initiates
 417:Generated_Source\PSoC5/USBUART_1.c **** *   communication with the host by pull-up D+ line.
 418:Generated_Source\PSoC5/USBUART_1.c **** *
 419:Generated_Source\PSoC5/USBUART_1.c **** * \param device:
 420:Generated_Source\PSoC5/USBUART_1.c **** *   Contains the device number of the desired device descriptor. The device
 421:Generated_Source\PSoC5/USBUART_1.c **** *   number can be found in the Device Descriptor Tab of "Configure" dialog,
 422:Generated_Source\PSoC5/USBUART_1.c **** *   under the settings of desired Device Descriptor, in the *Device Number*
 423:Generated_Source\PSoC5/USBUART_1.c **** *   field.
 424:Generated_Source\PSoC5/USBUART_1.c **** *  \param mode:
 425:Generated_Source\PSoC5/USBUART_1.c **** *   The operating voltage. This determines whether the voltage regulator
 426:Generated_Source\PSoC5/USBUART_1.c **** *   is enabled for 5V operation or if pass through mode is used for 3.3V
 427:Generated_Source\PSoC5/USBUART_1.c **** *   operation. Symbolic names and their associated values are given in the
 428:Generated_Source\PSoC5/USBUART_1.c **** *   following list.
 429:Generated_Source\PSoC5/USBUART_1.c **** *
 430:Generated_Source\PSoC5/USBUART_1.c **** *       *USBUART_1_3V_OPERATION* - Disable voltage regulator and pass-
 431:Generated_Source\PSoC5/USBUART_1.c **** *                                      through Vcc for pull-up
 432:Generated_Source\PSoC5/USBUART_1.c **** *
 433:Generated_Source\PSoC5/USBUART_1.c **** *       *USBUART_1_5V_OPERATION* - Enable voltage regulator and use
 434:Generated_Source\PSoC5/USBUART_1.c **** *                                      regulator for pull-up
 435:Generated_Source\PSoC5/USBUART_1.c **** *
 436:Generated_Source\PSoC5/USBUART_1.c **** *       *USBUART_1_DWR_POWER_OPERATION* - Enable or disable the voltage
 437:Generated_Source\PSoC5/USBUART_1.c **** *                                      regulator depending on the power supply
 438:Generated_Source\PSoC5/USBUART_1.c **** *                                      voltage configuration in the DWR tab.
 439:Generated_Source\PSoC5/USBUART_1.c **** *                                      For PSoC 3/5LP devices, the VDDD supply
 440:Generated_Source\PSoC5/USBUART_1.c **** *                                      voltage is considered and for PSoC 4A-L,
 441:Generated_Source\PSoC5/USBUART_1.c **** *                                      the VBUS supply voltage is considered.
 442:Generated_Source\PSoC5/USBUART_1.c **** *
 443:Generated_Source\PSoC5/USBUART_1.c **** * \globalvars
 444:Generated_Source\PSoC5/USBUART_1.c **** *   \ref USBUART_1_device
 445:Generated_Source\PSoC5/USBUART_1.c **** *   \ref USBUART_1_transferState
 446:Generated_Source\PSoC5/USBUART_1.c **** *   \ref USBUART_1_configuration
 447:Generated_Source\PSoC5/USBUART_1.c **** *   \ref USBUART_1_deviceStatus
 448:Generated_Source\PSoC5/USBUART_1.c **** *
 449:Generated_Source\PSoC5/USBUART_1.c **** *   \ref USBUART_1_deviceAddress - Contains the current device address. This
 450:Generated_Source\PSoC5/USBUART_1.c **** *       variable is initialized to zero in this API. The Host starts to communicate
 451:Generated_Source\PSoC5/USBUART_1.c **** *      to the device with address 0 and then sets it to a whatever value using a
 452:Generated_Source\PSoC5/USBUART_1.c **** *      SET_ADDRESS request.
 453:Generated_Source\PSoC5/USBUART_1.c **** *
 454:Generated_Source\PSoC5/USBUART_1.c **** *   \ref USBUART_1_lastPacketSize - Initialized to 0;
 455:Generated_Source\PSoC5/USBUART_1.c **** *
 456:Generated_Source\PSoC5/USBUART_1.c **** * \reentrant
 457:Generated_Source\PSoC5/USBUART_1.c **** *  No.
 458:Generated_Source\PSoC5/USBUART_1.c **** *
 459:Generated_Source\PSoC5/USBUART_1.c **** *******************************************************************************/
 460:Generated_Source\PSoC5/USBUART_1.c **** void USBUART_1_InitComponent(uint8 device, uint8 mode) 
 461:Generated_Source\PSoC5/USBUART_1.c **** {
 462:Generated_Source\PSoC5/USBUART_1.c ****     /* Initialize _hidProtocol variable to comply with
 463:Generated_Source\PSoC5/USBUART_1.c ****     *  HID 7.2.6 Set_Protocol Request:
 464:Generated_Source\PSoC5/USBUART_1.c ****     *  "When initialized, all devices default to report protocol."
 465:Generated_Source\PSoC5/USBUART_1.c ****     */
 466:Generated_Source\PSoC5/USBUART_1.c **** #if defined(USBUART_1_ENABLE_HID_CLASS)
 467:Generated_Source\PSoC5/USBUART_1.c ****     uint8 i;
 468:Generated_Source\PSoC5/USBUART_1.c **** 
 469:Generated_Source\PSoC5/USBUART_1.c ****     for (i = 0u; i < USBUART_1_MAX_INTERFACES_NUMBER; i++)
 470:Generated_Source\PSoC5/USBUART_1.c ****     {
 471:Generated_Source\PSoC5/USBUART_1.c ****         USBUART_1_hidProtocol[i] = USBUART_1_PROTOCOL_REPORT;
 472:Generated_Source\PSoC5/USBUART_1.c ****     }
ARM GAS  C:\Users\jon\AppData\Local\Temp\ccwaPz7c.s 			page 15


 473:Generated_Source\PSoC5/USBUART_1.c **** #endif /* USBUART_1_ENABLE_HID_CLASS */
 474:Generated_Source\PSoC5/USBUART_1.c **** 
 475:Generated_Source\PSoC5/USBUART_1.c ****     /* Store device number to access descriptor. */
 476:Generated_Source\PSoC5/USBUART_1.c ****     USBUART_1_device = device;
 297              		.loc 1 476 0
 298 0016 1F4B     		ldr	r3, .L16+4
 477:Generated_Source\PSoC5/USBUART_1.c **** 
 478:Generated_Source\PSoC5/USBUART_1.c ****     /* Reset component internal variables. */
 479:Generated_Source\PSoC5/USBUART_1.c ****     USBUART_1_transferState   = USBUART_1_TRANS_STATE_IDLE;
 299              		.loc 1 479 0
 300 0018 1F49     		ldr	r1, .L16+8
 476:Generated_Source\PSoC5/USBUART_1.c **** 
 301              		.loc 1 476 0
 302 001a 83F80080 		strb	r8, [r3]
 480:Generated_Source\PSoC5/USBUART_1.c ****     USBUART_1_configurationChanged = 0u;
 303              		.loc 1 480 0
 304 001e 1F4A     		ldr	r2, .L16+12
 479:Generated_Source\PSoC5/USBUART_1.c ****     USBUART_1_configurationChanged = 0u;
 305              		.loc 1 479 0
 306 0020 0023     		movs	r3, #0
 307 0022 0B70     		strb	r3, [r1]
 481:Generated_Source\PSoC5/USBUART_1.c ****     USBUART_1_configuration   = 0u;
 308              		.loc 1 481 0
 309 0024 1E4F     		ldr	r7, .L16+16
 482:Generated_Source\PSoC5/USBUART_1.c ****     USBUART_1_interfaceNumber = 0u;
 310              		.loc 1 482 0
 311 0026 1F4E     		ldr	r6, .L16+20
 483:Generated_Source\PSoC5/USBUART_1.c ****     USBUART_1_deviceAddress   = 0u;
 312              		.loc 1 483 0
 313 0028 1F4D     		ldr	r5, .L16+24
 484:Generated_Source\PSoC5/USBUART_1.c ****     USBUART_1_deviceStatus    = 0u;
 314              		.loc 1 484 0
 315 002a 2048     		ldr	r0, .L16+28
 485:Generated_Source\PSoC5/USBUART_1.c ****     USBUART_1_lastPacketSize  = 0u;
 316              		.loc 1 485 0
 317 002c 2049     		ldr	r1, .L16+32
 480:Generated_Source\PSoC5/USBUART_1.c ****     USBUART_1_configuration   = 0u;
 318              		.loc 1 480 0
 319 002e 1370     		strb	r3, [r2]
 486:Generated_Source\PSoC5/USBUART_1.c **** 
 487:Generated_Source\PSoC5/USBUART_1.c ****     /* Enable component interrupts. */
 488:Generated_Source\PSoC5/USBUART_1.c **** #if (CY_PSOC4)
 489:Generated_Source\PSoC5/USBUART_1.c ****     CyIntEnable(USBUART_1_INTR_HI_VECT_NUM);
 490:Generated_Source\PSoC5/USBUART_1.c ****     CyIntEnable(USBUART_1_INTR_MED_VECT_NUM);
 491:Generated_Source\PSoC5/USBUART_1.c ****     CyIntEnable(USBUART_1_INTR_LO_VECT_NUM);
 492:Generated_Source\PSoC5/USBUART_1.c **** #else
 493:Generated_Source\PSoC5/USBUART_1.c ****     CyIntEnable(USBUART_1_BUS_RESET_VECT_NUM);
 320              		.loc 1 493 0
 321 0030 204A     		ldr	r2, .L16+36
 481:Generated_Source\PSoC5/USBUART_1.c ****     USBUART_1_interfaceNumber = 0u;
 322              		.loc 1 481 0
 323 0032 3B70     		strb	r3, [r7]
 482:Generated_Source\PSoC5/USBUART_1.c ****     USBUART_1_deviceAddress   = 0u;
 324              		.loc 1 482 0
 325 0034 3370     		strb	r3, [r6]
 326              		.loc 1 493 0
 327 0036 4FF40007 		mov	r7, #8388608
ARM GAS  C:\Users\jon\AppData\Local\Temp\ccwaPz7c.s 			page 16


 483:Generated_Source\PSoC5/USBUART_1.c ****     USBUART_1_deviceStatus    = 0u;
 328              		.loc 1 483 0
 329 003a 2B70     		strb	r3, [r5]
 494:Generated_Source\PSoC5/USBUART_1.c ****     CyIntEnable(USBUART_1_EP_0_VECT_NUM);
 330              		.loc 1 494 0
 331 003c 4FF08076 		mov	r6, #16777216
 484:Generated_Source\PSoC5/USBUART_1.c ****     USBUART_1_lastPacketSize  = 0u;
 332              		.loc 1 484 0
 333 0040 0370     		strb	r3, [r0]
 495:Generated_Source\PSoC5/USBUART_1.c **** 
 496:Generated_Source\PSoC5/USBUART_1.c ****     #if (USBUART_1_SOF_ISR_ACTIVE)
 497:Generated_Source\PSoC5/USBUART_1.c ****         CyIntEnable(USBUART_1_SOF_VECT_NUM);
 334              		.loc 1 497 0
 335 0042 4FF40015 		mov	r5, #2097152
 485:Generated_Source\PSoC5/USBUART_1.c **** 
 336              		.loc 1 485 0
 337 0046 0B70     		strb	r3, [r1]
 498:Generated_Source\PSoC5/USBUART_1.c ****     #endif /* (USBUART_1_SOF_ISR_ACTIVE) */
 499:Generated_Source\PSoC5/USBUART_1.c **** 
 500:Generated_Source\PSoC5/USBUART_1.c ****     #if (USBUART_1_EP1_ISR_ACTIVE)
 501:Generated_Source\PSoC5/USBUART_1.c ****         CyIntEnable(USBUART_1_EP_1_VECT_NUM);
 338              		.loc 1 501 0
 339 0048 0220     		movs	r0, #2
 502:Generated_Source\PSoC5/USBUART_1.c ****     #endif /* (USBUART_1_EP1_ISR_ACTIVE) */
 503:Generated_Source\PSoC5/USBUART_1.c **** 
 504:Generated_Source\PSoC5/USBUART_1.c ****     #if (USBUART_1_EP2_ISR_ACTIVE)
 505:Generated_Source\PSoC5/USBUART_1.c ****         CyIntEnable(USBUART_1_EP_2_VECT_NUM);
 340              		.loc 1 505 0
 341 004a 0421     		movs	r1, #4
 506:Generated_Source\PSoC5/USBUART_1.c ****     #endif /* (USBUART_1_EP5_ISR_ACTIVE) */
 507:Generated_Source\PSoC5/USBUART_1.c **** 
 508:Generated_Source\PSoC5/USBUART_1.c ****     #if (USBUART_1_EP3_ISR_ACTIVE)
 509:Generated_Source\PSoC5/USBUART_1.c ****         CyIntEnable(USBUART_1_EP_3_VECT_NUM);
 342              		.loc 1 509 0
 343 004c 0823     		movs	r3, #8
 493:Generated_Source\PSoC5/USBUART_1.c ****     CyIntEnable(USBUART_1_EP_0_VECT_NUM);
 344              		.loc 1 493 0
 345 004e 1760     		str	r7, [r2]
 494:Generated_Source\PSoC5/USBUART_1.c **** 
 346              		.loc 1 494 0
 347 0050 1660     		str	r6, [r2]
 497:Generated_Source\PSoC5/USBUART_1.c ****     #endif /* (USBUART_1_SOF_ISR_ACTIVE) */
 348              		.loc 1 497 0
 349 0052 1560     		str	r5, [r2]
 501:Generated_Source\PSoC5/USBUART_1.c ****     #endif /* (USBUART_1_EP1_ISR_ACTIVE) */
 350              		.loc 1 501 0
 351 0054 1060     		str	r0, [r2]
 505:Generated_Source\PSoC5/USBUART_1.c ****     #endif /* (USBUART_1_EP5_ISR_ACTIVE) */
 352              		.loc 1 505 0
 353 0056 1160     		str	r1, [r2]
 354              		.loc 1 509 0
 355 0058 1360     		str	r3, [r2]
 510:Generated_Source\PSoC5/USBUART_1.c ****     #endif /* (USBUART_1_EP5_ISR_ACTIVE) */
 511:Generated_Source\PSoC5/USBUART_1.c **** 
 512:Generated_Source\PSoC5/USBUART_1.c ****     #if (USBUART_1_EP4_ISR_ACTIVE)
 513:Generated_Source\PSoC5/USBUART_1.c ****         CyIntEnable(USBUART_1_EP_4_VECT_NUM);
 514:Generated_Source\PSoC5/USBUART_1.c ****     #endif /* (USBUART_1_EP5_ISR_ACTIVE) */
ARM GAS  C:\Users\jon\AppData\Local\Temp\ccwaPz7c.s 			page 17


 515:Generated_Source\PSoC5/USBUART_1.c **** 
 516:Generated_Source\PSoC5/USBUART_1.c ****     #if (USBUART_1_EP5_ISR_ACTIVE)
 517:Generated_Source\PSoC5/USBUART_1.c ****         CyIntEnable(USBUART_1_EP_5_VECT_NUM);
 518:Generated_Source\PSoC5/USBUART_1.c ****     #endif /* (USBUART_1_EP5_ISR_ACTIVE) */
 519:Generated_Source\PSoC5/USBUART_1.c **** 
 520:Generated_Source\PSoC5/USBUART_1.c ****     #if (USBUART_1_EP6_ISR_ACTIVE)
 521:Generated_Source\PSoC5/USBUART_1.c ****         CyIntEnable(USBUART_1_EP_6_VECT_NUM);
 522:Generated_Source\PSoC5/USBUART_1.c ****     #endif /* USBUART_1_EP6_ISR_REMOVE */
 523:Generated_Source\PSoC5/USBUART_1.c **** 
 524:Generated_Source\PSoC5/USBUART_1.c ****     #if (USBUART_1_EP7_ISR_ACTIVE)
 525:Generated_Source\PSoC5/USBUART_1.c ****         CyIntEnable(USBUART_1_EP_7_VECT_NUM);
 526:Generated_Source\PSoC5/USBUART_1.c ****     #endif /* (USBUART_1_EP7_ISR_ACTIVE) */
 527:Generated_Source\PSoC5/USBUART_1.c **** 
 528:Generated_Source\PSoC5/USBUART_1.c ****     #if (USBUART_1_EP8_ISR_ACTIVE)
 529:Generated_Source\PSoC5/USBUART_1.c ****         CyIntEnable(USBUART_1_EP_8_VECT_NUM);
 530:Generated_Source\PSoC5/USBUART_1.c ****     #endif /* (USBUART_1_EP8_ISR_ACTIVE) */
 531:Generated_Source\PSoC5/USBUART_1.c **** #endif /* (CY_PSOC4) */
 532:Generated_Source\PSoC5/USBUART_1.c **** 
 533:Generated_Source\PSoC5/USBUART_1.c **** #if (USBUART_1_EP_MANAGEMENT_DMA && USBUART_1_ARB_ISR_ACTIVE)
 534:Generated_Source\PSoC5/USBUART_1.c ****     /* Enable ARB EP interrupt sources. */
 535:Generated_Source\PSoC5/USBUART_1.c ****     USBUART_1_ARB_INT_EN_REG = USBUART_1_DEFAULT_ARB_INT_EN;
 536:Generated_Source\PSoC5/USBUART_1.c **** 
 537:Generated_Source\PSoC5/USBUART_1.c ****     #if (CY_PSOC3 || CY_PSOC5)
 538:Generated_Source\PSoC5/USBUART_1.c ****         CyIntEnable(USBUART_1_ARB_VECT_NUM);
 539:Generated_Source\PSoC5/USBUART_1.c ****     #endif /* (CY_PSOC3 || CY_PSOC5) */
 540:Generated_Source\PSoC5/USBUART_1.c **** #endif   /* (USBUART_1_EP_MANAGEMENT_DMA && USBUART_1_ARB_ISR_ACTIVE) */
 541:Generated_Source\PSoC5/USBUART_1.c **** 
 542:Generated_Source\PSoC5/USBUART_1.c **** /* Arbiter configuration for DMA transfers. */
 543:Generated_Source\PSoC5/USBUART_1.c **** #if (USBUART_1_EP_MANAGEMENT_DMA)
 544:Generated_Source\PSoC5/USBUART_1.c ****     /* Configure Arbiter for Manual or Auto DMA operation and clear configuration completion. */
 545:Generated_Source\PSoC5/USBUART_1.c ****     USBUART_1_ARB_CFG_REG = USBUART_1_DEFAULT_ARB_CFG;
 546:Generated_Source\PSoC5/USBUART_1.c **** 
 547:Generated_Source\PSoC5/USBUART_1.c ****     #if (CY_PSOC4)
 548:Generated_Source\PSoC5/USBUART_1.c ****         /* Enable DMA operation. */
 549:Generated_Source\PSoC5/USBUART_1.c ****         CyDmaEnable();
 550:Generated_Source\PSoC5/USBUART_1.c **** 
 551:Generated_Source\PSoC5/USBUART_1.c ****         #if (USBUART_1_EP_MANAGEMENT_DMA_AUTO)
 552:Generated_Source\PSoC5/USBUART_1.c ****             /* Change DMA priority to be highest. */
 553:Generated_Source\PSoC5/USBUART_1.c ****              CyIntSetPriority(CYDMA_INTR_NUMBER, USBUART_1_DMA_AUTO_INTR_PRIO);
 554:Generated_Source\PSoC5/USBUART_1.c ****         #endif /* (USBUART_1_EP_MANAGEMENT_DMA_AUTO) */
 555:Generated_Source\PSoC5/USBUART_1.c ****     #endif /* (CY_PSOC4) */
 556:Generated_Source\PSoC5/USBUART_1.c **** 
 557:Generated_Source\PSoC5/USBUART_1.c ****     #if (USBUART_1_EP_MANAGEMENT_DMA_AUTO)
 558:Generated_Source\PSoC5/USBUART_1.c ****         #if (CY_PSOC4)
 559:Generated_Source\PSoC5/USBUART_1.c ****             /* Enable DMA interrupt to handle DMA management. */
 560:Generated_Source\PSoC5/USBUART_1.c ****             CyIntEnable(CYDMA_INTR_NUMBER);
 561:Generated_Source\PSoC5/USBUART_1.c ****         #else
 562:Generated_Source\PSoC5/USBUART_1.c ****             #if (USBUART_1_EP_DMA_AUTO_OPT == 0u)
 563:Generated_Source\PSoC5/USBUART_1.c ****                 /* Initialize interrupts which handle verification of successful DMA transaction. *
 564:Generated_Source\PSoC5/USBUART_1.c ****                 USBUART_1_EP_DMA_Done_isr_StartEx(&USBUART_1_EP_DMA_DONE_ISR);
 565:Generated_Source\PSoC5/USBUART_1.c ****                 USBUART_1_EP17_DMA_Done_SR_InterruptEnable();
 566:Generated_Source\PSoC5/USBUART_1.c ****                 USBUART_1_EP8_DMA_Done_SR_InterruptEnable();
 567:Generated_Source\PSoC5/USBUART_1.c ****             #endif /* (USBUART_1_EP_DMA_AUTO_OPT == 0u) */
 568:Generated_Source\PSoC5/USBUART_1.c ****         #endif /* (CY_PSOC4) */
 569:Generated_Source\PSoC5/USBUART_1.c ****     #endif /* (USBUART_1_EP_MANAGEMENT_DMA_AUTO) */
 570:Generated_Source\PSoC5/USBUART_1.c **** #endif /* (USBUART_1_EP_MANAGEMENT_DMA) */
 571:Generated_Source\PSoC5/USBUART_1.c **** 
ARM GAS  C:\Users\jon\AppData\Local\Temp\ccwaPz7c.s 			page 18


 572:Generated_Source\PSoC5/USBUART_1.c ****     /* Enable USB regulator depends on operation voltage. IMO Locking is enabled in Init(). */
 573:Generated_Source\PSoC5/USBUART_1.c ****     switch(mode)
 356              		.loc 1 573 0
 357 005a 94B1     		cbz	r4, .L15
 574:Generated_Source\PSoC5/USBUART_1.c ****     {
 575:Generated_Source\PSoC5/USBUART_1.c ****     case USBUART_1_3V_OPERATION:
 576:Generated_Source\PSoC5/USBUART_1.c ****         /* Disable regulator for 3V operation. */
 577:Generated_Source\PSoC5/USBUART_1.c ****         USBUART_1_CR1_REG &= (uint8) ~USBUART_1_CR1_REG_ENABLE;
 578:Generated_Source\PSoC5/USBUART_1.c ****         break;
 579:Generated_Source\PSoC5/USBUART_1.c **** 
 580:Generated_Source\PSoC5/USBUART_1.c ****     case USBUART_1_5V_OPERATION:
 581:Generated_Source\PSoC5/USBUART_1.c ****         /* Enable regulator for 5V operation. */
 582:Generated_Source\PSoC5/USBUART_1.c ****         USBUART_1_CR1_REG |= (uint8)  USBUART_1_CR1_REG_ENABLE;
 583:Generated_Source\PSoC5/USBUART_1.c ****         break;
 584:Generated_Source\PSoC5/USBUART_1.c **** 
 585:Generated_Source\PSoC5/USBUART_1.c ****     default: /* Check DWR settings of USB power supply. */
 586:Generated_Source\PSoC5/USBUART_1.c ****     #if (USBUART_1_VDDD_MV < USBUART_1_3500MV)
 587:Generated_Source\PSoC5/USBUART_1.c ****         /* Disable regulator for 3V operation. */
 588:Generated_Source\PSoC5/USBUART_1.c ****         USBUART_1_CR1_REG &= (uint8) ~USBUART_1_CR1_REG_ENABLE;
 589:Generated_Source\PSoC5/USBUART_1.c ****     #else
 590:Generated_Source\PSoC5/USBUART_1.c ****         /* Enable regulator for 5V operation. */
 591:Generated_Source\PSoC5/USBUART_1.c ****         USBUART_1_CR1_REG |= (uint8)  USBUART_1_CR1_REG_ENABLE;
 358              		.loc 1 591 0
 359 005c 164A     		ldr	r2, .L16+40
 360 005e 1378     		ldrb	r3, [r2]	@ zero_extendqisi2
 361 0060 43F00103 		orr	r3, r3, #1
 362 0064 1370     		strb	r3, [r2]
 363              	.L10:
 592:Generated_Source\PSoC5/USBUART_1.c ****     #endif /* (USBUART_1_VDDD_MV < USBUART_1_3500MV) */
 593:Generated_Source\PSoC5/USBUART_1.c ****         break;
 594:Generated_Source\PSoC5/USBUART_1.c ****     }
 595:Generated_Source\PSoC5/USBUART_1.c **** 
 596:Generated_Source\PSoC5/USBUART_1.c **** #if (CY_PSOC4)
 597:Generated_Source\PSoC5/USBUART_1.c ****     /* Clear bus activity. */
 598:Generated_Source\PSoC5/USBUART_1.c ****     USBUART_1_CR1_REG &= (uint32) ~USBUART_1_CR1_BUS_ACTIVITY;
 599:Generated_Source\PSoC5/USBUART_1.c **** 
 600:Generated_Source\PSoC5/USBUART_1.c ****     /* Clear EP0 count register. */
 601:Generated_Source\PSoC5/USBUART_1.c ****     USBUART_1_EP0_CNT_REG = USBUART_1_CLEAR_REG;
 602:Generated_Source\PSoC5/USBUART_1.c **** 
 603:Generated_Source\PSoC5/USBUART_1.c ****     /* Set EP0.CR: ACK Setup, NAK IN/OUT. */
 604:Generated_Source\PSoC5/USBUART_1.c ****     USBUART_1_EP0_CR_REG = USBUART_1_MODE_NAK_IN_OUT;
 605:Generated_Source\PSoC5/USBUART_1.c **** 
 606:Generated_Source\PSoC5/USBUART_1.c ****     #if (USBUART_1_LPM_ACTIVE)
 607:Generated_Source\PSoC5/USBUART_1.c ****         if (NULL != USBUART_1_GetBOSPtr())
 608:Generated_Source\PSoC5/USBUART_1.c ****         {
 609:Generated_Source\PSoC5/USBUART_1.c ****             /* Enable LPM and acknowledge LPM packets for active device.
 610:Generated_Source\PSoC5/USBUART_1.c ****             * Reset NYET_EN and SUB_RESP bits in the LPM_CTRL register.
 611:Generated_Source\PSoC5/USBUART_1.c ****             */
 612:Generated_Source\PSoC5/USBUART_1.c ****             USBUART_1_LPM_CTRL_REG = (USBUART_1_LPM_CTRL_LPM_EN | \
 613:Generated_Source\PSoC5/USBUART_1.c ****                                              USBUART_1_LPM_CTRL_LPM_ACK_RESP);
 614:Generated_Source\PSoC5/USBUART_1.c ****         }
 615:Generated_Source\PSoC5/USBUART_1.c ****         else
 616:Generated_Source\PSoC5/USBUART_1.c ****         {
 617:Generated_Source\PSoC5/USBUART_1.c ****             /* Disable LPM for active device. */
 618:Generated_Source\PSoC5/USBUART_1.c ****             USBUART_1_LPM_CTRL_REG &= (uint32) ~USBUART_1_LPM_CTRL_LPM_EN;
 619:Generated_Source\PSoC5/USBUART_1.c ****         }
 620:Generated_Source\PSoC5/USBUART_1.c ****     #endif /* (USBUART_1_LPM_ACTIVE) */
ARM GAS  C:\Users\jon\AppData\Local\Temp\ccwaPz7c.s 			page 19


 621:Generated_Source\PSoC5/USBUART_1.c **** 
 622:Generated_Source\PSoC5/USBUART_1.c ****     /* Enable device to responds to USB traffic with address 0. */
 623:Generated_Source\PSoC5/USBUART_1.c ****     USBUART_1_CR0_REG = USBUART_1_DEFUALT_CR0;
 624:Generated_Source\PSoC5/USBUART_1.c **** 
 625:Generated_Source\PSoC5/USBUART_1.c **** #else
 626:Generated_Source\PSoC5/USBUART_1.c ****     /* Set EP0.CR: ACK Setup, STALL IN/OUT. */
 627:Generated_Source\PSoC5/USBUART_1.c ****     USBUART_1_EP0_CR_REG = USBUART_1_MODE_STALL_IN_OUT;
 628:Generated_Source\PSoC5/USBUART_1.c **** 
 629:Generated_Source\PSoC5/USBUART_1.c ****     /* Enable device to respond to USB traffic with address 0. */
 630:Generated_Source\PSoC5/USBUART_1.c ****     USBUART_1_CR0_REG = USBUART_1_DEFUALT_CR0;
 364              		.loc 1 630 0
 365 0066 154B     		ldr	r3, .L16+44
 627:Generated_Source\PSoC5/USBUART_1.c **** 
 366              		.loc 1 627 0
 367 0068 1549     		ldr	r1, .L16+48
 368              		.loc 1 630 0
 369 006a 8022     		movs	r2, #128
 627:Generated_Source\PSoC5/USBUART_1.c **** 
 370              		.loc 1 627 0
 371 006c 0320     		movs	r0, #3
 372 006e 0870     		strb	r0, [r1]
 373              		.loc 1 630 0
 374 0070 1A70     		strb	r2, [r3]
 631:Generated_Source\PSoC5/USBUART_1.c ****     CyDelayCycles(USBUART_1_WAIT_CR0_REG_STABILITY);
 375              		.loc 1 631 0
 376 0072 0120     		movs	r0, #1
 377 0074 FFF7FEFF 		bl	CyDelayCycles
 378              	.LVL25:
 632:Generated_Source\PSoC5/USBUART_1.c **** #endif /* (CY_PSOC4) */
 633:Generated_Source\PSoC5/USBUART_1.c **** 
 634:Generated_Source\PSoC5/USBUART_1.c ****     /* Enable D+ pull-up and keep USB control on IO. */
 635:Generated_Source\PSoC5/USBUART_1.c ****     USBUART_1_USBIO_CR1_REG = USBUART_1_USBIO_CR1_USBPUEN;
 379              		.loc 1 635 0
 380 0078 124B     		ldr	r3, .L16+52
 381 007a 0422     		movs	r2, #4
 382 007c 1A70     		strb	r2, [r3]
 383              	.LVL26:
 384 007e BDE8F081 		pop	{r4, r5, r6, r7, r8, pc}
 385              	.LVL27:
 386              	.L15:
 577:Generated_Source\PSoC5/USBUART_1.c ****         break;
 387              		.loc 1 577 0
 388 0082 0D4A     		ldr	r2, .L16+40
 389 0084 1378     		ldrb	r3, [r2]	@ zero_extendqisi2
 390 0086 03F0FE03 		and	r3, r3, #254
 391 008a 1370     		strb	r3, [r2]
 392 008c EBE7     		b	.L10
 393              	.L17:
 394 008e 00BF     		.align	2
 395              	.L16:
 396 0090 00000000 		.word	.LANCHOR0
 397 0094 00000000 		.word	USBUART_1_device
 398 0098 00000000 		.word	USBUART_1_transferState
 399 009c 00000000 		.word	USBUART_1_configurationChanged
 400 00a0 00000000 		.word	USBUART_1_configuration
 401 00a4 00000000 		.word	USBUART_1_interfaceNumber
 402 00a8 00000000 		.word	USBUART_1_deviceAddress
ARM GAS  C:\Users\jon\AppData\Local\Temp\ccwaPz7c.s 			page 20


 403 00ac 00000000 		.word	USBUART_1_deviceStatus
 404 00b0 00000000 		.word	USBUART_1_lastPacketSize
 405 00b4 00E100E0 		.word	-536813312
 406 00b8 09600040 		.word	1073766409
 407 00bc 08600040 		.word	1073766408
 408 00c0 28600040 		.word	1073766440
 409 00c4 12600040 		.word	1073766418
 410              	.LBE12:
 411              	.LBE11:
 412              		.cfi_endproc
 413              	.LFE0:
 414              		.size	USBUART_1_Start, .-USBUART_1_Start
 415              		.section	.text.USBUART_1_InitComponent,"ax",%progbits
 416              		.align	2
 417              		.global	USBUART_1_InitComponent
 418              		.thumb
 419              		.thumb_func
 420              		.type	USBUART_1_InitComponent, %function
 421              	USBUART_1_InitComponent:
 422              	.LFB2:
 461:Generated_Source\PSoC5/USBUART_1.c ****     /* Initialize _hidProtocol variable to comply with
 423              		.loc 1 461 0
 424              		.cfi_startproc
 425              		@ args = 0, pretend = 0, frame = 0
 426              		@ frame_needed = 0, uses_anonymous_args = 0
 427              	.LVL28:
 428 0000 F8B5     		push	{r3, r4, r5, r6, r7, lr}
 429              		.cfi_def_cfa_offset 24
 430              		.cfi_offset 3, -24
 431              		.cfi_offset 4, -20
 432              		.cfi_offset 5, -16
 433              		.cfi_offset 6, -12
 434              		.cfi_offset 7, -8
 435              		.cfi_offset 14, -4
 476:Generated_Source\PSoC5/USBUART_1.c **** 
 436              		.loc 1 476 0
 437 0002 1E4B     		ldr	r3, .L27
 480:Generated_Source\PSoC5/USBUART_1.c ****     USBUART_1_configuration   = 0u;
 438              		.loc 1 480 0
 439 0004 1E4A     		ldr	r2, .L27+4
 479:Generated_Source\PSoC5/USBUART_1.c ****     USBUART_1_configurationChanged = 0u;
 440              		.loc 1 479 0
 441 0006 DFF8A4E0 		ldr	lr, .L27+48
 476:Generated_Source\PSoC5/USBUART_1.c **** 
 442              		.loc 1 476 0
 443 000a 1870     		strb	r0, [r3]
 481:Generated_Source\PSoC5/USBUART_1.c ****     USBUART_1_interfaceNumber = 0u;
 444              		.loc 1 481 0
 445 000c 1D4F     		ldr	r7, .L27+8
 479:Generated_Source\PSoC5/USBUART_1.c ****     USBUART_1_configurationChanged = 0u;
 446              		.loc 1 479 0
 447 000e 0023     		movs	r3, #0
 482:Generated_Source\PSoC5/USBUART_1.c ****     USBUART_1_deviceAddress   = 0u;
 448              		.loc 1 482 0
 449 0010 1D4E     		ldr	r6, .L27+12
 483:Generated_Source\PSoC5/USBUART_1.c ****     USBUART_1_deviceStatus    = 0u;
 450              		.loc 1 483 0
ARM GAS  C:\Users\jon\AppData\Local\Temp\ccwaPz7c.s 			page 21


 451 0012 1E4D     		ldr	r5, .L27+16
 484:Generated_Source\PSoC5/USBUART_1.c ****     USBUART_1_lastPacketSize  = 0u;
 452              		.loc 1 484 0
 453 0014 1E4C     		ldr	r4, .L27+20
 485:Generated_Source\PSoC5/USBUART_1.c **** 
 454              		.loc 1 485 0
 455 0016 1F48     		ldr	r0, .L27+24
 456              	.LVL29:
 479:Generated_Source\PSoC5/USBUART_1.c ****     USBUART_1_configurationChanged = 0u;
 457              		.loc 1 479 0
 458 0018 8EF80030 		strb	r3, [lr]
 459              	.LVL30:
 480:Generated_Source\PSoC5/USBUART_1.c ****     USBUART_1_configuration   = 0u;
 460              		.loc 1 480 0
 461 001c 1370     		strb	r3, [r2]
 493:Generated_Source\PSoC5/USBUART_1.c ****     CyIntEnable(USBUART_1_EP_0_VECT_NUM);
 462              		.loc 1 493 0
 463 001e 1E4A     		ldr	r2, .L27+28
 481:Generated_Source\PSoC5/USBUART_1.c ****     USBUART_1_interfaceNumber = 0u;
 464              		.loc 1 481 0
 465 0020 3B70     		strb	r3, [r7]
 482:Generated_Source\PSoC5/USBUART_1.c ****     USBUART_1_deviceAddress   = 0u;
 466              		.loc 1 482 0
 467 0022 3370     		strb	r3, [r6]
 493:Generated_Source\PSoC5/USBUART_1.c ****     CyIntEnable(USBUART_1_EP_0_VECT_NUM);
 468              		.loc 1 493 0
 469 0024 4FF40007 		mov	r7, #8388608
 483:Generated_Source\PSoC5/USBUART_1.c ****     USBUART_1_deviceStatus    = 0u;
 470              		.loc 1 483 0
 471 0028 2B70     		strb	r3, [r5]
 494:Generated_Source\PSoC5/USBUART_1.c **** 
 472              		.loc 1 494 0
 473 002a 4FF08076 		mov	r6, #16777216
 484:Generated_Source\PSoC5/USBUART_1.c ****     USBUART_1_lastPacketSize  = 0u;
 474              		.loc 1 484 0
 475 002e 2370     		strb	r3, [r4]
 497:Generated_Source\PSoC5/USBUART_1.c ****     #endif /* (USBUART_1_SOF_ISR_ACTIVE) */
 476              		.loc 1 497 0
 477 0030 4FF40015 		mov	r5, #2097152
 485:Generated_Source\PSoC5/USBUART_1.c **** 
 478              		.loc 1 485 0
 479 0034 0370     		strb	r3, [r0]
 501:Generated_Source\PSoC5/USBUART_1.c ****     #endif /* (USBUART_1_EP1_ISR_ACTIVE) */
 480              		.loc 1 501 0
 481 0036 0224     		movs	r4, #2
 505:Generated_Source\PSoC5/USBUART_1.c ****     #endif /* (USBUART_1_EP5_ISR_ACTIVE) */
 482              		.loc 1 505 0
 483 0038 0420     		movs	r0, #4
 509:Generated_Source\PSoC5/USBUART_1.c ****     #endif /* (USBUART_1_EP5_ISR_ACTIVE) */
 484              		.loc 1 509 0
 485 003a 0823     		movs	r3, #8
 493:Generated_Source\PSoC5/USBUART_1.c ****     CyIntEnable(USBUART_1_EP_0_VECT_NUM);
 486              		.loc 1 493 0
 487 003c 1760     		str	r7, [r2]
 494:Generated_Source\PSoC5/USBUART_1.c **** 
 488              		.loc 1 494 0
 489 003e 1660     		str	r6, [r2]
ARM GAS  C:\Users\jon\AppData\Local\Temp\ccwaPz7c.s 			page 22


 497:Generated_Source\PSoC5/USBUART_1.c ****     #endif /* (USBUART_1_SOF_ISR_ACTIVE) */
 490              		.loc 1 497 0
 491 0040 1560     		str	r5, [r2]
 501:Generated_Source\PSoC5/USBUART_1.c ****     #endif /* (USBUART_1_EP1_ISR_ACTIVE) */
 492              		.loc 1 501 0
 493 0042 1460     		str	r4, [r2]
 505:Generated_Source\PSoC5/USBUART_1.c ****     #endif /* (USBUART_1_EP5_ISR_ACTIVE) */
 494              		.loc 1 505 0
 495 0044 1060     		str	r0, [r2]
 509:Generated_Source\PSoC5/USBUART_1.c ****     #endif /* (USBUART_1_EP5_ISR_ACTIVE) */
 496              		.loc 1 509 0
 497 0046 1360     		str	r3, [r2]
 573:Generated_Source\PSoC5/USBUART_1.c ****     {
 498              		.loc 1 573 0
 499 0048 89B1     		cbz	r1, .L26
 591:Generated_Source\PSoC5/USBUART_1.c ****     #endif /* (USBUART_1_VDDD_MV < USBUART_1_3500MV) */
 500              		.loc 1 591 0
 501 004a 144A     		ldr	r2, .L27+32
 502 004c 1378     		ldrb	r3, [r2]	@ zero_extendqisi2
 503 004e 43F00103 		orr	r3, r3, #1
 504 0052 1370     		strb	r3, [r2]
 505              	.L22:
 630:Generated_Source\PSoC5/USBUART_1.c ****     CyDelayCycles(USBUART_1_WAIT_CR0_REG_STABILITY);
 506              		.loc 1 630 0
 507 0054 124B     		ldr	r3, .L27+36
 627:Generated_Source\PSoC5/USBUART_1.c **** 
 508              		.loc 1 627 0
 509 0056 1349     		ldr	r1, .L27+40
 510              	.LVL31:
 630:Generated_Source\PSoC5/USBUART_1.c ****     CyDelayCycles(USBUART_1_WAIT_CR0_REG_STABILITY);
 511              		.loc 1 630 0
 512 0058 8022     		movs	r2, #128
 627:Generated_Source\PSoC5/USBUART_1.c **** 
 513              		.loc 1 627 0
 514 005a 0320     		movs	r0, #3
 515 005c 0870     		strb	r0, [r1]
 630:Generated_Source\PSoC5/USBUART_1.c ****     CyDelayCycles(USBUART_1_WAIT_CR0_REG_STABILITY);
 516              		.loc 1 630 0
 517 005e 1A70     		strb	r2, [r3]
 631:Generated_Source\PSoC5/USBUART_1.c **** #endif /* (CY_PSOC4) */
 518              		.loc 1 631 0
 519 0060 0120     		movs	r0, #1
 520 0062 FFF7FEFF 		bl	CyDelayCycles
 521              	.LVL32:
 522              		.loc 1 635 0
 523 0066 104B     		ldr	r3, .L27+44
 524 0068 0422     		movs	r2, #4
 525 006a 1A70     		strb	r2, [r3]
 526 006c F8BD     		pop	{r3, r4, r5, r6, r7, pc}
 527              	.LVL33:
 528              	.L26:
 577:Generated_Source\PSoC5/USBUART_1.c ****         break;
 529              		.loc 1 577 0
 530 006e 0B4A     		ldr	r2, .L27+32
 531 0070 1378     		ldrb	r3, [r2]	@ zero_extendqisi2
 532 0072 03F0FE03 		and	r3, r3, #254
 533 0076 1370     		strb	r3, [r2]
ARM GAS  C:\Users\jon\AppData\Local\Temp\ccwaPz7c.s 			page 23


 578:Generated_Source\PSoC5/USBUART_1.c **** 
 534              		.loc 1 578 0
 535 0078 ECE7     		b	.L22
 536              	.L28:
 537 007a 00BF     		.align	2
 538              	.L27:
 539 007c 00000000 		.word	USBUART_1_device
 540 0080 00000000 		.word	USBUART_1_configurationChanged
 541 0084 00000000 		.word	USBUART_1_configuration
 542 0088 00000000 		.word	USBUART_1_interfaceNumber
 543 008c 00000000 		.word	USBUART_1_deviceAddress
 544 0090 00000000 		.word	USBUART_1_deviceStatus
 545 0094 00000000 		.word	USBUART_1_lastPacketSize
 546 0098 00E100E0 		.word	-536813312
 547 009c 09600040 		.word	1073766409
 548 00a0 08600040 		.word	1073766408
 549 00a4 28600040 		.word	1073766440
 550 00a8 12600040 		.word	1073766418
 551 00ac 00000000 		.word	USBUART_1_transferState
 552              		.cfi_endproc
 553              	.LFE2:
 554              		.size	USBUART_1_InitComponent, .-USBUART_1_InitComponent
 555              		.section	.text.USBUART_1_ReInitComponent,"ax",%progbits
 556              		.align	2
 557              		.global	USBUART_1_ReInitComponent
 558              		.thumb
 559              		.thumb_func
 560              		.type	USBUART_1_ReInitComponent, %function
 561              	USBUART_1_ReInitComponent:
 562              	.LFB3:
 636:Generated_Source\PSoC5/USBUART_1.c **** }
 637:Generated_Source\PSoC5/USBUART_1.c **** 
 638:Generated_Source\PSoC5/USBUART_1.c **** 
 639:Generated_Source\PSoC5/USBUART_1.c **** /*******************************************************************************
 640:Generated_Source\PSoC5/USBUART_1.c **** * Function Name: USBUART_1_ReInitComponent
 641:Generated_Source\PSoC5/USBUART_1.c **** ****************************************************************************//**
 642:Generated_Source\PSoC5/USBUART_1.c **** *
 643:Generated_Source\PSoC5/USBUART_1.c **** *  This function reinitialize the component configuration and is
 644:Generated_Source\PSoC5/USBUART_1.c **** *  intend to be called from the Reset interrupt.
 645:Generated_Source\PSoC5/USBUART_1.c **** *
 646:Generated_Source\PSoC5/USBUART_1.c **** * \globalvars
 647:Generated_Source\PSoC5/USBUART_1.c **** *   USBUART_1_device - Contains the device number of the desired Device
 648:Generated_Source\PSoC5/USBUART_1.c **** *        Descriptor. The device number can be found in the Device Descriptor tab
 649:Generated_Source\PSoC5/USBUART_1.c **** *       of the Configure dialog, under the settings of the desired Device Descriptor,
 650:Generated_Source\PSoC5/USBUART_1.c **** *       in the Device Number field.
 651:Generated_Source\PSoC5/USBUART_1.c **** *   USBUART_1_transferState - This variable is used by the communication
 652:Generated_Source\PSoC5/USBUART_1.c **** *       functions to handle the current transfer state. Initialized to
 653:Generated_Source\PSoC5/USBUART_1.c **** *       TRANS_STATE_IDLE in this API.
 654:Generated_Source\PSoC5/USBUART_1.c **** *   USBUART_1_configuration - Contains the current configuration number
 655:Generated_Source\PSoC5/USBUART_1.c **** *       set by the Host using a SET_CONFIGURATION request.
 656:Generated_Source\PSoC5/USBUART_1.c **** *       Initialized to zero in this API.
 657:Generated_Source\PSoC5/USBUART_1.c **** *   USBUART_1_deviceAddress - Contains the current device address. This
 658:Generated_Source\PSoC5/USBUART_1.c **** *       variable is initialized to zero in this API. The Host starts to communicate
 659:Generated_Source\PSoC5/USBUART_1.c **** *      to the device with address 0 and then sets it to a whatever value using
 660:Generated_Source\PSoC5/USBUART_1.c **** *      a SET_ADDRESS request.
 661:Generated_Source\PSoC5/USBUART_1.c **** *   USBUART_1_deviceStatus - Initialized to 0.
 662:Generated_Source\PSoC5/USBUART_1.c **** *       This is a two-bit variable which contains the power status in the first bit
ARM GAS  C:\Users\jon\AppData\Local\Temp\ccwaPz7c.s 			page 24


 663:Generated_Source\PSoC5/USBUART_1.c **** *       (DEVICE_STATUS_BUS_POWERED or DEVICE_STATUS_SELF_POWERED) and the remote
 664:Generated_Source\PSoC5/USBUART_1.c **** *       wakeup status (DEVICE_STATUS_REMOTE_WAKEUP) in the second bit.
 665:Generated_Source\PSoC5/USBUART_1.c **** *   USBUART_1_lastPacketSize - Initialized to 0;
 666:Generated_Source\PSoC5/USBUART_1.c **** *
 667:Generated_Source\PSoC5/USBUART_1.c **** * \reentrant
 668:Generated_Source\PSoC5/USBUART_1.c **** *  No.
 669:Generated_Source\PSoC5/USBUART_1.c **** *
 670:Generated_Source\PSoC5/USBUART_1.c **** *******************************************************************************/
 671:Generated_Source\PSoC5/USBUART_1.c **** void USBUART_1_ReInitComponent(void) 
 672:Generated_Source\PSoC5/USBUART_1.c **** {
 563              		.loc 1 672 0
 564              		.cfi_startproc
 565              		@ args = 0, pretend = 0, frame = 0
 566              		@ frame_needed = 0, uses_anonymous_args = 0
 567              		@ link register save eliminated.
 568 0000 F0B4     		push	{r4, r5, r6, r7}
 569              		.cfi_def_cfa_offset 16
 570              		.cfi_offset 4, -16
 571              		.cfi_offset 5, -12
 572              		.cfi_offset 6, -8
 573              		.cfi_offset 7, -4
 673:Generated_Source\PSoC5/USBUART_1.c ****     /* Initialize _hidProtocol variable to comply with HID 7.2.6 Set_Protocol
 674:Generated_Source\PSoC5/USBUART_1.c ****     *  Request: "When initialized, all devices default to report protocol."
 675:Generated_Source\PSoC5/USBUART_1.c ****     */
 676:Generated_Source\PSoC5/USBUART_1.c **** #if defined(USBUART_1_ENABLE_HID_CLASS)
 677:Generated_Source\PSoC5/USBUART_1.c ****     uint8 i;
 678:Generated_Source\PSoC5/USBUART_1.c **** 
 679:Generated_Source\PSoC5/USBUART_1.c ****     for (i = 0u; i < USBUART_1_MAX_INTERFACES_NUMBER; i++)
 680:Generated_Source\PSoC5/USBUART_1.c ****     {
 681:Generated_Source\PSoC5/USBUART_1.c ****         USBUART_1_hidProtocol[i] = USBUART_1_PROTOCOL_REPORT;
 682:Generated_Source\PSoC5/USBUART_1.c ****     }
 683:Generated_Source\PSoC5/USBUART_1.c **** #endif /* USBUART_1_ENABLE_HID_CLASS */
 684:Generated_Source\PSoC5/USBUART_1.c **** 
 685:Generated_Source\PSoC5/USBUART_1.c ****     /* Reset component internal variables. */
 686:Generated_Source\PSoC5/USBUART_1.c ****     USBUART_1_transferState   = USBUART_1_TRANS_STATE_IDLE;
 574              		.loc 1 686 0
 575 0002 0B48     		ldr	r0, .L31
 687:Generated_Source\PSoC5/USBUART_1.c ****     USBUART_1_configurationChanged = 0u;
 576              		.loc 1 687 0
 577 0004 0B4A     		ldr	r2, .L31+4
 686:Generated_Source\PSoC5/USBUART_1.c ****     USBUART_1_configurationChanged = 0u;
 578              		.loc 1 686 0
 579 0006 0023     		movs	r3, #0
 688:Generated_Source\PSoC5/USBUART_1.c ****     USBUART_1_configuration   = 0u;
 580              		.loc 1 688 0
 581 0008 0B4C     		ldr	r4, .L31+8
 689:Generated_Source\PSoC5/USBUART_1.c ****     USBUART_1_interfaceNumber = 0u;
 582              		.loc 1 689 0
 583 000a 0C49     		ldr	r1, .L31+12
 686:Generated_Source\PSoC5/USBUART_1.c ****     USBUART_1_configurationChanged = 0u;
 584              		.loc 1 686 0
 585 000c 0370     		strb	r3, [r0]
 690:Generated_Source\PSoC5/USBUART_1.c ****     USBUART_1_deviceAddress   = 0u;
 586              		.loc 1 690 0
 587 000e 0C4F     		ldr	r7, .L31+16
 687:Generated_Source\PSoC5/USBUART_1.c ****     USBUART_1_configuration   = 0u;
 588              		.loc 1 687 0
ARM GAS  C:\Users\jon\AppData\Local\Temp\ccwaPz7c.s 			page 25


 589 0010 1370     		strb	r3, [r2]
 691:Generated_Source\PSoC5/USBUART_1.c ****     USBUART_1_deviceStatus    = 0u;
 590              		.loc 1 691 0
 591 0012 0C4E     		ldr	r6, .L31+20
 692:Generated_Source\PSoC5/USBUART_1.c ****     USBUART_1_lastPacketSize  = 0u;
 592              		.loc 1 692 0
 593 0014 0C4D     		ldr	r5, .L31+24
 693:Generated_Source\PSoC5/USBUART_1.c **** 
 694:Generated_Source\PSoC5/USBUART_1.c **** #if (CY_PSOC4)
 695:Generated_Source\PSoC5/USBUART_1.c ****     /* Set EP0.CR: ACK Setup, NAK IN/OUT. */
 696:Generated_Source\PSoC5/USBUART_1.c ****     USBUART_1_EP0_CR_REG = USBUART_1_MODE_NAK_IN_OUT;
 697:Generated_Source\PSoC5/USBUART_1.c **** #else
 698:Generated_Source\PSoC5/USBUART_1.c ****     /* Set EP0.CR: ACK Setup, STALL IN/OUT. */
 699:Generated_Source\PSoC5/USBUART_1.c ****     USBUART_1_EP0_CR_REG = USBUART_1_MODE_STALL_IN_OUT;
 594              		.loc 1 699 0
 595 0016 0D48     		ldr	r0, .L31+28
 700:Generated_Source\PSoC5/USBUART_1.c **** #endif /* (CY_PSOC4) */
 701:Generated_Source\PSoC5/USBUART_1.c **** 
 702:Generated_Source\PSoC5/USBUART_1.c ****     /* Enable device to respond to USB traffic with address 0. */
 703:Generated_Source\PSoC5/USBUART_1.c ****     USBUART_1_CR0_REG = USBUART_1_DEFUALT_CR0;
 596              		.loc 1 703 0
 597 0018 0D4A     		ldr	r2, .L31+32
 688:Generated_Source\PSoC5/USBUART_1.c ****     USBUART_1_interfaceNumber = 0u;
 598              		.loc 1 688 0
 599 001a 2370     		strb	r3, [r4]
 689:Generated_Source\PSoC5/USBUART_1.c ****     USBUART_1_deviceAddress   = 0u;
 600              		.loc 1 689 0
 601 001c 0B70     		strb	r3, [r1]
 699:Generated_Source\PSoC5/USBUART_1.c **** #endif /* (CY_PSOC4) */
 602              		.loc 1 699 0
 603 001e 0324     		movs	r4, #3
 604              		.loc 1 703 0
 605 0020 8021     		movs	r1, #128
 690:Generated_Source\PSoC5/USBUART_1.c ****     USBUART_1_deviceStatus    = 0u;
 606              		.loc 1 690 0
 607 0022 3B70     		strb	r3, [r7]
 691:Generated_Source\PSoC5/USBUART_1.c ****     USBUART_1_lastPacketSize  = 0u;
 608              		.loc 1 691 0
 609 0024 3370     		strb	r3, [r6]
 692:Generated_Source\PSoC5/USBUART_1.c **** 
 610              		.loc 1 692 0
 611 0026 2B70     		strb	r3, [r5]
 699:Generated_Source\PSoC5/USBUART_1.c **** #endif /* (CY_PSOC4) */
 612              		.loc 1 699 0
 613 0028 0470     		strb	r4, [r0]
 614              		.loc 1 703 0
 615 002a 1170     		strb	r1, [r2]
 704:Generated_Source\PSoC5/USBUART_1.c **** }
 616              		.loc 1 704 0
 617 002c F0BC     		pop	{r4, r5, r6, r7}
 618              		.cfi_restore 7
 619              		.cfi_restore 6
 620              		.cfi_restore 5
 621              		.cfi_restore 4
 622              		.cfi_def_cfa_offset 0
 623 002e 7047     		bx	lr
 624              	.L32:
ARM GAS  C:\Users\jon\AppData\Local\Temp\ccwaPz7c.s 			page 26


 625              		.align	2
 626              	.L31:
 627 0030 00000000 		.word	USBUART_1_transferState
 628 0034 00000000 		.word	USBUART_1_configurationChanged
 629 0038 00000000 		.word	USBUART_1_configuration
 630 003c 00000000 		.word	USBUART_1_interfaceNumber
 631 0040 00000000 		.word	USBUART_1_deviceAddress
 632 0044 00000000 		.word	USBUART_1_deviceStatus
 633 0048 00000000 		.word	USBUART_1_lastPacketSize
 634 004c 28600040 		.word	1073766440
 635 0050 08600040 		.word	1073766408
 636              		.cfi_endproc
 637              	.LFE3:
 638              		.size	USBUART_1_ReInitComponent, .-USBUART_1_ReInitComponent
 639              		.section	.text.USBUART_1_Stop,"ax",%progbits
 640              		.align	2
 641              		.global	USBUART_1_Stop
 642              		.thumb
 643              		.thumb_func
 644              		.type	USBUART_1_Stop, %function
 645              	USBUART_1_Stop:
 646              	.LFB4:
 705:Generated_Source\PSoC5/USBUART_1.c **** 
 706:Generated_Source\PSoC5/USBUART_1.c **** 
 707:Generated_Source\PSoC5/USBUART_1.c **** /*******************************************************************************
 708:Generated_Source\PSoC5/USBUART_1.c **** * Function Name: USBUART_1_Stop
 709:Generated_Source\PSoC5/USBUART_1.c **** ****************************************************************************//**
 710:Generated_Source\PSoC5/USBUART_1.c **** *
 711:Generated_Source\PSoC5/USBUART_1.c **** *  This function shuts down the USB function including to release
 712:Generated_Source\PSoC5/USBUART_1.c **** *  the D+ pull-up and disabling the SIE.
 713:Generated_Source\PSoC5/USBUART_1.c **** *
 714:Generated_Source\PSoC5/USBUART_1.c **** * \globalvars
 715:Generated_Source\PSoC5/USBUART_1.c **** *   \ref USBUART_1_configuration
 716:Generated_Source\PSoC5/USBUART_1.c **** *
 717:Generated_Source\PSoC5/USBUART_1.c **** *   USBUART_1_deviceAddress - Contains the current device address. This
 718:Generated_Source\PSoC5/USBUART_1.c **** *       variable is initialized to zero in this API. The Host starts to communicate
 719:Generated_Source\PSoC5/USBUART_1.c **** *      to the device with address 0 and then sets it to a whatever value using
 720:Generated_Source\PSoC5/USBUART_1.c **** *      a SET_ADDRESS request.
 721:Generated_Source\PSoC5/USBUART_1.c **** *
 722:Generated_Source\PSoC5/USBUART_1.c **** *   \ref USBUART_1_deviceStatus
 723:Generated_Source\PSoC5/USBUART_1.c **** *
 724:Generated_Source\PSoC5/USBUART_1.c **** *   \ref USBUART_1_configurationChanged
 725:Generated_Source\PSoC5/USBUART_1.c **** *
 726:Generated_Source\PSoC5/USBUART_1.c **** *   USBUART_1_intiVar -  This variable is set to zero
 727:Generated_Source\PSoC5/USBUART_1.c **** *
 728:Generated_Source\PSoC5/USBUART_1.c **** *******************************************************************************/
 729:Generated_Source\PSoC5/USBUART_1.c **** void USBUART_1_Stop(void) 
 730:Generated_Source\PSoC5/USBUART_1.c **** {
 647              		.loc 1 730 0
 648              		.cfi_startproc
 649              		@ args = 0, pretend = 0, frame = 0
 650              		@ frame_needed = 0, uses_anonymous_args = 0
 651 0000 F8B5     		push	{r3, r4, r5, r6, r7, lr}
 652              		.cfi_def_cfa_offset 24
 653              		.cfi_offset 3, -24
 654              		.cfi_offset 4, -20
 655              		.cfi_offset 5, -16
ARM GAS  C:\Users\jon\AppData\Local\Temp\ccwaPz7c.s 			page 27


 656              		.cfi_offset 6, -12
 657              		.cfi_offset 7, -8
 658              		.cfi_offset 14, -4
 731:Generated_Source\PSoC5/USBUART_1.c ****     uint8 enableInterrupts;
 732:Generated_Source\PSoC5/USBUART_1.c **** 
 733:Generated_Source\PSoC5/USBUART_1.c **** #if (USBUART_1_EP_MANAGEMENT_DMA)
 734:Generated_Source\PSoC5/USBUART_1.c ****     /* Stop all DMA channels. */
 735:Generated_Source\PSoC5/USBUART_1.c ****     USBUART_1_Stop_DMA(USBUART_1_MAX_EP);
 736:Generated_Source\PSoC5/USBUART_1.c **** #endif /* (USBUART_1_EP_MANAGEMENT_DMA) */
 737:Generated_Source\PSoC5/USBUART_1.c **** 
 738:Generated_Source\PSoC5/USBUART_1.c ****     enableInterrupts = CyEnterCriticalSection();
 659              		.loc 1 738 0
 660 0002 FFF7FEFF 		bl	CyEnterCriticalSection
 661              	.LVL34:
 739:Generated_Source\PSoC5/USBUART_1.c **** 
 740:Generated_Source\PSoC5/USBUART_1.c ****     /* Disable USB IP to respond to USB traffic. */
 741:Generated_Source\PSoC5/USBUART_1.c ****     USBUART_1_CR0_REG &= (uint8) ~USBUART_1_CR0_ENABLE;
 662              		.loc 1 741 0
 663 0006 2249     		ldr	r1, .L35
 742:Generated_Source\PSoC5/USBUART_1.c **** 
 743:Generated_Source\PSoC5/USBUART_1.c ****     /* Disable D+ pull-up. */
 744:Generated_Source\PSoC5/USBUART_1.c ****     USBUART_1_USBIO_CR1_REG &= (uint8) ~ USBUART_1_USBIO_CR1_USBPUEN;
 664              		.loc 1 744 0
 665 0008 224A     		ldr	r2, .L35+4
 741:Generated_Source\PSoC5/USBUART_1.c **** 
 666              		.loc 1 741 0
 667 000a 0B78     		ldrb	r3, [r1]	@ zero_extendqisi2
 745:Generated_Source\PSoC5/USBUART_1.c **** 
 746:Generated_Source\PSoC5/USBUART_1.c **** #if (CY_PSOC4)
 747:Generated_Source\PSoC5/USBUART_1.c ****     /* Disable USBFS block. */
 748:Generated_Source\PSoC5/USBUART_1.c ****     USBUART_1_POWER_CTRL_REG &= (uint32) ~USBUART_1_POWER_CTRL_ENABLE;
 749:Generated_Source\PSoC5/USBUART_1.c **** #else
 750:Generated_Source\PSoC5/USBUART_1.c ****     /* Clear power active and standby mode templates. */
 751:Generated_Source\PSoC5/USBUART_1.c ****     USBUART_1_PM_ACT_CFG_REG  &= (uint8) ~USBUART_1_PM_ACT_EN_FSUSB;
 668              		.loc 1 751 0
 669 000c 224C     		ldr	r4, .L35+8
 741:Generated_Source\PSoC5/USBUART_1.c **** 
 670              		.loc 1 741 0
 671 000e 03F07F03 		and	r3, r3, #127
 672 0012 0B70     		strb	r3, [r1]
 744:Generated_Source\PSoC5/USBUART_1.c **** 
 673              		.loc 1 744 0
 674 0014 1378     		ldrb	r3, [r2]	@ zero_extendqisi2
 752:Generated_Source\PSoC5/USBUART_1.c ****     USBUART_1_PM_STBY_CFG_REG &= (uint8) ~USBUART_1_PM_STBY_EN_FSUSB;
 675              		.loc 1 752 0
 676 0016 A1F5E251 		sub	r1, r1, #7232
 744:Generated_Source\PSoC5/USBUART_1.c **** 
 677              		.loc 1 744 0
 678 001a 03F0FB03 		and	r3, r3, #251
 679 001e 1370     		strb	r3, [r2]
 751:Generated_Source\PSoC5/USBUART_1.c ****     USBUART_1_PM_STBY_CFG_REG &= (uint8) ~USBUART_1_PM_STBY_EN_FSUSB;
 680              		.loc 1 751 0
 681 0020 2278     		ldrb	r2, [r4]	@ zero_extendqisi2
 682              		.loc 1 752 0
 683 0022 1339     		subs	r1, r1, #19
 751:Generated_Source\PSoC5/USBUART_1.c ****     USBUART_1_PM_STBY_CFG_REG &= (uint8) ~USBUART_1_PM_STBY_EN_FSUSB;
 684              		.loc 1 751 0
ARM GAS  C:\Users\jon\AppData\Local\Temp\ccwaPz7c.s 			page 28


 685 0024 02F0FE02 		and	r2, r2, #254
 686 0028 2270     		strb	r2, [r4]
 687              		.loc 1 752 0
 688 002a 0A78     		ldrb	r2, [r1]	@ zero_extendqisi2
 753:Generated_Source\PSoC5/USBUART_1.c **** 
 754:Generated_Source\PSoC5/USBUART_1.c ****     /* Ensure single-ended disable bits are high (PRT15.INP_DIS[7:6])
 755:Generated_Source\PSoC5/USBUART_1.c ****      * (input receiver disabled). */
 756:Generated_Source\PSoC5/USBUART_1.c ****     USBUART_1_DM_INP_DIS_REG |= (uint8) USBUART_1_DM_MASK;
 689              		.loc 1 756 0
 690 002c 1B4B     		ldr	r3, .L35+12
 752:Generated_Source\PSoC5/USBUART_1.c **** 
 691              		.loc 1 752 0
 692 002e 02F0FE02 		and	r2, r2, #254
 693 0032 0A70     		strb	r2, [r1]
 694              		.loc 1 756 0
 695 0034 1A78     		ldrb	r2, [r3]	@ zero_extendqisi2
 757:Generated_Source\PSoC5/USBUART_1.c ****     USBUART_1_DP_INP_DIS_REG |= (uint8) USBUART_1_DP_MASK;
 758:Generated_Source\PSoC5/USBUART_1.c **** 
 759:Generated_Source\PSoC5/USBUART_1.c **** #endif /* (CY_PSOC4) */
 760:Generated_Source\PSoC5/USBUART_1.c **** 
 761:Generated_Source\PSoC5/USBUART_1.c ****     CyExitCriticalSection(enableInterrupts);
 762:Generated_Source\PSoC5/USBUART_1.c **** 
 763:Generated_Source\PSoC5/USBUART_1.c ****     /* Disable component interrupts. */
 764:Generated_Source\PSoC5/USBUART_1.c **** #if (CY_PSOC4)
 765:Generated_Source\PSoC5/USBUART_1.c ****     CyIntDisable(USBUART_1_INTR_HI_VECT_NUM);
 766:Generated_Source\PSoC5/USBUART_1.c ****     CyIntDisable(USBUART_1_INTR_LO_VECT_NUM);
 767:Generated_Source\PSoC5/USBUART_1.c ****     CyIntDisable(USBUART_1_INTR_MED_VECT_NUM);
 768:Generated_Source\PSoC5/USBUART_1.c **** #else
 769:Generated_Source\PSoC5/USBUART_1.c **** 
 770:Generated_Source\PSoC5/USBUART_1.c ****     CyIntDisable(USBUART_1_BUS_RESET_VECT_NUM);
 696              		.loc 1 770 0
 697 0036 4FF40006 		mov	r6, #8388608
 756:Generated_Source\PSoC5/USBUART_1.c ****     USBUART_1_DP_INP_DIS_REG |= (uint8) USBUART_1_DP_MASK;
 698              		.loc 1 756 0
 699 003a 42F08002 		orr	r2, r2, #128
 700 003e 1A70     		strb	r2, [r3]
 757:Generated_Source\PSoC5/USBUART_1.c ****     USBUART_1_DP_INP_DIS_REG |= (uint8) USBUART_1_DP_MASK;
 701              		.loc 1 757 0
 702 0040 1A78     		ldrb	r2, [r3]	@ zero_extendqisi2
 771:Generated_Source\PSoC5/USBUART_1.c ****     CyIntDisable(USBUART_1_EP_0_VECT_NUM);
 703              		.loc 1 771 0
 704 0042 4FF08075 		mov	r5, #16777216
 757:Generated_Source\PSoC5/USBUART_1.c ****     USBUART_1_DP_INP_DIS_REG |= (uint8) USBUART_1_DP_MASK;
 705              		.loc 1 757 0
 706 0046 42F04002 		orr	r2, r2, #64
 707 004a 1A70     		strb	r2, [r3]
 761:Generated_Source\PSoC5/USBUART_1.c **** 
 708              		.loc 1 761 0
 709 004c FFF7FEFF 		bl	CyExitCriticalSection
 710              	.LVL35:
 770:Generated_Source\PSoC5/USBUART_1.c ****     CyIntDisable(USBUART_1_EP_0_VECT_NUM);
 711              		.loc 1 770 0
 712 0050 134B     		ldr	r3, .L35+16
 772:Generated_Source\PSoC5/USBUART_1.c **** 
 773:Generated_Source\PSoC5/USBUART_1.c ****     #if (USBUART_1_SOF_ISR_ACTIVE)
 774:Generated_Source\PSoC5/USBUART_1.c ****         CyIntDisable(USBUART_1_SOF_VECT_NUM);
 775:Generated_Source\PSoC5/USBUART_1.c ****     #endif /* (USBUART_1_SOF_ISR_ACTIVE) */
ARM GAS  C:\Users\jon\AppData\Local\Temp\ccwaPz7c.s 			page 29


 776:Generated_Source\PSoC5/USBUART_1.c **** 
 777:Generated_Source\PSoC5/USBUART_1.c ****     #if (USBUART_1_EP1_ISR_ACTIVE)
 778:Generated_Source\PSoC5/USBUART_1.c ****         CyIntDisable(USBUART_1_EP_1_VECT_NUM);
 779:Generated_Source\PSoC5/USBUART_1.c ****     #endif /* (USBUART_1_EP1_ISR_ACTIVE) */
 780:Generated_Source\PSoC5/USBUART_1.c **** 
 781:Generated_Source\PSoC5/USBUART_1.c ****     #if (USBUART_1_EP2_ISR_ACTIVE)
 782:Generated_Source\PSoC5/USBUART_1.c ****         CyIntDisable(USBUART_1_EP_2_VECT_NUM);
 713              		.loc 1 782 0
 714 0052 0421     		movs	r1, #4
 783:Generated_Source\PSoC5/USBUART_1.c ****     #endif /* (USBUART_1_EP2_ISR_ACTIVE) */
 784:Generated_Source\PSoC5/USBUART_1.c **** 
 785:Generated_Source\PSoC5/USBUART_1.c ****     #if (USBUART_1_EP3_ISR_ACTIVE)
 786:Generated_Source\PSoC5/USBUART_1.c ****         CyIntDisable(USBUART_1_EP_3_VECT_NUM);
 715              		.loc 1 786 0
 716 0054 0822     		movs	r2, #8
 774:Generated_Source\PSoC5/USBUART_1.c ****     #endif /* (USBUART_1_SOF_ISR_ACTIVE) */
 717              		.loc 1 774 0
 718 0056 4FF40014 		mov	r4, #2097152
 778:Generated_Source\PSoC5/USBUART_1.c ****     #endif /* (USBUART_1_EP1_ISR_ACTIVE) */
 719              		.loc 1 778 0
 720 005a 0220     		movs	r0, #2
 770:Generated_Source\PSoC5/USBUART_1.c ****     CyIntDisable(USBUART_1_EP_0_VECT_NUM);
 721              		.loc 1 770 0
 722 005c 1E60     		str	r6, [r3]
 771:Generated_Source\PSoC5/USBUART_1.c **** 
 723              		.loc 1 771 0
 724 005e 1D60     		str	r5, [r3]
 774:Generated_Source\PSoC5/USBUART_1.c ****     #endif /* (USBUART_1_SOF_ISR_ACTIVE) */
 725              		.loc 1 774 0
 726 0060 1C60     		str	r4, [r3]
 778:Generated_Source\PSoC5/USBUART_1.c ****     #endif /* (USBUART_1_EP1_ISR_ACTIVE) */
 727              		.loc 1 778 0
 728 0062 1860     		str	r0, [r3]
 782:Generated_Source\PSoC5/USBUART_1.c ****     #endif /* (USBUART_1_EP2_ISR_ACTIVE) */
 729              		.loc 1 782 0
 730 0064 1960     		str	r1, [r3]
 731              		.loc 1 786 0
 732 0066 1A60     		str	r2, [r3]
 787:Generated_Source\PSoC5/USBUART_1.c ****     #endif /* (USBUART_1_EP3_ISR_ACTIVE) */
 788:Generated_Source\PSoC5/USBUART_1.c **** 
 789:Generated_Source\PSoC5/USBUART_1.c ****     #if (USBUART_1_EP4_ISR_ACTIVE)
 790:Generated_Source\PSoC5/USBUART_1.c ****         CyIntDisable(USBUART_1_EP_4_VECT_NUM);
 791:Generated_Source\PSoC5/USBUART_1.c ****     #endif /* (USBUART_1_EP4_ISR_ACTIVE) */
 792:Generated_Source\PSoC5/USBUART_1.c **** 
 793:Generated_Source\PSoC5/USBUART_1.c ****     #if (USBUART_1_EP5_ISR_ACTIVE)
 794:Generated_Source\PSoC5/USBUART_1.c ****         CyIntDisable(USBUART_1_EP_5_VECT_NUM);
 795:Generated_Source\PSoC5/USBUART_1.c ****     #endif /* (USBUART_1_EP5_ISR_ACTIVE) */
 796:Generated_Source\PSoC5/USBUART_1.c **** 
 797:Generated_Source\PSoC5/USBUART_1.c ****     #if (USBUART_1_EP6_ISR_ACTIVE)
 798:Generated_Source\PSoC5/USBUART_1.c ****         CyIntDisable(USBUART_1_EP_6_VECT_NUM);
 799:Generated_Source\PSoC5/USBUART_1.c ****     #endif /* USBUART_1_EP6_ISR_REMOVE */
 800:Generated_Source\PSoC5/USBUART_1.c **** 
 801:Generated_Source\PSoC5/USBUART_1.c ****     #if (USBUART_1_EP7_ISR_ACTIVE)
 802:Generated_Source\PSoC5/USBUART_1.c ****         CyIntDisable(USBUART_1_EP_7_VECT_NUM);
 803:Generated_Source\PSoC5/USBUART_1.c ****     #endif /* (USBUART_1_EP7_ISR_ACTIVE) */
 804:Generated_Source\PSoC5/USBUART_1.c **** 
 805:Generated_Source\PSoC5/USBUART_1.c ****     #if (USBUART_1_EP8_ISR_ACTIVE)
ARM GAS  C:\Users\jon\AppData\Local\Temp\ccwaPz7c.s 			page 30


 806:Generated_Source\PSoC5/USBUART_1.c ****         CyIntDisable(USBUART_1_EP_8_VECT_NUM);
 807:Generated_Source\PSoC5/USBUART_1.c ****     #endif /* (USBUART_1_EP8_ISR_ACTIVE) */
 808:Generated_Source\PSoC5/USBUART_1.c **** 
 809:Generated_Source\PSoC5/USBUART_1.c ****     #if (USBUART_1_DP_ISR_ACTIVE)
 810:Generated_Source\PSoC5/USBUART_1.c ****         /* Clear active mode Dp interrupt source history. */
 811:Generated_Source\PSoC5/USBUART_1.c ****         (void) USBUART_1_Dp_ClearInterrupt();
 733              		.loc 1 811 0
 734 0068 FFF7FEFF 		bl	USBUART_1_Dp_ClearInterrupt
 735              	.LVL36:
 812:Generated_Source\PSoC5/USBUART_1.c ****         CyIntClearPending(USBUART_1_DP_INTC_VECT_NUM);
 736              		.loc 1 812 0
 737 006c 0D4B     		ldr	r3, .L35+20
 813:Generated_Source\PSoC5/USBUART_1.c ****     #endif /* (USBUART_1_DP_ISR_ACTIVE). */
 814:Generated_Source\PSoC5/USBUART_1.c **** 
 815:Generated_Source\PSoC5/USBUART_1.c **** #endif /* (CY_PSOC4) */
 816:Generated_Source\PSoC5/USBUART_1.c **** 
 817:Generated_Source\PSoC5/USBUART_1.c ****     /* Reset component internal variables. */
 818:Generated_Source\PSoC5/USBUART_1.c ****     USBUART_1_configurationChanged = 0u;
 738              		.loc 1 818 0
 739 006e 0E4E     		ldr	r6, .L35+24
 819:Generated_Source\PSoC5/USBUART_1.c ****     USBUART_1_configuration   = 0u;
 740              		.loc 1 819 0
 741 0070 0E4C     		ldr	r4, .L35+28
 820:Generated_Source\PSoC5/USBUART_1.c ****     USBUART_1_interfaceNumber = 0u;
 742              		.loc 1 820 0
 743 0072 0F48     		ldr	r0, .L35+32
 821:Generated_Source\PSoC5/USBUART_1.c ****     USBUART_1_deviceAddress   = 0u;
 744              		.loc 1 821 0
 745 0074 0F49     		ldr	r1, .L35+36
 822:Generated_Source\PSoC5/USBUART_1.c ****     USBUART_1_deviceStatus    = 0u;
 746              		.loc 1 822 0
 747 0076 104A     		ldr	r2, .L35+40
 823:Generated_Source\PSoC5/USBUART_1.c **** 
 824:Generated_Source\PSoC5/USBUART_1.c ****     /* It is mandatory for correct device startup. */
 825:Generated_Source\PSoC5/USBUART_1.c ****     USBUART_1_initVar = 0u;
 748              		.loc 1 825 0
 749 0078 104D     		ldr	r5, .L35+44
 812:Generated_Source\PSoC5/USBUART_1.c ****     #endif /* (USBUART_1_DP_ISR_ACTIVE). */
 750              		.loc 1 812 0
 751 007a 4FF48057 		mov	r7, #4096
 752 007e 1F60     		str	r7, [r3]
 818:Generated_Source\PSoC5/USBUART_1.c ****     USBUART_1_configuration   = 0u;
 753              		.loc 1 818 0
 754 0080 0023     		movs	r3, #0
 755 0082 3370     		strb	r3, [r6]
 756              		.loc 1 825 0
 757 0084 2B70     		strb	r3, [r5]
 819:Generated_Source\PSoC5/USBUART_1.c ****     USBUART_1_interfaceNumber = 0u;
 758              		.loc 1 819 0
 759 0086 2370     		strb	r3, [r4]
 820:Generated_Source\PSoC5/USBUART_1.c ****     USBUART_1_deviceAddress   = 0u;
 760              		.loc 1 820 0
 761 0088 0370     		strb	r3, [r0]
 821:Generated_Source\PSoC5/USBUART_1.c ****     USBUART_1_deviceStatus    = 0u;
 762              		.loc 1 821 0
 763 008a 0B70     		strb	r3, [r1]
 822:Generated_Source\PSoC5/USBUART_1.c **** 
ARM GAS  C:\Users\jon\AppData\Local\Temp\ccwaPz7c.s 			page 31


 764              		.loc 1 822 0
 765 008c 1370     		strb	r3, [r2]
 766 008e F8BD     		pop	{r3, r4, r5, r6, r7, pc}
 767              	.L36:
 768              		.align	2
 769              	.L35:
 770 0090 08600040 		.word	1073766408
 771 0094 12600040 		.word	1073766418
 772 0098 A5430040 		.word	1073759141
 773 009c F8510040 		.word	1073762808
 774 00a0 80E100E0 		.word	-536813184
 775 00a4 80E200E0 		.word	-536812928
 776 00a8 00000000 		.word	USBUART_1_configurationChanged
 777 00ac 00000000 		.word	USBUART_1_configuration
 778 00b0 00000000 		.word	USBUART_1_interfaceNumber
 779 00b4 00000000 		.word	USBUART_1_deviceAddress
 780 00b8 00000000 		.word	USBUART_1_deviceStatus
 781 00bc 00000000 		.word	.LANCHOR0
 782              		.cfi_endproc
 783              	.LFE4:
 784              		.size	USBUART_1_Stop, .-USBUART_1_Stop
 785              		.section	.text.USBUART_1_CheckActivity,"ax",%progbits
 786              		.align	2
 787              		.global	USBUART_1_CheckActivity
 788              		.thumb
 789              		.thumb_func
 790              		.type	USBUART_1_CheckActivity, %function
 791              	USBUART_1_CheckActivity:
 792              	.LFB5:
 826:Generated_Source\PSoC5/USBUART_1.c **** }
 827:Generated_Source\PSoC5/USBUART_1.c **** 
 828:Generated_Source\PSoC5/USBUART_1.c **** 
 829:Generated_Source\PSoC5/USBUART_1.c **** /*******************************************************************************
 830:Generated_Source\PSoC5/USBUART_1.c **** * Function Name: USBUART_1_CheckActivity
 831:Generated_Source\PSoC5/USBUART_1.c **** ****************************************************************************//**
 832:Generated_Source\PSoC5/USBUART_1.c **** *
 833:Generated_Source\PSoC5/USBUART_1.c **** *  This function returns the activity status of the bus. It clears the hardware
 834:Generated_Source\PSoC5/USBUART_1.c **** *  status to provide updated status on the next call of this function. It
 835:Generated_Source\PSoC5/USBUART_1.c **** *  provides a way to determine whether any USB bus activity occurred. The
 836:Generated_Source\PSoC5/USBUART_1.c **** *  application should use this function to determine if the USB suspend
 837:Generated_Source\PSoC5/USBUART_1.c **** *  conditions are met.
 838:Generated_Source\PSoC5/USBUART_1.c **** *
 839:Generated_Source\PSoC5/USBUART_1.c **** *
 840:Generated_Source\PSoC5/USBUART_1.c **** * \return
 841:Generated_Source\PSoC5/USBUART_1.c **** *  cystatus: Status of the bus since the last call of the function.
 842:Generated_Source\PSoC5/USBUART_1.c **** *  Return Value |   Description
 843:Generated_Source\PSoC5/USBUART_1.c **** *  -------------|---------------------------------------------------------------
 844:Generated_Source\PSoC5/USBUART_1.c **** *  1            |Bus activity was detected since the last call to this function
 845:Generated_Source\PSoC5/USBUART_1.c **** *  0            |Bus activity was not detected since the last call to this function
 846:Generated_Source\PSoC5/USBUART_1.c **** *
 847:Generated_Source\PSoC5/USBUART_1.c **** *
 848:Generated_Source\PSoC5/USBUART_1.c **** *******************************************************************************/
 849:Generated_Source\PSoC5/USBUART_1.c **** uint8 USBUART_1_CheckActivity(void) 
 850:Generated_Source\PSoC5/USBUART_1.c **** {
 793              		.loc 1 850 0
 794              		.cfi_startproc
 795              		@ args = 0, pretend = 0, frame = 0
ARM GAS  C:\Users\jon\AppData\Local\Temp\ccwaPz7c.s 			page 32


 796              		@ frame_needed = 0, uses_anonymous_args = 0
 797              		@ link register save eliminated.
 851:Generated_Source\PSoC5/USBUART_1.c ****     uint8 cr1Reg = USBUART_1_CR1_REG;
 798              		.loc 1 851 0
 799 0000 044B     		ldr	r3, .L38
 800 0002 1878     		ldrb	r0, [r3]	@ zero_extendqisi2
 801 0004 C0B2     		uxtb	r0, r0
 802              	.LVL37:
 852:Generated_Source\PSoC5/USBUART_1.c **** 
 853:Generated_Source\PSoC5/USBUART_1.c ****     /* Clear bus activity. */
 854:Generated_Source\PSoC5/USBUART_1.c ****     USBUART_1_CR1_REG = (cr1Reg & (uint8) ~USBUART_1_CR1_BUS_ACTIVITY);
 803              		.loc 1 854 0
 804 0006 00F0FB02 		and	r2, r0, #251
 805 000a 1A70     		strb	r2, [r3]
 855:Generated_Source\PSoC5/USBUART_1.c **** 
 856:Generated_Source\PSoC5/USBUART_1.c ****     /* Get bus activity. */
 857:Generated_Source\PSoC5/USBUART_1.c ****     return ((0u != (cr1Reg & USBUART_1_CR1_BUS_ACTIVITY)) ? (1u) : (0u));
 858:Generated_Source\PSoC5/USBUART_1.c **** }
 806              		.loc 1 858 0
 807 000c C0F38000 		ubfx	r0, r0, #2, #1
 808              	.LVL38:
 809 0010 7047     		bx	lr
 810              	.L39:
 811 0012 00BF     		.align	2
 812              	.L38:
 813 0014 09600040 		.word	1073766409
 814              		.cfi_endproc
 815              	.LFE5:
 816              		.size	USBUART_1_CheckActivity, .-USBUART_1_CheckActivity
 817              		.section	.text.USBUART_1_GetConfiguration,"ax",%progbits
 818              		.align	2
 819              		.global	USBUART_1_GetConfiguration
 820              		.thumb
 821              		.thumb_func
 822              		.type	USBUART_1_GetConfiguration, %function
 823              	USBUART_1_GetConfiguration:
 824              	.LFB6:
 859:Generated_Source\PSoC5/USBUART_1.c **** 
 860:Generated_Source\PSoC5/USBUART_1.c **** 
 861:Generated_Source\PSoC5/USBUART_1.c **** /*******************************************************************************
 862:Generated_Source\PSoC5/USBUART_1.c **** * Function Name: USBUART_1_GetConfiguration
 863:Generated_Source\PSoC5/USBUART_1.c **** ****************************************************************************//**
 864:Generated_Source\PSoC5/USBUART_1.c **** *
 865:Generated_Source\PSoC5/USBUART_1.c **** *  This function gets the current configuration of the USB device.
 866:Generated_Source\PSoC5/USBUART_1.c **** *
 867:Generated_Source\PSoC5/USBUART_1.c **** * \return
 868:Generated_Source\PSoC5/USBUART_1.c **** *  Returns the currently assigned configuration. Returns 0 if the device
 869:Generated_Source\PSoC5/USBUART_1.c **** *  is not configured
 870:Generated_Source\PSoC5/USBUART_1.c **** *
 871:Generated_Source\PSoC5/USBUART_1.c **** *******************************************************************************/
 872:Generated_Source\PSoC5/USBUART_1.c **** uint8 USBUART_1_GetConfiguration(void) 
 873:Generated_Source\PSoC5/USBUART_1.c **** {
 825              		.loc 1 873 0
 826              		.cfi_startproc
 827              		@ args = 0, pretend = 0, frame = 0
 828              		@ frame_needed = 0, uses_anonymous_args = 0
 829              		@ link register save eliminated.
ARM GAS  C:\Users\jon\AppData\Local\Temp\ccwaPz7c.s 			page 33


 874:Generated_Source\PSoC5/USBUART_1.c ****     return (USBUART_1_configuration);
 830              		.loc 1 874 0
 831 0000 014B     		ldr	r3, .L41
 832 0002 1878     		ldrb	r0, [r3]	@ zero_extendqisi2
 875:Generated_Source\PSoC5/USBUART_1.c **** }
 833              		.loc 1 875 0
 834 0004 7047     		bx	lr
 835              	.L42:
 836 0006 00BF     		.align	2
 837              	.L41:
 838 0008 00000000 		.word	USBUART_1_configuration
 839              		.cfi_endproc
 840              	.LFE6:
 841              		.size	USBUART_1_GetConfiguration, .-USBUART_1_GetConfiguration
 842              		.section	.text.USBUART_1_IsConfigurationChanged,"ax",%progbits
 843              		.align	2
 844              		.global	USBUART_1_IsConfigurationChanged
 845              		.thumb
 846              		.thumb_func
 847              		.type	USBUART_1_IsConfigurationChanged, %function
 848              	USBUART_1_IsConfigurationChanged:
 849              	.LFB7:
 876:Generated_Source\PSoC5/USBUART_1.c **** 
 877:Generated_Source\PSoC5/USBUART_1.c **** 
 878:Generated_Source\PSoC5/USBUART_1.c **** /*******************************************************************************
 879:Generated_Source\PSoC5/USBUART_1.c **** * Function Name: USBUART_1_IsConfigurationChanged
 880:Generated_Source\PSoC5/USBUART_1.c **** ****************************************************************************//**
 881:Generated_Source\PSoC5/USBUART_1.c **** *
 882:Generated_Source\PSoC5/USBUART_1.c **** *  This function returns the clear-on-read configuration state.  It is useful
 883:Generated_Source\PSoC5/USBUART_1.c **** *  when the host sends double SET_CONFIGURATION request with the same 
 884:Generated_Source\PSoC5/USBUART_1.c **** *  configuration number or changes alternate settings of the interface. 
 885:Generated_Source\PSoC5/USBUART_1.c **** *  After configuration has been changed the OUT endpoints must be enabled and IN 
 886:Generated_Source\PSoC5/USBUART_1.c **** *  endpoint must be loaded with data to start communication with the host.
 887:Generated_Source\PSoC5/USBUART_1.c **** *
 888:Generated_Source\PSoC5/USBUART_1.c **** * \return
 889:Generated_Source\PSoC5/USBUART_1.c **** *  None-zero value when new configuration has been changed, otherwise zero is
 890:Generated_Source\PSoC5/USBUART_1.c **** *  returned.
 891:Generated_Source\PSoC5/USBUART_1.c **** *
 892:Generated_Source\PSoC5/USBUART_1.c **** * \globalvars
 893:Generated_Source\PSoC5/USBUART_1.c **** *
 894:Generated_Source\PSoC5/USBUART_1.c **** *  \ref USBUART_1_configurationChanged - This variable is set to 1 after
 895:Generated_Source\PSoC5/USBUART_1.c **** *   a SET_CONFIGURATION request and cleared in this function.
 896:Generated_Source\PSoC5/USBUART_1.c **** *
 897:Generated_Source\PSoC5/USBUART_1.c **** *******************************************************************************/
 898:Generated_Source\PSoC5/USBUART_1.c **** uint8 USBUART_1_IsConfigurationChanged(void) 
 899:Generated_Source\PSoC5/USBUART_1.c **** {
 850              		.loc 1 899 0
 851              		.cfi_startproc
 852              		@ args = 0, pretend = 0, frame = 0
 853              		@ frame_needed = 0, uses_anonymous_args = 0
 854              		@ link register save eliminated.
 855              	.LVL39:
 900:Generated_Source\PSoC5/USBUART_1.c ****     uint8 res = 0u;
 901:Generated_Source\PSoC5/USBUART_1.c **** 
 902:Generated_Source\PSoC5/USBUART_1.c ****     if (USBUART_1_configurationChanged != 0u)
 856              		.loc 1 902 0
 857 0000 044B     		ldr	r3, .L46
ARM GAS  C:\Users\jon\AppData\Local\Temp\ccwaPz7c.s 			page 34


 858 0002 1A78     		ldrb	r2, [r3]	@ zero_extendqisi2
 859 0004 02F0FF00 		and	r0, r2, #255
 860 0008 1AB1     		cbz	r2, .L44
 903:Generated_Source\PSoC5/USBUART_1.c ****     {
 904:Generated_Source\PSoC5/USBUART_1.c ****         res = USBUART_1_configurationChanged;
 861              		.loc 1 904 0
 862 000a 1878     		ldrb	r0, [r3]	@ zero_extendqisi2
 905:Generated_Source\PSoC5/USBUART_1.c ****         USBUART_1_configurationChanged = 0u;
 863              		.loc 1 905 0
 864 000c 0022     		movs	r2, #0
 904:Generated_Source\PSoC5/USBUART_1.c ****         USBUART_1_configurationChanged = 0u;
 865              		.loc 1 904 0
 866 000e C0B2     		uxtb	r0, r0
 867              	.LVL40:
 868              		.loc 1 905 0
 869 0010 1A70     		strb	r2, [r3]
 870              	.LVL41:
 871              	.L44:
 906:Generated_Source\PSoC5/USBUART_1.c ****     }
 907:Generated_Source\PSoC5/USBUART_1.c **** 
 908:Generated_Source\PSoC5/USBUART_1.c ****     return (res);
 909:Generated_Source\PSoC5/USBUART_1.c **** }
 872              		.loc 1 909 0
 873 0012 7047     		bx	lr
 874              	.L47:
 875              		.align	2
 876              	.L46:
 877 0014 00000000 		.word	USBUART_1_configurationChanged
 878              		.cfi_endproc
 879              	.LFE7:
 880              		.size	USBUART_1_IsConfigurationChanged, .-USBUART_1_IsConfigurationChanged
 881              		.section	.text.USBUART_1_GetInterfaceSetting,"ax",%progbits
 882              		.align	2
 883              		.global	USBUART_1_GetInterfaceSetting
 884              		.thumb
 885              		.thumb_func
 886              		.type	USBUART_1_GetInterfaceSetting, %function
 887              	USBUART_1_GetInterfaceSetting:
 888              	.LFB8:
 910:Generated_Source\PSoC5/USBUART_1.c **** 
 911:Generated_Source\PSoC5/USBUART_1.c **** 
 912:Generated_Source\PSoC5/USBUART_1.c **** /*******************************************************************************
 913:Generated_Source\PSoC5/USBUART_1.c **** * Function Name: USBUART_1_GetInterfaceSetting
 914:Generated_Source\PSoC5/USBUART_1.c **** ****************************************************************************//**
 915:Generated_Source\PSoC5/USBUART_1.c **** *
 916:Generated_Source\PSoC5/USBUART_1.c **** *  This function gets the current alternate setting for the specified interface.
 917:Generated_Source\PSoC5/USBUART_1.c **** *  It is useful to identify which alternate settings are active in the specified 
 918:Generated_Source\PSoC5/USBUART_1.c **** *  interface.
 919:Generated_Source\PSoC5/USBUART_1.c **** *
 920:Generated_Source\PSoC5/USBUART_1.c **** *  \param
 921:Generated_Source\PSoC5/USBUART_1.c **** *  interfaceNumber interface number
 922:Generated_Source\PSoC5/USBUART_1.c **** *
 923:Generated_Source\PSoC5/USBUART_1.c **** * \return
 924:Generated_Source\PSoC5/USBUART_1.c **** *  Returns the current alternate setting for the specified interface.
 925:Generated_Source\PSoC5/USBUART_1.c **** *
 926:Generated_Source\PSoC5/USBUART_1.c **** *******************************************************************************/
 927:Generated_Source\PSoC5/USBUART_1.c **** uint8  USBUART_1_GetInterfaceSetting(uint8 interfaceNumber)
ARM GAS  C:\Users\jon\AppData\Local\Temp\ccwaPz7c.s 			page 35


 928:Generated_Source\PSoC5/USBUART_1.c ****                                                     
 929:Generated_Source\PSoC5/USBUART_1.c **** {
 889              		.loc 1 929 0
 890              		.cfi_startproc
 891              		@ args = 0, pretend = 0, frame = 0
 892              		@ frame_needed = 0, uses_anonymous_args = 0
 893              		@ link register save eliminated.
 894              	.LVL42:
 930:Generated_Source\PSoC5/USBUART_1.c ****     return (USBUART_1_interfaceSetting[interfaceNumber]);
 895              		.loc 1 930 0
 896 0000 014B     		ldr	r3, .L49
 897 0002 185C     		ldrb	r0, [r3, r0]	@ zero_extendqisi2
 898              	.LVL43:
 931:Generated_Source\PSoC5/USBUART_1.c **** }
 899              		.loc 1 931 0
 900 0004 7047     		bx	lr
 901              	.L50:
 902 0006 00BF     		.align	2
 903              	.L49:
 904 0008 00000000 		.word	USBUART_1_interfaceSetting
 905              		.cfi_endproc
 906              	.LFE8:
 907              		.size	USBUART_1_GetInterfaceSetting, .-USBUART_1_GetInterfaceSetting
 908              		.section	.text.USBUART_1_GetEPState,"ax",%progbits
 909              		.align	2
 910              		.global	USBUART_1_GetEPState
 911              		.thumb
 912              		.thumb_func
 913              		.type	USBUART_1_GetEPState, %function
 914              	USBUART_1_GetEPState:
 915              	.LFB9:
 932:Generated_Source\PSoC5/USBUART_1.c **** 
 933:Generated_Source\PSoC5/USBUART_1.c **** 
 934:Generated_Source\PSoC5/USBUART_1.c **** /*******************************************************************************
 935:Generated_Source\PSoC5/USBUART_1.c **** * Function Name: USBUART_1_GetEPState
 936:Generated_Source\PSoC5/USBUART_1.c **** ****************************************************************************//**
 937:Generated_Source\PSoC5/USBUART_1.c **** *
 938:Generated_Source\PSoC5/USBUART_1.c **** *  This function returns the state of the requested endpoint.
 939:Generated_Source\PSoC5/USBUART_1.c **** *
 940:Generated_Source\PSoC5/USBUART_1.c **** * \param epNumber Data endpoint number
 941:Generated_Source\PSoC5/USBUART_1.c **** *
 942:Generated_Source\PSoC5/USBUART_1.c **** * \return
 943:Generated_Source\PSoC5/USBUART_1.c **** *  Returns the current state of the specified USBFS endpoint. Symbolic names and
 944:Generated_Source\PSoC5/USBUART_1.c **** *  their associated values are given in the following table. Use these constants
 945:Generated_Source\PSoC5/USBUART_1.c **** *  whenever you write code to change the state of the endpoints, such as ISR
 946:Generated_Source\PSoC5/USBUART_1.c **** *  code, to handle data sent or received.
 947:Generated_Source\PSoC5/USBUART_1.c **** *
 948:Generated_Source\PSoC5/USBUART_1.c **** *  Return Value           | Description
 949:Generated_Source\PSoC5/USBUART_1.c **** *  -----------------------|-----------------------------------------------------
 950:Generated_Source\PSoC5/USBUART_1.c **** *  USBFS_NO_EVENT_PENDING |The endpoint is awaiting SIE action
 951:Generated_Source\PSoC5/USBUART_1.c **** *  USBFS_EVENT_PENDING    |The endpoint is awaiting CPU action
 952:Generated_Source\PSoC5/USBUART_1.c **** *  USBFS_NO_EVENT_ALLOWED |The endpoint is locked from access
 953:Generated_Source\PSoC5/USBUART_1.c **** *  USBFS_IN_BUFFER_FULL   |The IN endpoint is loaded and the mode is set to ACK IN
 954:Generated_Source\PSoC5/USBUART_1.c **** *  USBFS_IN_BUFFER_EMPTY  |An IN transaction occurred and more data can be loaded
 955:Generated_Source\PSoC5/USBUART_1.c **** *  USBFS_OUT_BUFFER_EMPTY |The OUT endpoint is set to ACK OUT and is waiting for data
 956:Generated_Source\PSoC5/USBUART_1.c **** *  USBFS_OUT_BUFFER_FULL  |An OUT transaction has occurred and data can be read
 957:Generated_Source\PSoC5/USBUART_1.c **** *
ARM GAS  C:\Users\jon\AppData\Local\Temp\ccwaPz7c.s 			page 36


 958:Generated_Source\PSoC5/USBUART_1.c **** *******************************************************************************/
 959:Generated_Source\PSoC5/USBUART_1.c **** uint8 USBUART_1_GetEPState(uint8 epNumber) 
 960:Generated_Source\PSoC5/USBUART_1.c **** {
 916              		.loc 1 960 0
 917              		.cfi_startproc
 918              		@ args = 0, pretend = 0, frame = 0
 919              		@ frame_needed = 0, uses_anonymous_args = 0
 920              		@ link register save eliminated.
 921              	.LVL44:
 961:Generated_Source\PSoC5/USBUART_1.c ****     return (USBUART_1_EP[epNumber].apiEpState);
 922              		.loc 1 961 0
 923 0000 034B     		ldr	r3, .L52
 924 0002 00EB4000 		add	r0, r0, r0, lsl #1
 925              	.LVL45:
 926 0006 03EB8003 		add	r3, r3, r0, lsl #2
 927 000a 5878     		ldrb	r0, [r3, #1]	@ zero_extendqisi2
 962:Generated_Source\PSoC5/USBUART_1.c **** }
 928              		.loc 1 962 0
 929 000c 7047     		bx	lr
 930              	.L53:
 931 000e 00BF     		.align	2
 932              	.L52:
 933 0010 00000000 		.word	USBUART_1_EP
 934              		.cfi_endproc
 935              	.LFE9:
 936              		.size	USBUART_1_GetEPState, .-USBUART_1_GetEPState
 937              		.section	.text.USBUART_1_GetEPCount,"ax",%progbits
 938              		.align	2
 939              		.global	USBUART_1_GetEPCount
 940              		.thumb
 941              		.thumb_func
 942              		.type	USBUART_1_GetEPCount, %function
 943              	USBUART_1_GetEPCount:
 944              	.LFB10:
 963:Generated_Source\PSoC5/USBUART_1.c **** 
 964:Generated_Source\PSoC5/USBUART_1.c **** 
 965:Generated_Source\PSoC5/USBUART_1.c **** /*******************************************************************************
 966:Generated_Source\PSoC5/USBUART_1.c **** * Function Name: USBUART_1_GetEPCount
 967:Generated_Source\PSoC5/USBUART_1.c **** ****************************************************************************//**
 968:Generated_Source\PSoC5/USBUART_1.c **** *
 969:Generated_Source\PSoC5/USBUART_1.c **** *  This function supports Data Endpoints only(EP1-EP8).
 970:Generated_Source\PSoC5/USBUART_1.c **** *  Returns the transfer count for the requested endpoint.  The value from
 971:Generated_Source\PSoC5/USBUART_1.c **** *  the count registers includes 2 counts for the two byte checksum of the
 972:Generated_Source\PSoC5/USBUART_1.c **** *  packet.  This function subtracts the two counts.
 973:Generated_Source\PSoC5/USBUART_1.c **** *
 974:Generated_Source\PSoC5/USBUART_1.c **** *  \param epNumber Data Endpoint Number.
 975:Generated_Source\PSoC5/USBUART_1.c **** *                   Valid values are between 1 and 8.
 976:Generated_Source\PSoC5/USBUART_1.c **** *
 977:Generated_Source\PSoC5/USBUART_1.c **** * \return
 978:Generated_Source\PSoC5/USBUART_1.c **** *  Returns the current byte count from the specified endpoint or 0 for an
 979:Generated_Source\PSoC5/USBUART_1.c **** *  invalid endpoint.
 980:Generated_Source\PSoC5/USBUART_1.c **** *
 981:Generated_Source\PSoC5/USBUART_1.c **** *******************************************************************************/
 982:Generated_Source\PSoC5/USBUART_1.c **** uint16 USBUART_1_GetEPCount(uint8 epNumber) 
 983:Generated_Source\PSoC5/USBUART_1.c **** {
 945              		.loc 1 983 0
 946              		.cfi_startproc
ARM GAS  C:\Users\jon\AppData\Local\Temp\ccwaPz7c.s 			page 37


 947              		@ args = 0, pretend = 0, frame = 0
 948              		@ frame_needed = 0, uses_anonymous_args = 0
 949              		@ link register save eliminated.
 950              	.LVL46:
 984:Generated_Source\PSoC5/USBUART_1.c ****     uint16 cntr = 0u;
 985:Generated_Source\PSoC5/USBUART_1.c **** 
 986:Generated_Source\PSoC5/USBUART_1.c ****     if ((epNumber > USBUART_1_EP0) && (epNumber < USBUART_1_MAX_EP))
 951              		.loc 1 986 0
 952 0000 431E     		subs	r3, r0, #1
 953 0002 072B     		cmp	r3, #7
 954 0004 0CD8     		bhi	.L56
 955              	.LVL47:
 956 0006 074B     		ldr	r3, .L57
 957 0008 0001     		lsls	r0, r0, #4
 958              	.LVL48:
 959 000a 1A46     		mov	r2, r3
 960 000c 0344     		add	r3, r3, r0
 961              	.LBB15:
 962              	.LBB16:
 987:Generated_Source\PSoC5/USBUART_1.c ****     {
 988:Generated_Source\PSoC5/USBUART_1.c ****         /* Get 11-bits EP counter where epCnt0 - 3 bits MSB and epCnt1 - 8 bits LSB. */
 989:Generated_Source\PSoC5/USBUART_1.c ****         cntr  = ((uint16) USBUART_1_SIE_EP_BASE.sieEp[epNumber].epCnt0) & USBUART_1_EPX_CNT0_MASK;
 963              		.loc 1 989 0
 964 000e 805C     		ldrb	r0, [r0, r2]	@ zero_extendqisi2
 965              	.LVL49:
 990:Generated_Source\PSoC5/USBUART_1.c ****         cntr  = ((uint16) (cntr << 8u)) | ((uint16) USBUART_1_SIE_EP_BASE.sieEp[epNumber].epCnt1);
 966              		.loc 1 990 0
 967 0010 5B78     		ldrb	r3, [r3, #1]	@ zero_extendqisi2
 968 0012 00F00F00 		and	r0, r0, #15
 969              	.LVL50:
 991:Generated_Source\PSoC5/USBUART_1.c ****         cntr -= USBUART_1_EPX_CNTX_CRC_COUNT;
 970              		.loc 1 991 0
 971 0016 43EA0020 		orr	r0, r3, r0, lsl #8
 972              	.LVL51:
 973 001a 0238     		subs	r0, r0, #2
 974 001c 80B2     		uxth	r0, r0
 975              	.LVL52:
 976 001e 7047     		bx	lr
 977              	.LVL53:
 978              	.L56:
 979              	.LBE16:
 980              	.LBE15:
 984:Generated_Source\PSoC5/USBUART_1.c **** 
 981              		.loc 1 984 0
 982 0020 0020     		movs	r0, #0
 983              	.LVL54:
 992:Generated_Source\PSoC5/USBUART_1.c ****     }
 993:Generated_Source\PSoC5/USBUART_1.c **** 
 994:Generated_Source\PSoC5/USBUART_1.c ****     return (cntr);
 995:Generated_Source\PSoC5/USBUART_1.c **** }
 984              		.loc 1 995 0
 985 0022 7047     		bx	lr
 986              	.L58:
 987              		.align	2
 988              	.L57:
 989 0024 FC5F0040 		.word	1073766396
 990              		.cfi_endproc
ARM GAS  C:\Users\jon\AppData\Local\Temp\ccwaPz7c.s 			page 38


 991              	.LFE10:
 992              		.size	USBUART_1_GetEPCount, .-USBUART_1_GetEPCount
 993              		.section	.text.USBUART_1_LoadInEP,"ax",%progbits
 994              		.align	2
 995              		.global	USBUART_1_LoadInEP
 996              		.thumb
 997              		.thumb_func
 998              		.type	USBUART_1_LoadInEP, %function
 999              	USBUART_1_LoadInEP:
 1000              	.LFB11:
 996:Generated_Source\PSoC5/USBUART_1.c **** 
 997:Generated_Source\PSoC5/USBUART_1.c **** 
 998:Generated_Source\PSoC5/USBUART_1.c **** #if (USBUART_1_EP_MANAGEMENT_DMA)
 999:Generated_Source\PSoC5/USBUART_1.c **** #if (CY_PSOC4)
1000:Generated_Source\PSoC5/USBUART_1.c ****     /*******************************************************************************
1001:Generated_Source\PSoC5/USBUART_1.c ****     * Function Name: USBUART_1_InitEpDma
1002:Generated_Source\PSoC5/USBUART_1.c ****     ****************************************************************************//**
1003:Generated_Source\PSoC5/USBUART_1.c ****     *
1004:Generated_Source\PSoC5/USBUART_1.c ****     *  This function configures priority for all DMA channels utilized by the
1005:Generated_Source\PSoC5/USBUART_1.c ****     *  component. Also sets callbacks for DMA auto mode.
1006:Generated_Source\PSoC5/USBUART_1.c ****     *
1007:Generated_Source\PSoC5/USBUART_1.c ****     *******************************************************************************/
1008:Generated_Source\PSoC5/USBUART_1.c ****     static void USBUART_1_InitEpDma(void)
1009:Generated_Source\PSoC5/USBUART_1.c ****     {
1010:Generated_Source\PSoC5/USBUART_1.c ****     #if (USBUART_1_DMA1_ACTIVE)
1011:Generated_Source\PSoC5/USBUART_1.c ****         CYDMA_CH_CTL_BASE.ctl[USBUART_1_ep1_dma_CHANNEL] = USBUART_1_ep1_dma_CHANNEL_CFG;
1012:Generated_Source\PSoC5/USBUART_1.c ****     #endif /* (USBUART_1_DMA1_ACTIVE) */
1013:Generated_Source\PSoC5/USBUART_1.c **** 
1014:Generated_Source\PSoC5/USBUART_1.c ****     #if (USBUART_1_DMA2_ACTIVE)
1015:Generated_Source\PSoC5/USBUART_1.c ****         CYDMA_CH_CTL_BASE.ctl[USBUART_1_ep2_dma_CHANNEL] = USBUART_1_ep2_dma_CHANNEL_CFG;
1016:Generated_Source\PSoC5/USBUART_1.c ****     #endif /* (USBUART_1_DMA2_ACTIVE) */
1017:Generated_Source\PSoC5/USBUART_1.c **** 
1018:Generated_Source\PSoC5/USBUART_1.c ****     #if (USBUART_1_DMA3_ACTIVE)
1019:Generated_Source\PSoC5/USBUART_1.c ****         CYDMA_CH_CTL_BASE.ctl[USBUART_1_ep3_dma_CHANNEL] = USBUART_1_ep3_dma_CHANNEL_CFG;
1020:Generated_Source\PSoC5/USBUART_1.c ****     #endif /* (USBUART_1_DMA3_ACTIVE) */
1021:Generated_Source\PSoC5/USBUART_1.c **** 
1022:Generated_Source\PSoC5/USBUART_1.c ****     #if (USBUART_1_DMA4_ACTIVE)
1023:Generated_Source\PSoC5/USBUART_1.c ****         CYDMA_CH_CTL_BASE.ctl[USBUART_1_ep4_dma_CHANNEL] = USBUART_1_ep4_dma_CHANNEL_CFG;
1024:Generated_Source\PSoC5/USBUART_1.c ****     #endif /* (USBUART_1_DMA4_ACTIVE) */
1025:Generated_Source\PSoC5/USBUART_1.c **** 
1026:Generated_Source\PSoC5/USBUART_1.c ****     #if (USBUART_1_DMA5_ACTIVE)
1027:Generated_Source\PSoC5/USBUART_1.c ****         CYDMA_CH_CTL_BASE.ctl[USBUART_1_ep5_dma_CHANNEL] = USBUART_1_ep5_dma_CHANNEL_CFG;
1028:Generated_Source\PSoC5/USBUART_1.c ****     #endif /* (USBUART_1_DMA5_ACTIVE) */
1029:Generated_Source\PSoC5/USBUART_1.c **** 
1030:Generated_Source\PSoC5/USBUART_1.c ****     #if (USBUART_1_DMA6_ACTIVE)
1031:Generated_Source\PSoC5/USBUART_1.c ****         CYDMA_CH_CTL_BASE.ctl[USBUART_1_ep6_dma_CHANNEL] = USBUART_1_ep6_dma_CHANNEL_CFG;
1032:Generated_Source\PSoC5/USBUART_1.c ****     #endif /* (USBUART_1_DMA6_ACTIVE) */
1033:Generated_Source\PSoC5/USBUART_1.c **** 
1034:Generated_Source\PSoC5/USBUART_1.c ****     #if (USBUART_1_DMA7_ACTIVE)
1035:Generated_Source\PSoC5/USBUART_1.c ****         CYDMA_CH_CTL_BASE.ctl[USBUART_1_ep7_dma_CHANNEL] = USBUART_1_ep7_dma_CHANNEL_CFG;
1036:Generated_Source\PSoC5/USBUART_1.c ****     #endif /* (USBUART_1_DMA7_ACTIVE) */
1037:Generated_Source\PSoC5/USBUART_1.c **** 
1038:Generated_Source\PSoC5/USBUART_1.c ****     #if (USBUART_1_DMA8_ACTIVE)
1039:Generated_Source\PSoC5/USBUART_1.c ****         CYDMA_CH_CTL_BASE.ctl[USBUART_1_ep8_dma_CHANNEL] = USBUART_1_ep8_dma_CHANNEL_CFG;
1040:Generated_Source\PSoC5/USBUART_1.c ****     #endif /* (USBUART_1_DMA8_ACTIVE) */
1041:Generated_Source\PSoC5/USBUART_1.c **** 
1042:Generated_Source\PSoC5/USBUART_1.c ****     #if (USBUART_1_EP_MANAGEMENT_DMA_AUTO)
ARM GAS  C:\Users\jon\AppData\Local\Temp\ccwaPz7c.s 			page 39


1043:Generated_Source\PSoC5/USBUART_1.c ****         /* Initialize DMA channel callbacks. */
1044:Generated_Source\PSoC5/USBUART_1.c ****         #if (USBUART_1_DMA1_ACTIVE)
1045:Generated_Source\PSoC5/USBUART_1.c ****             (void) USBUART_1_ep1_dma_SetInterruptCallback(&USBUART_1_EP1_DMA_DONE_ISR);
1046:Generated_Source\PSoC5/USBUART_1.c ****         #endif /* (USBUART_1_DMA1_ACTIVE) */
1047:Generated_Source\PSoC5/USBUART_1.c **** 
1048:Generated_Source\PSoC5/USBUART_1.c ****         #if (USBUART_1_DMA2_ACTIVE)
1049:Generated_Source\PSoC5/USBUART_1.c ****             (void) USBUART_1_ep2_dma_SetInterruptCallback(&USBUART_1_EP2_DMA_DONE_ISR);
1050:Generated_Source\PSoC5/USBUART_1.c ****         #endif /* (USBUART_1_DMA2_ACTIVE) */
1051:Generated_Source\PSoC5/USBUART_1.c **** 
1052:Generated_Source\PSoC5/USBUART_1.c ****         #if (USBUART_1_DMA3_ACTIVE)
1053:Generated_Source\PSoC5/USBUART_1.c ****             (void) USBUART_1_ep3_dma_SetInterruptCallback(&USBUART_1_EP3_DMA_DONE_ISR);
1054:Generated_Source\PSoC5/USBUART_1.c ****         #endif /* (USBUART_1_DMA3_ACTIVE) */
1055:Generated_Source\PSoC5/USBUART_1.c **** 
1056:Generated_Source\PSoC5/USBUART_1.c ****         #if (USBUART_1_DMA4_ACTIVE)
1057:Generated_Source\PSoC5/USBUART_1.c ****             (void) USBUART_1_ep4_dma_SetInterruptCallback(&USBUART_1_EP4_DMA_DONE_ISR);
1058:Generated_Source\PSoC5/USBUART_1.c ****         #endif /* (USBUART_1_DMA4_ACTIVE) */
1059:Generated_Source\PSoC5/USBUART_1.c **** 
1060:Generated_Source\PSoC5/USBUART_1.c ****         #if (USBUART_1_DMA5_ACTIVE)
1061:Generated_Source\PSoC5/USBUART_1.c ****             (void) USBUART_1_ep5_dma_SetInterruptCallback(&USBUART_1_EP5_DMA_DONE_ISR);
1062:Generated_Source\PSoC5/USBUART_1.c ****         #endif /* (USBUART_1_DMA5_ACTIVE) */
1063:Generated_Source\PSoC5/USBUART_1.c **** 
1064:Generated_Source\PSoC5/USBUART_1.c ****         #if (USBUART_1_DMA6_ACTIVE)
1065:Generated_Source\PSoC5/USBUART_1.c ****             (void) USBUART_1_ep6_dma_SetInterruptCallback(&USBUART_1_EP6_DMA_DONE_ISR);
1066:Generated_Source\PSoC5/USBUART_1.c ****         #endif /* (USBUART_1_DMA6_ACTIVE) */
1067:Generated_Source\PSoC5/USBUART_1.c **** 
1068:Generated_Source\PSoC5/USBUART_1.c ****         #if (USBUART_1_DMA7_ACTIVE)
1069:Generated_Source\PSoC5/USBUART_1.c ****             (void) USBUART_1_ep7_dma_SetInterruptCallback(&USBUART_1_EP7_DMA_DONE_ISR);
1070:Generated_Source\PSoC5/USBUART_1.c ****         #endif /* (USBUART_1_DMA7_ACTIVE) */
1071:Generated_Source\PSoC5/USBUART_1.c **** 
1072:Generated_Source\PSoC5/USBUART_1.c ****         #if (USBUART_1_DMA8_ACTIVE)
1073:Generated_Source\PSoC5/USBUART_1.c ****             (void) USBUART_1_ep8_dma_SetInterruptCallback(&USBUART_1_EP8_DMA_DONE_ISR);
1074:Generated_Source\PSoC5/USBUART_1.c ****         #endif /* (USBUART_1_DMA8_ACTIVE) */
1075:Generated_Source\PSoC5/USBUART_1.c ****     #endif /* (USBUART_1_EP_MANAGEMENT_DMA_AUTO) */
1076:Generated_Source\PSoC5/USBUART_1.c ****     }
1077:Generated_Source\PSoC5/USBUART_1.c **** #else
1078:Generated_Source\PSoC5/USBUART_1.c **** 
1079:Generated_Source\PSoC5/USBUART_1.c **** 
1080:Generated_Source\PSoC5/USBUART_1.c ****     /***************************************************************************
1081:Generated_Source\PSoC5/USBUART_1.c ****     * Function Name: USBUART_1_InitEP_DMA
1082:Generated_Source\PSoC5/USBUART_1.c ****     ************************************************************************//**
1083:Generated_Source\PSoC5/USBUART_1.c ****     *
1084:Generated_Source\PSoC5/USBUART_1.c ****     *  This function allocates and initializes a DMA channel to be used by the
1085:Generated_Source\PSoC5/USBUART_1.c ****     *  USBUART_1_LoadInEP() or USBUART_1_ReadOutEP() APIs for data
1086:Generated_Source\PSoC5/USBUART_1.c ****     *  transfer. It is available when the Endpoint Memory Management parameter
1087:Generated_Source\PSoC5/USBUART_1.c ****     *  is set to DMA.
1088:Generated_Source\PSoC5/USBUART_1.c ****     *
1089:Generated_Source\PSoC5/USBUART_1.c ****     *  This function is automatically called from the USBFS_LoadInEP() and USBFS_ReadOutEP() APIs.
1090:Generated_Source\PSoC5/USBUART_1.c ****     *
1091:Generated_Source\PSoC5/USBUART_1.c ****     *  \param epNumber Contains the data endpoint number.
1092:Generated_Source\PSoC5/USBUART_1.c ****     *            Valid values are between 1 and 8.
1093:Generated_Source\PSoC5/USBUART_1.c ****     *  \param *pData Pointer to a data array that is related to the EP transfers.
1094:Generated_Source\PSoC5/USBUART_1.c ****     *
1095:Generated_Source\PSoC5/USBUART_1.c ****     * \reentrant No.
1096:Generated_Source\PSoC5/USBUART_1.c ****     *
1097:Generated_Source\PSoC5/USBUART_1.c ****     ***************************************************************************/
1098:Generated_Source\PSoC5/USBUART_1.c ****     void USBUART_1_InitEP_DMA(uint8 epNumber, const uint8 *pData)
1099:Generated_Source\PSoC5/USBUART_1.c ****                                                                     
ARM GAS  C:\Users\jon\AppData\Local\Temp\ccwaPz7c.s 			page 40


1100:Generated_Source\PSoC5/USBUART_1.c ****     {
1101:Generated_Source\PSoC5/USBUART_1.c ****         uint16 src;
1102:Generated_Source\PSoC5/USBUART_1.c ****         uint16 dst;
1103:Generated_Source\PSoC5/USBUART_1.c **** 
1104:Generated_Source\PSoC5/USBUART_1.c ****     #if (CY_PSOC3)
1105:Generated_Source\PSoC5/USBUART_1.c ****         src = HI16(CYDEV_SRAM_BASE);
1106:Generated_Source\PSoC5/USBUART_1.c ****         dst = HI16(CYDEV_PERIPH_BASE);
1107:Generated_Source\PSoC5/USBUART_1.c ****         pData = pData;
1108:Generated_Source\PSoC5/USBUART_1.c ****     #else
1109:Generated_Source\PSoC5/USBUART_1.c ****         if ((USBUART_1_EP[epNumber].addr & USBUART_1_DIR_IN) != 0u)
1110:Generated_Source\PSoC5/USBUART_1.c ****         {
1111:Generated_Source\PSoC5/USBUART_1.c ****             /* IN endpoint: source is memory buffer. */
1112:Generated_Source\PSoC5/USBUART_1.c ****             src = HI16(pData);
1113:Generated_Source\PSoC5/USBUART_1.c ****             dst = HI16(CYDEV_PERIPH_BASE);
1114:Generated_Source\PSoC5/USBUART_1.c ****         }
1115:Generated_Source\PSoC5/USBUART_1.c ****         else
1116:Generated_Source\PSoC5/USBUART_1.c ****         {
1117:Generated_Source\PSoC5/USBUART_1.c ****             /* OUT endpoint: source is USB IP memory buffer. */
1118:Generated_Source\PSoC5/USBUART_1.c ****             src = HI16(CYDEV_PERIPH_BASE);
1119:Generated_Source\PSoC5/USBUART_1.c ****             dst = HI16(pData);
1120:Generated_Source\PSoC5/USBUART_1.c ****         }
1121:Generated_Source\PSoC5/USBUART_1.c ****     #endif  /* (CY_PSOC3) */
1122:Generated_Source\PSoC5/USBUART_1.c **** 
1123:Generated_Source\PSoC5/USBUART_1.c ****         switch(epNumber)
1124:Generated_Source\PSoC5/USBUART_1.c ****         {
1125:Generated_Source\PSoC5/USBUART_1.c ****     #if (USBUART_1_DMA1_ACTIVE)
1126:Generated_Source\PSoC5/USBUART_1.c ****         case USBUART_1_EP1:
1127:Generated_Source\PSoC5/USBUART_1.c ****             USBUART_1_DmaChan[epNumber] = USBUART_1_ep1_DmaInitialize(USBUART_1_DMA_BYTES_PER_BURST
1128:Generated_Source\PSoC5/USBUART_1.c ****                                                                                     USBUART_1_DMA_R
1129:Generated_Source\PSoC5/USBUART_1.c ****             break;
1130:Generated_Source\PSoC5/USBUART_1.c ****     #endif /* (USBUART_1_DMA1_ACTIVE) */
1131:Generated_Source\PSoC5/USBUART_1.c **** 
1132:Generated_Source\PSoC5/USBUART_1.c ****     #if (USBUART_1_DMA2_ACTIVE)
1133:Generated_Source\PSoC5/USBUART_1.c ****         case USBUART_1_EP2:
1134:Generated_Source\PSoC5/USBUART_1.c ****             USBUART_1_DmaChan[epNumber] = USBUART_1_ep2_DmaInitialize(USBUART_1_DMA_BYTES_PER_BURST
1135:Generated_Source\PSoC5/USBUART_1.c ****                                                                                     USBUART_1_DMA_R
1136:Generated_Source\PSoC5/USBUART_1.c ****             break;
1137:Generated_Source\PSoC5/USBUART_1.c ****     #endif /* (USBUART_1_DMA2_ACTIVE) */
1138:Generated_Source\PSoC5/USBUART_1.c **** 
1139:Generated_Source\PSoC5/USBUART_1.c ****     #if (USBUART_1_DMA3_ACTIVE)
1140:Generated_Source\PSoC5/USBUART_1.c ****             case USBUART_1_EP3:
1141:Generated_Source\PSoC5/USBUART_1.c ****                 USBUART_1_DmaChan[epNumber] = USBUART_1_ep3_DmaInitialize(USBUART_1_DMA_BYTES_PER_B
1142:Generated_Source\PSoC5/USBUART_1.c ****                                                                                         USBUART_1_D
1143:Generated_Source\PSoC5/USBUART_1.c ****             break;
1144:Generated_Source\PSoC5/USBUART_1.c ****     #endif /* (USBUART_1_DMA3_ACTIVE) */
1145:Generated_Source\PSoC5/USBUART_1.c **** 
1146:Generated_Source\PSoC5/USBUART_1.c ****     #if (USBUART_1_DMA4_ACTIVE)
1147:Generated_Source\PSoC5/USBUART_1.c ****             case USBUART_1_EP4:
1148:Generated_Source\PSoC5/USBUART_1.c ****                 USBUART_1_DmaChan[epNumber] = USBUART_1_ep4_DmaInitialize(USBUART_1_DMA_BYTES_PER_B
1149:Generated_Source\PSoC5/USBUART_1.c ****                                                                                         USBUART_1_D
1150:Generated_Source\PSoC5/USBUART_1.c ****             break;
1151:Generated_Source\PSoC5/USBUART_1.c ****     #endif /* (USBUART_1_DMA4_ACTIVE) */
1152:Generated_Source\PSoC5/USBUART_1.c **** 
1153:Generated_Source\PSoC5/USBUART_1.c ****     #if (USBUART_1_DMA5_ACTIVE)
1154:Generated_Source\PSoC5/USBUART_1.c ****             case USBUART_1_EP5:
1155:Generated_Source\PSoC5/USBUART_1.c ****                 USBUART_1_DmaChan[epNumber] = USBUART_1_ep5_DmaInitialize(USBUART_1_DMA_BYTES_PER_B
1156:Generated_Source\PSoC5/USBUART_1.c ****                                                                                         USBUART_1_D
ARM GAS  C:\Users\jon\AppData\Local\Temp\ccwaPz7c.s 			page 41


1157:Generated_Source\PSoC5/USBUART_1.c ****             break;
1158:Generated_Source\PSoC5/USBUART_1.c ****     #endif /* (USBUART_1_DMA5_ACTIVE) */
1159:Generated_Source\PSoC5/USBUART_1.c **** 
1160:Generated_Source\PSoC5/USBUART_1.c ****     #if (USBUART_1_DMA6_ACTIVE)
1161:Generated_Source\PSoC5/USBUART_1.c ****         case USBUART_1_EP6:
1162:Generated_Source\PSoC5/USBUART_1.c ****             USBUART_1_DmaChan[epNumber] = USBUART_1_ep6_DmaInitialize(USBUART_1_DMA_BYTES_PER_BURST
1163:Generated_Source\PSoC5/USBUART_1.c ****                                                                                     USBUART_1_DMA_R
1164:Generated_Source\PSoC5/USBUART_1.c ****             break;
1165:Generated_Source\PSoC5/USBUART_1.c ****     #endif /* (USBUART_1_DMA6_ACTIVE) */
1166:Generated_Source\PSoC5/USBUART_1.c **** 
1167:Generated_Source\PSoC5/USBUART_1.c ****     #if (USBUART_1_DMA7_ACTIVE)
1168:Generated_Source\PSoC5/USBUART_1.c ****         case USBUART_1_EP7:
1169:Generated_Source\PSoC5/USBUART_1.c ****                 USBUART_1_DmaChan[epNumber] = USBUART_1_ep7_DmaInitialize(USBUART_1_DMA_BYTES_PER_B
1170:Generated_Source\PSoC5/USBUART_1.c ****                                                                                         USBUART_1_D
1171:Generated_Source\PSoC5/USBUART_1.c ****             break;
1172:Generated_Source\PSoC5/USBUART_1.c ****     #endif /* (USBUART_1_DMA7_ACTIVE) */
1173:Generated_Source\PSoC5/USBUART_1.c **** 
1174:Generated_Source\PSoC5/USBUART_1.c ****     #if (USBUART_1_DMA8_ACTIVE)
1175:Generated_Source\PSoC5/USBUART_1.c ****         case USBUART_1_EP8:
1176:Generated_Source\PSoC5/USBUART_1.c ****                 USBUART_1_DmaChan[epNumber] = USBUART_1_ep8_DmaInitialize(USBUART_1_DMA_BYTES_PER_B
1177:Generated_Source\PSoC5/USBUART_1.c ****                                                                                         USBUART_1_D
1178:Generated_Source\PSoC5/USBUART_1.c ****             break;
1179:Generated_Source\PSoC5/USBUART_1.c ****     #endif /* (USBUART_1_DMA8_ACTIVE) */
1180:Generated_Source\PSoC5/USBUART_1.c **** 
1181:Generated_Source\PSoC5/USBUART_1.c ****         default:
1182:Generated_Source\PSoC5/USBUART_1.c ****             /* Do nothing for endpoints other than 1-8. */
1183:Generated_Source\PSoC5/USBUART_1.c ****             break;
1184:Generated_Source\PSoC5/USBUART_1.c ****         }
1185:Generated_Source\PSoC5/USBUART_1.c **** 
1186:Generated_Source\PSoC5/USBUART_1.c ****         if ((epNumber > USBUART_1_EP0) && (epNumber < USBUART_1_MAX_EP))
1187:Generated_Source\PSoC5/USBUART_1.c ****         {
1188:Generated_Source\PSoC5/USBUART_1.c ****             USBUART_1_DmaTd[epNumber] = CyDmaTdAllocate();
1189:Generated_Source\PSoC5/USBUART_1.c **** 
1190:Generated_Source\PSoC5/USBUART_1.c ****         #if (USBUART_1_EP_MANAGEMENT_DMA_AUTO && (USBUART_1_EP_DMA_AUTO_OPT == 0u))
1191:Generated_Source\PSoC5/USBUART_1.c ****             USBUART_1_DmaNextTd[epNumber] = CyDmaTdAllocate();
1192:Generated_Source\PSoC5/USBUART_1.c ****         #endif /* (USBUART_1_EP_MANAGEMENT_DMA_AUTO && (USBUART_1_EP_DMA_AUTO_OPT == 0u)) */
1193:Generated_Source\PSoC5/USBUART_1.c ****         }
1194:Generated_Source\PSoC5/USBUART_1.c ****     }
1195:Generated_Source\PSoC5/USBUART_1.c **** #endif /* (CY_PSOC4) */
1196:Generated_Source\PSoC5/USBUART_1.c **** 
1197:Generated_Source\PSoC5/USBUART_1.c ****     /***************************************************************************
1198:Generated_Source\PSoC5/USBUART_1.c ****     * Function Name: USBUART_1_Stop_DMA
1199:Generated_Source\PSoC5/USBUART_1.c ****     ************************************************************************//**
1200:Generated_Source\PSoC5/USBUART_1.c ****     *  
1201:Generated_Source\PSoC5/USBUART_1.c ****     *  This function stops DMA channel associated with endpoint. It is available 
1202:Generated_Source\PSoC5/USBUART_1.c ****     *  when the Endpoint Buffer Management parameter is set to DMA. Call this 
1203:Generated_Source\PSoC5/USBUART_1.c ****     *  function when endpoint direction is changed from IN to OUT or vice versa 
1204:Generated_Source\PSoC5/USBUART_1.c ****     *  to trigger DMA re-configuration when USBUART_1_LoadInEP() or 
1205:Generated_Source\PSoC5/USBUART_1.c ****     *  USBUART_1_ReadOutEP() functions are called the first time. 
1206:Generated_Source\PSoC5/USBUART_1.c ****     *  
1207:Generated_Source\PSoC5/USBUART_1.c ****     *  \param epNumber: The data endpoint number for which associated DMA 
1208:Generated_Source\PSoC5/USBUART_1.c ****     *  channel is stopped. The range of valid values is between 1 and 8. To stop 
1209:Generated_Source\PSoC5/USBUART_1.c ****     *  all DMAs associated with endpoints call this function with 
1210:Generated_Source\PSoC5/USBUART_1.c ****     *  USBUART_1_MAX_EP argument.
1211:Generated_Source\PSoC5/USBUART_1.c ****     *
1212:Generated_Source\PSoC5/USBUART_1.c ****     * \reentrant
1213:Generated_Source\PSoC5/USBUART_1.c ****     *  No.
ARM GAS  C:\Users\jon\AppData\Local\Temp\ccwaPz7c.s 			page 42


1214:Generated_Source\PSoC5/USBUART_1.c ****     *
1215:Generated_Source\PSoC5/USBUART_1.c ****     ***************************************************************************/
1216:Generated_Source\PSoC5/USBUART_1.c ****     void USBUART_1_Stop_DMA(uint8 epNumber) 
1217:Generated_Source\PSoC5/USBUART_1.c ****     {
1218:Generated_Source\PSoC5/USBUART_1.c ****         uint8 i;
1219:Generated_Source\PSoC5/USBUART_1.c **** 
1220:Generated_Source\PSoC5/USBUART_1.c ****         i = (epNumber < USBUART_1_MAX_EP) ? epNumber : USBUART_1_EP1;
1221:Generated_Source\PSoC5/USBUART_1.c **** 
1222:Generated_Source\PSoC5/USBUART_1.c ****         do
1223:Generated_Source\PSoC5/USBUART_1.c ****         {
1224:Generated_Source\PSoC5/USBUART_1.c ****         #if (CY_PSOC4)
1225:Generated_Source\PSoC5/USBUART_1.c ****             if (0u != USBUART_1_DmaChan[i])
1226:Generated_Source\PSoC5/USBUART_1.c ****             {
1227:Generated_Source\PSoC5/USBUART_1.c ****                 USBUART_1_CyDmaChDisable(USBUART_1_DmaChan[i]);
1228:Generated_Source\PSoC5/USBUART_1.c ****             }
1229:Generated_Source\PSoC5/USBUART_1.c ****         #else
1230:Generated_Source\PSoC5/USBUART_1.c ****             if(USBUART_1_DmaTd[i] != DMA_INVALID_TD)
1231:Generated_Source\PSoC5/USBUART_1.c ****             {
1232:Generated_Source\PSoC5/USBUART_1.c ****                 (void) CyDmaChDisable(USBUART_1_DmaChan[i]);
1233:Generated_Source\PSoC5/USBUART_1.c ****                 CyDmaTdFree(USBUART_1_DmaTd[i]);
1234:Generated_Source\PSoC5/USBUART_1.c ****                 USBUART_1_DmaTd[i] = DMA_INVALID_TD;
1235:Generated_Source\PSoC5/USBUART_1.c ****             }
1236:Generated_Source\PSoC5/USBUART_1.c **** 
1237:Generated_Source\PSoC5/USBUART_1.c ****             #if (USBUART_1_EP_MANAGEMENT_DMA_AUTO && (USBUART_1_EP_DMA_AUTO_OPT == 0u))
1238:Generated_Source\PSoC5/USBUART_1.c ****                 if(USBUART_1_DmaNextTd[i] != DMA_INVALID_TD)
1239:Generated_Source\PSoC5/USBUART_1.c ****                 {
1240:Generated_Source\PSoC5/USBUART_1.c ****                     CyDmaTdFree(USBUART_1_DmaNextTd[i]);
1241:Generated_Source\PSoC5/USBUART_1.c ****                     USBUART_1_DmaNextTd[i] = DMA_INVALID_TD;
1242:Generated_Source\PSoC5/USBUART_1.c ****                 }
1243:Generated_Source\PSoC5/USBUART_1.c ****             #endif /* (USBUART_1_EP_MANAGEMENT_DMA_AUTO && (USBUART_1_EP_DMA_AUTO_OPT == 0u)) */
1244:Generated_Source\PSoC5/USBUART_1.c **** 
1245:Generated_Source\PSoC5/USBUART_1.c ****         #endif /* (CY_PSOC4) */
1246:Generated_Source\PSoC5/USBUART_1.c ****             i++;
1247:Generated_Source\PSoC5/USBUART_1.c ****         }
1248:Generated_Source\PSoC5/USBUART_1.c ****         while ((i < USBUART_1_MAX_EP) && (epNumber == USBUART_1_MAX_EP));
1249:Generated_Source\PSoC5/USBUART_1.c ****     }
1250:Generated_Source\PSoC5/USBUART_1.c **** #endif /* (USBUART_1_EP_MANAGEMENT_DMA) */
1251:Generated_Source\PSoC5/USBUART_1.c **** 
1252:Generated_Source\PSoC5/USBUART_1.c **** 
1253:Generated_Source\PSoC5/USBUART_1.c **** #if (CY_PSOC3 || CY_PSOC5)
1254:Generated_Source\PSoC5/USBUART_1.c **** #if (USBUART_1_EP_MANAGEMENT_DMA_AUTO && (USBUART_1_EP_DMA_AUTO_OPT == 0u))
1255:Generated_Source\PSoC5/USBUART_1.c ****     /***************************************************************************
1256:Generated_Source\PSoC5/USBUART_1.c ****     * Function Name: USBUART_1_LoadNextInEP
1257:Generated_Source\PSoC5/USBUART_1.c ****     ************************************************************************//**
1258:Generated_Source\PSoC5/USBUART_1.c ****     *
1259:Generated_Source\PSoC5/USBUART_1.c ****     * Summary:
1260:Generated_Source\PSoC5/USBUART_1.c ****     *  This internal function is used for IN endpoint DMA reconfiguration in
1261:Generated_Source\PSoC5/USBUART_1.c ****     *  Auto DMA mode.
1262:Generated_Source\PSoC5/USBUART_1.c ****     *
1263:Generated_Source\PSoC5/USBUART_1.c ****     * Parameters:
1264:Generated_Source\PSoC5/USBUART_1.c ****     *  epNumber: Contains the data endpoint number.
1265:Generated_Source\PSoC5/USBUART_1.c ****     *  mode:   0 - Configure DMA to send the the rest of data.
1266:Generated_Source\PSoC5/USBUART_1.c ****     *          1 - Configure DMA to repeat 2 last bytes of the first burst.
1267:Generated_Source\PSoC5/USBUART_1.c ****     *
1268:Generated_Source\PSoC5/USBUART_1.c ****     ***************************************************************************/
1269:Generated_Source\PSoC5/USBUART_1.c ****     void USBUART_1_LoadNextInEP(uint8 epNumber, uint8 mode) 
1270:Generated_Source\PSoC5/USBUART_1.c ****     {
ARM GAS  C:\Users\jon\AppData\Local\Temp\ccwaPz7c.s 			page 43


1271:Generated_Source\PSoC5/USBUART_1.c ****         reg16 *convert;
1272:Generated_Source\PSoC5/USBUART_1.c **** 
1273:Generated_Source\PSoC5/USBUART_1.c ****         if (mode == 0u)
1274:Generated_Source\PSoC5/USBUART_1.c ****         {
1275:Generated_Source\PSoC5/USBUART_1.c ****             /* Configure DMA to send rest of data. */
1276:Generated_Source\PSoC5/USBUART_1.c ****             /* CyDmaTdSetConfiguration API is optimized to change transfer length only and configur
1277:Generated_Source\PSoC5/USBUART_1.c ****             convert = (reg16 *) &CY_DMA_TDMEM_STRUCT_PTR[USBUART_1_DmaTd[epNumber]].TD0[0u];
1278:Generated_Source\PSoC5/USBUART_1.c ****             /* Set transfer length. */
1279:Generated_Source\PSoC5/USBUART_1.c ****             CY_SET_REG16(convert, USBUART_1_inLength[epNumber] - USBUART_1_DMA_BYTES_PER_BURST);
1280:Generated_Source\PSoC5/USBUART_1.c ****             /* CyDmaTdSetAddress API is optimized to change source address only. */
1281:Generated_Source\PSoC5/USBUART_1.c ****             convert = (reg16 *) &CY_DMA_TDMEM_STRUCT_PTR[USBUART_1_DmaTd[epNumber]].TD1[0u];
1282:Generated_Source\PSoC5/USBUART_1.c ****             CY_SET_REG16(convert, LO16((uint32)USBUART_1_inDataPointer[epNumber] +
1283:Generated_Source\PSoC5/USBUART_1.c ****                                             USBUART_1_DMA_BYTES_PER_BURST));
1284:Generated_Source\PSoC5/USBUART_1.c ****             USBUART_1_inBufFull[epNumber] = 1u;
1285:Generated_Source\PSoC5/USBUART_1.c ****         }
1286:Generated_Source\PSoC5/USBUART_1.c ****         else
1287:Generated_Source\PSoC5/USBUART_1.c ****         {
1288:Generated_Source\PSoC5/USBUART_1.c ****             /* Configure DMA to repeat 2 last bytes of the first burst. */
1289:Generated_Source\PSoC5/USBUART_1.c ****             /* CyDmaTdSetConfiguration API is optimized to change transfer length only and configur
1290:Generated_Source\PSoC5/USBUART_1.c ****             convert = (reg16 *) &CY_DMA_TDMEM_STRUCT_PTR[USBUART_1_DmaTd[epNumber]].TD0[0u];
1291:Generated_Source\PSoC5/USBUART_1.c ****             /* Set transfer length. */
1292:Generated_Source\PSoC5/USBUART_1.c ****             CY_SET_REG16(convert, USBUART_1_DMA_BYTES_REPEAT);
1293:Generated_Source\PSoC5/USBUART_1.c ****             /* CyDmaTdSetAddress API is optimized to change source address only. */
1294:Generated_Source\PSoC5/USBUART_1.c ****             convert = (reg16 *) &CY_DMA_TDMEM_STRUCT_PTR[USBUART_1_DmaTd[epNumber]].TD1[0u];
1295:Generated_Source\PSoC5/USBUART_1.c ****             CY_SET_REG16(convert,  LO16((uint32)USBUART_1_inDataPointer[epNumber] +
1296:Generated_Source\PSoC5/USBUART_1.c ****                                    (USBUART_1_DMA_BYTES_PER_BURST - USBUART_1_DMA_BYTES_REPEAT)));
1297:Generated_Source\PSoC5/USBUART_1.c ****         }
1298:Generated_Source\PSoC5/USBUART_1.c **** 
1299:Generated_Source\PSoC5/USBUART_1.c ****         /* CyDmaChSetInitialTd API is optimized to initialize TD. */
1300:Generated_Source\PSoC5/USBUART_1.c ****         CY_DMA_CH_STRUCT_PTR[USBUART_1_DmaChan[epNumber]].basic_status[1u] = USBUART_1_DmaTd[epNumb
1301:Generated_Source\PSoC5/USBUART_1.c ****     }
1302:Generated_Source\PSoC5/USBUART_1.c **** #endif /* (USBUART_1_EP_MANAGEMENT_DMA_AUTO && (USBUART_1_EP_DMA_AUTO_OPT == 0u)) */
1303:Generated_Source\PSoC5/USBUART_1.c **** #endif /* (CY_PSOC3 || CY_PSOC5) */
1304:Generated_Source\PSoC5/USBUART_1.c **** 
1305:Generated_Source\PSoC5/USBUART_1.c **** 
1306:Generated_Source\PSoC5/USBUART_1.c **** /*******************************************************************************
1307:Generated_Source\PSoC5/USBUART_1.c **** * Function Name: USBUART_1_LoadInEP
1308:Generated_Source\PSoC5/USBUART_1.c **** ****************************************************************************//**
1309:Generated_Source\PSoC5/USBUART_1.c **** *
1310:Generated_Source\PSoC5/USBUART_1.c **** *  This function performs different functionality depending on the Component’s
1311:Generated_Source\PSoC5/USBUART_1.c **** *  configured Endpoint Buffer Management. This parameter is defined in
1312:Generated_Source\PSoC5/USBUART_1.c **** *  the Descriptor Root in Component Configure window.
1313:Generated_Source\PSoC5/USBUART_1.c **** *
1314:Generated_Source\PSoC5/USBUART_1.c **** *  *Manual (Static/Dynamic Allocation):*
1315:Generated_Source\PSoC5/USBUART_1.c **** *  This function loads and enables the specified USB data endpoint for an IN
1316:Generated_Source\PSoC5/USBUART_1.c **** *  data transfer.
1317:Generated_Source\PSoC5/USBUART_1.c **** *
1318:Generated_Source\PSoC5/USBUART_1.c **** *  *DMA with Manual Buffer Management:*
1319:Generated_Source\PSoC5/USBUART_1.c **** *  Configures DMA for a data transfer from system RAM to endpoint buffer.
1320:Generated_Source\PSoC5/USBUART_1.c **** *  Generates request for a transfer.
1321:Generated_Source\PSoC5/USBUART_1.c **** *
1322:Generated_Source\PSoC5/USBUART_1.c **** *  *DMA with Automatic Buffer Management:*
1323:Generated_Source\PSoC5/USBUART_1.c **** *  Configures DMA. This is required only once, so it is done only when parameter
1324:Generated_Source\PSoC5/USBUART_1.c **** *  pData is not NULL. When the pData pointer is NULL, the function skips this
1325:Generated_Source\PSoC5/USBUART_1.c **** *  task. Sets Data ready status: This generates the first DMA transfer and
1326:Generated_Source\PSoC5/USBUART_1.c **** *  prepares data in endpoint buffer.
1327:Generated_Source\PSoC5/USBUART_1.c **** *
ARM GAS  C:\Users\jon\AppData\Local\Temp\ccwaPz7c.s 			page 44


1328:Generated_Source\PSoC5/USBUART_1.c **** *  \param epNumber Contains the data endpoint number.
1329:Generated_Source\PSoC5/USBUART_1.c **** *            Valid values are between 1 and 8.
1330:Generated_Source\PSoC5/USBUART_1.c **** *  \param *pData A pointer to a data array from which the data for the endpoint space
1331:Generated_Source\PSoC5/USBUART_1.c **** *          is loaded.
1332:Generated_Source\PSoC5/USBUART_1.c **** *  \param length The number of bytes to transfer from the array and then send as
1333:Generated_Source\PSoC5/USBUART_1.c **** *          a result of an IN request. Valid values are between 0 and 512
1334:Generated_Source\PSoC5/USBUART_1.c **** *          (1023 for DMA with Automatic Buffer Management mode). The value 512
1335:Generated_Source\PSoC5/USBUART_1.c **** *          is applicable if only one endpoint is used.
1336:Generated_Source\PSoC5/USBUART_1.c **** *
1337:Generated_Source\PSoC5/USBUART_1.c **** *
1338:Generated_Source\PSoC5/USBUART_1.c **** * \reentrant
1339:Generated_Source\PSoC5/USBUART_1.c **** *  No.
1340:Generated_Source\PSoC5/USBUART_1.c **** *
1341:Generated_Source\PSoC5/USBUART_1.c **** *******************************************************************************/
1342:Generated_Source\PSoC5/USBUART_1.c **** void USBUART_1_LoadInEP(uint8 epNumber, const uint8 pData[], uint16 length)
1343:Generated_Source\PSoC5/USBUART_1.c ****                                                                         
1344:Generated_Source\PSoC5/USBUART_1.c **** {
 1001              		.loc 1 1344 0
 1002              		.cfi_startproc
 1003              		@ args = 0, pretend = 0, frame = 0
 1004              		@ frame_needed = 0, uses_anonymous_args = 0
 1005              	.LVL55:
1345:Generated_Source\PSoC5/USBUART_1.c ****     if ((epNumber > USBUART_1_EP0) && (epNumber < USBUART_1_MAX_EP))
 1006              		.loc 1 1345 0
 1007 0000 431E     		subs	r3, r0, #1
 1008 0002 072B     		cmp	r3, #7
 1009 0004 35D8     		bhi	.L70
1344:Generated_Source\PSoC5/USBUART_1.c ****     if ((epNumber > USBUART_1_EP0) && (epNumber < USBUART_1_MAX_EP))
 1010              		.loc 1 1344 0
 1011 0006 F0B5     		push	{r4, r5, r6, r7, lr}
 1012              		.cfi_def_cfa_offset 20
 1013              		.cfi_offset 4, -20
 1014              		.cfi_offset 5, -16
 1015              		.cfi_offset 6, -12
 1016              		.cfi_offset 7, -8
 1017              		.cfi_offset 14, -4
1346:Generated_Source\PSoC5/USBUART_1.c ****     {
1347:Generated_Source\PSoC5/USBUART_1.c ****     #if (!USBUART_1_EP_MANAGEMENT_DMA_AUTO)
1348:Generated_Source\PSoC5/USBUART_1.c ****         /* Limit length to available buffer USB IP buffer size.*/
1349:Generated_Source\PSoC5/USBUART_1.c ****         if (length > (USBUART_1_EPX_DATA_BUF_MAX - USBUART_1_EP[epNumber].buffOffset))
 1018              		.loc 1 1349 0
 1019 0008 4500     		lsls	r5, r0, #1
 1020 000a 1A4E     		ldr	r6, .L72
 1021 000c 2C18     		adds	r4, r5, r0
 1022 000e 06EB8404 		add	r4, r6, r4, lsl #2
 1023 0012 E388     		ldrh	r3, [r4, #6]
 1024 0014 9BB2     		uxth	r3, r3
 1025 0016 C3F50073 		rsb	r3, r3, #512
 1026 001a 9A42     		cmp	r2, r3
 1027 001c 24D8     		bhi	.L71
 1028              	.L61:
 1029 001e 164F     		ldr	r7, .L72+4
1350:Generated_Source\PSoC5/USBUART_1.c ****         {
1351:Generated_Source\PSoC5/USBUART_1.c ****             length = USBUART_1_EPX_DATA_BUF_MAX - USBUART_1_EP[epNumber].buffOffset;
1352:Generated_Source\PSoC5/USBUART_1.c ****         }
1353:Generated_Source\PSoC5/USBUART_1.c ****     #endif /* (!USBUART_1_EP_MANAGEMENT_DMA_AUTO) */
1354:Generated_Source\PSoC5/USBUART_1.c **** 
ARM GAS  C:\Users\jon\AppData\Local\Temp\ccwaPz7c.s 			page 45


1355:Generated_Source\PSoC5/USBUART_1.c ****         /* Set count and data toggle. */
1356:Generated_Source\PSoC5/USBUART_1.c ****         USBUART_1_SIE_EP_BASE.sieEp[epNumber].epCnt0 = (uint8) HI8(length) | USBUART_1_EP[epNumber]
 1030              		.loc 1 1356 0
 1031 0020 2B18     		adds	r3, r5, r0
 1032 0022 3C46     		mov	r4, r7
 1033 0024 06EB8303 		add	r3, r6, r3, lsl #2
 1034 0028 DB78     		ldrb	r3, [r3, #3]	@ zero_extendqisi2
 1035 002a 4FEA001E 		lsl	lr, r0, #4
 1036 002e 43EA1223 		orr	r3, r3, r2, lsr #8
 1037 0032 0EF80430 		strb	r3, [lr, r4]
 1038 0036 7744     		add	r7, r7, lr
1357:Generated_Source\PSoC5/USBUART_1.c ****         USBUART_1_SIE_EP_BASE.sieEp[epNumber].epCnt1 = (uint8) LO8(length);
 1039              		.loc 1 1357 0
 1040 0038 D3B2     		uxtb	r3, r2
 1041 003a 7B70     		strb	r3, [r7, #1]
1358:Generated_Source\PSoC5/USBUART_1.c **** 
1359:Generated_Source\PSoC5/USBUART_1.c ****     #if (USBUART_1_EP_MANAGEMENT_MANUAL)
1360:Generated_Source\PSoC5/USBUART_1.c ****         if (NULL != pData)
 1042              		.loc 1 1360 0
 1043 003c 59B1     		cbz	r1, .L63
 1044              	.LVL56:
 1045              	.LBB17:
1361:Generated_Source\PSoC5/USBUART_1.c ****         {
1362:Generated_Source\PSoC5/USBUART_1.c **** 			/* Copy data using arbiter data register. */
1363:Generated_Source\PSoC5/USBUART_1.c ****             uint16 i;
1364:Generated_Source\PSoC5/USBUART_1.c ****             for (i = 0u; i < length; ++i)
 1046              		.loc 1 1364 0 discriminator 1
 1047 003e 52B1     		cbz	r2, .L63
 1048 0040 531E     		subs	r3, r2, #1
1365:Generated_Source\PSoC5/USBUART_1.c ****             {
1366:Generated_Source\PSoC5/USBUART_1.c ****                 USBUART_1_ARB_EP_BASE.arbEp[epNumber].rwDr = pData[i];
 1049              		.loc 1 1366 0
 1050 0042 0E4C     		ldr	r4, .L72+8
 1051 0044 9BB2     		uxth	r3, r3
 1052 0046 0B44     		add	r3, r3, r1
 1053 0048 7444     		add	r4, r4, lr
 1054 004a 0139     		subs	r1, r1, #1
 1055              	.LVL57:
 1056              	.L64:
 1057              		.loc 1 1366 0 is_stmt 0 discriminator 3
 1058 004c 11F8012F 		ldrb	r2, [r1, #1]!	@ zero_extendqisi2
 1059              	.LVL58:
1364:Generated_Source\PSoC5/USBUART_1.c ****             {
 1060              		.loc 1 1364 0 is_stmt 1 discriminator 3
 1061 0050 9942     		cmp	r1, r3
 1062              		.loc 1 1366 0 discriminator 3
 1063 0052 2272     		strb	r2, [r4, #8]
 1064              	.LVL59:
1364:Generated_Source\PSoC5/USBUART_1.c ****             {
 1065              		.loc 1 1364 0 discriminator 3
 1066 0054 FAD1     		bne	.L64
 1067              	.LVL60:
 1068              	.L63:
 1069              	.LBE17:
1367:Generated_Source\PSoC5/USBUART_1.c ****             }
1368:Generated_Source\PSoC5/USBUART_1.c ****         }
1369:Generated_Source\PSoC5/USBUART_1.c **** 
ARM GAS  C:\Users\jon\AppData\Local\Temp\ccwaPz7c.s 			page 46


1370:Generated_Source\PSoC5/USBUART_1.c ****         /* IN endpoint buffer is full - read to be read. */
1371:Generated_Source\PSoC5/USBUART_1.c ****         USBUART_1_EP[epNumber].apiEpState = USBUART_1_NO_EVENT_PENDING;
 1070              		.loc 1 1371 0
 1071 0056 2844     		add	r0, r0, r5
 1072              	.LVL61:
 1073 0058 06EB8006 		add	r6, r6, r0, lsl #2
 1074 005c 0023     		movs	r3, #0
 1075 005e 7370     		strb	r3, [r6, #1]
1372:Generated_Source\PSoC5/USBUART_1.c **** 
1373:Generated_Source\PSoC5/USBUART_1.c ****         /* Arm IN endpoint. */
1374:Generated_Source\PSoC5/USBUART_1.c ****         USBUART_1_SIE_EP_BASE.sieEp[epNumber].epCr0 = USBUART_1_EP[epNumber].epMode;
 1076              		.loc 1 1374 0
 1077 0060 7379     		ldrb	r3, [r6, #5]	@ zero_extendqisi2
 1078 0062 DBB2     		uxtb	r3, r3
 1079 0064 BB70     		strb	r3, [r7, #2]
 1080 0066 F0BD     		pop	{r4, r5, r6, r7, pc}
 1081              	.LVL62:
 1082              	.L71:
1351:Generated_Source\PSoC5/USBUART_1.c ****         }
 1083              		.loc 1 1351 0
 1084 0068 E288     		ldrh	r2, [r4, #6]
 1085              	.LVL63:
 1086 006a C2F50072 		rsb	r2, r2, #512
 1087 006e 92B2     		uxth	r2, r2
 1088              	.LVL64:
 1089 0070 D5E7     		b	.L61
 1090              	.L70:
 1091              		.cfi_def_cfa_offset 0
 1092              		.cfi_restore 4
 1093              		.cfi_restore 5
 1094              		.cfi_restore 6
 1095              		.cfi_restore 7
 1096              		.cfi_restore 14
 1097 0072 7047     		bx	lr
 1098              	.L73:
 1099              		.align	2
 1100              	.L72:
 1101 0074 00000000 		.word	USBUART_1_EP
 1102 0078 FC5F0040 		.word	1073766396
 1103 007c 70600040 		.word	1073766512
 1104              		.cfi_endproc
 1105              	.LFE11:
 1106              		.size	USBUART_1_LoadInEP, .-USBUART_1_LoadInEP
 1107              		.section	.text.USBUART_1_ReadOutEP,"ax",%progbits
 1108              		.align	2
 1109              		.global	USBUART_1_ReadOutEP
 1110              		.thumb
 1111              		.thumb_func
 1112              		.type	USBUART_1_ReadOutEP, %function
 1113              	USBUART_1_ReadOutEP:
 1114              	.LFB12:
1375:Generated_Source\PSoC5/USBUART_1.c **** 
1376:Generated_Source\PSoC5/USBUART_1.c ****     #else
1377:Generated_Source\PSoC5/USBUART_1.c **** 
1378:Generated_Source\PSoC5/USBUART_1.c ****         #if (CY_PSOC3 || CY_PSOC5LP)
1379:Generated_Source\PSoC5/USBUART_1.c ****             /* Initialize DMA if it was not initialized. */
1380:Generated_Source\PSoC5/USBUART_1.c ****             if (DMA_INVALID_TD == USBUART_1_DmaTd[epNumber])
ARM GAS  C:\Users\jon\AppData\Local\Temp\ccwaPz7c.s 			page 47


1381:Generated_Source\PSoC5/USBUART_1.c ****             {
1382:Generated_Source\PSoC5/USBUART_1.c ****                 USBUART_1_InitEP_DMA(epNumber, pData);
1383:Generated_Source\PSoC5/USBUART_1.c ****             }
1384:Generated_Source\PSoC5/USBUART_1.c ****         #endif /* (CY_PSOC3 || CY_PSOC5LP) */
1385:Generated_Source\PSoC5/USBUART_1.c **** 
1386:Generated_Source\PSoC5/USBUART_1.c ****         #if (USBUART_1_EP_MANAGEMENT_DMA_MANUAL)
1387:Generated_Source\PSoC5/USBUART_1.c ****             /* IN endpoint buffer will be fully loaded by DMA shortly. */
1388:Generated_Source\PSoC5/USBUART_1.c ****             USBUART_1_EP[epNumber].apiEpState = USBUART_1_NO_EVENT_PENDING;
1389:Generated_Source\PSoC5/USBUART_1.c **** 
1390:Generated_Source\PSoC5/USBUART_1.c ****             if ((pData != NULL) && (length > 0u))
1391:Generated_Source\PSoC5/USBUART_1.c ****             {
1392:Generated_Source\PSoC5/USBUART_1.c ****             #if (CY_PSOC4)
1393:Generated_Source\PSoC5/USBUART_1.c ****                 uint32 channelNum = (uint32) USBUART_1_DmaChan[epNumber];
1394:Generated_Source\PSoC5/USBUART_1.c **** 
1395:Generated_Source\PSoC5/USBUART_1.c ****                 /* Disable DMA channel: start configuration. */
1396:Generated_Source\PSoC5/USBUART_1.c ****                 USBUART_1_CyDmaChDisable(channelNum);
1397:Generated_Source\PSoC5/USBUART_1.c **** 
1398:Generated_Source\PSoC5/USBUART_1.c ****                 /* Configure source and destination. */
1399:Generated_Source\PSoC5/USBUART_1.c ****                 USBUART_1_CyDmaSetSrcAddress(channelNum, USBUART_1_DMA_DESCR0, (void*) pData);
1400:Generated_Source\PSoC5/USBUART_1.c ****                 USBUART_1_CyDmaSetDstAddress(channelNum, USBUART_1_DMA_DESCR0, (void*) &USBUART_1_A
1401:Generated_Source\PSoC5/USBUART_1.c **** 
1402:Generated_Source\PSoC5/USBUART_1.c ****                 /* Configure DMA descriptor. */
1403:Generated_Source\PSoC5/USBUART_1.c ****                 --length;
1404:Generated_Source\PSoC5/USBUART_1.c ****                 USBUART_1_CyDmaSetConfiguration(channelNum, USBUART_1_DMA_DESCR0, USBUART_1_DMA_COM
1405:Generated_Source\PSoC5/USBUART_1.c ****                                                         CYDMA_BYTE | CYDMA_ELEMENT_WORD | CYDMA_INC
1406:Generated_Source\PSoC5/USBUART_1.c **** 
1407:Generated_Source\PSoC5/USBUART_1.c ****                 /* Validate descriptor to execute on following DMA request. */
1408:Generated_Source\PSoC5/USBUART_1.c ****                 USBUART_1_CyDmaValidateDescriptor(channelNum, USBUART_1_DMA_DESCR0);
1409:Generated_Source\PSoC5/USBUART_1.c **** 
1410:Generated_Source\PSoC5/USBUART_1.c ****                 /* Enable DMA channel: configuration complete. */
1411:Generated_Source\PSoC5/USBUART_1.c ****                 USBUART_1_CyDmaChEnable(channelNum);
1412:Generated_Source\PSoC5/USBUART_1.c ****             #else
1413:Generated_Source\PSoC5/USBUART_1.c ****                 /* Configure DMA to transfer data. */
1414:Generated_Source\PSoC5/USBUART_1.c ****                 (void) CyDmaChDisable(USBUART_1_DmaChan[epNumber]);
1415:Generated_Source\PSoC5/USBUART_1.c ****                 (void) CyDmaTdSetConfiguration(USBUART_1_DmaTd[epNumber], length, CY_DMA_DISABLE_TD
1416:Generated_Source\PSoC5/USBUART_1.c ****                 (void) CyDmaTdSetAddress(USBUART_1_DmaTd[epNumber], LO16((uint32) pData), LO16((uin
1417:Generated_Source\PSoC5/USBUART_1.c **** 
1418:Generated_Source\PSoC5/USBUART_1.c ****                 /* Enable DMA channel. */
1419:Generated_Source\PSoC5/USBUART_1.c ****                 (void) CyDmaChSetInitialTd(USBUART_1_DmaChan[epNumber], USBUART_1_DmaTd[epNumber]);
1420:Generated_Source\PSoC5/USBUART_1.c ****                 (void) CyDmaChEnable(USBUART_1_DmaChan[epNumber], 1u);
1421:Generated_Source\PSoC5/USBUART_1.c ****             #endif /* (CY_PSOC4) */
1422:Generated_Source\PSoC5/USBUART_1.c **** 
1423:Generated_Source\PSoC5/USBUART_1.c ****                 /* Generate DMA request. */
1424:Generated_Source\PSoC5/USBUART_1.c ****                 USBUART_1_ARB_EP_BASE.arbEp[epNumber].epCfg |=  (uint8)  USBUART_1_ARB_EPX_CFG_DMA_
1425:Generated_Source\PSoC5/USBUART_1.c ****                 USBUART_1_ARB_EP_BASE.arbEp[epNumber].epCfg &=  (uint8) ~USBUART_1_ARB_EPX_CFG_DMA_
1426:Generated_Source\PSoC5/USBUART_1.c **** 
1427:Generated_Source\PSoC5/USBUART_1.c ****                 /* IN endpoint will be armed in ARB_ISR(source: IN_BUF_FULL) after first DMA transf
1428:Generated_Source\PSoC5/USBUART_1.c ****             }
1429:Generated_Source\PSoC5/USBUART_1.c ****             else
1430:Generated_Source\PSoC5/USBUART_1.c ****             {
1431:Generated_Source\PSoC5/USBUART_1.c ****                 /* When zero-length packet: arm IN endpoint directly. */
1432:Generated_Source\PSoC5/USBUART_1.c ****                 USBUART_1_SIE_EP_BASE.sieEp[epNumber].epCr0 = USBUART_1_EP[epNumber].epMode;
1433:Generated_Source\PSoC5/USBUART_1.c ****             }
1434:Generated_Source\PSoC5/USBUART_1.c ****         #endif /* (USBUART_1_EP_MANAGEMENT_DMA_MANUAL) */
1435:Generated_Source\PSoC5/USBUART_1.c **** 
1436:Generated_Source\PSoC5/USBUART_1.c ****         #if (USBUART_1_EP_MANAGEMENT_DMA_AUTO)
1437:Generated_Source\PSoC5/USBUART_1.c ****             if (pData != NULL)
ARM GAS  C:\Users\jon\AppData\Local\Temp\ccwaPz7c.s 			page 48


1438:Generated_Source\PSoC5/USBUART_1.c ****             {
1439:Generated_Source\PSoC5/USBUART_1.c ****             #if (CY_PSOC4)
1440:Generated_Source\PSoC5/USBUART_1.c ****                 uint32 channelNum = (uint32) USBUART_1_DmaChan[epNumber];
1441:Generated_Source\PSoC5/USBUART_1.c **** 
1442:Generated_Source\PSoC5/USBUART_1.c ****                 /* Store address of buffer. */
1443:Generated_Source\PSoC5/USBUART_1.c ****                 USBUART_1_DmaEpBufferAddrBackup[epNumber] = (uint32) pData;
1444:Generated_Source\PSoC5/USBUART_1.c **** 
1445:Generated_Source\PSoC5/USBUART_1.c ****                 /* Disable DMA channel: start configuration. */
1446:Generated_Source\PSoC5/USBUART_1.c ****                 USBUART_1_CyDmaChDisable(channelNum);
1447:Generated_Source\PSoC5/USBUART_1.c **** 
1448:Generated_Source\PSoC5/USBUART_1.c ****                 /* Set destination address. */
1449:Generated_Source\PSoC5/USBUART_1.c ****                 USBUART_1_CyDmaSetDstAddress(channelNum, USBUART_1_DMA_DESCR0, (void*) &USBUART_1_A
1450:Generated_Source\PSoC5/USBUART_1.c ****                 USBUART_1_CyDmaSetDstAddress(channelNum, USBUART_1_DMA_DESCR1, (void*) &USBUART_1_A
1451:Generated_Source\PSoC5/USBUART_1.c **** 
1452:Generated_Source\PSoC5/USBUART_1.c ****                 /* Configure DMA descriptor. */
1453:Generated_Source\PSoC5/USBUART_1.c ****                 USBUART_1_CyDmaSetConfiguration(channelNum, USBUART_1_DMA_DESCR0, USBUART_1_DMA_COM
1454:Generated_Source\PSoC5/USBUART_1.c ****                                                         CYDMA_BYTE | CYDMA_ELEMENT_WORD | CYDMA_INC
1455:Generated_Source\PSoC5/USBUART_1.c **** 
1456:Generated_Source\PSoC5/USBUART_1.c ****                 /* Configure DMA descriptor. */
1457:Generated_Source\PSoC5/USBUART_1.c ****                 USBUART_1_CyDmaSetConfiguration(channelNum, USBUART_1_DMA_DESCR1, USBUART_1_DMA_COM
1458:Generated_Source\PSoC5/USBUART_1.c ****                                                         CYDMA_BYTE | CYDMA_ELEMENT_WORD | CYDMA_INC
1459:Generated_Source\PSoC5/USBUART_1.c **** 
1460:Generated_Source\PSoC5/USBUART_1.c ****                 /* Enable interrupt from DMA channel. */
1461:Generated_Source\PSoC5/USBUART_1.c ****                 USBUART_1_CyDmaSetInterruptMask(channelNum);
1462:Generated_Source\PSoC5/USBUART_1.c **** 
1463:Generated_Source\PSoC5/USBUART_1.c **** 
1464:Generated_Source\PSoC5/USBUART_1.c ****                 /* Enable DMA channel: configuration complete. */
1465:Generated_Source\PSoC5/USBUART_1.c ****                 USBUART_1_CyDmaChEnable(channelNum);
1466:Generated_Source\PSoC5/USBUART_1.c **** 
1467:Generated_Source\PSoC5/USBUART_1.c ****             #else
1468:Generated_Source\PSoC5/USBUART_1.c ****                 (void) CyDmaChDisable(USBUART_1_DmaChan[epNumber]);
1469:Generated_Source\PSoC5/USBUART_1.c **** 
1470:Generated_Source\PSoC5/USBUART_1.c ****                 #if (USBUART_1_EP_DMA_AUTO_OPT == 0u)
1471:Generated_Source\PSoC5/USBUART_1.c ****                     USBUART_1_inLength[epNumber] = length;
1472:Generated_Source\PSoC5/USBUART_1.c ****                     USBUART_1_inDataPointer[epNumber] = pData;
1473:Generated_Source\PSoC5/USBUART_1.c **** 
1474:Generated_Source\PSoC5/USBUART_1.c ****                     /* Configure DMA to send data only for first burst */
1475:Generated_Source\PSoC5/USBUART_1.c ****                     (void) CyDmaTdSetConfiguration(USBUART_1_DmaTd[epNumber],
1476:Generated_Source\PSoC5/USBUART_1.c ****                         (length > USBUART_1_DMA_BYTES_PER_BURST) ? USBUART_1_DMA_BYTES_PER_BURST : 
1477:Generated_Source\PSoC5/USBUART_1.c ****                         USBUART_1_DmaNextTd[epNumber], TD_TERMIN_EN | TD_INC_SRC_ADR);
1478:Generated_Source\PSoC5/USBUART_1.c ****                     (void) CyDmaTdSetAddress(USBUART_1_DmaTd[epNumber], LO16((uint32) pData),
1479:Generated_Source\PSoC5/USBUART_1.c ****                                                                                LO16((uint32) &USBUA
1480:Generated_Source\PSoC5/USBUART_1.c **** 
1481:Generated_Source\PSoC5/USBUART_1.c ****                     /* The second TD will be executed only when the first one fails.
1482:Generated_Source\PSoC5/USBUART_1.c ****                     *  The intention of this TD is to generate NRQ interrupt
1483:Generated_Source\PSoC5/USBUART_1.c ****                     *  and repeat 2 last bytes of the first burst.
1484:Generated_Source\PSoC5/USBUART_1.c ****                     */
1485:Generated_Source\PSoC5/USBUART_1.c ****                     (void) CyDmaTdSetConfiguration(USBUART_1_DmaNextTd[epNumber], 1u,
1486:Generated_Source\PSoC5/USBUART_1.c ****                                                    USBUART_1_DmaNextTd[epNumber],
1487:Generated_Source\PSoC5/USBUART_1.c ****                                                    USBUART_1_epX_TD_TERMOUT_EN[epNumber]);
1488:Generated_Source\PSoC5/USBUART_1.c **** 
1489:Generated_Source\PSoC5/USBUART_1.c ****                     /* Configure DmaNextTd to clear Data Ready status. */
1490:Generated_Source\PSoC5/USBUART_1.c ****                     (void) CyDmaTdSetAddress(USBUART_1_DmaNextTd[epNumber], LO16((uint32) &clearInD
1491:Generated_Source\PSoC5/USBUART_1.c ****                                                                                    LO16((uint32) &U
1492:Generated_Source\PSoC5/USBUART_1.c ****                 #else
1493:Generated_Source\PSoC5/USBUART_1.c ****                     /* Configure DMA to send all data. */
1494:Generated_Source\PSoC5/USBUART_1.c ****                     (void) CyDmaTdSetConfiguration(USBUART_1_DmaTd[epNumber], length,
ARM GAS  C:\Users\jon\AppData\Local\Temp\ccwaPz7c.s 			page 49


1495:Generated_Source\PSoC5/USBUART_1.c ****                                                    USBUART_1_DmaTd[epNumber], TD_TERMIN_EN | TD_INC
1496:Generated_Source\PSoC5/USBUART_1.c ****                     (void) CyDmaTdSetAddress(USBUART_1_DmaTd[epNumber], LO16((uint32) pData),
1497:Generated_Source\PSoC5/USBUART_1.c ****                                                                                LO16((uint32) &USBUA
1498:Generated_Source\PSoC5/USBUART_1.c ****                 #endif /* (USBUART_1_EP_DMA_AUTO_OPT == 0u) */
1499:Generated_Source\PSoC5/USBUART_1.c **** 
1500:Generated_Source\PSoC5/USBUART_1.c ****                 /* Clear any potential pending DMA requests before starting DMA channel to transfer
1501:Generated_Source\PSoC5/USBUART_1.c ****                 (void) CyDmaClearPendingDrq(USBUART_1_DmaChan[epNumber]);
1502:Generated_Source\PSoC5/USBUART_1.c ****                 /* Enable DMA. */
1503:Generated_Source\PSoC5/USBUART_1.c ****                 (void) CyDmaChSetInitialTd(USBUART_1_DmaChan[epNumber], USBUART_1_DmaTd[epNumber]);
1504:Generated_Source\PSoC5/USBUART_1.c ****                 (void) CyDmaChEnable(USBUART_1_DmaChan[epNumber], 1u);
1505:Generated_Source\PSoC5/USBUART_1.c ****             #endif /* (CY_PSOC4) */
1506:Generated_Source\PSoC5/USBUART_1.c ****             }
1507:Generated_Source\PSoC5/USBUART_1.c ****             else
1508:Generated_Source\PSoC5/USBUART_1.c ****             {
1509:Generated_Source\PSoC5/USBUART_1.c ****                 /* IN endpoint buffer (32 bytes) will shortly be preloaded by DMA. */
1510:Generated_Source\PSoC5/USBUART_1.c ****                 USBUART_1_EP[epNumber].apiEpState = USBUART_1_NO_EVENT_PENDING;
1511:Generated_Source\PSoC5/USBUART_1.c **** 
1512:Generated_Source\PSoC5/USBUART_1.c ****                 if (length > 0u)
1513:Generated_Source\PSoC5/USBUART_1.c ****                 {
1514:Generated_Source\PSoC5/USBUART_1.c ****                 #if (CY_PSOC4)
1515:Generated_Source\PSoC5/USBUART_1.c ****                     uint32 lengthDescr0, lengthDescr1;
1516:Generated_Source\PSoC5/USBUART_1.c ****                     uint32 channelNum = (uint32) USBUART_1_DmaChan[epNumber];
1517:Generated_Source\PSoC5/USBUART_1.c **** 
1518:Generated_Source\PSoC5/USBUART_1.c ****                     /* Get number of full bursts. */
1519:Generated_Source\PSoC5/USBUART_1.c ****                     USBUART_1_DmaEpBurstCnt[epNumber] = (uint8) (length / USBUART_1_DMA_BYTES_PER_B
1520:Generated_Source\PSoC5/USBUART_1.c **** 
1521:Generated_Source\PSoC5/USBUART_1.c ****                     /* Get number of elements in the last burst. */
1522:Generated_Source\PSoC5/USBUART_1.c ****                     USBUART_1_DmaEpLastBurstEl[epNumber] = (uint8) (length % USBUART_1_DMA_BYTES_PE
1523:Generated_Source\PSoC5/USBUART_1.c **** 
1524:Generated_Source\PSoC5/USBUART_1.c ****                     /* Get total number of bursts. */
1525:Generated_Source\PSoC5/USBUART_1.c ****                     USBUART_1_DmaEpBurstCnt[epNumber] += (0u != USBUART_1_DmaEpLastBurstEl[epNumber
1526:Generated_Source\PSoC5/USBUART_1.c **** 
1527:Generated_Source\PSoC5/USBUART_1.c ****                     /* Adjust number of data elements transferred in last burst. */
1528:Generated_Source\PSoC5/USBUART_1.c ****                     USBUART_1_DmaEpLastBurstEl[epNumber] = (0u != USBUART_1_DmaEpLastBurstEl[epNumb
1529:Generated_Source\PSoC5/USBUART_1.c ****                                                                           (USBUART_1_DmaEpLastBurst
1530:Generated_Source\PSoC5/USBUART_1.c ****                                                                           (USBUART_1_DMA_BYTES_PER_
1531:Generated_Source\PSoC5/USBUART_1.c **** 
1532:Generated_Source\PSoC5/USBUART_1.c ****                     /* Get number of data elements to transfer for descriptor 0 and 1. */
1533:Generated_Source\PSoC5/USBUART_1.c ****                     lengthDescr0 = (1u == USBUART_1_DmaEpBurstCnt[epNumber]) ? USBUART_1_DmaEpLastB
1534:Generated_Source\PSoC5/USBUART_1.c ****                     lengthDescr1 = (2u == USBUART_1_DmaEpBurstCnt[epNumber]) ? USBUART_1_DmaEpLastB
1535:Generated_Source\PSoC5/USBUART_1.c **** 
1536:Generated_Source\PSoC5/USBUART_1.c **** 
1537:Generated_Source\PSoC5/USBUART_1.c ****                     /* Mark which descriptor is last one to execute. */
1538:Generated_Source\PSoC5/USBUART_1.c ****                     USBUART_1_DmaEpLastBurstEl[epNumber] |= (0u != (USBUART_1_DmaEpBurstCnt[epNumbe
1539:Generated_Source\PSoC5/USBUART_1.c ****                                                                             USBUART_1_DMA_DESCR0_MA
1540:Generated_Source\PSoC5/USBUART_1.c **** 
1541:Generated_Source\PSoC5/USBUART_1.c ****                     /* Restore DMA settings for current transfer. */
1542:Generated_Source\PSoC5/USBUART_1.c ****                     USBUART_1_CyDmaChDisable(channelNum);
1543:Generated_Source\PSoC5/USBUART_1.c **** 
1544:Generated_Source\PSoC5/USBUART_1.c ****                     /* Restore destination address for input endpoint. */
1545:Generated_Source\PSoC5/USBUART_1.c ****                     USBUART_1_CyDmaSetSrcAddress(channelNum, USBUART_1_DMA_DESCR0, (void*) ((uint32
1546:Generated_Source\PSoC5/USBUART_1.c ****                     USBUART_1_CyDmaSetSrcAddress(channelNum, USBUART_1_DMA_DESCR1, (void*) ((uint32
1547:Generated_Source\PSoC5/USBUART_1.c ****                                                                                                    
1548:Generated_Source\PSoC5/USBUART_1.c **** 
1549:Generated_Source\PSoC5/USBUART_1.c ****                     /* Set number of elements to transfer. */
1550:Generated_Source\PSoC5/USBUART_1.c ****                     USBUART_1_CyDmaSetNumDataElements(channelNum, USBUART_1_DMA_DESCR0, lengthDescr
1551:Generated_Source\PSoC5/USBUART_1.c ****                     USBUART_1_CyDmaSetNumDataElements(channelNum, USBUART_1_DMA_DESCR1, lengthDescr
ARM GAS  C:\Users\jon\AppData\Local\Temp\ccwaPz7c.s 			page 50


1552:Generated_Source\PSoC5/USBUART_1.c **** 
1553:Generated_Source\PSoC5/USBUART_1.c ****                     /* Validate descriptor 0 and command to start with it. */
1554:Generated_Source\PSoC5/USBUART_1.c ****                     USBUART_1_CyDmaValidateDescriptor(channelNum, USBUART_1_DMA_DESCR0);
1555:Generated_Source\PSoC5/USBUART_1.c ****                     USBUART_1_CyDmaSetDescriptor0Next(channelNum);
1556:Generated_Source\PSoC5/USBUART_1.c **** 
1557:Generated_Source\PSoC5/USBUART_1.c ****                     /* Validate descriptor 1. */
1558:Generated_Source\PSoC5/USBUART_1.c ****                     if (USBUART_1_DmaEpBurstCnt[epNumber] > 1u)
1559:Generated_Source\PSoC5/USBUART_1.c ****                     {
1560:Generated_Source\PSoC5/USBUART_1.c ****                         USBUART_1_CyDmaValidateDescriptor(channelNum, USBUART_1_DMA_DESCR1); 
1561:Generated_Source\PSoC5/USBUART_1.c ****                     }                   
1562:Generated_Source\PSoC5/USBUART_1.c **** 
1563:Generated_Source\PSoC5/USBUART_1.c ****                     /* Adjust burst counter taking to account: 2 valid descriptors and interrupt tr
1564:Generated_Source\PSoC5/USBUART_1.c ****                     USBUART_1_DmaEpBurstCnt[epNumber] = USBUART_1_DMA_GET_BURST_CNT(USBUART_1_DmaEp
1565:Generated_Source\PSoC5/USBUART_1.c **** 
1566:Generated_Source\PSoC5/USBUART_1.c ****                     /* Enable DMA channel: configuration complete. */
1567:Generated_Source\PSoC5/USBUART_1.c ****                     USBUART_1_CyDmaChEnable(channelNum);
1568:Generated_Source\PSoC5/USBUART_1.c **** 
1569:Generated_Source\PSoC5/USBUART_1.c ****                 #elif (USBUART_1_EP_DMA_AUTO_OPT == 0u)
1570:Generated_Source\PSoC5/USBUART_1.c ****                     USBUART_1_inLength[epNumber]  = length;
1571:Generated_Source\PSoC5/USBUART_1.c ****                     USBUART_1_inBufFull[epNumber] = 0u;
1572:Generated_Source\PSoC5/USBUART_1.c **** 
1573:Generated_Source\PSoC5/USBUART_1.c ****                     (void) CyDmaChDisable(USBUART_1_DmaChan[epNumber]);
1574:Generated_Source\PSoC5/USBUART_1.c ****                     /* Configure DMA to send data only for first burst. */
1575:Generated_Source\PSoC5/USBUART_1.c ****                     (void) CyDmaTdSetConfiguration(
1576:Generated_Source\PSoC5/USBUART_1.c ****                         USBUART_1_DmaTd[epNumber], (length > USBUART_1_DMA_BYTES_PER_BURST) ?
1577:Generated_Source\PSoC5/USBUART_1.c ****                         USBUART_1_DMA_BYTES_PER_BURST : length,
1578:Generated_Source\PSoC5/USBUART_1.c ****                         USBUART_1_DmaNextTd[epNumber], TD_TERMIN_EN | TD_INC_SRC_ADR );
1579:Generated_Source\PSoC5/USBUART_1.c ****                     (void) CyDmaTdSetAddress(USBUART_1_DmaTd[epNumber], LO16((uint32)  USBUART_1_in
1580:Generated_Source\PSoC5/USBUART_1.c ****                                                                                LO16((uint32) &USBUA
1581:Generated_Source\PSoC5/USBUART_1.c ****                     /* Clear Any potential pending DMA requests before starting DMA channel to tran
1582:Generated_Source\PSoC5/USBUART_1.c ****                     (void) CyDmaClearPendingDrq(USBUART_1_DmaChan[epNumber]);
1583:Generated_Source\PSoC5/USBUART_1.c ****                     /* Enable DMA. */
1584:Generated_Source\PSoC5/USBUART_1.c ****                     (void) CyDmaChSetInitialTd(USBUART_1_DmaChan[epNumber], USBUART_1_DmaTd[epNumbe
1585:Generated_Source\PSoC5/USBUART_1.c ****                     (void) CyDmaChEnable(USBUART_1_DmaChan[epNumber], 1u);
1586:Generated_Source\PSoC5/USBUART_1.c ****                 #endif /* (CY_PSOC4) */
1587:Generated_Source\PSoC5/USBUART_1.c **** 
1588:Generated_Source\PSoC5/USBUART_1.c ****                 #if !defined (USBUART_1_MANUAL_IN_EP_ARM)
1589:Generated_Source\PSoC5/USBUART_1.c ****                     /* Set IN data ready to generate DMA request to load data into endpoint buffer.
1590:Generated_Source\PSoC5/USBUART_1.c ****                     USBUART_1_ARB_EP_BASE.arbEp[epNumber].epCfg |= USBUART_1_ARB_EPX_CFG_IN_DATA_RD
1591:Generated_Source\PSoC5/USBUART_1.c ****                 #endif  /* (USBUART_1_MANUAL_IN_EP_ARM) */
1592:Generated_Source\PSoC5/USBUART_1.c **** 
1593:Generated_Source\PSoC5/USBUART_1.c ****                     /* IN endpoint will be armed in ARB_ISR(source: IN_BUF_FULL) after first DMA tr
1594:Generated_Source\PSoC5/USBUART_1.c ****                 }
1595:Generated_Source\PSoC5/USBUART_1.c ****                 else
1596:Generated_Source\PSoC5/USBUART_1.c ****                 {
1597:Generated_Source\PSoC5/USBUART_1.c ****                     /* When zero-length packet: arm IN endpoint directly. */
1598:Generated_Source\PSoC5/USBUART_1.c ****                     USBUART_1_SIE_EP_BASE.sieEp[epNumber].epCr0 = USBUART_1_EP[epNumber].epMode;
1599:Generated_Source\PSoC5/USBUART_1.c ****                 }
1600:Generated_Source\PSoC5/USBUART_1.c ****             }
1601:Generated_Source\PSoC5/USBUART_1.c ****         #endif /* (USBUART_1_EP_MANAGEMENT_DMA_AUTO) */
1602:Generated_Source\PSoC5/USBUART_1.c ****     #endif /* (USBUART_1_EP_MANAGEMENT_MANUAL) */
1603:Generated_Source\PSoC5/USBUART_1.c ****     }
1604:Generated_Source\PSoC5/USBUART_1.c **** }
1605:Generated_Source\PSoC5/USBUART_1.c **** 
1606:Generated_Source\PSoC5/USBUART_1.c **** 
1607:Generated_Source\PSoC5/USBUART_1.c **** /*******************************************************************************
1608:Generated_Source\PSoC5/USBUART_1.c **** * Function Name: USBUART_1_ReadOutEP
ARM GAS  C:\Users\jon\AppData\Local\Temp\ccwaPz7c.s 			page 51


1609:Generated_Source\PSoC5/USBUART_1.c **** ****************************************************************************//**
1610:Generated_Source\PSoC5/USBUART_1.c **** *
1611:Generated_Source\PSoC5/USBUART_1.c **** *   This function performs different functionality depending on the Component’s
1612:Generated_Source\PSoC5/USBUART_1.c **** *   configured Endpoint Buffer Management. This parameter is defined in the
1613:Generated_Source\PSoC5/USBUART_1.c **** *   Descriptor Root in Component Configure window.
1614:Generated_Source\PSoC5/USBUART_1.c **** *
1615:Generated_Source\PSoC5/USBUART_1.c **** *   *Manual (Static/Dynamic Allocation):*
1616:Generated_Source\PSoC5/USBUART_1.c **** *   This function moves the specified number of bytes from endpoint buffer to
1617:Generated_Source\PSoC5/USBUART_1.c **** *   system RAM. The number of bytes actually transferred from endpoint buffer to
1618:Generated_Source\PSoC5/USBUART_1.c **** *   system RAM is the lesser of the actual number of bytes sent by the host or
1619:Generated_Source\PSoC5/USBUART_1.c **** *   the number of bytes requested by the length parameter.
1620:Generated_Source\PSoC5/USBUART_1.c **** *
1621:Generated_Source\PSoC5/USBUART_1.c **** *   *DMA with Manual Buffer Management:*
1622:Generated_Source\PSoC5/USBUART_1.c **** *   Configure DMA to transfer data from endpoint buffer to system RAM. Generate
1623:Generated_Source\PSoC5/USBUART_1.c **** *   a DMA request. The firmware must wait until the DMA completes the data
1624:Generated_Source\PSoC5/USBUART_1.c **** *   transfer after calling the USBUART_1_ReadOutEP() API. For example,
1625:Generated_Source\PSoC5/USBUART_1.c **** *   by checking EPstate:
1626:Generated_Source\PSoC5/USBUART_1.c **** *
1627:Generated_Source\PSoC5/USBUART_1.c **** *   \snippet /USBFS_sut_02.cydsn/main.c checking EPstatey
1628:Generated_Source\PSoC5/USBUART_1.c **** *
1629:Generated_Source\PSoC5/USBUART_1.c **** *   The USBFS_EnableOutEP() has to be called to allow host to write data into
1630:Generated_Source\PSoC5/USBUART_1.c **** *   the endpoint buffer after DMA has completed transfer data from OUT endpoint
1631:Generated_Source\PSoC5/USBUART_1.c **** *   buffer to SRAM.
1632:Generated_Source\PSoC5/USBUART_1.c **** *
1633:Generated_Source\PSoC5/USBUART_1.c **** *   *DMA with Automatic Buffer Management:*
1634:Generated_Source\PSoC5/USBUART_1.c **** *   Configure DMA. This is required only once and automatically generates DMA
1635:Generated_Source\PSoC5/USBUART_1.c **** *   requests as data arrives
1636:Generated_Source\PSoC5/USBUART_1.c **** *
1637:Generated_Source\PSoC5/USBUART_1.c **** *  \param epNumber: Contains the data endpoint number.
1638:Generated_Source\PSoC5/USBUART_1.c **** *            Valid values are between 1 and 8.
1639:Generated_Source\PSoC5/USBUART_1.c **** *  \param pData: A pointer to a data array from which the data for the endpoint
1640:Generated_Source\PSoC5/USBUART_1.c **** *         space is loaded.
1641:Generated_Source\PSoC5/USBUART_1.c **** *  \param length: The number of bytes to transfer from the USB Out endpoint and
1642:Generated_Source\PSoC5/USBUART_1.c **** *          loads it into data array. Valid values are between 0 and 1023. The
1643:Generated_Source\PSoC5/USBUART_1.c **** *          function moves fewer than the requested number of bytes if the host
1644:Generated_Source\PSoC5/USBUART_1.c **** *          sends fewer bytes than requested.
1645:Generated_Source\PSoC5/USBUART_1.c **** *
1646:Generated_Source\PSoC5/USBUART_1.c **** * \return
1647:Generated_Source\PSoC5/USBUART_1.c **** *  Number of bytes received, 0 for an invalid endpoint.
1648:Generated_Source\PSoC5/USBUART_1.c **** *
1649:Generated_Source\PSoC5/USBUART_1.c **** * \reentrant
1650:Generated_Source\PSoC5/USBUART_1.c **** *  No.
1651:Generated_Source\PSoC5/USBUART_1.c **** *
1652:Generated_Source\PSoC5/USBUART_1.c **** *******************************************************************************/
1653:Generated_Source\PSoC5/USBUART_1.c **** uint16 USBUART_1_ReadOutEP(uint8 epNumber, uint8 pData[], uint16 length)
1654:Generated_Source\PSoC5/USBUART_1.c ****                                                                         
1655:Generated_Source\PSoC5/USBUART_1.c **** {
 1115              		.loc 1 1655 0
 1116              		.cfi_startproc
 1117              		@ args = 0, pretend = 0, frame = 0
 1118              		@ frame_needed = 0, uses_anonymous_args = 0
 1119              		@ link register save eliminated.
 1120              	.LVL65:
1656:Generated_Source\PSoC5/USBUART_1.c ****     if ((pData != NULL) && (epNumber > USBUART_1_EP0) && (epNumber < USBUART_1_MAX_EP))
 1121              		.loc 1 1656 0
 1122 0000 69B3     		cbz	r1, .L80
 1123              		.loc 1 1656 0 is_stmt 0 discriminator 1
ARM GAS  C:\Users\jon\AppData\Local\Temp\ccwaPz7c.s 			page 52


 1124 0002 431E     		subs	r3, r0, #1
 1125 0004 072B     		cmp	r3, #7
 1126 0006 27D8     		bhi	.L81
 1127              	.LVL66:
1655:Generated_Source\PSoC5/USBUART_1.c ****     if ((pData != NULL) && (epNumber > USBUART_1_EP0) && (epNumber < USBUART_1_MAX_EP))
 1128              		.loc 1 1655 0 is_stmt 1
 1129 0008 F0B4     		push	{r4, r5, r6, r7}
 1130              		.cfi_def_cfa_offset 16
 1131              		.cfi_offset 4, -16
 1132              		.cfi_offset 5, -12
 1133              		.cfi_offset 6, -8
 1134              		.cfi_offset 7, -4
 1135 000a 1B4D     		ldr	r5, .L86
 1136 000c 0701     		lsls	r7, r0, #4
 1137 000e 2E46     		mov	r6, r5
 1138              	.LBB29:
 1139              	.LBB30:
 1140              	.LBB31:
 1141              	.LBB32:
 989:Generated_Source\PSoC5/USBUART_1.c ****         cntr  = ((uint16) (cntr << 8u)) | ((uint16) USBUART_1_SIE_EP_BASE.sieEp[epNumber].epCnt1);
 1142              		.loc 1 989 0
 1143 0010 7B5D     		ldrb	r3, [r7, r5]	@ zero_extendqisi2
 1144              	.LVL67:
 1145 0012 3E44     		add	r6, r6, r7
 990:Generated_Source\PSoC5/USBUART_1.c ****         cntr -= USBUART_1_EPX_CNTX_CRC_COUNT;
 1146              		.loc 1 990 0
 1147 0014 7478     		ldrb	r4, [r6, #1]	@ zero_extendqisi2
 1148 0016 03F00F03 		and	r3, r3, #15
 1149              	.LBE32:
 1150              	.LBE31:
 1151              	.LBE30:
 1152              	.LBE29:
1657:Generated_Source\PSoC5/USBUART_1.c ****     {
1658:Generated_Source\PSoC5/USBUART_1.c ****     #if (!USBUART_1_EP_MANAGEMENT_DMA_AUTO)
1659:Generated_Source\PSoC5/USBUART_1.c ****         /* Adjust requested length to available data. */
1660:Generated_Source\PSoC5/USBUART_1.c ****         length = (length > USBUART_1_GetEPCount(epNumber)) ? USBUART_1_GetEPCount(epNumber) : lengt
 1153              		.loc 1 1660 0
 1154 001a 44EA0323 		orr	r3, r4, r3, lsl #8
 1155 001e 023B     		subs	r3, r3, #2
 1156 0020 9BB2     		uxth	r3, r3
 1157 0022 9A42     		cmp	r2, r3
 1158 0024 1ED8     		bhi	.L85
 1159              	.LVL68:
 1160              	.L76:
 1161              	.LBB33:
1661:Generated_Source\PSoC5/USBUART_1.c ****     #endif /* (!USBUART_1_EP_MANAGEMENT_DMA_AUTO) */
1662:Generated_Source\PSoC5/USBUART_1.c **** 
1663:Generated_Source\PSoC5/USBUART_1.c ****     #if (USBUART_1_EP_MANAGEMENT_MANUAL)
1664:Generated_Source\PSoC5/USBUART_1.c ****         {
1665:Generated_Source\PSoC5/USBUART_1.c ****             /* Copy data using arbiter data register. */
1666:Generated_Source\PSoC5/USBUART_1.c ****             uint16 i;
1667:Generated_Source\PSoC5/USBUART_1.c ****             for (i = 0u; i < length; ++i)
 1162              		.loc 1 1667 0 discriminator 4
 1163 0026 52B1     		cbz	r2, .L79
 1164 0028 541E     		subs	r4, r2, #1
1668:Generated_Source\PSoC5/USBUART_1.c ****             {
1669:Generated_Source\PSoC5/USBUART_1.c ****                 pData[i] = (uint8) USBUART_1_ARB_EP_BASE.arbEp[epNumber].rwDr;
ARM GAS  C:\Users\jon\AppData\Local\Temp\ccwaPz7c.s 			page 53


 1165              		.loc 1 1669 0
 1166 002a 144D     		ldr	r5, .L86+4
 1167 002c A4B2     		uxth	r4, r4
 1168 002e 0C44     		add	r4, r4, r1
 1169 0030 3D44     		add	r5, r5, r7
 1170 0032 0139     		subs	r1, r1, #1
 1171              	.LVL69:
 1172              	.L78:
 1173              		.loc 1 1669 0 is_stmt 0 discriminator 3
 1174 0034 2B7A     		ldrb	r3, [r5, #8]	@ zero_extendqisi2
 1175 0036 01F8013F 		strb	r3, [r1, #1]!
 1176              	.LVL70:
1667:Generated_Source\PSoC5/USBUART_1.c ****             {
 1177              		.loc 1 1667 0 is_stmt 1 discriminator 3
 1178 003a A142     		cmp	r1, r4
 1179 003c FAD1     		bne	.L78
 1180              	.LVL71:
 1181              	.L79:
 1182              	.LBE33:
 1183              	.LBB34:
 1184              	.LBB35:
1670:Generated_Source\PSoC5/USBUART_1.c ****             }
1671:Generated_Source\PSoC5/USBUART_1.c ****         }
1672:Generated_Source\PSoC5/USBUART_1.c **** 
1673:Generated_Source\PSoC5/USBUART_1.c ****         /* Arm OUT endpoint after data has been copied from endpoint buffer. */
1674:Generated_Source\PSoC5/USBUART_1.c ****         USBUART_1_EnableOutEP(epNumber);
1675:Generated_Source\PSoC5/USBUART_1.c ****     #else
1676:Generated_Source\PSoC5/USBUART_1.c **** 
1677:Generated_Source\PSoC5/USBUART_1.c ****         #if (CY_PSOC3 || CY_PSOC5LP)
1678:Generated_Source\PSoC5/USBUART_1.c ****             /* Initialize DMA if it was not initialized. */
1679:Generated_Source\PSoC5/USBUART_1.c ****             if (DMA_INVALID_TD == USBUART_1_DmaTd[epNumber])
1680:Generated_Source\PSoC5/USBUART_1.c ****             {
1681:Generated_Source\PSoC5/USBUART_1.c ****                 USBUART_1_InitEP_DMA(epNumber, pData);
1682:Generated_Source\PSoC5/USBUART_1.c ****             }
1683:Generated_Source\PSoC5/USBUART_1.c ****         #endif /* (CY_PSOC3 || CY_PSOC5LP) */
1684:Generated_Source\PSoC5/USBUART_1.c **** 
1685:Generated_Source\PSoC5/USBUART_1.c ****         #if (USBUART_1_EP_MANAGEMENT_DMA_MANUAL)
1686:Generated_Source\PSoC5/USBUART_1.c ****         #if (CY_PSOC4)
1687:Generated_Source\PSoC5/USBUART_1.c ****         {
1688:Generated_Source\PSoC5/USBUART_1.c ****             uint32 channelNum = (uint32) USBUART_1_DmaChan[epNumber];
1689:Generated_Source\PSoC5/USBUART_1.c **** 
1690:Generated_Source\PSoC5/USBUART_1.c ****             /* Disable DMA channel: start configuration. */
1691:Generated_Source\PSoC5/USBUART_1.c ****             USBUART_1_CyDmaChDisable(channelNum);
1692:Generated_Source\PSoC5/USBUART_1.c **** 
1693:Generated_Source\PSoC5/USBUART_1.c ****             /* Configure source and destination. */
1694:Generated_Source\PSoC5/USBUART_1.c ****             USBUART_1_CyDmaSetSrcAddress(channelNum, USBUART_1_DMA_DESCR0, (void*) &USBUART_1_ARB_E
1695:Generated_Source\PSoC5/USBUART_1.c ****             USBUART_1_CyDmaSetDstAddress(channelNum, USBUART_1_DMA_DESCR0, (void*) pData);
1696:Generated_Source\PSoC5/USBUART_1.c **** 
1697:Generated_Source\PSoC5/USBUART_1.c ****             /* Configure DMA descriptor. */
1698:Generated_Source\PSoC5/USBUART_1.c ****             USBUART_1_CyDmaSetConfiguration(channelNum, USBUART_1_DMA_DESCR0, USBUART_1_DMA_COMMON_
1699:Generated_Source\PSoC5/USBUART_1.c ****                                                     CYDMA_BYTE | CYDMA_WORD_ELEMENT | CYDMA_INC_DST
1700:Generated_Source\PSoC5/USBUART_1.c **** 
1701:Generated_Source\PSoC5/USBUART_1.c ****             /* Validate descriptor to execute on following DMA request. */
1702:Generated_Source\PSoC5/USBUART_1.c ****             USBUART_1_CyDmaValidateDescriptor(channelNum, USBUART_1_DMA_DESCR0);
1703:Generated_Source\PSoC5/USBUART_1.c **** 
1704:Generated_Source\PSoC5/USBUART_1.c ****             /* Enable DMA channel: configuration complete. */
1705:Generated_Source\PSoC5/USBUART_1.c ****             USBUART_1_CyDmaChEnable(channelNum);
ARM GAS  C:\Users\jon\AppData\Local\Temp\ccwaPz7c.s 			page 54


1706:Generated_Source\PSoC5/USBUART_1.c ****         }
1707:Generated_Source\PSoC5/USBUART_1.c ****         #else
1708:Generated_Source\PSoC5/USBUART_1.c ****             /* Configure DMA to transfer data. */
1709:Generated_Source\PSoC5/USBUART_1.c ****             (void) CyDmaChDisable(USBUART_1_DmaChan[epNumber]);
1710:Generated_Source\PSoC5/USBUART_1.c ****             (void) CyDmaTdSetConfiguration(USBUART_1_DmaTd[epNumber], length, CY_DMA_DISABLE_TD, TD
1711:Generated_Source\PSoC5/USBUART_1.c ****             (void) CyDmaTdSetAddress(USBUART_1_DmaTd[epNumber], LO16((uint32) &USBUART_1_ARB_EP_BAS
1712:Generated_Source\PSoC5/USBUART_1.c **** 
1713:Generated_Source\PSoC5/USBUART_1.c ****             /* Enable DMA channel. */
1714:Generated_Source\PSoC5/USBUART_1.c ****             (void) CyDmaChSetInitialTd(USBUART_1_DmaChan[epNumber], USBUART_1_DmaTd[epNumber]);
1715:Generated_Source\PSoC5/USBUART_1.c ****             (void) CyDmaChEnable(USBUART_1_DmaChan[epNumber], 1u);
1716:Generated_Source\PSoC5/USBUART_1.c ****         #endif /* (CY_PSOC4) */
1717:Generated_Source\PSoC5/USBUART_1.c **** 
1718:Generated_Source\PSoC5/USBUART_1.c ****             /* Generate DMA request. */
1719:Generated_Source\PSoC5/USBUART_1.c ****             USBUART_1_ARB_EP_BASE.arbEp[epNumber].epCfg |=  (uint8)  USBUART_1_ARB_EPX_CFG_DMA_REQ;
1720:Generated_Source\PSoC5/USBUART_1.c ****             USBUART_1_ARB_EP_BASE.arbEp[epNumber].epCfg &=  (uint8) ~USBUART_1_ARB_EPX_CFG_DMA_REQ;
1721:Generated_Source\PSoC5/USBUART_1.c **** 
1722:Generated_Source\PSoC5/USBUART_1.c ****             /* OUT endpoint has to be armed again by user when DMA transfers have been completed.
1723:Generated_Source\PSoC5/USBUART_1.c ****             * NO_EVENT_PENDING: notifies that data has been copied from endpoint buffer.
1724:Generated_Source\PSoC5/USBUART_1.c ****             */
1725:Generated_Source\PSoC5/USBUART_1.c **** 
1726:Generated_Source\PSoC5/USBUART_1.c ****         #endif /* (USBUART_1_EP_MANAGEMENT_DMA_MANUAL) */
1727:Generated_Source\PSoC5/USBUART_1.c **** 
1728:Generated_Source\PSoC5/USBUART_1.c ****         #if (USBUART_1_EP_MANAGEMENT_DMA_AUTO)
1729:Generated_Source\PSoC5/USBUART_1.c ****         #if (CY_PSOC4)
1730:Generated_Source\PSoC5/USBUART_1.c ****         {
1731:Generated_Source\PSoC5/USBUART_1.c ****             uint32 channelNum = (uint32) USBUART_1_DmaChan[epNumber];
1732:Generated_Source\PSoC5/USBUART_1.c ****             uint32 lengthDescr0, lengthDescr1;
1733:Generated_Source\PSoC5/USBUART_1.c **** 
1734:Generated_Source\PSoC5/USBUART_1.c ****             /* Get number of full bursts. */
1735:Generated_Source\PSoC5/USBUART_1.c ****             USBUART_1_DmaEpBurstCnt[epNumber] = (uint8) (length / USBUART_1_DMA_BYTES_PER_BURST);
1736:Generated_Source\PSoC5/USBUART_1.c **** 
1737:Generated_Source\PSoC5/USBUART_1.c ****             /* Get number of elements in the last burst. */
1738:Generated_Source\PSoC5/USBUART_1.c ****             USBUART_1_DmaEpLastBurstEl[epNumber] = (uint8) (length % USBUART_1_DMA_BYTES_PER_BURST)
1739:Generated_Source\PSoC5/USBUART_1.c **** 
1740:Generated_Source\PSoC5/USBUART_1.c ****             /* Get total number of bursts. */
1741:Generated_Source\PSoC5/USBUART_1.c ****             USBUART_1_DmaEpBurstCnt[epNumber] += (0u != USBUART_1_DmaEpLastBurstEl[epNumber]) ? 1u 
1742:Generated_Source\PSoC5/USBUART_1.c **** 
1743:Generated_Source\PSoC5/USBUART_1.c ****             /* Adjust number of the data elements transfered in last burst. */
1744:Generated_Source\PSoC5/USBUART_1.c ****             USBUART_1_DmaEpLastBurstEl[epNumber] = (0u != USBUART_1_DmaEpLastBurstEl[epNumber]) ?
1745:Generated_Source\PSoC5/USBUART_1.c ****                                                                   (USBUART_1_DmaEpLastBurstEl[epNum
1746:Generated_Source\PSoC5/USBUART_1.c ****                                                                   (USBUART_1_DMA_BYTES_PER_BURST - 
1747:Generated_Source\PSoC5/USBUART_1.c **** 
1748:Generated_Source\PSoC5/USBUART_1.c ****             /* Get number of data elements to transfer for descriptor 0 and 1. */
1749:Generated_Source\PSoC5/USBUART_1.c ****             lengthDescr0 = (1u == USBUART_1_DmaEpBurstCnt[epNumber]) ? USBUART_1_DmaEpLastBurstEl[e
1750:Generated_Source\PSoC5/USBUART_1.c ****             lengthDescr1 = (2u == USBUART_1_DmaEpBurstCnt[epNumber]) ? USBUART_1_DmaEpLastBurstEl[e
1751:Generated_Source\PSoC5/USBUART_1.c **** 
1752:Generated_Source\PSoC5/USBUART_1.c ****             /* Mark if revert number of data elements in descriptor after transfer completion. */
1753:Generated_Source\PSoC5/USBUART_1.c ****             USBUART_1_DmaEpLastBurstEl[epNumber] |= (USBUART_1_DmaEpBurstCnt[epNumber] > 2u) ? USBU
1754:Generated_Source\PSoC5/USBUART_1.c **** 
1755:Generated_Source\PSoC5/USBUART_1.c ****             /* Mark last descriptor to be executed. */
1756:Generated_Source\PSoC5/USBUART_1.c ****             USBUART_1_DmaEpLastBurstEl[epNumber] |= (0u != (USBUART_1_DmaEpBurstCnt[epNumber] & 0x1
1757:Generated_Source\PSoC5/USBUART_1.c ****                                                                     USBUART_1_DMA_DESCR0_MASK : USB
1758:Generated_Source\PSoC5/USBUART_1.c **** 
1759:Generated_Source\PSoC5/USBUART_1.c ****             /* Store address of buffer and burst counter for endpoint. */
1760:Generated_Source\PSoC5/USBUART_1.c ****             USBUART_1_DmaEpBufferAddrBackup[epNumber] = (uint32) pData;
1761:Generated_Source\PSoC5/USBUART_1.c ****             USBUART_1_DmaEpBurstCntBackup[epNumber]   = USBUART_1_DmaEpBurstCnt[epNumber];
1762:Generated_Source\PSoC5/USBUART_1.c **** 
ARM GAS  C:\Users\jon\AppData\Local\Temp\ccwaPz7c.s 			page 55


1763:Generated_Source\PSoC5/USBUART_1.c ****             /* Adjust burst counter taking to account: 2 valid descriptors and interrupt trigger af
1764:Generated_Source\PSoC5/USBUART_1.c ****             USBUART_1_DmaEpBurstCnt[epNumber] = USBUART_1_DMA_GET_BURST_CNT(USBUART_1_DmaEpBurstCnt
1765:Generated_Source\PSoC5/USBUART_1.c **** 
1766:Generated_Source\PSoC5/USBUART_1.c ****             /* Disable DMA channel: start configuration. */
1767:Generated_Source\PSoC5/USBUART_1.c ****             USBUART_1_CyDmaChDisable(channelNum);
1768:Generated_Source\PSoC5/USBUART_1.c **** 
1769:Generated_Source\PSoC5/USBUART_1.c ****             /* Set destination address. */
1770:Generated_Source\PSoC5/USBUART_1.c ****             USBUART_1_CyDmaSetSrcAddress(channelNum, USBUART_1_DMA_DESCR0, (void*) &USBUART_1_ARB_E
1771:Generated_Source\PSoC5/USBUART_1.c ****             USBUART_1_CyDmaSetSrcAddress(channelNum, USBUART_1_DMA_DESCR1, (void*) &USBUART_1_ARB_E
1772:Generated_Source\PSoC5/USBUART_1.c **** 
1773:Generated_Source\PSoC5/USBUART_1.c ****             USBUART_1_CyDmaSetDstAddress(channelNum, USBUART_1_DMA_DESCR0, (void*) ((uint32) pData)
1774:Generated_Source\PSoC5/USBUART_1.c ****             USBUART_1_CyDmaSetDstAddress(channelNum, USBUART_1_DMA_DESCR1, (void*) ((uint32) pData 
1775:Generated_Source\PSoC5/USBUART_1.c **** 
1776:Generated_Source\PSoC5/USBUART_1.c ****             /* Configure DMA descriptor. */
1777:Generated_Source\PSoC5/USBUART_1.c ****             USBUART_1_CyDmaSetConfiguration(channelNum, USBUART_1_DMA_DESCR0, USBUART_1_DMA_COMMON_
1778:Generated_Source\PSoC5/USBUART_1.c ****                                                     CYDMA_BYTE | CYDMA_WORD_ELEMENT | CYDMA_INC_DST
1779:Generated_Source\PSoC5/USBUART_1.c **** 
1780:Generated_Source\PSoC5/USBUART_1.c ****             /* Configure DMA descriptor. */
1781:Generated_Source\PSoC5/USBUART_1.c ****             USBUART_1_CyDmaSetConfiguration(channelNum, USBUART_1_DMA_DESCR1, USBUART_1_DMA_COMMON_
1782:Generated_Source\PSoC5/USBUART_1.c ****                                                     CYDMA_BYTE | CYDMA_WORD_ELEMENT | CYDMA_INC_DST
1783:Generated_Source\PSoC5/USBUART_1.c **** 
1784:Generated_Source\PSoC5/USBUART_1.c ****             /* Enable interrupt from DMA channel. */
1785:Generated_Source\PSoC5/USBUART_1.c ****             USBUART_1_CyDmaSetInterruptMask(channelNum);
1786:Generated_Source\PSoC5/USBUART_1.c **** 
1787:Generated_Source\PSoC5/USBUART_1.c ****             /* Validate DMA descriptor 0 and 1. */
1788:Generated_Source\PSoC5/USBUART_1.c ****             USBUART_1_CyDmaValidateDescriptor(channelNum, USBUART_1_DMA_DESCR0);
1789:Generated_Source\PSoC5/USBUART_1.c **** 
1790:Generated_Source\PSoC5/USBUART_1.c ****             if (USBUART_1_DmaEpBurstCntBackup[epNumber] > 1u)
1791:Generated_Source\PSoC5/USBUART_1.c ****             {
1792:Generated_Source\PSoC5/USBUART_1.c ****                 USBUART_1_CyDmaValidateDescriptor(channelNum, USBUART_1_DMA_DESCR1);
1793:Generated_Source\PSoC5/USBUART_1.c ****             }
1794:Generated_Source\PSoC5/USBUART_1.c **** 
1795:Generated_Source\PSoC5/USBUART_1.c ****             /* Enable DMA channel: configuration complete. */
1796:Generated_Source\PSoC5/USBUART_1.c ****             USBUART_1_CyDmaChEnable(channelNum);
1797:Generated_Source\PSoC5/USBUART_1.c ****         }
1798:Generated_Source\PSoC5/USBUART_1.c ****         #else
1799:Generated_Source\PSoC5/USBUART_1.c ****             (void) CyDmaChDisable(USBUART_1_DmaChan[epNumber]);
1800:Generated_Source\PSoC5/USBUART_1.c ****             (void) CyDmaTdSetConfiguration(USBUART_1_DmaTd[epNumber], length,  USBUART_1_DmaTd[epNu
1801:Generated_Source\PSoC5/USBUART_1.c ****             (void) CyDmaTdSetAddress(USBUART_1_DmaTd[epNumber], LO16((uint32) &USBUART_1_ARB_EP_BAS
1802:Generated_Source\PSoC5/USBUART_1.c **** 
1803:Generated_Source\PSoC5/USBUART_1.c ****             /* Clear Any potential pending DMA requests before starting DMA channel to transfer dat
1804:Generated_Source\PSoC5/USBUART_1.c ****             (void) CyDmaClearPendingDrq(USBUART_1_DmaChan[epNumber]);
1805:Generated_Source\PSoC5/USBUART_1.c **** 
1806:Generated_Source\PSoC5/USBUART_1.c ****             /* Enable DMA channel. */
1807:Generated_Source\PSoC5/USBUART_1.c ****             (void) CyDmaChSetInitialTd(USBUART_1_DmaChan[epNumber], USBUART_1_DmaTd[epNumber]);
1808:Generated_Source\PSoC5/USBUART_1.c ****             (void) CyDmaChEnable(USBUART_1_DmaChan[epNumber], 1u);
1809:Generated_Source\PSoC5/USBUART_1.c ****         #endif /* (CY_PSOC4) */
1810:Generated_Source\PSoC5/USBUART_1.c **** 
1811:Generated_Source\PSoC5/USBUART_1.c ****             /* OUT endpoint has to be armed again by user when DMA transfers have been completed.
1812:Generated_Source\PSoC5/USBUART_1.c ****             * NO_EVENT_PENDING: notifies that data has been copied from endpoint buffer.
1813:Generated_Source\PSoC5/USBUART_1.c ****             */
1814:Generated_Source\PSoC5/USBUART_1.c **** 
1815:Generated_Source\PSoC5/USBUART_1.c ****         #endif /* (USBUART_1_EP_MANAGEMENT_DMA_AUTO) */
1816:Generated_Source\PSoC5/USBUART_1.c ****     #endif /* (USBUART_1_EP_MANAGEMENT_MANUAL) */
1817:Generated_Source\PSoC5/USBUART_1.c ****     }
1818:Generated_Source\PSoC5/USBUART_1.c ****     else
1819:Generated_Source\PSoC5/USBUART_1.c ****     {
ARM GAS  C:\Users\jon\AppData\Local\Temp\ccwaPz7c.s 			page 56


1820:Generated_Source\PSoC5/USBUART_1.c ****         length = 0u;
1821:Generated_Source\PSoC5/USBUART_1.c ****     }
1822:Generated_Source\PSoC5/USBUART_1.c **** 
1823:Generated_Source\PSoC5/USBUART_1.c ****     return (length);
1824:Generated_Source\PSoC5/USBUART_1.c **** }
1825:Generated_Source\PSoC5/USBUART_1.c **** 
1826:Generated_Source\PSoC5/USBUART_1.c **** 
1827:Generated_Source\PSoC5/USBUART_1.c **** #if (USBUART_1_16BITS_EP_ACCESS_ENABLE)
1828:Generated_Source\PSoC5/USBUART_1.c **** /*******************************************************************************
1829:Generated_Source\PSoC5/USBUART_1.c **** * Function Name: USBUART_1_LoadInEP16
1830:Generated_Source\PSoC5/USBUART_1.c **** ****************************************************************************//**
1831:Generated_Source\PSoC5/USBUART_1.c **** *
1832:Generated_Source\PSoC5/USBUART_1.c **** *  This function performs different functionality depending on the Component’s
1833:Generated_Source\PSoC5/USBUART_1.c **** *  configured Endpoint Buffer Management. This parameter is defined in
1834:Generated_Source\PSoC5/USBUART_1.c **** *  the Descriptor Root in Component Configure window.
1835:Generated_Source\PSoC5/USBUART_1.c **** *
1836:Generated_Source\PSoC5/USBUART_1.c **** *  *Manual (Static/Dynamic Allocation):*
1837:Generated_Source\PSoC5/USBUART_1.c **** *  This function loads and enables the specified USB data endpoint for an IN
1838:Generated_Source\PSoC5/USBUART_1.c **** *  data transfer.
1839:Generated_Source\PSoC5/USBUART_1.c **** *
1840:Generated_Source\PSoC5/USBUART_1.c **** *  *DMA with Manual Buffer Management:*
1841:Generated_Source\PSoC5/USBUART_1.c **** *  Configures DMA for a data transfer from system RAM to endpoint buffer.
1842:Generated_Source\PSoC5/USBUART_1.c **** *  Generates request for a transfer.
1843:Generated_Source\PSoC5/USBUART_1.c **** *
1844:Generated_Source\PSoC5/USBUART_1.c **** *  *DMA with Automatic Buffer Management:*
1845:Generated_Source\PSoC5/USBUART_1.c **** *  Configures DMA. This is required only once, so it is done only when parameter
1846:Generated_Source\PSoC5/USBUART_1.c **** *  pData is not NULL. When the pData pointer is NULL, the function skips this
1847:Generated_Source\PSoC5/USBUART_1.c **** *  task. Sets Data ready status: This generates the first DMA transfer and
1848:Generated_Source\PSoC5/USBUART_1.c **** *  prepares data in endpoint buffer.
1849:Generated_Source\PSoC5/USBUART_1.c **** *
1850:Generated_Source\PSoC5/USBUART_1.c **** *  \param epNumber Contains the data endpoint number.
1851:Generated_Source\PSoC5/USBUART_1.c **** *        Valid values are between 1 and 8.
1852:Generated_Source\PSoC5/USBUART_1.c **** *  \param *pData A pointer to a data array from which the data for the endpoint
1853:Generated_Source\PSoC5/USBUART_1.c **** *        space is loaded. It shall be ensured that this pointer address is even
1854:Generated_Source\PSoC5/USBUART_1.c **** *        to ensure the 16-bit transfer is aligned to even address. Else, a hard
1855:Generated_Source\PSoC5/USBUART_1.c **** *        fault condition can occur.
1856:Generated_Source\PSoC5/USBUART_1.c **** *  \param length The number of bytes to transfer from the array and then send as
1857:Generated_Source\PSoC5/USBUART_1.c **** *        a result of an IN request. Valid values are between 0 and 512 (1023 for
1858:Generated_Source\PSoC5/USBUART_1.c **** *        DMA with Automatic Buffer Management mode). The value 512 is applicable
1859:Generated_Source\PSoC5/USBUART_1.c **** *        if only one endpoint is used.
1860:Generated_Source\PSoC5/USBUART_1.c **** *
1861:Generated_Source\PSoC5/USBUART_1.c **** * \reentrant
1862:Generated_Source\PSoC5/USBUART_1.c **** *  No.
1863:Generated_Source\PSoC5/USBUART_1.c **** *
1864:Generated_Source\PSoC5/USBUART_1.c **** *******************************************************************************/
1865:Generated_Source\PSoC5/USBUART_1.c **** void USBUART_1_LoadInEP16(uint8 epNumber, const uint8 pData[], uint16 length)
1866:Generated_Source\PSoC5/USBUART_1.c **** {
1867:Generated_Source\PSoC5/USBUART_1.c ****     /* Check array alignment on half-word boundary. */
1868:Generated_Source\PSoC5/USBUART_1.c ****     CYASSERT(0u == (((uint32) pData) & 0x01u));
1869:Generated_Source\PSoC5/USBUART_1.c **** 
1870:Generated_Source\PSoC5/USBUART_1.c ****     if ((epNumber > USBUART_1_EP0) && (epNumber < USBUART_1_MAX_EP))
1871:Generated_Source\PSoC5/USBUART_1.c ****     {
1872:Generated_Source\PSoC5/USBUART_1.c ****     #if (!USBUART_1_EP_MANAGEMENT_DMA_AUTO)
1873:Generated_Source\PSoC5/USBUART_1.c ****         /* Limit length to available buffer USB IP buffer size. */
1874:Generated_Source\PSoC5/USBUART_1.c ****         if (length > (USBUART_1_EPX_DATA_BUF_MAX - USBUART_1_EP[epNumber].buffOffset))
1875:Generated_Source\PSoC5/USBUART_1.c ****         {
1876:Generated_Source\PSoC5/USBUART_1.c ****             length = USBUART_1_EPX_DATA_BUF_MAX - USBUART_1_EP[epNumber].buffOffset;
ARM GAS  C:\Users\jon\AppData\Local\Temp\ccwaPz7c.s 			page 57


1877:Generated_Source\PSoC5/USBUART_1.c ****         }
1878:Generated_Source\PSoC5/USBUART_1.c ****     #endif /* (!USBUART_1_EP_MANAGEMENT_DMA_AUTO) */
1879:Generated_Source\PSoC5/USBUART_1.c **** 
1880:Generated_Source\PSoC5/USBUART_1.c ****         /* Set count and data toggle. */
1881:Generated_Source\PSoC5/USBUART_1.c ****         USBUART_1_SIE_EP_BASE.sieEp[epNumber].epCnt0 = (uint32) HI8(length) | USBUART_1_EP[epNumber
1882:Generated_Source\PSoC5/USBUART_1.c ****         USBUART_1_SIE_EP_BASE.sieEp[epNumber].epCnt1 = (uint32) LO8(length);
1883:Generated_Source\PSoC5/USBUART_1.c **** 
1884:Generated_Source\PSoC5/USBUART_1.c ****         /* Adjust requested length: 2 bytes are handled at one data register access. */
1885:Generated_Source\PSoC5/USBUART_1.c ****         length += (length & 0x01u);
1886:Generated_Source\PSoC5/USBUART_1.c **** 
1887:Generated_Source\PSoC5/USBUART_1.c ****     #if (USBUART_1_EP_MANAGEMENT_MANUAL)
1888:Generated_Source\PSoC5/USBUART_1.c ****         if (NULL != pData)
1889:Generated_Source\PSoC5/USBUART_1.c ****         {
1890:Generated_Source\PSoC5/USBUART_1.c ****             /* Convert uint8 array to uint16. */
1891:Generated_Source\PSoC5/USBUART_1.c ****             const uint16 *dataBuf = (uint16 *) pData;
1892:Generated_Source\PSoC5/USBUART_1.c **** 
1893:Generated_Source\PSoC5/USBUART_1.c ****             /* Copy data using 16-bits arbiter data register. */
1894:Generated_Source\PSoC5/USBUART_1.c ****             uint16 i;
1895:Generated_Source\PSoC5/USBUART_1.c ****             for (i = 0u; i < (length >> 1u); ++i)
1896:Generated_Source\PSoC5/USBUART_1.c ****             {
1897:Generated_Source\PSoC5/USBUART_1.c ****                 USBUART_1_ARB_EP16_BASE.arbEp[epNumber].rwDr16 = dataBuf[i];
1898:Generated_Source\PSoC5/USBUART_1.c ****             }
1899:Generated_Source\PSoC5/USBUART_1.c ****         }
1900:Generated_Source\PSoC5/USBUART_1.c **** 
1901:Generated_Source\PSoC5/USBUART_1.c ****         /* IN endpoint buffer is full - read to be read. */
1902:Generated_Source\PSoC5/USBUART_1.c ****         USBUART_1_EP[epNumber].apiEpState = USBUART_1_NO_EVENT_PENDING;
1903:Generated_Source\PSoC5/USBUART_1.c **** 
1904:Generated_Source\PSoC5/USBUART_1.c ****         /* Arm IN endpoint. */
1905:Generated_Source\PSoC5/USBUART_1.c ****         USBUART_1_SIE_EP_BASE.sieEp[epNumber].epCr0 = USBUART_1_EP[epNumber].epMode;
1906:Generated_Source\PSoC5/USBUART_1.c **** 
1907:Generated_Source\PSoC5/USBUART_1.c ****     #else
1908:Generated_Source\PSoC5/USBUART_1.c **** 
1909:Generated_Source\PSoC5/USBUART_1.c ****         #if (USBUART_1_EP_MANAGEMENT_DMA_MANUAL)
1910:Generated_Source\PSoC5/USBUART_1.c ****             /* IN endpoint buffer will be fully loaded by DMA shortly. */
1911:Generated_Source\PSoC5/USBUART_1.c ****             USBUART_1_EP[epNumber].apiEpState = USBUART_1_NO_EVENT_PENDING;
1912:Generated_Source\PSoC5/USBUART_1.c **** 
1913:Generated_Source\PSoC5/USBUART_1.c ****             if ((pData != NULL) && (length > 0u))
1914:Generated_Source\PSoC5/USBUART_1.c ****             {
1915:Generated_Source\PSoC5/USBUART_1.c ****                 uint32 channelNum = (uint32) USBUART_1_DmaChan[epNumber];
1916:Generated_Source\PSoC5/USBUART_1.c **** 
1917:Generated_Source\PSoC5/USBUART_1.c ****                 /* Disable DMA channel: start configuration. */
1918:Generated_Source\PSoC5/USBUART_1.c ****                 USBUART_1_CyDmaChDisable(channelNum);
1919:Generated_Source\PSoC5/USBUART_1.c **** 
1920:Generated_Source\PSoC5/USBUART_1.c ****                 /* Configure source and destination. */
1921:Generated_Source\PSoC5/USBUART_1.c ****                 USBUART_1_CyDmaSetSrcAddress(channelNum, USBUART_1_DMA_DESCR0, (void*) pData);
1922:Generated_Source\PSoC5/USBUART_1.c ****                 USBUART_1_CyDmaSetDstAddress(channelNum, USBUART_1_DMA_DESCR0, (void*) &USBUART_1_A
1923:Generated_Source\PSoC5/USBUART_1.c **** 
1924:Generated_Source\PSoC5/USBUART_1.c ****                 /* Configure DMA descriptor. */
1925:Generated_Source\PSoC5/USBUART_1.c ****                 length = (length >> 1u) - 1u;
1926:Generated_Source\PSoC5/USBUART_1.c ****                 USBUART_1_CyDmaSetConfiguration(channelNum, USBUART_1_DMA_DESCR0, USBUART_1_DMA_COM
1927:Generated_Source\PSoC5/USBUART_1.c ****                                                         CYDMA_HALFWORD | CYDMA_ELEMENT_WORD | CYDMA
1928:Generated_Source\PSoC5/USBUART_1.c **** 
1929:Generated_Source\PSoC5/USBUART_1.c ****                 /* Validate descriptor to execute on following DMA request. */
1930:Generated_Source\PSoC5/USBUART_1.c ****                 USBUART_1_CyDmaValidateDescriptor(channelNum, USBUART_1_DMA_DESCR0);
1931:Generated_Source\PSoC5/USBUART_1.c **** 
1932:Generated_Source\PSoC5/USBUART_1.c ****                 /* Enable DMA channel: configuration complete. */
1933:Generated_Source\PSoC5/USBUART_1.c ****                 USBUART_1_CyDmaChEnable(channelNum);
ARM GAS  C:\Users\jon\AppData\Local\Temp\ccwaPz7c.s 			page 58


1934:Generated_Source\PSoC5/USBUART_1.c **** 
1935:Generated_Source\PSoC5/USBUART_1.c ****                 /* Generate DMA request. */
1936:Generated_Source\PSoC5/USBUART_1.c ****                 USBUART_1_ARB_EP_BASE.arbEp[epNumber].epCfg |=  (uint32)  USBUART_1_ARB_EPX_CFG_DMA
1937:Generated_Source\PSoC5/USBUART_1.c ****                 USBUART_1_ARB_EP_BASE.arbEp[epNumber].epCfg &=  (uint32) ~USBUART_1_ARB_EPX_CFG_DMA
1938:Generated_Source\PSoC5/USBUART_1.c **** 
1939:Generated_Source\PSoC5/USBUART_1.c ****                 /* IN endpoint will be armed in ARB_ISR(source: IN_BUF_FULL) after first DMA transf
1940:Generated_Source\PSoC5/USBUART_1.c ****             }
1941:Generated_Source\PSoC5/USBUART_1.c ****             else
1942:Generated_Source\PSoC5/USBUART_1.c ****             {
1943:Generated_Source\PSoC5/USBUART_1.c ****                 /* When zero-length packet: arm IN endpoint directly. */
1944:Generated_Source\PSoC5/USBUART_1.c ****                 USBUART_1_SIE_EP_BASE.sieEp[epNumber].epCr0 = USBUART_1_EP[epNumber].epMode;
1945:Generated_Source\PSoC5/USBUART_1.c ****             }
1946:Generated_Source\PSoC5/USBUART_1.c ****         #endif /* (USBUART_1_EP_MANAGEMENT_DMA_MANUAL) */
1947:Generated_Source\PSoC5/USBUART_1.c **** 
1948:Generated_Source\PSoC5/USBUART_1.c ****         #if (USBUART_1_EP_MANAGEMENT_DMA_AUTO)
1949:Generated_Source\PSoC5/USBUART_1.c ****             if (pData != NULL)
1950:Generated_Source\PSoC5/USBUART_1.c ****             {
1951:Generated_Source\PSoC5/USBUART_1.c ****                 uint32 channelNum = (uint32) USBUART_1_DmaChan[epNumber];
1952:Generated_Source\PSoC5/USBUART_1.c **** 
1953:Generated_Source\PSoC5/USBUART_1.c ****                 /* Store address of buffer. */
1954:Generated_Source\PSoC5/USBUART_1.c ****                 USBUART_1_DmaEpBufferAddrBackup[epNumber] = (uint32) pData;
1955:Generated_Source\PSoC5/USBUART_1.c **** 
1956:Generated_Source\PSoC5/USBUART_1.c ****                 /* Disable DMA channel: start configuration. */
1957:Generated_Source\PSoC5/USBUART_1.c ****                 USBUART_1_CyDmaChDisable(channelNum);
1958:Generated_Source\PSoC5/USBUART_1.c **** 
1959:Generated_Source\PSoC5/USBUART_1.c ****                 /* Set destination address. */
1960:Generated_Source\PSoC5/USBUART_1.c ****                 USBUART_1_CyDmaSetDstAddress(channelNum, USBUART_1_DMA_DESCR0, (void*) &USBUART_1_A
1961:Generated_Source\PSoC5/USBUART_1.c ****                 USBUART_1_CyDmaSetDstAddress(channelNum, USBUART_1_DMA_DESCR1, (void*) &USBUART_1_A
1962:Generated_Source\PSoC5/USBUART_1.c **** 
1963:Generated_Source\PSoC5/USBUART_1.c ****                 /* Configure DMA descriptor. */
1964:Generated_Source\PSoC5/USBUART_1.c ****                 USBUART_1_CyDmaSetConfiguration(channelNum, USBUART_1_DMA_DESCR0, USBUART_1_DMA_COM
1965:Generated_Source\PSoC5/USBUART_1.c ****                                                         CYDMA_HALFWORD | CYDMA_ELEMENT_WORD | CYDMA
1966:Generated_Source\PSoC5/USBUART_1.c **** 
1967:Generated_Source\PSoC5/USBUART_1.c ****                 /* Configure DMA descriptor. */
1968:Generated_Source\PSoC5/USBUART_1.c ****                 USBUART_1_CyDmaSetConfiguration(channelNum, USBUART_1_DMA_DESCR1, USBUART_1_DMA_COM
1969:Generated_Source\PSoC5/USBUART_1.c ****                                                         CYDMA_HALFWORD | CYDMA_ELEMENT_WORD | CYDMA
1970:Generated_Source\PSoC5/USBUART_1.c **** 
1971:Generated_Source\PSoC5/USBUART_1.c ****                 /* Enable interrupt from DMA channel. */
1972:Generated_Source\PSoC5/USBUART_1.c ****                 USBUART_1_CyDmaSetInterruptMask(channelNum);
1973:Generated_Source\PSoC5/USBUART_1.c **** 
1974:Generated_Source\PSoC5/USBUART_1.c ****                 /* Enable DMA channel: configuration complete. */
1975:Generated_Source\PSoC5/USBUART_1.c ****                 USBUART_1_CyDmaChEnable(channelNum);
1976:Generated_Source\PSoC5/USBUART_1.c ****             }
1977:Generated_Source\PSoC5/USBUART_1.c ****             else
1978:Generated_Source\PSoC5/USBUART_1.c ****             {
1979:Generated_Source\PSoC5/USBUART_1.c ****                 /* IN endpoint buffer (32 bytes) will shortly be preloaded by DMA. */
1980:Generated_Source\PSoC5/USBUART_1.c ****                 USBUART_1_EP[epNumber].apiEpState = USBUART_1_NO_EVENT_PENDING;
1981:Generated_Source\PSoC5/USBUART_1.c **** 
1982:Generated_Source\PSoC5/USBUART_1.c ****                 if (length > 0u)
1983:Generated_Source\PSoC5/USBUART_1.c ****                 {
1984:Generated_Source\PSoC5/USBUART_1.c ****                     uint32 lengthDescr0, lengthDescr1;
1985:Generated_Source\PSoC5/USBUART_1.c ****                     uint32 channelNum = (uint32) USBUART_1_DmaChan[epNumber];
1986:Generated_Source\PSoC5/USBUART_1.c **** 
1987:Generated_Source\PSoC5/USBUART_1.c ****                     /* Get number of full bursts. */
1988:Generated_Source\PSoC5/USBUART_1.c ****                     USBUART_1_DmaEpBurstCnt[epNumber] = (uint8) (length / USBUART_1_DMA_BYTES_PER_B
1989:Generated_Source\PSoC5/USBUART_1.c **** 
1990:Generated_Source\PSoC5/USBUART_1.c ****                     /* Get number of elements in the last burst. */
ARM GAS  C:\Users\jon\AppData\Local\Temp\ccwaPz7c.s 			page 59


1991:Generated_Source\PSoC5/USBUART_1.c ****                     USBUART_1_DmaEpLastBurstEl[epNumber] = (uint8) (length % USBUART_1_DMA_BYTES_PE
1992:Generated_Source\PSoC5/USBUART_1.c **** 
1993:Generated_Source\PSoC5/USBUART_1.c ****                     /* Get total number of bursts. */
1994:Generated_Source\PSoC5/USBUART_1.c ****                     USBUART_1_DmaEpBurstCnt[epNumber] += (0u != USBUART_1_DmaEpLastBurstEl[epNumber
1995:Generated_Source\PSoC5/USBUART_1.c **** 
1996:Generated_Source\PSoC5/USBUART_1.c ****                     /* Adjust number of data elements transferred in last burst. */
1997:Generated_Source\PSoC5/USBUART_1.c ****                     USBUART_1_DmaEpLastBurstEl[epNumber] = (0u != USBUART_1_DmaEpLastBurstEl[epNumb
1998:Generated_Source\PSoC5/USBUART_1.c ****                                                                           ((USBUART_1_DmaEpLastBurs
1999:Generated_Source\PSoC5/USBUART_1.c ****                                                                            (USBUART_1_DMA_HALFWORDS
2000:Generated_Source\PSoC5/USBUART_1.c **** 
2001:Generated_Source\PSoC5/USBUART_1.c ****                     /* Get number of data elements to transfer for descriptor 0 and 1. */
2002:Generated_Source\PSoC5/USBUART_1.c ****                     lengthDescr0 = (1u == USBUART_1_DmaEpBurstCnt[epNumber]) ? USBUART_1_DmaEpLastB
2003:Generated_Source\PSoC5/USBUART_1.c ****                     lengthDescr1 = (2u == USBUART_1_DmaEpBurstCnt[epNumber]) ? USBUART_1_DmaEpLastB
2004:Generated_Source\PSoC5/USBUART_1.c **** 
2005:Generated_Source\PSoC5/USBUART_1.c ****                     /* Mark which descriptor is last one to execute. */
2006:Generated_Source\PSoC5/USBUART_1.c ****                     USBUART_1_DmaEpLastBurstEl[epNumber] |= (0u != (USBUART_1_DmaEpBurstCnt[epNumbe
2007:Generated_Source\PSoC5/USBUART_1.c ****                                                                             USBUART_1_DMA_DESCR0_MA
2008:Generated_Source\PSoC5/USBUART_1.c **** 
2009:Generated_Source\PSoC5/USBUART_1.c ****                     /* Restore DMA settings for current transfer. */
2010:Generated_Source\PSoC5/USBUART_1.c ****                     USBUART_1_CyDmaChDisable(channelNum);
2011:Generated_Source\PSoC5/USBUART_1.c **** 
2012:Generated_Source\PSoC5/USBUART_1.c ****                     /* Restore destination address for input endpoint. */
2013:Generated_Source\PSoC5/USBUART_1.c ****                     USBUART_1_CyDmaSetSrcAddress(channelNum, USBUART_1_DMA_DESCR0, (void*) ((uint32
2014:Generated_Source\PSoC5/USBUART_1.c ****                     USBUART_1_CyDmaSetSrcAddress(channelNum, USBUART_1_DMA_DESCR1, (void*) ((uint32
2015:Generated_Source\PSoC5/USBUART_1.c ****                                                                                                    
2016:Generated_Source\PSoC5/USBUART_1.c **** 
2017:Generated_Source\PSoC5/USBUART_1.c ****                     /* Set number of elements to transfer. */
2018:Generated_Source\PSoC5/USBUART_1.c ****                     USBUART_1_CyDmaSetNumDataElements(channelNum, USBUART_1_DMA_DESCR0, lengthDescr
2019:Generated_Source\PSoC5/USBUART_1.c ****                     USBUART_1_CyDmaSetNumDataElements(channelNum, USBUART_1_DMA_DESCR1, lengthDescr
2020:Generated_Source\PSoC5/USBUART_1.c **** 
2021:Generated_Source\PSoC5/USBUART_1.c ****                     /* Validate descriptor 0 and command to start with it. */
2022:Generated_Source\PSoC5/USBUART_1.c ****                     USBUART_1_CyDmaValidateDescriptor(channelNum, USBUART_1_DMA_DESCR0);
2023:Generated_Source\PSoC5/USBUART_1.c ****                     USBUART_1_CyDmaSetDescriptor0Next(channelNum);
2024:Generated_Source\PSoC5/USBUART_1.c **** 
2025:Generated_Source\PSoC5/USBUART_1.c ****                     /* Validate descriptor 1. */
2026:Generated_Source\PSoC5/USBUART_1.c ****                     if (USBUART_1_DmaEpBurstCnt[epNumber] > 1u)
2027:Generated_Source\PSoC5/USBUART_1.c ****                     {
2028:Generated_Source\PSoC5/USBUART_1.c ****                         USBUART_1_CyDmaValidateDescriptor(channelNum, USBUART_1_DMA_DESCR1);
2029:Generated_Source\PSoC5/USBUART_1.c ****                     }
2030:Generated_Source\PSoC5/USBUART_1.c **** 
2031:Generated_Source\PSoC5/USBUART_1.c ****                     /* Adjust burst counter taking to account: 2 valid descriptors and interrupt tr
2032:Generated_Source\PSoC5/USBUART_1.c ****                     USBUART_1_DmaEpBurstCnt[epNumber] = USBUART_1_DMA_GET_BURST_CNT(USBUART_1_DmaEp
2033:Generated_Source\PSoC5/USBUART_1.c **** 
2034:Generated_Source\PSoC5/USBUART_1.c ****                     /* Enable DMA channel: configuration complete. */
2035:Generated_Source\PSoC5/USBUART_1.c ****                     USBUART_1_CyDmaChEnable(channelNum);
2036:Generated_Source\PSoC5/USBUART_1.c **** 
2037:Generated_Source\PSoC5/USBUART_1.c ****                 #if !defined (USBUART_1_MANUAL_IN_EP_ARM)
2038:Generated_Source\PSoC5/USBUART_1.c ****                     /* Set IN data ready to generate DMA request to load data into endpoint buffer.
2039:Generated_Source\PSoC5/USBUART_1.c ****                     USBUART_1_ARB_EP_BASE.arbEp[epNumber].epCfg |= USBUART_1_ARB_EPX_CFG_IN_DATA_RD
2040:Generated_Source\PSoC5/USBUART_1.c ****                 #endif  /* (USBUART_1_MANUAL_IN_EP_ARM) */
2041:Generated_Source\PSoC5/USBUART_1.c **** 
2042:Generated_Source\PSoC5/USBUART_1.c ****                     /* IN endpoint will be armed in ARB_ISR(source: IN_BUF_FULL) after first DMA tr
2043:Generated_Source\PSoC5/USBUART_1.c ****                 }
2044:Generated_Source\PSoC5/USBUART_1.c ****                 else
2045:Generated_Source\PSoC5/USBUART_1.c ****                 {
2046:Generated_Source\PSoC5/USBUART_1.c ****                     /* When zero-length packet: arm IN endpoint directly. */
2047:Generated_Source\PSoC5/USBUART_1.c ****                     USBUART_1_SIE_EP_BASE.sieEp[epNumber].epCr0 = USBUART_1_EP[epNumber].epMode;
ARM GAS  C:\Users\jon\AppData\Local\Temp\ccwaPz7c.s 			page 60


2048:Generated_Source\PSoC5/USBUART_1.c ****                 }
2049:Generated_Source\PSoC5/USBUART_1.c ****             }
2050:Generated_Source\PSoC5/USBUART_1.c ****         #endif /* (USBUART_1_EP_MANAGEMENT_DMA_AUTO) */
2051:Generated_Source\PSoC5/USBUART_1.c ****     #endif /* (USBUART_1_EP_MANAGEMENT_MANUAL) */
2052:Generated_Source\PSoC5/USBUART_1.c ****     }
2053:Generated_Source\PSoC5/USBUART_1.c **** }
2054:Generated_Source\PSoC5/USBUART_1.c **** 
2055:Generated_Source\PSoC5/USBUART_1.c **** 
2056:Generated_Source\PSoC5/USBUART_1.c **** /*******************************************************************************
2057:Generated_Source\PSoC5/USBUART_1.c **** * Function Name: USBUART_1_ReadOutEP16
2058:Generated_Source\PSoC5/USBUART_1.c **** ****************************************************************************//**
2059:Generated_Source\PSoC5/USBUART_1.c **** *
2060:Generated_Source\PSoC5/USBUART_1.c **** *   This function performs different functionality depending on the Component’s
2061:Generated_Source\PSoC5/USBUART_1.c **** *   configured Endpoint Buffer Management. This parameter is defined in the
2062:Generated_Source\PSoC5/USBUART_1.c **** *   Descriptor Root in Component Configure window.
2063:Generated_Source\PSoC5/USBUART_1.c **** *
2064:Generated_Source\PSoC5/USBUART_1.c **** *   *Manual (Static/Dynamic Allocation):*
2065:Generated_Source\PSoC5/USBUART_1.c **** *   This function moves the specified number of bytes from endpoint buffer to
2066:Generated_Source\PSoC5/USBUART_1.c **** *   system RAM. The number of bytes actually transferred from endpoint buffer to
2067:Generated_Source\PSoC5/USBUART_1.c **** *   system RAM is the lesser of the actual number of bytes sent by the host or
2068:Generated_Source\PSoC5/USBUART_1.c **** *   the number of bytes requested by the length parameter.
2069:Generated_Source\PSoC5/USBUART_1.c **** *
2070:Generated_Source\PSoC5/USBUART_1.c **** *   *DMA with Manual Buffer Management:*
2071:Generated_Source\PSoC5/USBUART_1.c **** *   Configure DMA to transfer data from endpoint buffer to system RAM. Generate
2072:Generated_Source\PSoC5/USBUART_1.c **** *   a DMA request. The firmware must wait until the DMA completes the data
2073:Generated_Source\PSoC5/USBUART_1.c **** *   transfer after calling the USBUART_1_ReadOutEP() API. For example,
2074:Generated_Source\PSoC5/USBUART_1.c **** *   by checking EPstate:
2075:Generated_Source\PSoC5/USBUART_1.c **** *
2076:Generated_Source\PSoC5/USBUART_1.c **** *   \snippet /USBFS_sut_02.cydsn/main.c checking EPstatey
2077:Generated_Source\PSoC5/USBUART_1.c **** *
2078:Generated_Source\PSoC5/USBUART_1.c **** *   The USBFS_EnableOutEP() has to be called to allow host to write data into
2079:Generated_Source\PSoC5/USBUART_1.c **** *   the endpoint buffer after DMA has completed transfer data from OUT endpoint
2080:Generated_Source\PSoC5/USBUART_1.c **** *   buffer to SRAM.
2081:Generated_Source\PSoC5/USBUART_1.c **** *
2082:Generated_Source\PSoC5/USBUART_1.c **** *   *DMA with Automatic Buffer Management:*
2083:Generated_Source\PSoC5/USBUART_1.c **** *   Configure DMA. This is required only once and automatically generates DMA
2084:Generated_Source\PSoC5/USBUART_1.c **** *   requests as data arrives
2085:Generated_Source\PSoC5/USBUART_1.c **** *
2086:Generated_Source\PSoC5/USBUART_1.c **** *  \param epNumber: Contains the data endpoint number.
2087:Generated_Source\PSoC5/USBUART_1.c **** *         Valid values are between 1 and 8.
2088:Generated_Source\PSoC5/USBUART_1.c **** *  \param pData: A pointer to a data array into which the data for the endpoint
2089:Generated_Source\PSoC5/USBUART_1.c **** *         space is copied. It shall be ensured that this pointer address is
2090:Generated_Source\PSoC5/USBUART_1.c **** *         even to ensure the 16-bit transfer is aligned to even address. Else,
2091:Generated_Source\PSoC5/USBUART_1.c **** *         a hard fault condition can occur.
2092:Generated_Source\PSoC5/USBUART_1.c **** *  \param length: The number of bytes to transfer from the USB Out endpoint and
2093:Generated_Source\PSoC5/USBUART_1.c **** *         loads it into data array. Valid values are between 0 and 1023. The
2094:Generated_Source\PSoC5/USBUART_1.c **** *         function moves fewer than the requested number of bytes if the host
2095:Generated_Source\PSoC5/USBUART_1.c **** *         sends fewer bytes than requested.
2096:Generated_Source\PSoC5/USBUART_1.c **** *
2097:Generated_Source\PSoC5/USBUART_1.c **** * \return
2098:Generated_Source\PSoC5/USBUART_1.c **** *  Number of bytes received, 0 for an invalid endpoint.
2099:Generated_Source\PSoC5/USBUART_1.c **** *
2100:Generated_Source\PSoC5/USBUART_1.c **** * \reentrant
2101:Generated_Source\PSoC5/USBUART_1.c **** *  No.
2102:Generated_Source\PSoC5/USBUART_1.c **** *
2103:Generated_Source\PSoC5/USBUART_1.c **** *******************************************************************************/
2104:Generated_Source\PSoC5/USBUART_1.c **** uint16 USBUART_1_ReadOutEP16(uint8 epNumber, uint8 pData[], uint16 length)
ARM GAS  C:\Users\jon\AppData\Local\Temp\ccwaPz7c.s 			page 61


2105:Generated_Source\PSoC5/USBUART_1.c **** {
2106:Generated_Source\PSoC5/USBUART_1.c ****     uint32 adjLength;
2107:Generated_Source\PSoC5/USBUART_1.c **** 
2108:Generated_Source\PSoC5/USBUART_1.c ****     /* Check array alignment on half-word boundary */
2109:Generated_Source\PSoC5/USBUART_1.c ****     CYASSERT(0u == (((uint32) pData) & 0x01u));
2110:Generated_Source\PSoC5/USBUART_1.c **** 
2111:Generated_Source\PSoC5/USBUART_1.c ****     if ((pData != NULL) && (epNumber > USBUART_1_EP0) && (epNumber < USBUART_1_MAX_EP))
2112:Generated_Source\PSoC5/USBUART_1.c ****     {
2113:Generated_Source\PSoC5/USBUART_1.c ****     #if (!USBUART_1_EP_MANAGEMENT_DMA_AUTO)
2114:Generated_Source\PSoC5/USBUART_1.c ****         /* Adjust requested length to available data. */
2115:Generated_Source\PSoC5/USBUART_1.c ****         length = (length > USBUART_1_GetEPCount(epNumber)) ? USBUART_1_GetEPCount(epNumber) : lengt
2116:Generated_Source\PSoC5/USBUART_1.c ****     #endif /* (!USBUART_1_EP_MANAGEMENT_DMA_AUTO) */
2117:Generated_Source\PSoC5/USBUART_1.c **** 
2118:Generated_Source\PSoC5/USBUART_1.c ****     /* Adjust requested length: 2 bytes are handled at one data register access. */
2119:Generated_Source\PSoC5/USBUART_1.c ****     adjLength =  length + ((uint32)length & 1u);
2120:Generated_Source\PSoC5/USBUART_1.c **** 
2121:Generated_Source\PSoC5/USBUART_1.c ****     #if (USBUART_1_EP_MANAGEMENT_MANUAL)
2122:Generated_Source\PSoC5/USBUART_1.c ****         {
2123:Generated_Source\PSoC5/USBUART_1.c ****             /* Convert uint8 array to uint16. */
2124:Generated_Source\PSoC5/USBUART_1.c ****             uint16 *dataBuf = (uint16 *) pData;
2125:Generated_Source\PSoC5/USBUART_1.c **** 
2126:Generated_Source\PSoC5/USBUART_1.c ****             /* Copy data using 16-bits arbiter data register. */
2127:Generated_Source\PSoC5/USBUART_1.c ****             uint16 i;
2128:Generated_Source\PSoC5/USBUART_1.c ****             for (i = 0u; i < (adjLength >> 1u); ++i)
2129:Generated_Source\PSoC5/USBUART_1.c ****             {
2130:Generated_Source\PSoC5/USBUART_1.c ****                 dataBuf[i] = (uint16) USBUART_1_ARB_EP16_BASE.arbEp[epNumber].rwDr16;
2131:Generated_Source\PSoC5/USBUART_1.c ****             }
2132:Generated_Source\PSoC5/USBUART_1.c ****         }
2133:Generated_Source\PSoC5/USBUART_1.c **** 
2134:Generated_Source\PSoC5/USBUART_1.c ****         /* Arm OUT endpoint after data has been read from endpoint buffer. */
2135:Generated_Source\PSoC5/USBUART_1.c ****         USBUART_1_EnableOutEP(epNumber);
2136:Generated_Source\PSoC5/USBUART_1.c ****     #else
2137:Generated_Source\PSoC5/USBUART_1.c **** 
2138:Generated_Source\PSoC5/USBUART_1.c ****         #if (USBUART_1_EP_MANAGEMENT_DMA_MANUAL)
2139:Generated_Source\PSoC5/USBUART_1.c ****         {
2140:Generated_Source\PSoC5/USBUART_1.c ****             uint32 channelNum = (uint32) USBUART_1_DmaChan[epNumber];
2141:Generated_Source\PSoC5/USBUART_1.c **** 
2142:Generated_Source\PSoC5/USBUART_1.c ****             /* Disable DMA channel: start configuration. */
2143:Generated_Source\PSoC5/USBUART_1.c ****             USBUART_1_CyDmaChDisable(channelNum);
2144:Generated_Source\PSoC5/USBUART_1.c **** 
2145:Generated_Source\PSoC5/USBUART_1.c ****             /* Configure source and destination. */
2146:Generated_Source\PSoC5/USBUART_1.c ****             USBUART_1_CyDmaSetSrcAddress(channelNum, USBUART_1_DMA_DESCR0, (void*) &USBUART_1_ARB_E
2147:Generated_Source\PSoC5/USBUART_1.c ****             USBUART_1_CyDmaSetDstAddress(channelNum, USBUART_1_DMA_DESCR0, (void*) pData);
2148:Generated_Source\PSoC5/USBUART_1.c **** 
2149:Generated_Source\PSoC5/USBUART_1.c ****             /* Configure DMA descriptor. */
2150:Generated_Source\PSoC5/USBUART_1.c ****             USBUART_1_CyDmaSetConfiguration(channelNum, USBUART_1_DMA_DESCR0, USBUART_1_DMA_COMMON_
2151:Generated_Source\PSoC5/USBUART_1.c ****                                                     CYDMA_HALFWORD | CYDMA_WORD_ELEMENT | CYDMA_INC
2152:Generated_Source\PSoC5/USBUART_1.c **** 
2153:Generated_Source\PSoC5/USBUART_1.c ****             /* Validate descriptor to execute on following DMA request. */
2154:Generated_Source\PSoC5/USBUART_1.c ****             USBUART_1_CyDmaValidateDescriptor(channelNum, USBUART_1_DMA_DESCR0);
2155:Generated_Source\PSoC5/USBUART_1.c **** 
2156:Generated_Source\PSoC5/USBUART_1.c ****             /* Enable DMA channel: configuration complete. */
2157:Generated_Source\PSoC5/USBUART_1.c ****             USBUART_1_CyDmaChEnable(channelNum);
2158:Generated_Source\PSoC5/USBUART_1.c **** 
2159:Generated_Source\PSoC5/USBUART_1.c ****             /* Generate DMA request. */
2160:Generated_Source\PSoC5/USBUART_1.c ****             USBUART_1_ARB_EP_BASE.arbEp[epNumber].epCfg |=  (uint32)  USBUART_1_ARB_EPX_CFG_DMA_REQ
2161:Generated_Source\PSoC5/USBUART_1.c ****             USBUART_1_ARB_EP_BASE.arbEp[epNumber].epCfg &=  (uint32) ~USBUART_1_ARB_EPX_CFG_DMA_REQ
ARM GAS  C:\Users\jon\AppData\Local\Temp\ccwaPz7c.s 			page 62


2162:Generated_Source\PSoC5/USBUART_1.c **** 
2163:Generated_Source\PSoC5/USBUART_1.c ****             /* OUT endpoint has to be armed again by user when DMA transfers have been completed.
2164:Generated_Source\PSoC5/USBUART_1.c ****             * NO_EVENT_PENDING: notifies that data has been copied from endpoint buffer.
2165:Generated_Source\PSoC5/USBUART_1.c ****             */
2166:Generated_Source\PSoC5/USBUART_1.c ****         }
2167:Generated_Source\PSoC5/USBUART_1.c ****         #endif /* (USBUART_1_EP_MANAGEMENT_DMA_MANUAL) */
2168:Generated_Source\PSoC5/USBUART_1.c **** 
2169:Generated_Source\PSoC5/USBUART_1.c ****         #if (USBUART_1_EP_MANAGEMENT_DMA_AUTO)
2170:Generated_Source\PSoC5/USBUART_1.c ****         {
2171:Generated_Source\PSoC5/USBUART_1.c ****             uint32 lengthDescr0, lengthDescr1;
2172:Generated_Source\PSoC5/USBUART_1.c ****             uint32 channelNum = (uint32) USBUART_1_DmaChan[epNumber];
2173:Generated_Source\PSoC5/USBUART_1.c **** 
2174:Generated_Source\PSoC5/USBUART_1.c ****             /* Get number of full bursts. */
2175:Generated_Source\PSoC5/USBUART_1.c ****             USBUART_1_DmaEpBurstCnt[epNumber] = (uint8) (adjLength / USBUART_1_DMA_BYTES_PER_BURST)
2176:Generated_Source\PSoC5/USBUART_1.c **** 
2177:Generated_Source\PSoC5/USBUART_1.c ****             /* Get number of elements in last burst. */
2178:Generated_Source\PSoC5/USBUART_1.c ****             USBUART_1_DmaEpLastBurstEl[epNumber] = (uint8) (adjLength % USBUART_1_DMA_BYTES_PER_BUR
2179:Generated_Source\PSoC5/USBUART_1.c **** 
2180:Generated_Source\PSoC5/USBUART_1.c ****             /* Get total number of bursts. */
2181:Generated_Source\PSoC5/USBUART_1.c ****             USBUART_1_DmaEpBurstCnt[epNumber] += (0u != USBUART_1_DmaEpLastBurstEl[epNumber]) ? 1u 
2182:Generated_Source\PSoC5/USBUART_1.c **** 
2183:Generated_Source\PSoC5/USBUART_1.c ****             /* Adjust number of data elements transferred in last burst. */
2184:Generated_Source\PSoC5/USBUART_1.c ****             USBUART_1_DmaEpLastBurstEl[epNumber] = (0u != USBUART_1_DmaEpLastBurstEl[epNumber]) ?
2185:Generated_Source\PSoC5/USBUART_1.c ****                                                                   ((USBUART_1_DmaEpLastBurstEl[epNu
2186:Generated_Source\PSoC5/USBUART_1.c ****                                                                    (USBUART_1_DMA_HALFWORDS_PER_BUR
2187:Generated_Source\PSoC5/USBUART_1.c **** 
