ARM GAS  C:\Users\jon\AppData\Local\Temp\ccwaPz7c.s 			page 1


   1              		.syntax unified
   2              		.cpu cortex-m3
   3              		.fpu softvfp
   4              		.eabi_attribute 20, 1
   5              		.eabi_attribute 21, 1
   6              		.eabi_attribute 23, 3
   7              		.eabi_attribute 24, 1
   8              		.eabi_attribute 25, 1
   9              		.eabi_attribute 26, 1
  10              		.eabi_attribute 30, 2
  11              		.eabi_attribute 34, 1
  12              		.eabi_attribute 18, 4
  13              		.thumb
  14              		.syntax unified
  15              		.file	"USBUART_1.c"
  16              		.text
  17              	.Ltext0:
  18              		.cfi_sections	.debug_frame
  19              		.section	.text.USBUART_1_Init,"ax",%progbits
  20              		.align	2
  21              		.global	USBUART_1_Init
  22              		.thumb
  23              		.thumb_func
  24              		.type	USBUART_1_Init, %function
  25              	USBUART_1_Init:
  26              	.LFB1:
  27              		.file 1 "Generated_Source\\PSoC5\\USBUART_1.c"
   1:Generated_Source\PSoC5/USBUART_1.c **** /***************************************************************************//**
   2:Generated_Source\PSoC5/USBUART_1.c **** * \file USBUART_1.c
   3:Generated_Source\PSoC5/USBUART_1.c **** * \version 3.20
   4:Generated_Source\PSoC5/USBUART_1.c **** *
   5:Generated_Source\PSoC5/USBUART_1.c **** * \brief
   6:Generated_Source\PSoC5/USBUART_1.c **** *  This file contains the global USBFS API functions.
   7:Generated_Source\PSoC5/USBUART_1.c **** *
   8:Generated_Source\PSoC5/USBUART_1.c **** * Note:
   9:Generated_Source\PSoC5/USBUART_1.c **** *  Many of the functions use an endpoint number. SRAM arrays are sized with 9
  10:Generated_Source\PSoC5/USBUART_1.c **** *  elements, so they are indexed directly by epNumber.  The SIE and ARB
  11:Generated_Source\PSoC5/USBUART_1.c **** *  registers are indexed by variations of epNumber - 1.
  12:Generated_Source\PSoC5/USBUART_1.c **** *
  13:Generated_Source\PSoC5/USBUART_1.c **** ********************************************************************************
  14:Generated_Source\PSoC5/USBUART_1.c **** * \copyright
  15:Generated_Source\PSoC5/USBUART_1.c **** * Copyright 2008-2016, Cypress Semiconductor Corporation.  All rights reserved.
  16:Generated_Source\PSoC5/USBUART_1.c **** * You may use this file only in accordance with the license, terms, conditions,
  17:Generated_Source\PSoC5/USBUART_1.c **** * disclaimers, and limitations in the end user license agreement accompanying
  18:Generated_Source\PSoC5/USBUART_1.c **** * the software package with which this file was provided.
  19:Generated_Source\PSoC5/USBUART_1.c **** *******************************************************************************/
  20:Generated_Source\PSoC5/USBUART_1.c **** 
  21:Generated_Source\PSoC5/USBUART_1.c **** #include "USBUART_1_pvt.h"
  22:Generated_Source\PSoC5/USBUART_1.c **** #include "USBUART_1_cydmac.h"
  23:Generated_Source\PSoC5/USBUART_1.c **** #include "USBUART_1_hid.h"
  24:Generated_Source\PSoC5/USBUART_1.c **** #include "USBUART_1_Dp.h"
  25:Generated_Source\PSoC5/USBUART_1.c **** 
  26:Generated_Source\PSoC5/USBUART_1.c **** 
  27:Generated_Source\PSoC5/USBUART_1.c **** /***************************************
  28:Generated_Source\PSoC5/USBUART_1.c **** * Global data allocation
  29:Generated_Source\PSoC5/USBUART_1.c **** ***************************************/
  30:Generated_Source\PSoC5/USBUART_1.c **** 
ARM GAS  C:\Users\jon\AppData\Local\Temp\ccwaPz7c.s 			page 2


  31:Generated_Source\PSoC5/USBUART_1.c **** /** Indicates whether the USBFS has been initialized. The variable is
  32:Generated_Source\PSoC5/USBUART_1.c **** * initialized to 0 after device reset and set to 1 the first time USBFS_Start()
  33:Generated_Source\PSoC5/USBUART_1.c **** * is called. This allows the Component to restart without reinitialization after
  34:Generated_Source\PSoC5/USBUART_1.c **** * the first call to the USBFS_Start() routine.
  35:Generated_Source\PSoC5/USBUART_1.c **** * If re-initialization of the Component is required, the variable should be set
  36:Generated_Source\PSoC5/USBUART_1.c **** * to 0 before the USBFS_Start() routine is called. Alternatively, the USBFS can
  37:Generated_Source\PSoC5/USBUART_1.c **** * be reinitialized by calling both USBFS_Init() and USBFS_InitComponent()
  38:Generated_Source\PSoC5/USBUART_1.c **** * functions.
  39:Generated_Source\PSoC5/USBUART_1.c **** */
  40:Generated_Source\PSoC5/USBUART_1.c **** uint8 USBUART_1_initVar = 0u;
  41:Generated_Source\PSoC5/USBUART_1.c **** 
  42:Generated_Source\PSoC5/USBUART_1.c **** #if (USBUART_1_EP_MANAGEMENT_DMA)
  43:Generated_Source\PSoC5/USBUART_1.c ****     #if (CY_PSOC4)
  44:Generated_Source\PSoC5/USBUART_1.c ****         static void USBUART_1_InitEpDma(void);
  45:Generated_Source\PSoC5/USBUART_1.c **** 
  46:Generated_Source\PSoC5/USBUART_1.c ****         /* DMA chanels assigend for endpoints. */
  47:Generated_Source\PSoC5/USBUART_1.c ****         const uint8 USBUART_1_DmaChan[USBUART_1_MAX_EP] =
  48:Generated_Source\PSoC5/USBUART_1.c ****         {
  49:Generated_Source\PSoC5/USBUART_1.c ****             0u,
  50:Generated_Source\PSoC5/USBUART_1.c ****             0u,
  51:Generated_Source\PSoC5/USBUART_1.c ****             0u,
  52:Generated_Source\PSoC5/USBUART_1.c ****             0u,
  53:Generated_Source\PSoC5/USBUART_1.c ****             0u,
  54:Generated_Source\PSoC5/USBUART_1.c ****             0u,
  55:Generated_Source\PSoC5/USBUART_1.c ****             0u,
  56:Generated_Source\PSoC5/USBUART_1.c ****             0u,
  57:Generated_Source\PSoC5/USBUART_1.c ****             0u,
  58:Generated_Source\PSoC5/USBUART_1.c ****         };        
  59:Generated_Source\PSoC5/USBUART_1.c ****     #else
  60:Generated_Source\PSoC5/USBUART_1.c ****         /* DMA chanels assigend for endpoints. */
  61:Generated_Source\PSoC5/USBUART_1.c ****         uint8 USBUART_1_DmaChan[USBUART_1_MAX_EP];
  62:Generated_Source\PSoC5/USBUART_1.c ****         
  63:Generated_Source\PSoC5/USBUART_1.c ****         /* DMA TDs require for PSoC 3/5LP operation. */
  64:Generated_Source\PSoC5/USBUART_1.c ****         uint8 USBUART_1_DmaTd[USBUART_1_MAX_EP];
  65:Generated_Source\PSoC5/USBUART_1.c ****     #endif /* (CY_PSOC4) */
  66:Generated_Source\PSoC5/USBUART_1.c **** #endif /* (USBUART_1_EP_MANAGEMENT_DMA) */
  67:Generated_Source\PSoC5/USBUART_1.c **** 
  68:Generated_Source\PSoC5/USBUART_1.c **** #if (USBUART_1_EP_MANAGEMENT_DMA_AUTO)
  69:Generated_Source\PSoC5/USBUART_1.c **** #if (CY_PSOC4)
  70:Generated_Source\PSoC5/USBUART_1.c ****     /* Number of DMA bursts. */
  71:Generated_Source\PSoC5/USBUART_1.c ****     uint8  USBUART_1_DmaEpBurstCnt   [USBUART_1_MAX_EP];
  72:Generated_Source\PSoC5/USBUART_1.c ****     
  73:Generated_Source\PSoC5/USBUART_1.c ****     /* Number of bytes to transfer in last DMA burst. */
  74:Generated_Source\PSoC5/USBUART_1.c ****     uint8  USBUART_1_DmaEpLastBurstEl[USBUART_1_MAX_EP];
  75:Generated_Source\PSoC5/USBUART_1.c **** 
  76:Generated_Source\PSoC5/USBUART_1.c ****     /* Storage for arrays above. */
  77:Generated_Source\PSoC5/USBUART_1.c ****     uint8  USBUART_1_DmaEpBurstCntBackup  [USBUART_1_MAX_EP];
  78:Generated_Source\PSoC5/USBUART_1.c ****     uint32 USBUART_1_DmaEpBufferAddrBackup[USBUART_1_MAX_EP];
  79:Generated_Source\PSoC5/USBUART_1.c ****      
  80:Generated_Source\PSoC5/USBUART_1.c ****     /* DMA trigger mux output for usb.dma_req[0-7]. */
  81:Generated_Source\PSoC5/USBUART_1.c ****     const uint8 USBUART_1_DmaReqOut[USBUART_1_MAX_EP] =
  82:Generated_Source\PSoC5/USBUART_1.c ****     {
  83:Generated_Source\PSoC5/USBUART_1.c ****         0u,
  84:Generated_Source\PSoC5/USBUART_1.c ****         USBUART_1_ep1_dma__TR_OUTPUT,
  85:Generated_Source\PSoC5/USBUART_1.c ****         USBUART_1_ep2_dma__TR_OUTPUT,
  86:Generated_Source\PSoC5/USBUART_1.c ****         USBUART_1_ep3_dma__TR_OUTPUT,
  87:Generated_Source\PSoC5/USBUART_1.c ****         0u,
ARM GAS  C:\Users\jon\AppData\Local\Temp\ccwaPz7c.s 			page 3


  88:Generated_Source\PSoC5/USBUART_1.c ****         0u,
  89:Generated_Source\PSoC5/USBUART_1.c ****         0u,
  90:Generated_Source\PSoC5/USBUART_1.c ****         0u,
  91:Generated_Source\PSoC5/USBUART_1.c ****         0u,
  92:Generated_Source\PSoC5/USBUART_1.c ****     };
  93:Generated_Source\PSoC5/USBUART_1.c **** 
  94:Generated_Source\PSoC5/USBUART_1.c ****     /* DMA trigger mux output for usb.dma_burstend[0-7]. */
  95:Generated_Source\PSoC5/USBUART_1.c ****     const uint8 USBUART_1_DmaBurstEndOut[USBUART_1_MAX_EP] =
  96:Generated_Source\PSoC5/USBUART_1.c ****     {
  97:Generated_Source\PSoC5/USBUART_1.c ****         0u,
  98:Generated_Source\PSoC5/USBUART_1.c ****         USBUART_1_BURSTEND_0_TR_OUTPUT,
  99:Generated_Source\PSoC5/USBUART_1.c ****         USBUART_1_BURSTEND_1_TR_OUTPUT,
 100:Generated_Source\PSoC5/USBUART_1.c ****         USBUART_1_BURSTEND_2_TR_OUTPUT,
 101:Generated_Source\PSoC5/USBUART_1.c ****         USBUART_1_BURSTEND_3_TR_OUTPUT,
 102:Generated_Source\PSoC5/USBUART_1.c ****         USBUART_1_BURSTEND_4_TR_OUTPUT,
 103:Generated_Source\PSoC5/USBUART_1.c ****         USBUART_1_BURSTEND_5_TR_OUTPUT,
 104:Generated_Source\PSoC5/USBUART_1.c ****         USBUART_1_BURSTEND_6_TR_OUTPUT,
 105:Generated_Source\PSoC5/USBUART_1.c ****         USBUART_1_BURSTEND_7_TR_OUTPUT
 106:Generated_Source\PSoC5/USBUART_1.c ****     };
 107:Generated_Source\PSoC5/USBUART_1.c ****     
 108:Generated_Source\PSoC5/USBUART_1.c **** #else
 109:Generated_Source\PSoC5/USBUART_1.c ****     #if (USBUART_1_EP_DMA_AUTO_OPT == 0u)
 110:Generated_Source\PSoC5/USBUART_1.c ****         static uint8 clearInDataRdyStatus = USBUART_1_ARB_EPX_CFG_DEFAULT;
 111:Generated_Source\PSoC5/USBUART_1.c ****         uint8 USBUART_1_DmaNextTd[USBUART_1_MAX_EP];
 112:Generated_Source\PSoC5/USBUART_1.c ****         const uint8 USBUART_1_epX_TD_TERMOUT_EN[USBUART_1_MAX_EP] =
 113:Generated_Source\PSoC5/USBUART_1.c ****         {
 114:Generated_Source\PSoC5/USBUART_1.c ****             0u,
 115:Generated_Source\PSoC5/USBUART_1.c ****             0u,
 116:Generated_Source\PSoC5/USBUART_1.c ****             0u,
 117:Generated_Source\PSoC5/USBUART_1.c ****             0u,
 118:Generated_Source\PSoC5/USBUART_1.c ****             0u,
 119:Generated_Source\PSoC5/USBUART_1.c ****             0u,
 120:Generated_Source\PSoC5/USBUART_1.c ****             0u,
 121:Generated_Source\PSoC5/USBUART_1.c ****             0u,
 122:Generated_Source\PSoC5/USBUART_1.c ****             0u,
 123:Generated_Source\PSoC5/USBUART_1.c ****         };
 124:Generated_Source\PSoC5/USBUART_1.c **** 
 125:Generated_Source\PSoC5/USBUART_1.c ****         volatile uint16 USBUART_1_inLength[USBUART_1_MAX_EP];
 126:Generated_Source\PSoC5/USBUART_1.c ****         const uint8 *USBUART_1_inDataPointer[USBUART_1_MAX_EP];
 127:Generated_Source\PSoC5/USBUART_1.c ****         volatile uint8 USBUART_1_inBufFull[USBUART_1_MAX_EP];
 128:Generated_Source\PSoC5/USBUART_1.c ****     #endif /* (USBUART_1_EP_DMA_AUTO_OPT == 0u) */
 129:Generated_Source\PSoC5/USBUART_1.c **** #endif /* (CY_PSOC4) */
 130:Generated_Source\PSoC5/USBUART_1.c **** #endif /* (USBUART_1_EP_MANAGEMENT_DMA_AUTO) */
 131:Generated_Source\PSoC5/USBUART_1.c **** 
 132:Generated_Source\PSoC5/USBUART_1.c **** 
 133:Generated_Source\PSoC5/USBUART_1.c **** /*******************************************************************************
 134:Generated_Source\PSoC5/USBUART_1.c **** * Function Name: USBUART_1_Start
 135:Generated_Source\PSoC5/USBUART_1.c **** ****************************************************************************//**
 136:Generated_Source\PSoC5/USBUART_1.c **** *
 137:Generated_Source\PSoC5/USBUART_1.c **** *   This function performs all required initialization for the USBFS component.
 138:Generated_Source\PSoC5/USBUART_1.c **** *   After this function call, the USB device initiates communication with the
 139:Generated_Source\PSoC5/USBUART_1.c **** *   host by pull-up D+ line. This is the preferred method to begin component
 140:Generated_Source\PSoC5/USBUART_1.c **** *   operation.
 141:Generated_Source\PSoC5/USBUART_1.c **** *
 142:Generated_Source\PSoC5/USBUART_1.c **** *   Note that global interrupts have to be enabled because interrupts are
 143:Generated_Source\PSoC5/USBUART_1.c **** *   required for USBFS component operation.
 144:Generated_Source\PSoC5/USBUART_1.c **** *
ARM GAS  C:\Users\jon\AppData\Local\Temp\ccwaPz7c.s 			page 4


 145:Generated_Source\PSoC5/USBUART_1.c **** *   PSoC 4200L devices: when USBFS component configured to DMA with Automatic
 146:Generated_Source\PSoC5/USBUART_1.c **** *   Buffer Management, the DMA interrupt priority is changed to the highest
 147:Generated_Source\PSoC5/USBUART_1.c **** *   (priority 0) inside this function.
 148:Generated_Source\PSoC5/USBUART_1.c **** *
 149:Generated_Source\PSoC5/USBUART_1.c **** *   PSoC 3/PSoC 5LP devices: when USBFS component configured to DMA with
 150:Generated_Source\PSoC5/USBUART_1.c **** *   Automatic Buffer Management, the Arbiter interrupt priority is changed to
 151:Generated_Source\PSoC5/USBUART_1.c **** *   the highest (priority 0) inside this function.
 152:Generated_Source\PSoC5/USBUART_1.c **** *
 153:Generated_Source\PSoC5/USBUART_1.c **** *  \param device
 154:Generated_Source\PSoC5/USBUART_1.c **** *          Contains the device number of the desired device descriptor.
 155:Generated_Source\PSoC5/USBUART_1.c **** *          The device number can be found in the Device Descriptor Tab of
 156:Generated_Source\PSoC5/USBUART_1.c **** *          "Configure" dialog, under the settings of desired Device Descriptor,
 157:Generated_Source\PSoC5/USBUART_1.c **** *          in the "Device Number" field.
 158:Generated_Source\PSoC5/USBUART_1.c **** *  \param mode:
 159:Generated_Source\PSoC5/USBUART_1.c **** *   The operating voltage. This determines whether the voltage regulator
 160:Generated_Source\PSoC5/USBUART_1.c **** *   is enabled for 5V operation or if pass through mode is used for 3.3V
 161:Generated_Source\PSoC5/USBUART_1.c **** *   operation. Symbolic names and their associated values are given in the
 162:Generated_Source\PSoC5/USBUART_1.c **** *   following list.
 163:Generated_Source\PSoC5/USBUART_1.c **** *
 164:Generated_Source\PSoC5/USBUART_1.c **** *       *USBUART_1_3V_OPERATION* - Disable voltage regulator and pass-
 165:Generated_Source\PSoC5/USBUART_1.c **** *                                      through Vcc for pull-up
 166:Generated_Source\PSoC5/USBUART_1.c **** *
 167:Generated_Source\PSoC5/USBUART_1.c **** *       *USBUART_1_5V_OPERATION* - Enable voltage regulator and use
 168:Generated_Source\PSoC5/USBUART_1.c **** *                                      regulator for pull-up
 169:Generated_Source\PSoC5/USBUART_1.c **** *
 170:Generated_Source\PSoC5/USBUART_1.c **** *       *USBUART_1_DWR_POWER_OPERATION* - Enable or disable the voltage
 171:Generated_Source\PSoC5/USBUART_1.c **** *                                      regulator depending on the power supply
 172:Generated_Source\PSoC5/USBUART_1.c **** *                                      voltage configuration in the DWR tab.
 173:Generated_Source\PSoC5/USBUART_1.c **** *                                      For PSoC 3/5LP devices, the VDDD supply
 174:Generated_Source\PSoC5/USBUART_1.c **** *                                      voltage is considered and for PSoC 4A-L,
 175:Generated_Source\PSoC5/USBUART_1.c **** *                                      the VBUS supply voltage is considered.*
 176:Generated_Source\PSoC5/USBUART_1.c **** * \globalvars
 177:Generated_Source\PSoC5/USBUART_1.c **** *  \ref USBUART_1_initVar
 178:Generated_Source\PSoC5/USBUART_1.c **** *
 179:Generated_Source\PSoC5/USBUART_1.c **** * \sideeffect
 180:Generated_Source\PSoC5/USBUART_1.c **** *   This function will reset all communication states to default.
 181:Generated_Source\PSoC5/USBUART_1.c **** *
 182:Generated_Source\PSoC5/USBUART_1.c **** * \reentrant
 183:Generated_Source\PSoC5/USBUART_1.c **** *  No.
 184:Generated_Source\PSoC5/USBUART_1.c **** *
 185:Generated_Source\PSoC5/USBUART_1.c **** *******************************************************************************/
 186:Generated_Source\PSoC5/USBUART_1.c **** void USBUART_1_Start(uint8 device, uint8 mode) 
 187:Generated_Source\PSoC5/USBUART_1.c **** {
 188:Generated_Source\PSoC5/USBUART_1.c ****     if (0u == USBUART_1_initVar)
 189:Generated_Source\PSoC5/USBUART_1.c ****     {
 190:Generated_Source\PSoC5/USBUART_1.c ****         USBUART_1_Init();
 191:Generated_Source\PSoC5/USBUART_1.c ****         USBUART_1_initVar = 1u;
 192:Generated_Source\PSoC5/USBUART_1.c ****     }
 193:Generated_Source\PSoC5/USBUART_1.c **** 
 194:Generated_Source\PSoC5/USBUART_1.c ****     USBUART_1_InitComponent(device, mode);
 195:Generated_Source\PSoC5/USBUART_1.c **** }
 196:Generated_Source\PSoC5/USBUART_1.c **** 
 197:Generated_Source\PSoC5/USBUART_1.c **** 
 198:Generated_Source\PSoC5/USBUART_1.c **** /*******************************************************************************
 199:Generated_Source\PSoC5/USBUART_1.c **** * Function Name: USBUART_1_Init
 200:Generated_Source\PSoC5/USBUART_1.c **** ****************************************************************************//**
 201:Generated_Source\PSoC5/USBUART_1.c **** *
ARM GAS  C:\Users\jon\AppData\Local\Temp\ccwaPz7c.s 			page 5


 202:Generated_Source\PSoC5/USBUART_1.c **** * This function initializes or restores the component according to the
 203:Generated_Source\PSoC5/USBUART_1.c **** * customizer Configure dialog settings. It is not necessary to call
 204:Generated_Source\PSoC5/USBUART_1.c **** * USBUART_1_Init() because the USBUART_1_Start() routine calls
 205:Generated_Source\PSoC5/USBUART_1.c **** * this function and is the preferred method to begin component operation.
 206:Generated_Source\PSoC5/USBUART_1.c **** *
 207:Generated_Source\PSoC5/USBUART_1.c **** * \reentrant
 208:Generated_Source\PSoC5/USBUART_1.c **** *  No.
 209:Generated_Source\PSoC5/USBUART_1.c **** *
 210:Generated_Source\PSoC5/USBUART_1.c **** *******************************************************************************/
 211:Generated_Source\PSoC5/USBUART_1.c **** void USBUART_1_Init(void) 
 212:Generated_Source\PSoC5/USBUART_1.c **** {
  28              		.loc 1 212 0
  29              		.cfi_startproc
  30              		@ args = 0, pretend = 0, frame = 0
  31              		@ frame_needed = 0, uses_anonymous_args = 0
  32 0000 F8B5     		push	{r3, r4, r5, r6, r7, lr}
  33              		.cfi_def_cfa_offset 24
  34              		.cfi_offset 3, -24
  35              		.cfi_offset 4, -20
  36              		.cfi_offset 5, -16
  37              		.cfi_offset 6, -12
  38              		.cfi_offset 7, -8
  39              		.cfi_offset 14, -4
 213:Generated_Source\PSoC5/USBUART_1.c **** #if (CY_PSOC4)
 214:Generated_Source\PSoC5/USBUART_1.c ****     /* Enable clock to USB IP. */
 215:Generated_Source\PSoC5/USBUART_1.c ****     USBUART_1_USB_CLK_EN_REG = USBUART_1_USB_CLK_CSR_CLK_EN;
 216:Generated_Source\PSoC5/USBUART_1.c **** 
 217:Generated_Source\PSoC5/USBUART_1.c ****     /* The internal regulator (CR1.REG_ENABLE) is enabled in
 218:Generated_Source\PSoC5/USBUART_1.c ****     * USBUART_1_InitComponent() if it is required.
 219:Generated_Source\PSoC5/USBUART_1.c ****     */
 220:Generated_Source\PSoC5/USBUART_1.c **** 
 221:Generated_Source\PSoC5/USBUART_1.c ****     /* Enable USBIO control on drive mode of D+ and D- pins. */
 222:Generated_Source\PSoC5/USBUART_1.c ****     USBUART_1_USBIO_CR1_REG &= ~ (uint32) USBUART_1_USBIO_CR1_IOMODE;
 223:Generated_Source\PSoC5/USBUART_1.c **** 
 224:Generated_Source\PSoC5/USBUART_1.c ****     /* Set number of LF CLK to detect UBS bus reset. */
 225:Generated_Source\PSoC5/USBUART_1.c ****     USBUART_1_BUS_RST_CNT_REG = USBUART_1_DEFUALT_BUS_RST_CNT;
 226:Generated_Source\PSoC5/USBUART_1.c **** 
 227:Generated_Source\PSoC5/USBUART_1.c ****     /* Select VBUS detection source and clear PHY isolate. The application level
 228:Generated_Source\PSoC5/USBUART_1.c ****     * must ensure that VBUS is valid. There is no need to wait 2us before VBUS is valid.
 229:Generated_Source\PSoC5/USBUART_1.c ****     */
 230:Generated_Source\PSoC5/USBUART_1.c ****     USBUART_1_POWER_CTRL_REG = USBUART_1_DEFAULT_POWER_CTRL_VBUS;
 231:Generated_Source\PSoC5/USBUART_1.c **** 
 232:Generated_Source\PSoC5/USBUART_1.c ****     /* Enable PHY detector and single-ended and differential receivers. */
 233:Generated_Source\PSoC5/USBUART_1.c ****     USBUART_1_POWER_CTRL_REG |= USBUART_1_DEFAULT_POWER_CTRL_PHY;
 234:Generated_Source\PSoC5/USBUART_1.c **** 
 235:Generated_Source\PSoC5/USBUART_1.c ****     /* Suspend clear sequence. */
 236:Generated_Source\PSoC5/USBUART_1.c ****     USBUART_1_POWER_CTRL_REG &= (uint32) ~USBUART_1_POWER_CTRL_SUSPEND;
 237:Generated_Source\PSoC5/USBUART_1.c ****     CyDelayUs(USBUART_1_WAIT_SUSPEND_DEL_DISABLE);
 238:Generated_Source\PSoC5/USBUART_1.c ****     USBUART_1_POWER_CTRL_REG &= (uint32) ~USBUART_1_POWER_CTRL_SUSPEND_DEL;
 239:Generated_Source\PSoC5/USBUART_1.c **** 
 240:Generated_Source\PSoC5/USBUART_1.c ****     /* Sets IMO lock options and clear all other bits. */
 241:Generated_Source\PSoC5/USBUART_1.c ****     USBUART_1_CR1_REG = USBUART_1_DEFUALT_CR1;
 242:Generated_Source\PSoC5/USBUART_1.c **** 
 243:Generated_Source\PSoC5/USBUART_1.c ****     /* Configure level (hi, lo, med) for each interrupt source. */
 244:Generated_Source\PSoC5/USBUART_1.c ****     USBUART_1_INTR_LVL_SEL_REG = USBUART_1_DEFAULT_INTR_LVL_SEL;
 245:Generated_Source\PSoC5/USBUART_1.c **** 
 246:Generated_Source\PSoC5/USBUART_1.c ****     /* Configure interrupt sources from: SOF, Bus Reset and EP0. */
ARM GAS  C:\Users\jon\AppData\Local\Temp\ccwaPz7c.s 			page 6


 247:Generated_Source\PSoC5/USBUART_1.c ****     USBUART_1_INTR_SIE_MASK_REG = USBUART_1_DEFAULT_INTR_SIE_MASK;
 248:Generated_Source\PSoC5/USBUART_1.c **** 
 249:Generated_Source\PSoC5/USBUART_1.c **** #else
 250:Generated_Source\PSoC5/USBUART_1.c ****     uint8 enableInterrupts = CyEnterCriticalSection();
  40              		.loc 1 250 0
  41 0002 FFF7FEFF 		bl	CyEnterCriticalSection
  42              	.LVL0:
 251:Generated_Source\PSoC5/USBUART_1.c **** 
 252:Generated_Source\PSoC5/USBUART_1.c **** #if (USBUART_1_EP_MANAGEMENT_DMA)
 253:Generated_Source\PSoC5/USBUART_1.c ****     uint16 i;
 254:Generated_Source\PSoC5/USBUART_1.c **** #endif /* (USBUART_1_EP_MANAGEMENT_DMA) */
 255:Generated_Source\PSoC5/USBUART_1.c **** 
 256:Generated_Source\PSoC5/USBUART_1.c ****     /* Enable USB block. */
 257:Generated_Source\PSoC5/USBUART_1.c ****     USBUART_1_PM_ACT_CFG_REG |= USBUART_1_PM_ACT_EN_FSUSB;
  43              		.loc 1 257 0
  44 0006 434A     		ldr	r2, .L3
 258:Generated_Source\PSoC5/USBUART_1.c ****     /* Enable USB block for Standby Power Mode. */
 259:Generated_Source\PSoC5/USBUART_1.c ****     USBUART_1_PM_STBY_CFG_REG |= USBUART_1_PM_STBY_EN_FSUSB;
  45              		.loc 1 259 0
  46 0008 4349     		ldr	r1, .L3+4
 257:Generated_Source\PSoC5/USBUART_1.c ****     /* Enable USB block for Standby Power Mode. */
  47              		.loc 1 257 0
  48 000a 1378     		ldrb	r3, [r2]	@ zero_extendqisi2
 250:Generated_Source\PSoC5/USBUART_1.c **** 
  49              		.loc 1 250 0
  50 000c 0746     		mov	r7, r0
  51              	.LVL1:
 257:Generated_Source\PSoC5/USBUART_1.c ****     /* Enable USB block for Standby Power Mode. */
  52              		.loc 1 257 0
  53 000e 43F00103 		orr	r3, r3, #1
  54 0012 1370     		strb	r3, [r2]
  55              		.loc 1 259 0
  56 0014 0B78     		ldrb	r3, [r1]	@ zero_extendqisi2
 260:Generated_Source\PSoC5/USBUART_1.c **** 
 261:Generated_Source\PSoC5/USBUART_1.c ****     /* Enable core clock. */
 262:Generated_Source\PSoC5/USBUART_1.c ****     USBUART_1_USB_CLK_EN_REG = USBUART_1_USB_CLK_ENABLE;
  57              		.loc 1 262 0
  58 0016 414C     		ldr	r4, .L3+8
 263:Generated_Source\PSoC5/USBUART_1.c **** 
 264:Generated_Source\PSoC5/USBUART_1.c ****     USBUART_1_CR1_REG = USBUART_1_CR1_ENABLE_LOCK;
  59              		.loc 1 264 0
  60 0018 4148     		ldr	r0, .L3+12
 262:Generated_Source\PSoC5/USBUART_1.c **** 
  61              		.loc 1 262 0
  62 001a 0126     		movs	r6, #1
  63              		.loc 1 264 0
  64 001c 0225     		movs	r5, #2
 265:Generated_Source\PSoC5/USBUART_1.c **** 
 266:Generated_Source\PSoC5/USBUART_1.c ****     /* ENABLING USBIO PADS IN USB MODE FROM I/O MODE. */
 267:Generated_Source\PSoC5/USBUART_1.c ****     /* Ensure USB transmit enable is low (USB_USBIO_CR0.ten). - Manual Transmission - Disabled. */
 268:Generated_Source\PSoC5/USBUART_1.c ****     USBUART_1_USBIO_CR0_REG &= (uint8) ~USBUART_1_USBIO_CR0_TEN;
  65              		.loc 1 268 0
  66 001e 02F5E352 		add	r2, r2, #7264
 259:Generated_Source\PSoC5/USBUART_1.c **** 
  67              		.loc 1 259 0
  68 0022 43F00103 		orr	r3, r3, #1
  69 0026 0B70     		strb	r3, [r1]
ARM GAS  C:\Users\jon\AppData\Local\Temp\ccwaPz7c.s 			page 7


  70              		.loc 1 268 0
  71 0028 0B32     		adds	r2, r2, #11
 262:Generated_Source\PSoC5/USBUART_1.c **** 
  72              		.loc 1 262 0
  73 002a 2670     		strb	r6, [r4]
 264:Generated_Source\PSoC5/USBUART_1.c **** 
  74              		.loc 1 264 0
  75 002c 0570     		strb	r5, [r0]
  76              		.loc 1 268 0
  77 002e 1378     		ldrb	r3, [r2]	@ zero_extendqisi2
 269:Generated_Source\PSoC5/USBUART_1.c ****     CyDelayUs(USBUART_1_WAIT_REG_STABILITY_50NS);  /* ~50ns delay. */
 270:Generated_Source\PSoC5/USBUART_1.c ****     /* Disable USBIO by asserting PM.USB_CR0.fsusbio_pd_n(Inverted.
 271:Generated_Source\PSoC5/USBUART_1.c ****     *  high. These bits will be set low by the power manager out-of-reset.
 272:Generated_Source\PSoC5/USBUART_1.c ****     *  Also confirm USBIO pull-up is disabled.
 273:Generated_Source\PSoC5/USBUART_1.c ****     */
 274:Generated_Source\PSoC5/USBUART_1.c ****     USBUART_1_PM_USB_CR0_REG &= (uint8) ~(USBUART_1_PM_USB_CR0_PD_N |
  78              		.loc 1 274 0
  79 0030 A4F5E854 		sub	r4, r4, #7424
 268:Generated_Source\PSoC5/USBUART_1.c ****     CyDelayUs(USBUART_1_WAIT_REG_STABILITY_50NS);  /* ~50ns delay. */
  80              		.loc 1 268 0
  81 0034 03F07F03 		and	r3, r3, #127
  82              		.loc 1 274 0
  83 0038 093C     		subs	r4, r4, #9
 268:Generated_Source\PSoC5/USBUART_1.c ****     CyDelayUs(USBUART_1_WAIT_REG_STABILITY_50NS);  /* ~50ns delay. */
  84              		.loc 1 268 0
  85 003a 1370     		strb	r3, [r2]
 269:Generated_Source\PSoC5/USBUART_1.c ****     CyDelayUs(USBUART_1_WAIT_REG_STABILITY_50NS);  /* ~50ns delay. */
  86              		.loc 1 269 0
  87 003c 0020     		movs	r0, #0
  88 003e FFF7FEFF 		bl	CyDelayUs
  89              	.LVL2:
  90              		.loc 1 274 0
  91 0042 2378     		ldrb	r3, [r4]	@ zero_extendqisi2
 275:Generated_Source\PSoC5/USBUART_1.c ****                                                  USBUART_1_PM_USB_CR0_PD_PULLUP_N);
 276:Generated_Source\PSoC5/USBUART_1.c **** 
 277:Generated_Source\PSoC5/USBUART_1.c ****     /* Select IOMODE to USB mode. */
 278:Generated_Source\PSoC5/USBUART_1.c ****     USBUART_1_USBIO_CR1_REG &= (uint8) ~USBUART_1_USBIO_CR1_IOMODE;
  92              		.loc 1 278 0
  93 0044 374A     		ldr	r2, .L3+16
 274:Generated_Source\PSoC5/USBUART_1.c ****                                                  USBUART_1_PM_USB_CR0_PD_PULLUP_N);
  94              		.loc 1 274 0
  95 0046 03F0F903 		and	r3, r3, #249
  96 004a 2370     		strb	r3, [r4]
  97              		.loc 1 278 0
  98 004c 1378     		ldrb	r3, [r2]	@ zero_extendqisi2
 279:Generated_Source\PSoC5/USBUART_1.c **** 
 280:Generated_Source\PSoC5/USBUART_1.c ****     /* Enable USBIO reference by setting PM.USB_CR0.fsusbio_ref_en. */
 281:Generated_Source\PSoC5/USBUART_1.c ****     USBUART_1_PM_USB_CR0_REG |= USBUART_1_PM_USB_CR0_REF_EN;
 282:Generated_Source\PSoC5/USBUART_1.c ****     /* Reference is available for 1us after regulator is enabled. */
 283:Generated_Source\PSoC5/USBUART_1.c ****     CyDelayUs(USBUART_1_WAIT_REG_STABILITY_1US);
  99              		.loc 1 283 0
 100 004e 3046     		mov	r0, r6
 278:Generated_Source\PSoC5/USBUART_1.c **** 
 101              		.loc 1 278 0
 102 0050 03F0DF03 		and	r3, r3, #223
 103 0054 1370     		strb	r3, [r2]
 281:Generated_Source\PSoC5/USBUART_1.c ****     /* Reference is available for 1us after regulator is enabled. */
ARM GAS  C:\Users\jon\AppData\Local\Temp\ccwaPz7c.s 			page 8


 104              		.loc 1 281 0
 105 0056 2378     		ldrb	r3, [r4]	@ zero_extendqisi2
 106 0058 3343     		orrs	r3, r3, r6
 107 005a 2370     		strb	r3, [r4]
 108              		.loc 1 283 0
 109 005c FFF7FEFF 		bl	CyDelayUs
 110              	.LVL3:
 284:Generated_Source\PSoC5/USBUART_1.c ****     /* OR 40us after power is restored. */
 285:Generated_Source\PSoC5/USBUART_1.c ****     CyDelayUs(USBUART_1_WAIT_VREF_RESTORE);
 111              		.loc 1 285 0
 112 0060 2820     		movs	r0, #40
 113 0062 FFF7FEFF 		bl	CyDelayUs
 114              	.LVL4:
 286:Generated_Source\PSoC5/USBUART_1.c ****     /* Ensure single-ended disable bits are low (PRT15.INP_DIS[7:6])(input receiver enabled). */
 287:Generated_Source\PSoC5/USBUART_1.c ****     USBUART_1_DM_INP_DIS_REG &= (uint8) ~USBUART_1_DM_MASK;
 115              		.loc 1 287 0
 116 0066 304B     		ldr	r3, .L3+20
 288:Generated_Source\PSoC5/USBUART_1.c ****     USBUART_1_DP_INP_DIS_REG &= (uint8) ~USBUART_1_DP_MASK;
 289:Generated_Source\PSoC5/USBUART_1.c **** 
 290:Generated_Source\PSoC5/USBUART_1.c ****     /* Enable USBIO. */
 291:Generated_Source\PSoC5/USBUART_1.c ****     USBUART_1_PM_USB_CR0_REG |= USBUART_1_PM_USB_CR0_PD_N;
 292:Generated_Source\PSoC5/USBUART_1.c ****     CyDelayUs(USBUART_1_WAIT_PD_PULLUP_N_ENABLE);
 117              		.loc 1 292 0
 118 0068 2846     		mov	r0, r5
 287:Generated_Source\PSoC5/USBUART_1.c ****     USBUART_1_DP_INP_DIS_REG &= (uint8) ~USBUART_1_DP_MASK;
 119              		.loc 1 287 0
 120 006a 1A78     		ldrb	r2, [r3]	@ zero_extendqisi2
 121 006c 02F07F02 		and	r2, r2, #127
 122 0070 1A70     		strb	r2, [r3]
 288:Generated_Source\PSoC5/USBUART_1.c ****     USBUART_1_DP_INP_DIS_REG &= (uint8) ~USBUART_1_DP_MASK;
 123              		.loc 1 288 0
 124 0072 1A78     		ldrb	r2, [r3]	@ zero_extendqisi2
 125 0074 02F0BF02 		and	r2, r2, #191
 126 0078 1A70     		strb	r2, [r3]
 291:Generated_Source\PSoC5/USBUART_1.c ****     CyDelayUs(USBUART_1_WAIT_PD_PULLUP_N_ENABLE);
 127              		.loc 1 291 0
 128 007a 2378     		ldrb	r3, [r4]	@ zero_extendqisi2
 129 007c 2B43     		orrs	r3, r3, r5
 130 007e 2370     		strb	r3, [r4]
 131              		.loc 1 292 0
 132 0080 FFF7FEFF 		bl	CyDelayUs
 133              	.LVL5:
 293:Generated_Source\PSoC5/USBUART_1.c ****     /* Set USBIO pull-up enable. */
 294:Generated_Source\PSoC5/USBUART_1.c ****     USBUART_1_PM_USB_CR0_REG |= USBUART_1_PM_USB_CR0_PD_PULLUP_N;
 134              		.loc 1 294 0
 135 0084 2378     		ldrb	r3, [r4]	@ zero_extendqisi2
 295:Generated_Source\PSoC5/USBUART_1.c **** 
 296:Generated_Source\PSoC5/USBUART_1.c ****     /* Reset Arbiter Write Address register for endpoint 1. */
 297:Generated_Source\PSoC5/USBUART_1.c ****     CY_SET_REG8(USBUART_1_ARB_RW1_WA_PTR,     0u);
 136              		.loc 1 297 0
 137 0086 DFF8C4E0 		ldr	lr, .L3+56
 298:Generated_Source\PSoC5/USBUART_1.c ****     CY_SET_REG8(USBUART_1_ARB_RW1_WA_MSB_PTR, 0u);
 138              		.loc 1 298 0
 139 008a 2849     		ldr	r1, .L3+24
 294:Generated_Source\PSoC5/USBUART_1.c **** 
 140              		.loc 1 294 0
 141 008c 43F00403 		orr	r3, r3, #4
ARM GAS  C:\Users\jon\AppData\Local\Temp\ccwaPz7c.s 			page 9


 297:Generated_Source\PSoC5/USBUART_1.c ****     CY_SET_REG8(USBUART_1_ARB_RW1_WA_MSB_PTR, 0u);
 142              		.loc 1 297 0
 143 0090 0022     		movs	r2, #0
 294:Generated_Source\PSoC5/USBUART_1.c **** 
 144              		.loc 1 294 0
 145 0092 2370     		strb	r3, [r4]
 299:Generated_Source\PSoC5/USBUART_1.c **** 
 300:Generated_Source\PSoC5/USBUART_1.c **** #if (USBUART_1_EP_MANAGEMENT_DMA)
 301:Generated_Source\PSoC5/USBUART_1.c ****     /* Initialize transfer descriptor. This will be used to detect DMA state - initialized or not. 
 302:Generated_Source\PSoC5/USBUART_1.c ****     for (i = 0u; i < USBUART_1_MAX_EP; ++i)
 303:Generated_Source\PSoC5/USBUART_1.c ****     {
 304:Generated_Source\PSoC5/USBUART_1.c ****         USBUART_1_DmaTd[i] = DMA_INVALID_TD;
 305:Generated_Source\PSoC5/USBUART_1.c **** 
 306:Generated_Source\PSoC5/USBUART_1.c ****     #if (USBUART_1_EP_MANAGEMENT_DMA_AUTO && (USBUART_1_EP_DMA_AUTO_OPT == 0u))
 307:Generated_Source\PSoC5/USBUART_1.c ****         USBUART_1_DmaNextTd[i] = DMA_INVALID_TD;
 308:Generated_Source\PSoC5/USBUART_1.c ****     #endif /* (USBUART_1_EP_MANAGEMENT_DMA_AUTO && (USBUART_1_EP_DMA_AUTO_OPT == 0u)) */
 309:Generated_Source\PSoC5/USBUART_1.c ****     }
 310:Generated_Source\PSoC5/USBUART_1.c **** #endif /* (USBUART_1_EP_MANAGEMENT_DMA) */
 311:Generated_Source\PSoC5/USBUART_1.c **** 
 312:Generated_Source\PSoC5/USBUART_1.c ****     CyExitCriticalSection(enableInterrupts);
 146              		.loc 1 312 0
 147 0094 3846     		mov	r0, r7
 297:Generated_Source\PSoC5/USBUART_1.c ****     CY_SET_REG8(USBUART_1_ARB_RW1_WA_MSB_PTR, 0u);
 148              		.loc 1 297 0
 149 0096 8EF80020 		strb	r2, [lr]
 298:Generated_Source\PSoC5/USBUART_1.c **** 
 150              		.loc 1 298 0
 151 009a 0A70     		strb	r2, [r1]
 152              		.loc 1 312 0
 153 009c FFF7FEFF 		bl	CyExitCriticalSection
 154              	.LVL6:
 313:Generated_Source\PSoC5/USBUART_1.c **** #endif /* (CY_PSOC4) */
 314:Generated_Source\PSoC5/USBUART_1.c **** 
 315:Generated_Source\PSoC5/USBUART_1.c ****     /* Configure interrupts from USB block. */
 316:Generated_Source\PSoC5/USBUART_1.c **** #if (CY_PSOC4)
 317:Generated_Source\PSoC5/USBUART_1.c ****     /* Configure hi_int: set handler and priority. */
 318:Generated_Source\PSoC5/USBUART_1.c ****     CyIntSetPriority     (USBUART_1_INTR_HI_VECT_NUM,  USBUART_1_INTR_HI_PRIORITY);
 319:Generated_Source\PSoC5/USBUART_1.c ****     (void) CyIntSetVector(USBUART_1_INTR_HI_VECT_NUM, &USBUART_1_INTR_HI_ISR);
 320:Generated_Source\PSoC5/USBUART_1.c **** 
 321:Generated_Source\PSoC5/USBUART_1.c ****     /* Configure lo_int: set handler and priority. */
 322:Generated_Source\PSoC5/USBUART_1.c ****     CyIntSetPriority     (USBUART_1_INTR_LO_VECT_NUM,  USBUART_1_INTR_LO_PRIORITY);
 323:Generated_Source\PSoC5/USBUART_1.c ****     (void) CyIntSetVector(USBUART_1_INTR_LO_VECT_NUM, &USBUART_1_INTR_LO_ISR);
 324:Generated_Source\PSoC5/USBUART_1.c **** 
 325:Generated_Source\PSoC5/USBUART_1.c ****     /* Configure med_int: set handler and priority (routed through DSI). */
 326:Generated_Source\PSoC5/USBUART_1.c ****     CyIntSetPriority     (USBUART_1_INTR_MED_VECT_NUM,  USBUART_1_INTR_MED_PRIORITY);
 327:Generated_Source\PSoC5/USBUART_1.c ****     (void) CyIntSetVector(USBUART_1_INTR_MED_VECT_NUM, &USBUART_1_INTR_MED_ISR);
 328:Generated_Source\PSoC5/USBUART_1.c **** 
 329:Generated_Source\PSoC5/USBUART_1.c **** #else
 330:Generated_Source\PSoC5/USBUART_1.c ****     /* Set bus reset interrupt. */
 331:Generated_Source\PSoC5/USBUART_1.c ****     CyIntSetPriority(USBUART_1_BUS_RESET_VECT_NUM, USBUART_1_BUS_RESET_PRIOR);
 155              		.loc 1 331 0
 156 00a0 0721     		movs	r1, #7
 157 00a2 1720     		movs	r0, #23
 158 00a4 FFF7FEFF 		bl	CyIntSetPriority
 159              	.LVL7:
 332:Generated_Source\PSoC5/USBUART_1.c ****     (void) CyIntSetVector(USBUART_1_BUS_RESET_VECT_NUM,   &USBUART_1_BUS_RESET_ISR);
 160              		.loc 1 332 0
ARM GAS  C:\Users\jon\AppData\Local\Temp\ccwaPz7c.s 			page 10


 161 00a8 2149     		ldr	r1, .L3+28
 162 00aa 1720     		movs	r0, #23
 163 00ac FFF7FEFF 		bl	CyIntSetVector
 164              	.LVL8:
 333:Generated_Source\PSoC5/USBUART_1.c **** 
 334:Generated_Source\PSoC5/USBUART_1.c ****     /* Set Control Endpoint Interrupt. */
 335:Generated_Source\PSoC5/USBUART_1.c ****     CyIntSetPriority(USBUART_1_EP_0_VECT_NUM, USBUART_1_EP_0_PRIOR);
 165              		.loc 1 335 0
 166 00b0 0721     		movs	r1, #7
 167 00b2 1820     		movs	r0, #24
 168 00b4 FFF7FEFF 		bl	CyIntSetPriority
 169              	.LVL9:
 336:Generated_Source\PSoC5/USBUART_1.c ****     (void) CyIntSetVector(USBUART_1_EP_0_VECT_NUM,   &USBUART_1_EP_0_ISR);
 170              		.loc 1 336 0
 171 00b8 1E49     		ldr	r1, .L3+32
 172 00ba 1820     		movs	r0, #24
 173 00bc FFF7FEFF 		bl	CyIntSetVector
 174              	.LVL10:
 337:Generated_Source\PSoC5/USBUART_1.c **** 
 338:Generated_Source\PSoC5/USBUART_1.c ****     /* Set SOF interrupt. */
 339:Generated_Source\PSoC5/USBUART_1.c ****     #if (USBUART_1_SOF_ISR_ACTIVE)
 340:Generated_Source\PSoC5/USBUART_1.c ****         CyIntSetPriority     (USBUART_1_SOF_VECT_NUM,  USBUART_1_SOF_PRIOR);
 175              		.loc 1 340 0
 176 00c0 0721     		movs	r1, #7
 177 00c2 1520     		movs	r0, #21
 178 00c4 FFF7FEFF 		bl	CyIntSetPriority
 179              	.LVL11:
 341:Generated_Source\PSoC5/USBUART_1.c ****         (void) CyIntSetVector(USBUART_1_SOF_VECT_NUM, &USBUART_1_SOF_ISR);
 180              		.loc 1 341 0
 181 00c8 1B49     		ldr	r1, .L3+36
 182 00ca 1520     		movs	r0, #21
 183 00cc FFF7FEFF 		bl	CyIntSetVector
 184              	.LVL12:
 342:Generated_Source\PSoC5/USBUART_1.c ****     #endif /* (USBUART_1_SOF_ISR_ACTIVE) */
 343:Generated_Source\PSoC5/USBUART_1.c **** 
 344:Generated_Source\PSoC5/USBUART_1.c ****     /* Set Data Endpoint 1 Interrupt. */
 345:Generated_Source\PSoC5/USBUART_1.c ****     #if (USBUART_1_EP1_ISR_ACTIVE)
 346:Generated_Source\PSoC5/USBUART_1.c ****         CyIntSetPriority     (USBUART_1_EP_1_VECT_NUM,  USBUART_1_EP_1_PRIOR);
 185              		.loc 1 346 0
 186 00d0 3046     		mov	r0, r6
 187 00d2 0721     		movs	r1, #7
 188 00d4 FFF7FEFF 		bl	CyIntSetPriority
 189              	.LVL13:
 347:Generated_Source\PSoC5/USBUART_1.c ****         (void) CyIntSetVector(USBUART_1_EP_1_VECT_NUM,  &USBUART_1_EP_1_ISR);
 190              		.loc 1 347 0
 191 00d8 3046     		mov	r0, r6
 192 00da 1849     		ldr	r1, .L3+40
 193 00dc FFF7FEFF 		bl	CyIntSetVector
 194              	.LVL14:
 348:Generated_Source\PSoC5/USBUART_1.c ****     #endif /* (USBUART_1_EP1_ISR_ACTIVE) */
 349:Generated_Source\PSoC5/USBUART_1.c **** 
 350:Generated_Source\PSoC5/USBUART_1.c ****     /* Set Data Endpoint 2 Interrupt. */
 351:Generated_Source\PSoC5/USBUART_1.c ****     #if (USBUART_1_EP2_ISR_ACTIVE)
 352:Generated_Source\PSoC5/USBUART_1.c ****         CyIntSetPriority     (USBUART_1_EP_2_VECT_NUM,  USBUART_1_EP_2_PRIOR);
 195              		.loc 1 352 0
 196 00e0 2846     		mov	r0, r5
 197 00e2 0721     		movs	r1, #7
ARM GAS  C:\Users\jon\AppData\Local\Temp\ccwaPz7c.s 			page 11


 198 00e4 FFF7FEFF 		bl	CyIntSetPriority
 199              	.LVL15:
 353:Generated_Source\PSoC5/USBUART_1.c ****         (void) CyIntSetVector(USBUART_1_EP_2_VECT_NUM, &USBUART_1_EP_2_ISR);
 200              		.loc 1 353 0
 201 00e8 2846     		mov	r0, r5
 202 00ea 1549     		ldr	r1, .L3+44
 203 00ec FFF7FEFF 		bl	CyIntSetVector
 204              	.LVL16:
 354:Generated_Source\PSoC5/USBUART_1.c ****     #endif /* (USBUART_1_EP2_ISR_ACTIVE) */
 355:Generated_Source\PSoC5/USBUART_1.c **** 
 356:Generated_Source\PSoC5/USBUART_1.c ****     /* Set Data Endpoint 3 Interrupt. */
 357:Generated_Source\PSoC5/USBUART_1.c ****     #if (USBUART_1_EP3_ISR_ACTIVE)
 358:Generated_Source\PSoC5/USBUART_1.c ****         CyIntSetPriority     (USBUART_1_EP_3_VECT_NUM,  USBUART_1_EP_3_PRIOR);
 205              		.loc 1 358 0
 206 00f0 0721     		movs	r1, #7
 207 00f2 0320     		movs	r0, #3
 208 00f4 FFF7FEFF 		bl	CyIntSetPriority
 209              	.LVL17:
 359:Generated_Source\PSoC5/USBUART_1.c ****         (void) CyIntSetVector(USBUART_1_EP_3_VECT_NUM, &USBUART_1_EP_3_ISR);
 210              		.loc 1 359 0
 211 00f8 1249     		ldr	r1, .L3+48
 212 00fa 0320     		movs	r0, #3
 213 00fc FFF7FEFF 		bl	CyIntSetVector
 214              	.LVL18:
 360:Generated_Source\PSoC5/USBUART_1.c ****     #endif /* (USBUART_1_EP3_ISR_ACTIVE) */
 361:Generated_Source\PSoC5/USBUART_1.c **** 
 362:Generated_Source\PSoC5/USBUART_1.c ****     /* Set Data Endpoint 4 Interrupt. */
 363:Generated_Source\PSoC5/USBUART_1.c ****     #if (USBUART_1_EP4_ISR_ACTIVE)
 364:Generated_Source\PSoC5/USBUART_1.c ****         CyIntSetPriority     (USBUART_1_EP_4_VECT_NUM,  USBUART_1_EP_4_PRIOR);
 365:Generated_Source\PSoC5/USBUART_1.c ****         (void) CyIntSetVector(USBUART_1_EP_4_VECT_NUM, &USBUART_1_EP_4_ISR);
 366:Generated_Source\PSoC5/USBUART_1.c ****     #endif /* (USBUART_1_EP4_ISR_ACTIVE) */
 367:Generated_Source\PSoC5/USBUART_1.c **** 
 368:Generated_Source\PSoC5/USBUART_1.c ****     /* Set Data Endpoint 5 Interrupt. */
 369:Generated_Source\PSoC5/USBUART_1.c ****     #if (USBUART_1_EP5_ISR_ACTIVE)
 370:Generated_Source\PSoC5/USBUART_1.c ****         CyIntSetPriority     (USBUART_1_EP_5_VECT_NUM,  USBUART_1_EP_5_PRIOR);
 371:Generated_Source\PSoC5/USBUART_1.c ****         (void) CyIntSetVector(USBUART_1_EP_5_VECT_NUM, &USBUART_1_EP_5_ISR);
 372:Generated_Source\PSoC5/USBUART_1.c ****     #endif /* (USBUART_1_EP5_ISR_ACTIVE) */
 373:Generated_Source\PSoC5/USBUART_1.c **** 
 374:Generated_Source\PSoC5/USBUART_1.c ****     /* Set Data Endpoint 6 Interrupt. */
 375:Generated_Source\PSoC5/USBUART_1.c ****     #if (USBUART_1_EP6_ISR_ACTIVE)
 376:Generated_Source\PSoC5/USBUART_1.c ****         CyIntSetPriority     (USBUART_1_EP_6_VECT_NUM,  USBUART_1_EP_6_PRIOR);
 377:Generated_Source\PSoC5/USBUART_1.c ****         (void) CyIntSetVector(USBUART_1_EP_6_VECT_NUM, &USBUART_1_EP_6_ISR);
 378:Generated_Source\PSoC5/USBUART_1.c ****     #endif /* (USBUART_1_EP6_ISR_ACTIVE) */
 379:Generated_Source\PSoC5/USBUART_1.c **** 
 380:Generated_Source\PSoC5/USBUART_1.c ****      /* Set Data Endpoint 7 Interrupt. */
 381:Generated_Source\PSoC5/USBUART_1.c ****     #if (USBUART_1_EP7_ISR_ACTIVE)
 382:Generated_Source\PSoC5/USBUART_1.c ****         CyIntSetPriority     (USBUART_1_EP_7_VECT_NUM,  USBUART_1_EP_7_PRIOR);
 383:Generated_Source\PSoC5/USBUART_1.c ****         (void) CyIntSetVector(USBUART_1_EP_7_VECT_NUM, &USBUART_1_EP_7_ISR);
 384:Generated_Source\PSoC5/USBUART_1.c ****     #endif /* (USBUART_1_EP7_ISR_ACTIVE) */
 385:Generated_Source\PSoC5/USBUART_1.c **** 
 386:Generated_Source\PSoC5/USBUART_1.c ****     /* Set Data Endpoint 8 Interrupt. */
 387:Generated_Source\PSoC5/USBUART_1.c ****     #if (USBUART_1_EP8_ISR_ACTIVE)
 388:Generated_Source\PSoC5/USBUART_1.c ****         CyIntSetPriority     (USBUART_1_EP_8_VECT_NUM,  USBUART_1_EP_8_PRIOR);
 389:Generated_Source\PSoC5/USBUART_1.c ****         (void) CyIntSetVector(USBUART_1_EP_8_VECT_NUM, &USBUART_1_EP_8_ISR);
 390:Generated_Source\PSoC5/USBUART_1.c ****     #endif /* (USBUART_1_EP8_ISR_ACTIVE) */
 391:Generated_Source\PSoC5/USBUART_1.c **** 
 392:Generated_Source\PSoC5/USBUART_1.c ****     /* Set ARB Interrupt. */
ARM GAS  C:\Users\jon\AppData\Local\Temp\ccwaPz7c.s 			page 12


 393:Generated_Source\PSoC5/USBUART_1.c ****     #if (USBUART_1_EP_MANAGEMENT_DMA && USBUART_1_ARB_ISR_ACTIVE)
 394:Generated_Source\PSoC5/USBUART_1.c ****         CyIntSetPriority     (USBUART_1_ARB_VECT_NUM,  USBUART_1_ARB_PRIOR);
 395:Generated_Source\PSoC5/USBUART_1.c ****         (void) CyIntSetVector(USBUART_1_ARB_VECT_NUM, &USBUART_1_ARB_ISR);
 396:Generated_Source\PSoC5/USBUART_1.c ****     #endif /* (USBUART_1_EP_MANAGEMENT_DMA && USBUART_1_ARB_ISR_ACTIVE) */
 397:Generated_Source\PSoC5/USBUART_1.c **** #endif /* (CY_PSOC4) */
 398:Generated_Source\PSoC5/USBUART_1.c **** 
 399:Generated_Source\PSoC5/USBUART_1.c ****     /* Common: Configure GPIO interrupt for wakeup. */
 400:Generated_Source\PSoC5/USBUART_1.c **** #if (USBUART_1_DP_ISR_ACTIVE)
 401:Generated_Source\PSoC5/USBUART_1.c ****     CyIntSetPriority     (USBUART_1_DP_INTC_VECT_NUM,  USBUART_1_DP_INTC_PRIORITY);
 215              		.loc 1 401 0
 216 0100 0721     		movs	r1, #7
 217 0102 0C20     		movs	r0, #12
 218 0104 FFF7FEFF 		bl	CyIntSetPriority
 219              	.LVL19:
 402:Generated_Source\PSoC5/USBUART_1.c ****     (void) CyIntSetVector(USBUART_1_DP_INTC_VECT_NUM, &USBUART_1_DP_ISR);
 403:Generated_Source\PSoC5/USBUART_1.c **** #endif /* (USBUART_1_DP_ISR_ACTIVE) */
 404:Generated_Source\PSoC5/USBUART_1.c **** 
 405:Generated_Source\PSoC5/USBUART_1.c **** #if (USBUART_1_EP_MANAGEMENT_DMA && CY_PSOC4)
 406:Generated_Source\PSoC5/USBUART_1.c ****     /* Initialize DMA channels. */
 407:Generated_Source\PSoC5/USBUART_1.c ****     USBUART_1_InitEpDma();
 408:Generated_Source\PSoC5/USBUART_1.c **** #endif /* (USBUART_1_EP_MANAGEMENT_DMA && CY_PSOC4) */
 409:Generated_Source\PSoC5/USBUART_1.c **** }
 220              		.loc 1 409 0
 221 0108 BDE8F840 		pop	{r3, r4, r5, r6, r7, lr}
 222              		.cfi_restore 14
 223              		.cfi_restore 7
 224              		.cfi_restore 6
 225              		.cfi_restore 5
 226              		.cfi_restore 4
 227              		.cfi_restore 3
 228              		.cfi_def_cfa_offset 0
 229              	.LVL20:
 402:Generated_Source\PSoC5/USBUART_1.c ****     (void) CyIntSetVector(USBUART_1_DP_INTC_VECT_NUM, &USBUART_1_DP_ISR);
 230              		.loc 1 402 0
 231 010c 0E49     		ldr	r1, .L3+52
 232 010e 0C20     		movs	r0, #12
 233 0110 FFF7FEBF 		b	CyIntSetVector
 234              	.LVL21:
 235              	.L4:
 236              		.align	2
 237              	.L3:
 238 0114 A5430040 		.word	1073759141
 239 0118 B5430040 		.word	1073759157
 240 011c 9D600040 		.word	1073766557
 241 0120 09600040 		.word	1073766409
 242 0124 12600040 		.word	1073766418
 243 0128 F8510040 		.word	1073762808
 244 012c 85600040 		.word	1073766533
 245 0130 00000000 		.word	USBUART_1_BUS_RESET_ISR
 246 0134 00000000 		.word	USBUART_1_EP_0_ISR
 247 0138 00000000 		.word	USBUART_1_SOF_ISR
 248 013c 00000000 		.word	USBUART_1_EP_1_ISR
 249 0140 00000000 		.word	USBUART_1_EP_2_ISR
 250 0144 00000000 		.word	USBUART_1_EP_3_ISR
 251 0148 00000000 		.word	USBUART_1_DP_ISR
 252 014c 84600040 		.word	1073766532
 253              		.cfi_endproc
ARM GAS  C:\Users\jon\AppData\Local\Temp\ccwaPz7c.s 			page 13


 254              	.LFE1:
 255              		.size	USBUART_1_Init, .-USBUART_1_Init
 256              		.section	.text.USBUART_1_Start,"ax",%progbits
 257              		.align	2
 258              		.global	USBUART_1_Start
 259              		.thumb
 260              		.thumb_func
 261              		.type	USBUART_1_Start, %function
 262              	USBUART_1_Start:
 263              	.LFB0:
 187:Generated_Source\PSoC5/USBUART_1.c ****     if (0u == USBUART_1_initVar)
 264              		.loc 1 187 0
 265              		.cfi_startproc
 266              		@ args = 0, pretend = 0, frame = 0
 267              		@ frame_needed = 0, uses_anonymous_args = 0
 268              	.LVL22:
 269 0000 2DE9F041 		push	{r4, r5, r6, r7, r8, lr}
 270              		.cfi_def_cfa_offset 24
 271              		.cfi_offset 4, -24
 272              		.cfi_offset 5, -20
 273              		.cfi_offset 6, -16
 274              		.cfi_offset 7, -12
 275              		.cfi_offset 8, -8
 276              		.cfi_offset 14, -4
 188:Generated_Source\PSoC5/USBUART_1.c ****     {
 277              		.loc 1 188 0
 278 0004 224D     		ldr	r5, .L16
 187:Generated_Source\PSoC5/USBUART_1.c ****     if (0u == USBUART_1_initVar)
 279              		.loc 1 187 0
 280 0006 8046     		mov	r8, r0
 188:Generated_Source\PSoC5/USBUART_1.c ****     {
 281              		.loc 1 188 0
 282 0008 2B78     		ldrb	r3, [r5]	@ zero_extendqisi2
 187:Generated_Source\PSoC5/USBUART_1.c ****     if (0u == USBUART_1_initVar)
 283              		.loc 1 187 0
 284 000a 0C46     		mov	r4, r1
 188:Generated_Source\PSoC5/USBUART_1.c ****     {
 285              		.loc 1 188 0
 286 000c 1BB9     		cbnz	r3, .L6
 190:Generated_Source\PSoC5/USBUART_1.c ****         USBUART_1_initVar = 1u;
 287              		.loc 1 190 0
 288 000e FFF7FEFF 		bl	USBUART_1_Init
 289              	.LVL23:
 191:Generated_Source\PSoC5/USBUART_1.c ****     }
 290              		.loc 1 191 0
 291 0012 0123     		movs	r3, #1
 292 0014 2B70     		strb	r3, [r5]
 293              	.L6:
 294              	.LVL24:
 295              	.LBB11:
 296              	.LBB12:
 410:Generated_Source\PSoC5/USBUART_1.c **** 
 411:Generated_Source\PSoC5/USBUART_1.c **** 
 412:Generated_Source\PSoC5/USBUART_1.c **** /*******************************************************************************
 413:Generated_Source\PSoC5/USBUART_1.c **** * Function Name: USBUART_1_InitComponent
 414:Generated_Source\PSoC5/USBUART_1.c **** ****************************************************************************//**
 415:Generated_Source\PSoC5/USBUART_1.c **** *
ARM GAS  C:\Users\jon\AppData\Local\Temp\ccwaPz7c.s 			page 14


 416:Generated_Source\PSoC5/USBUART_1.c **** *   This function initializes the component’s global variables and initiates
 417:Generated_Source\PSoC5/USBUART_1.c **** *   communication with the host by pull-up D+ line.
 418:Generated_Source\PSoC5/USBUART_1.c **** *
 419:Generated_Source\PSoC5/USBUART_1.c **** * \param device:
 420:Generated_Source\PSoC5/USBUART_1.c **** *   Contains the device number of the desired device descriptor. The device
 421:Generated_Source\PSoC5/USBUART_1.c **** *   number can be found in the Device Descriptor Tab of "Configure" dialog,
 422:Generated_Source\PSoC5/USBUART_1.c **** *   under the settings of desired Device Descriptor, in the *Device Number*
 423:Generated_Source\PSoC5/USBUART_1.c **** *   field.
 424:Generated_Source\PSoC5/USBUART_1.c **** *  \param mode:
 425:Generated_Source\PSoC5/USBUART_1.c **** *   The operating voltage. This determines whether the voltage regulator
 426:Generated_Source\PSoC5/USBUART_1.c **** *   is enabled for 5V operation or if pass through mode is used for 3.3V
 427:Generated_Source\PSoC5/USBUART_1.c **** *   operation. Symbolic names and their associated values are given in the
 428:Generated_Source\PSoC5/USBUART_1.c **** *   following list.
 429:Generated_Source\PSoC5/USBUART_1.c **** *
 430:Generated_Source\PSoC5/USBUART_1.c **** *       *USBUART_1_3V_OPERATION* - Disable voltage regulator and pass-
 431:Generated_Source\PSoC5/USBUART_1.c **** *                                      through Vcc for pull-up
 432:Generated_Source\PSoC5/USBUART_1.c **** *
 433:Generated_Source\PSoC5/USBUART_1.c **** *       *USBUART_1_5V_OPERATION* - Enable voltage regulator and use
 434:Generated_Source\PSoC5/USBUART_1.c **** *                                      regulator for pull-up
 435:Generated_Source\PSoC5/USBUART_1.c **** *
 436:Generated_Source\PSoC5/USBUART_1.c **** *       *USBUART_1_DWR_POWER_OPERATION* - Enable or disable the voltage
 437:Generated_Source\PSoC5/USBUART_1.c **** *                                      regulator depending on the power supply
 438:Generated_Source\PSoC5/USBUART_1.c **** *                                      voltage configuration in the DWR tab.
 439:Generated_Source\PSoC5/USBUART_1.c **** *                                      For PSoC 3/5LP devices, the VDDD supply
 440:Generated_Source\PSoC5/USBUART_1.c **** *                                      voltage is considered and for PSoC 4A-L,
 441:Generated_Source\PSoC5/USBUART_1.c **** *                                      the VBUS supply voltage is considered.
 442:Generated_Source\PSoC5/USBUART_1.c **** *
 443:Generated_Source\PSoC5/USBUART_1.c **** * \globalvars
 444:Generated_Source\PSoC5/USBUART_1.c **** *   \ref USBUART_1_device
 445:Generated_Source\PSoC5/USBUART_1.c **** *   \ref USBUART_1_transferState
 446:Generated_Source\PSoC5/USBUART_1.c **** *   \ref USBUART_1_configuration
 447:Generated_Source\PSoC5/USBUART_1.c **** *   \ref USBUART_1_deviceStatus
 448:Generated_Source\PSoC5/USBUART_1.c **** *
 449:Generated_Source\PSoC5/USBUART_1.c **** *   \ref USBUART_1_deviceAddress - Contains the current device address. This
 450:Generated_Source\PSoC5/USBUART_1.c **** *       variable is initialized to zero in this API. The Host starts to communicate
 451:Generated_Source\PSoC5/USBUART_1.c **** *      to the device with address 0 and then sets it to a whatever value using a
 452:Generated_Source\PSoC5/USBUART_1.c **** *      SET_ADDRESS request.
 453:Generated_Source\PSoC5/USBUART_1.c **** *
 454:Generated_Source\PSoC5/USBUART_1.c **** *   \ref USBUART_1_lastPacketSize - Initialized to 0;
 455:Generated_Source\PSoC5/USBUART_1.c **** *
 456:Generated_Source\PSoC5/USBUART_1.c **** * \reentrant
 457:Generated_Source\PSoC5/USBUART_1.c **** *  No.
 458:Generated_Source\PSoC5/USBUART_1.c **** *
 459:Generated_Source\PSoC5/USBUART_1.c **** *******************************************************************************/
 460:Generated_Source\PSoC5/USBUART_1.c **** void USBUART_1_InitComponent(uint8 device, uint8 mode) 
 461:Generated_Source\PSoC5/USBUART_1.c **** {
 462:Generated_Source\PSoC5/USBUART_1.c ****     /* Initialize _hidProtocol variable to comply with
 463:Generated_Source\PSoC5/USBUART_1.c ****     *  HID 7.2.6 Set_Protocol Request:
 464:Generated_Source\PSoC5/USBUART_1.c ****     *  "When initialized, all devices default to report protocol."
 465:Generated_Source\PSoC5/USBUART_1.c ****     */
 466:Generated_Source\PSoC5/USBUART_1.c **** #if defined(USBUART_1_ENABLE_HID_CLASS)
 467:Generated_Source\PSoC5/USBUART_1.c ****     uint8 i;
 468:Generated_Source\PSoC5/USBUART_1.c **** 
 469:Generated_Source\PSoC5/USBUART_1.c ****     for (i = 0u; i < USBUART_1_MAX_INTERFACES_NUMBER; i++)
 470:Generated_Source\PSoC5/USBUART_1.c ****     {
 471:Generated_Source\PSoC5/USBUART_1.c ****         USBUART_1_hidProtocol[i] = USBUART_1_PROTOCOL_REPORT;
 472:Generated_Source\PSoC5/USBUART_1.c ****     }
ARM GAS  C:\Users\jon\AppData\Local\Temp\ccwaPz7c.s 			page 15


 473:Generated_Source\PSoC5/USBUART_1.c **** #endif /* USBUART_1_ENABLE_HID_CLASS */
 474:Generated_Source\PSoC5/USBUART_1.c **** 
 475:Generated_Source\PSoC5/USBUART_1.c ****     /* Store device number to access descriptor. */
 476:Generated_Source\PSoC5/USBUART_1.c ****     USBUART_1_device = device;
 297              		.loc 1 476 0
 298 0016 1F4B     		ldr	r3, .L16+4
 477:Generated_Source\PSoC5/USBUART_1.c **** 
 478:Generated_Source\PSoC5/USBUART_1.c ****     /* Reset component internal variables. */
 479:Generated_Source\PSoC5/USBUART_1.c ****     USBUART_1_transferState   = USBUART_1_TRANS_STATE_IDLE;
 299              		.loc 1 479 0
 300 0018 1F49     		ldr	r1, .L16+8
 476:Generated_Source\PSoC5/USBUART_1.c **** 
 301              		.loc 1 476 0
 302 001a 83F80080 		strb	r8, [r3]
 480:Generated_Source\PSoC5/USBUART_1.c ****     USBUART_1_configurationChanged = 0u;
 303              		.loc 1 480 0
 304 001e 1F4A     		ldr	r2, .L16+12
 479:Generated_Source\PSoC5/USBUART_1.c ****     USBUART_1_configurationChanged = 0u;
 305              		.loc 1 479 0
 306 0020 0023     		movs	r3, #0
 307 0022 0B70     		strb	r3, [r1]
 481:Generated_Source\PSoC5/USBUART_1.c ****     USBUART_1_configuration   = 0u;
 308              		.loc 1 481 0
 309 0024 1E4F     		ldr	r7, .L16+16
 482:Generated_Source\PSoC5/USBUART_1.c ****     USBUART_1_interfaceNumber = 0u;
 310              		.loc 1 482 0
 311 0026 1F4E     		ldr	r6, .L16+20
 483:Generated_Source\PSoC5/USBUART_1.c ****     USBUART_1_deviceAddress   = 0u;
 312              		.loc 1 483 0
 313 0028 1F4D     		ldr	r5, .L16+24
 484:Generated_Source\PSoC5/USBUART_1.c ****     USBUART_1_deviceStatus    = 0u;
 314              		.loc 1 484 0
 315 002a 2048     		ldr	r0, .L16+28
 485:Generated_Source\PSoC5/USBUART_1.c ****     USBUART_1_lastPacketSize  = 0u;
 316              		.loc 1 485 0
 317 002c 2049     		ldr	r1, .L16+32
 480:Generated_Source\PSoC5/USBUART_1.c ****     USBUART_1_configuration   = 0u;
 318              		.loc 1 480 0
 319 002e 1370     		strb	r3, [r2]
 486:Generated_Source\PSoC5/USBUART_1.c **** 
 487:Generated_Source\PSoC5/USBUART_1.c ****     /* Enable component interrupts. */
 488:Generated_Source\PSoC5/USBUART_1.c **** #if (CY_PSOC4)
 489:Generated_Source\PSoC5/USBUART_1.c ****     CyIntEnable(USBUART_1_INTR_HI_VECT_NUM);
 490:Generated_Source\PSoC5/USBUART_1.c ****     CyIntEnable(USBUART_1_INTR_MED_VECT_NUM);
 491:Generated_Source\PSoC5/USBUART_1.c ****     CyIntEnable(USBUART_1_INTR_LO_VECT_NUM);
 492:Generated_Source\PSoC5/USBUART_1.c **** #else
 493:Generated_Source\PSoC5/USBUART_1.c ****     CyIntEnable(USBUART_1_BUS_RESET_VECT_NUM);
 320              		.loc 1 493 0
 321 0030 204A     		ldr	r2, .L16+36
 481:Generated_Source\PSoC5/USBUART_1.c ****     USBUART_1_interfaceNumber = 0u;
 322              		.loc 1 481 0
 323 0032 3B70     		strb	r3, [r7]
 482:Generated_Source\PSoC5/USBUART_1.c ****     USBUART_1_deviceAddress   = 0u;
 324              		.loc 1 482 0
 325 0034 3370     		strb	r3, [r6]
 326              		.loc 1 493 0
 327 0036 4FF40007 		mov	r7, #8388608
ARM GAS  C:\Users\jon\AppData\Local\Temp\ccwaPz7c.s 			page 16


 483:Generated_Source\PSoC5/USBUART_1.c ****     USBUART_1_deviceStatus    = 0u;
 328              		.loc 1 483 0
 329 003a 2B70     		strb	r3, [r5]
 494:Generated_Source\PSoC5/USBUART_1.c ****     CyIntEnable(USBUART_1_EP_0_VECT_NUM);
 330              		.loc 1 494 0
 331 003c 4FF08076 		mov	r6, #16777216
 484:Generated_Source\PSoC5/USBUART_1.c ****     USBUART_1_lastPacketSize  = 0u;
 332              		.loc 1 484 0
 333 0040 0370     		strb	r3, [r0]
 495:Generated_Source\PSoC5/USBUART_1.c **** 
 496:Generated_Source\PSoC5/USBUART_1.c ****     #if (USBUART_1_SOF_ISR_ACTIVE)
 497:Generated_Source\PSoC5/USBUART_1.c ****         CyIntEnable(USBUART_1_SOF_VECT_NUM);
 334              		.loc 1 497 0
 335 0042 4FF40015 		mov	r5, #2097152
 485:Generated_Source\PSoC5/USBUART_1.c **** 
 336              		.loc 1 485 0
 337 0046 0B70     		strb	r3, [r1]
 498:Generated_Source\PSoC5/USBUART_1.c ****     #endif /* (USBUART_1_SOF_ISR_ACTIVE) */
 499:Generated_Source\PSoC5/USBUART_1.c **** 
 500:Generated_Source\PSoC5/USBUART_1.c ****     #if (USBUART_1_EP1_ISR_ACTIVE)
 501:Generated_Source\PSoC5/USBUART_1.c ****         CyIntEnable(USBUART_1_EP_1_VECT_NUM);
 338              		.loc 1 501 0
 339 0048 0220     		movs	r0, #2
 502:Generated_Source\PSoC5/USBUART_1.c ****     #endif /* (USBUART_1_EP1_ISR_ACTIVE) */
 503:Generated_Source\PSoC5/USBUART_1.c **** 
 504:Generated_Source\PSoC5/USBUART_1.c ****     #if (USBUART_1_EP2_ISR_ACTIVE)
 505:Generated_Source\PSoC5/USBUART_1.c ****         CyIntEnable(USBUART_1_EP_2_VECT_NUM);
 340              		.loc 1 505 0
 341 004a 0421     		movs	r1, #4
 506:Generated_Source\PSoC5/USBUART_1.c ****     #endif /* (USBUART_1_EP5_ISR_ACTIVE) */
 507:Generated_Source\PSoC5/USBUART_1.c **** 
 508:Generated_Source\PSoC5/USBUART_1.c ****     #if (USBUART_1_EP3_ISR_ACTIVE)
 509:Generated_Source\PSoC5/USBUART_1.c ****         CyIntEnable(USBUART_1_EP_3_VECT_NUM);
 342              		.loc 1 509 0
 343 004c 0823     		movs	r3, #8
 493:Generated_Source\PSoC5/USBUART_1.c ****     CyIntEnable(USBUART_1_EP_0_VECT_NUM);
 344              		.loc 1 493 0
 345 004e 1760     		str	r7, [r2]
 494:Generated_Source\PSoC5/USBUART_1.c **** 
 346              		.loc 1 494 0
 347 0050 1660     		str	r6, [r2]
 497:Generated_Source\PSoC5/USBUART_1.c ****     #endif /* (USBUART_1_SOF_ISR_ACTIVE) */
 348              		.loc 1 497 0
 349 0052 1560     		str	r5, [r2]
 501:Generated_Source\PSoC5/USBUART_1.c ****     #endif /* (USBUART_1_EP1_ISR_ACTIVE) */
 350              		.loc 1 501 0
 351 0054 1060     		str	r0, [r2]
 505:Generated_Source\PSoC5/USBUART_1.c ****     #endif /* (USBUART_1_EP5_ISR_ACTIVE) */
 352              		.loc 1 505 0
 353 0056 1160     		str	r1, [r2]
 354              		.loc 1 509 0
 355 0058 1360     		str	r3, [r2]
 510:Generated_Source\PSoC5/USBUART_1.c ****     #endif /* (USBUART_1_EP5_ISR_ACTIVE) */
 511:Generated_Source\PSoC5/USBUART_1.c **** 
 512:Generated_Source\PSoC5/USBUART_1.c ****     #if (USBUART_1_EP4_ISR_ACTIVE)
 513:Generated_Source\PSoC5/USBUART_1.c ****         CyIntEnable(USBUART_1_EP_4_VECT_NUM);
 514:Generated_Source\PSoC5/USBUART_1.c ****     #endif /* (USBUART_1_EP5_ISR_ACTIVE) */
ARM GAS  C:\Users\jon\AppData\Local\Temp\ccwaPz7c.s 			page 17


 515:Generated_Source\PSoC5/USBUART_1.c **** 
 516:Generated_Source\PSoC5/USBUART_1.c ****     #if (USBUART_1_EP5_ISR_ACTIVE)
 517:Generated_Source\PSoC5/USBUART_1.c ****         CyIntEnable(USBUART_1_EP_5_VECT_NUM);
 518:Generated_Source\PSoC5/USBUART_1.c ****     #endif /* (USBUART_1_EP5_ISR_ACTIVE) */
 519:Generated_Source\PSoC5/USBUART_1.c **** 
 520:Generated_Source\PSoC5/USBUART_1.c ****     #if (USBUART_1_EP6_ISR_ACTIVE)
 521:Generated_Source\PSoC5/USBUART_1.c ****         CyIntEnable(USBUART_1_EP_6_VECT_NUM);
 522:Generated_Source\PSoC5/USBUART_1.c ****     #endif /* USBUART_1_EP6_ISR_REMOVE */
 523:Generated_Source\PSoC5/USBUART_1.c **** 
 524:Generated_Source\PSoC5/USBUART_1.c ****     #if (USBUART_1_EP7_ISR_ACTIVE)
 525:Generated_Source\PSoC5/USBUART_1.c ****         CyIntEnable(USBUART_1_EP_7_VECT_NUM);
 526:Generated_Source\PSoC5/USBUART_1.c ****     #endif /* (USBUART_1_EP7_ISR_ACTIVE) */
 527:Generated_Source\PSoC5/USBUART_1.c **** 
 528:Generated_Source\PSoC5/USBUART_1.c ****     #if (USBUART_1_EP8_ISR_ACTIVE)
 529:Generated_Source\PSoC5/USBUART_1.c ****         CyIntEnable(USBUART_1_EP_8_VECT_NUM);
 530:Generated_Source\PSoC5/USBUART_1.c ****     #endif /* (USBUART_1_EP8_ISR_ACTIVE) */
 531:Generated_Source\PSoC5/USBUART_1.c **** #endif /* (CY_PSOC4) */
 532:Generated_Source\PSoC5/USBUART_1.c **** 
 533:Generated_Source\PSoC5/USBUART_1.c **** #if (USBUART_1_EP_MANAGEMENT_DMA && USBUART_1_ARB_ISR_ACTIVE)
 534:Generated_Source\PSoC5/USBUART_1.c ****     /* Enable ARB EP interrupt sources. */
 535:Generated_Source\PSoC5/USBUART_1.c ****     USBUART_1_ARB_INT_EN_REG = USBUART_1_DEFAULT_ARB_INT_EN;
 536:Generated_Source\PSoC5/USBUART_1.c **** 
 537:Generated_Source\PSoC5/USBUART_1.c ****     #if (CY_PSOC3 || CY_PSOC5)
 538:Generated_Source\PSoC5/USBUART_1.c ****         CyIntEnable(USBUART_1_ARB_VECT_NUM);
 539:Generated_Source\PSoC5/USBUART_1.c ****     #endif /* (CY_PSOC3 || CY_PSOC5) */
 540:Generated_Source\PSoC5/USBUART_1.c **** #endif   /* (USBUART_1_EP_MANAGEMENT_DMA && USBUART_1_ARB_ISR_ACTIVE) */
 541:Generated_Source\PSoC5/USBUART_1.c **** 
 542:Generated_Source\PSoC5/USBUART_1.c **** /* Arbiter configuration for DMA transfers. */
 543:Generated_Source\PSoC5/USBUART_1.c **** #if (USBUART_1_EP_MANAGEMENT_DMA)
 544:Generated_Source\PSoC5/USBUART_1.c ****     /* Configure Arbiter for Manual or Auto DMA operation and clear configuration completion. */
 545:Generated_Source\PSoC5/USBUART_1.c ****     USBUART_1_ARB_CFG_REG = USBUART_1_DEFAULT_ARB_CFG;
 546:Generated_Source\PSoC5/USBUART_1.c **** 
 547:Generated_Source\PSoC5/USBUART_1.c ****     #if (CY_PSOC4)
 548:Generated_Source\PSoC5/USBUART_1.c ****         /* Enable DMA operation. */
 549:Generated_Source\PSoC5/USBUART_1.c ****         CyDmaEnable();
 550:Generated_Source\PSoC5/USBUART_1.c **** 
 551:Generated_Source\PSoC5/USBUART_1.c ****         #if (USBUART_1_EP_MANAGEMENT_DMA_AUTO)
 552:Generated_Source\PSoC5/USBUART_1.c ****             /* Change DMA priority to be highest. */
 553:Generated_Source\PSoC5/USBUART_1.c ****              CyIntSetPriority(CYDMA_INTR_NUMBER, USBUART_1_DMA_AUTO_INTR_PRIO);
 554:Generated_Source\PSoC5/USBUART_1.c ****         #endif /* (USBUART_1_EP_MANAGEMENT_DMA_AUTO) */
 555:Generated_Source\PSoC5/USBUART_1.c ****     #endif /* (CY_PSOC4) */
 556:Generated_Source\PSoC5/USBUART_1.c **** 
 557:Generated_Source\PSoC5/USBUART_1.c ****     #if (USBUART_1_EP_MANAGEMENT_DMA_AUTO)
 558:Generated_Source\PSoC5/USBUART_1.c ****         #if (CY_PSOC4)
 559:Generated_Source\PSoC5/USBUART_1.c ****             /* Enable DMA interrupt to handle DMA management. */
 560:Generated_Source\PSoC5/USBUART_1.c ****             CyIntEnable(CYDMA_INTR_NUMBER);
 561:Generated_Source\PSoC5/USBUART_1.c ****         #else
 562:Generated_Source\PSoC5/USBUART_1.c ****             #if (USBUART_1_EP_DMA_AUTO_OPT == 0u)
 563:Generated_Source\PSoC5/USBUART_1.c ****                 /* Initialize interrupts which handle verification of successful DMA transaction. *
 564:Generated_Source\PSoC5/USBUART_1.c ****                 USBUART_1_EP_DMA_Done_isr_StartEx(&USBUART_1_EP_DMA_DONE_ISR);
 565:Generated_Source\PSoC5/USBUART_1.c ****                 USBUART_1_EP17_DMA_Done_SR_InterruptEnable();
 566:Generated_Source\PSoC5/USBUART_1.c ****                 USBUART_1_EP8_DMA_Done_SR_InterruptEnable();
 567:Generated_Source\PSoC5/USBUART_1.c ****             #endif /* (USBUART_1_EP_DMA_AUTO_OPT == 0u) */
 568:Generated_Source\PSoC5/USBUART_1.c ****         #endif /* (CY_PSOC4) */
 569:Generated_Source\PSoC5/USBUART_1.c ****     #endif /* (USBUART_1_EP_MANAGEMENT_DMA_AUTO) */
 570:Generated_Source\PSoC5/USBUART_1.c **** #endif /* (USBUART_1_EP_MANAGEMENT_DMA) */
 571:Generated_Source\PSoC5/USBUART_1.c **** 
ARM GAS  C:\Users\jon\AppData\Local\Temp\ccwaPz7c.s 			page 18


 572:Generated_Source\PSoC5/USBUART_1.c ****     /* Enable USB regulator depends on operation voltage. IMO Locking is enabled in Init(). */
 573:Generated_Source\PSoC5/USBUART_1.c ****     switch(mode)
 356              		.loc 1 573 0
 357 005a 94B1     		cbz	r4, .L15
 574:Generated_Source\PSoC5/USBUART_1.c ****     {
 575:Generated_Source\PSoC5/USBUART_1.c ****     case USBUART_1_3V_OPERATION:
 576:Generated_Source\PSoC5/USBUART_1.c ****         /* Disable regulator for 3V operation. */
 577:Generated_Source\PSoC5/USBUART_1.c ****         USBUART_1_CR1_REG &= (uint8) ~USBUART_1_CR1_REG_ENABLE;
 578:Generated_Source\PSoC5/USBUART_1.c ****         break;
 579:Generated_Source\PSoC5/USBUART_1.c **** 
 580:Generated_Source\PSoC5/USBUART_1.c ****     case USBUART_1_5V_OPERATION:
 581:Generated_Source\PSoC5/USBUART_1.c ****         /* Enable regulator for 5V operation. */
 582:Generated_Source\PSoC5/USBUART_1.c ****         USBUART_1_CR1_REG |= (uint8)  USBUART_1_CR1_REG_ENABLE;
 583:Generated_Source\PSoC5/USBUART_1.c ****         break;
 584:Generated_Source\PSoC5/USBUART_1.c **** 
 585:Generated_Source\PSoC5/USBUART_1.c ****     default: /* Check DWR settings of USB power supply. */
 586:Generated_Source\PSoC5/USBUART_1.c ****     #if (USBUART_1_VDDD_MV < USBUART_1_3500MV)
 587:Generated_Source\PSoC5/USBUART_1.c ****         /* Disable regulator for 3V operation. */
 588:Generated_Source\PSoC5/USBUART_1.c ****         USBUART_1_CR1_REG &= (uint8) ~USBUART_1_CR1_REG_ENABLE;
 589:Generated_Source\PSoC5/USBUART_1.c ****     #else
 590:Generated_Source\PSoC5/USBUART_1.c ****         /* Enable regulator for 5V operation. */
 591:Generated_Source\PSoC5/USBUART_1.c ****         USBUART_1_CR1_REG |= (uint8)  USBUART_1_CR1_REG_ENABLE;
 358              		.loc 1 591 0
 359 005c 164A     		ldr	r2, .L16+40
 360 005e 1378     		ldrb	r3, [r2]	@ zero_extendqisi2
 361 0060 43F00103 		orr	r3, r3, #1
 362 0064 1370     		strb	r3, [r2]
 363              	.L10:
 592:Generated_Source\PSoC5/USBUART_1.c ****     #endif /* (USBUART_1_VDDD_MV < USBUART_1_3500MV) */
 593:Generated_Source\PSoC5/USBUART_1.c ****         break;
 594:Generated_Source\PSoC5/USBUART_1.c ****     }
 595:Generated_Source\PSoC5/USBUART_1.c **** 
 596:Generated_Source\PSoC5/USBUART_1.c **** #if (CY_PSOC4)
 597:Generated_Source\PSoC5/USBUART_1.c ****     /* Clear bus activity. */
 598:Generated_Source\PSoC5/USBUART_1.c ****     USBUART_1_CR1_REG &= (uint32) ~USBUART_1_CR1_BUS_ACTIVITY;
 599:Generated_Source\PSoC5/USBUART_1.c **** 
 600:Generated_Source\PSoC5/USBUART_1.c ****     /* Clear EP0 count register. */
 601:Generated_Source\PSoC5/USBUART_1.c ****     USBUART_1_EP0_CNT_REG = USBUART_1_CLEAR_REG;
 602:Generated_Source\PSoC5/USBUART_1.c **** 
 603:Generated_Source\PSoC5/USBUART_1.c ****     /* Set EP0.CR: ACK Setup, NAK IN/OUT. */
 604:Generated_Source\PSoC5/USBUART_1.c ****     USBUART_1_EP0_CR_REG = USBUART_1_MODE_NAK_IN_OUT;
 605:Generated_Source\PSoC5/USBUART_1.c **** 
 606:Generated_Source\PSoC5/USBUART_1.c ****     #if (USBUART_1_LPM_ACTIVE)
 607:Generated_Source\PSoC5/USBUART_1.c ****         if (NULL != USBUART_1_GetBOSPtr())
 608:Generated_Source\PSoC5/USBUART_1.c ****         {
 609:Generated_Source\PSoC5/USBUART_1.c ****             /* Enable LPM and acknowledge LPM packets for active device.
 610:Generated_Source\PSoC5/USBUART_1.c ****             * Reset NYET_EN and SUB_RESP bits in the LPM_CTRL register.
 611:Generated_Source\PSoC5/USBUART_1.c ****             */
 612:Generated_Source\PSoC5/USBUART_1.c ****             USBUART_1_LPM_CTRL_REG = (USBUART_1_LPM_CTRL_LPM_EN | \
 613:Generated_Source\PSoC5/USBUART_1.c ****                                              USBUART_1_LPM_CTRL_LPM_ACK_RESP);
 614:Generated_Source\PSoC5/USBUART_1.c ****         }
 615:Generated_Source\PSoC5/USBUART_1.c ****         else
 616:Generated_Source\PSoC5/USBUART_1.c ****         {
 617:Generated_Source\PSoC5/USBUART_1.c ****             /* Disable LPM for active device. */
 618:Generated_Source\PSoC5/USBUART_1.c ****             USBUART_1_LPM_CTRL_REG &= (uint32) ~USBUART_1_LPM_CTRL_LPM_EN;
 619:Generated_Source\PSoC5/USBUART_1.c ****         }
 620:Generated_Source\PSoC5/USBUART_1.c ****     #endif /* (USBUART_1_LPM_ACTIVE) */
ARM GAS  C:\Users\jon\AppData\Local\Temp\ccwaPz7c.s 			page 19


 621:Generated_Source\PSoC5/USBUART_1.c **** 
 622:Generated_Source\PSoC5/USBUART_1.c ****     /* Enable device to responds to USB traffic with address 0. */
 623:Generated_Source\PSoC5/USBUART_1.c ****     USBUART_1_CR0_REG = USBUART_1_DEFUALT_CR0;
 624:Generated_Source\PSoC5/USBUART_1.c **** 
 625:Generated_Source\PSoC5/USBUART_1.c **** #else
 626:Generated_Source\PSoC5/USBUART_1.c ****     /* Set EP0.CR: ACK Setup, STALL IN/OUT. */
 627:Generated_Source\PSoC5/USBUART_1.c ****     USBUART_1_EP0_CR_REG = USBUART_1_MODE_STALL_IN_OUT;
 628:Generated_Source\PSoC5/USBUART_1.c **** 
 629:Generated_Source\PSoC5/USBUART_1.c ****     /* Enable device to respond to USB traffic with address 0. */
 630:Generated_Source\PSoC5/USBUART_1.c ****     USBUART_1_CR0_REG = USBUART_1_DEFUALT_CR0;
 364              		.loc 1 630 0
 365 0066 154B     		ldr	r3, .L16+44
 627:Generated_Source\PSoC5/USBUART_1.c **** 
 366              		.loc 1 627 0
 367 0068 1549     		ldr	r1, .L16+48
 368              		.loc 1 630 0
 369 006a 8022     		movs	r2, #128
 627:Generated_Source\PSoC5/USBUART_1.c **** 
 370              		.loc 1 627 0
 371 006c 0320     		movs	r0, #3
 372 006e 0870     		strb	r0, [r1]
 373              		.loc 1 630 0
 374 0070 1A70     		strb	r2, [r3]
 631:Generated_Source\PSoC5/USBUART_1.c ****     CyDelayCycles(USBUART_1_WAIT_CR0_REG_STABILITY);
 375              		.loc 1 631 0
 376 0072 0120     		movs	r0, #1
 377 0074 FFF7FEFF 		bl	CyDelayCycles
 378              	.LVL25:
 632:Generated_Source\PSoC5/USBUART_1.c **** #endif /* (CY_PSOC4) */
 633:Generated_Source\PSoC5/USBUART_1.c **** 
 634:Generated_Source\PSoC5/USBUART_1.c ****     /* Enable D+ pull-up and keep USB control on IO. */
 635:Generated_Source\PSoC5/USBUART_1.c ****     USBUART_1_USBIO_CR1_REG = USBUART_1_USBIO_CR1_USBPUEN;
 379              		.loc 1 635 0
 380 0078 124B     		ldr	r3, .L16+52
 381 007a 0422     		movs	r2, #4
 382 007c 1A70     		strb	r2, [r3]
 383              	.LVL26:
 384 007e BDE8F081 		pop	{r4, r5, r6, r7, r8, pc}
 385              	.LVL27:
 386              	.L15:
 577:Generated_Source\PSoC5/USBUART_1.c ****         break;
 387              		.loc 1 577 0
 388 0082 0D4A     		ldr	r2, .L16+40
 389 0084 1378     		ldrb	r3, [r2]	@ zero_extendqisi2
 390 0086 03F0FE03 		and	r3, r3, #254
 391 008a 1370     		strb	r3, [r2]
 392 008c EBE7     		b	.L10
 393              	.L17:
 394 008e 00BF     		.align	2
 395              	.L16:
 396 0090 00000000 		.word	.LANCHOR0
 397 0094 00000000 		.word	USBUART_1_device
 398 0098 00000000 		.word	USBUART_1_transferState
 399 009c 00000000 		.word	USBUART_1_configurationChanged
 400 00a0 00000000 		.word	USBUART_1_configuration
 401 00a4 00000000 		.word	USBUART_1_interfaceNumber
 402 00a8 00000000 		.word	USBUART_1_deviceAddress
ARM GAS  C:\Users\jon\AppData\Local\Temp\ccwaPz7c.s 			page 20


 403 00ac 00000000 		.word	USBUART_1_deviceStatus
 404 00b0 00000000 		.word	USBUART_1_lastPacketSize
 405 00b4 00E100E0 		.word	-536813312
 406 00b8 09600040 		.word	1073766409
 407 00bc 08600040 		.word	1073766408
 408 00c0 28600040 		.word	1073766440
 409 00c4 12600040 		.word	1073766418
 410              	.LBE12:
 411              	.LBE11:
 412              		.cfi_endproc
 413              	.LFE0:
 414              		.size	USBUART_1_Start, .-USBUART_1_Start
 415              		.section	.text.USBUART_1_InitComponent,"ax",%progbits
 416              		.align	2
 417              		.global	USBUART_1_InitComponent
 418              		.thumb
 419              		.thumb_func
 420              		.type	USBUART_1_InitComponent, %function
 421              	USBUART_1_InitComponent:
 422              	.LFB2:
 461:Generated_Source\PSoC5/USBUART_1.c ****     /* Initialize _hidProtocol variable to comply with
 423              		.loc 1 461 0
 424              		.cfi_startproc
 425              		@ args = 0, pretend = 0, frame = 0
 426              		@ frame_needed = 0, uses_anonymous_args = 0
 427              	.LVL28:
 428 0000 F8B5     		push	{r3, r4, r5, r6, r7, lr}
 429              		.cfi_def_cfa_offset 24
 430              		.cfi_offset 3, -24
 431              		.cfi_offset 4, -20
 432              		.cfi_offset 5, -16
 433              		.cfi_offset 6, -12
 434              		.cfi_offset 7, -8
 435              		.cfi_offset 14, -4
 476:Generated_Source\PSoC5/USBUART_1.c **** 
 436              		.loc 1 476 0
 437 0002 1E4B     		ldr	r3, .L27
 480:Generated_Source\PSoC5/USBUART_1.c ****     USBUART_1_configuration   = 0u;
 438              		.loc 1 480 0
 439 0004 1E4A     		ldr	r2, .L27+4
 479:Generated_Source\PSoC5/USBUART_1.c ****     USBUART_1_configurationChanged = 0u;
 440              		.loc 1 479 0
 441 0006 DFF8A4E0 		ldr	lr, .L27+48
 476:Generated_Source\PSoC5/USBUART_1.c **** 
 442              		.loc 1 476 0
 443 000a 1870     		strb	r0, [r3]
 481:Generated_Source\PSoC5/USBUART_1.c ****     USBUART_1_interfaceNumber = 0u;
 444              		.loc 1 481 0
 445 000c 1D4F     		ldr	r7, .L27+8
 479:Generated_Source\PSoC5/USBUART_1.c ****     USBUART_1_configurationChanged = 0u;
 446              		.loc 1 479 0
 447 000e 0023     		movs	r3, #0
 482:Generated_Source\PSoC5/USBUART_1.c ****     USBUART_1_deviceAddress   = 0u;
 448              		.loc 1 482 0
 449 0010 1D4E     		ldr	r6, .L27+12
 483:Generated_Source\PSoC5/USBUART_1.c ****     USBUART_1_deviceStatus    = 0u;
 450              		.loc 1 483 0
ARM GAS  C:\Users\jon\AppData\Local\Temp\ccwaPz7c.s 			page 21


 451 0012 1E4D     		ldr	r5, .L27+16
 484:Generated_Source\PSoC5/USBUART_1.c ****     USBUART_1_lastPacketSize  = 0u;
 452              		.loc 1 484 0
 453 0014 1E4C     		ldr	r4, .L27+20
 485:Generated_Source\PSoC5/USBUART_1.c **** 
 454              		.loc 1 485 0
 455 0016 1F48     		ldr	r0, .L27+24
 456              	.LVL29:
 479:Generated_Source\PSoC5/USBUART_1.c ****     USBUART_1_configurationChanged = 0u;
 457              		.loc 1 479 0
 458 0018 8EF80030 		strb	r3, [lr]
 459              	.LVL30:
 480:Generated_Source\PSoC5/USBUART_1.c ****     USBUART_1_configuration   = 0u;
 460              		.loc 1 480 0
 461 001c 1370     		strb	r3, [r2]
 493:Generated_Source\PSoC5/USBUART_1.c ****     CyIntEnable(USBUART_1_EP_0_VECT_NUM);
 462              		.loc 1 493 0
 463 001e 1E4A     		ldr	r2, .L27+28
 481:Generated_Source\PSoC5/USBUART_1.c ****     USBUART_1_interfaceNumber = 0u;
 464              		.loc 1 481 0
 465 0020 3B70     		strb	r3, [r7]
 482:Generated_Source\PSoC5/USBUART_1.c ****     USBUART_1_deviceAddress   = 0u;
 466              		.loc 1 482 0
 467 0022 3370     		strb	r3, [r6]
 493:Generated_Source\PSoC5/USBUART_1.c ****     CyIntEnable(USBUART_1_EP_0_VECT_NUM);
 468              		.loc 1 493 0
 469 0024 4FF40007 		mov	r7, #8388608
 483:Generated_Source\PSoC5/USBUART_1.c ****     USBUART_1_deviceStatus    = 0u;
 470              		.loc 1 483 0
 471 0028 2B70     		strb	r3, [r5]
 494:Generated_Source\PSoC5/USBUART_1.c **** 
 472              		.loc 1 494 0
 473 002a 4FF08076 		mov	r6, #16777216
 484:Generated_Source\PSoC5/USBUART_1.c ****     USBUART_1_lastPacketSize  = 0u;
 474              		.loc 1 484 0
 475 002e 2370     		strb	r3, [r4]
 497:Generated_Source\PSoC5/USBUART_1.c ****     #endif /* (USBUART_1_SOF_ISR_ACTIVE) */
 476              		.loc 1 497 0
 477 0030 4FF40015 		mov	r5, #2097152
 485:Generated_Source\PSoC5/USBUART_1.c **** 
 478              		.loc 1 485 0
 479 0034 0370     		strb	r3, [r0]
 501:Generated_Source\PSoC5/USBUART_1.c ****     #endif /* (USBUART_1_EP1_ISR_ACTIVE) */
 480              		.loc 1 501 0
 481 0036 0224     		movs	r4, #2
 505:Generated_Source\PSoC5/USBUART_1.c ****     #endif /* (USBUART_1_EP5_ISR_ACTIVE) */
 482              		.loc 1 505 0
 483 0038 0420     		movs	r0, #4
 509:Generated_Source\PSoC5/USBUART_1.c ****     #endif /* (USBUART_1_EP5_ISR_ACTIVE) */
 484              		.loc 1 509 0
 485 003a 0823     		movs	r3, #8
 493:Generated_Source\PSoC5/USBUART_1.c ****     CyIntEnable(USBUART_1_EP_0_VECT_NUM);
 486              		.loc 1 493 0
 487 003c 1760     		str	r7, [r2]
 494:Generated_Source\PSoC5/USBUART_1.c **** 
 488              		.loc 1 494 0
 489 003e 1660     		str	r6, [r2]
ARM GAS  C:\Users\jon\AppData\Local\Temp\ccwaPz7c.s 			page 22


 497:Generated_Source\PSoC5/USBUART_1.c ****     #endif /* (USBUART_1_SOF_ISR_ACTIVE) */
 490              		.loc 1 497 0
 491 0040 1560     		str	r5, [r2]
 501:Generated_Source\PSoC5/USBUART_1.c ****     #endif /* (USBUART_1_EP1_ISR_ACTIVE) */
 492              		.loc 1 501 0
 493 0042 1460     		str	r4, [r2]
 505:Generated_Source\PSoC5/USBUART_1.c ****     #endif /* (USBUART_1_EP5_ISR_ACTIVE) */
 494              		.loc 1 505 0
 495 0044 1060     		str	r0, [r2]
 509:Generated_Source\PSoC5/USBUART_1.c ****     #endif /* (USBUART_1_EP5_ISR_ACTIVE) */
 496              		.loc 1 509 0
 497 0046 1360     		str	r3, [r2]
 573:Generated_Source\PSoC5/USBUART_1.c ****     {
 498              		.loc 1 573 0
 499 0048 89B1     		cbz	r1, .L26
 591:Generated_Source\PSoC5/USBUART_1.c ****     #endif /* (USBUART_1_VDDD_MV < USBUART_1_3500MV) */
 500              		.loc 1 591 0
 501 004a 144A     		ldr	r2, .L27+32
 502 004c 1378     		ldrb	r3, [r2]	@ zero_extendqisi2
 503 004e 43F00103 		orr	r3, r3, #1
 504 0052 1370     		strb	r3, [r2]
 505              	.L22:
 630:Generated_Source\PSoC5/USBUART_1.c ****     CyDelayCycles(USBUART_1_WAIT_CR0_REG_STABILITY);
 506              		.loc 1 630 0
 507 0054 124B     		ldr	r3, .L27+36
 627:Generated_Source\PSoC5/USBUART_1.c **** 
 508              		.loc 1 627 0
 509 0056 1349     		ldr	r1, .L27+40
 510              	.LVL31:
 630:Generated_Source\PSoC5/USBUART_1.c ****     CyDelayCycles(USBUART_1_WAIT_CR0_REG_STABILITY);
 511              		.loc 1 630 0
 512 0058 8022     		movs	r2, #128
 627:Generated_Source\PSoC5/USBUART_1.c **** 
 513              		.loc 1 627 0
 514 005a 0320     		movs	r0, #3
 515 005c 0870     		strb	r0, [r1]
 630:Generated_Source\PSoC5/USBUART_1.c ****     CyDelayCycles(USBUART_1_WAIT_CR0_REG_STABILITY);
 516              		.loc 1 630 0
 517 005e 1A70     		strb	r2, [r3]
 631:Generated_Source\PSoC5/USBUART_1.c **** #endif /* (CY_PSOC4) */
 518              		.loc 1 631 0
 519 0060 0120     		movs	r0, #1
 520 0062 FFF7FEFF 		bl	CyDelayCycles
 521              	.LVL32:
 522              		.loc 1 635 0
 523 0066 104B     		ldr	r3, .L27+44
 524 0068 0422     		movs	r2, #4
 525 006a 1A70     		strb	r2, [r3]
 526 006c F8BD     		pop	{r3, r4, r5, r6, r7, pc}
 527              	.LVL33:
 528              	.L26:
 577:Generated_Source\PSoC5/USBUART_1.c ****         break;
 529              		.loc 1 577 0
 530 006e 0B4A     		ldr	r2, .L27+32
 531 0070 1378     		ldrb	r3, [r2]	@ zero_extendqisi2
 532 0072 03F0FE03 		and	r3, r3, #254
 533 0076 1370     		strb	r3, [r2]
ARM GAS  C:\Users\jon\AppData\Local\Temp\ccwaPz7c.s 			page 23


 578:Generated_Source\PSoC5/USBUART_1.c **** 
 534              		.loc 1 578 0
 535 0078 ECE7     		b	.L22
 536              	.L28:
 537 007a 00BF     		.align	2
 538              	.L27:
 539 007c 00000000 		.word	USBUART_1_device
 540 0080 00000000 		.word	USBUART_1_configurationChanged
 541 0084 00000000 		.word	USBUART_1_configuration
 542 0088 00000000 		.word	USBUART_1_interfaceNumber
 543 008c 00000000 		.word	USBUART_1_deviceAddress
 544 0090 00000000 		.word	USBUART_1_deviceStatus
 545 0094 00000000 		.word	USBUART_1_lastPacketSize
 546 0098 00E100E0 		.word	-536813312
 547 009c 09600040 		.word	1073766409
 548 00a0 08600040 		.word	1073766408
 549 00a4 28600040 		.word	1073766440
 550 00a8 12600040 		.word	1073766418
 551 00ac 00000000 		.word	USBUART_1_transferState
 552              		.cfi_endproc
 553              	.LFE2:
 554              		.size	USBUART_1_InitComponent, .-USBUART_1_InitComponent
 555              		.section	.text.USBUART_1_ReInitComponent,"ax",%progbits
 556              		.align	2
 557              		.global	USBUART_1_ReInitComponent
 558              		.thumb
 559              		.thumb_func
 560              		.type	USBUART_1_ReInitComponent, %function
 561              	USBUART_1_ReInitComponent:
 562              	.LFB3:
 636:Generated_Source\PSoC5/USBUART_1.c **** }
 637:Generated_Source\PSoC5/USBUART_1.c **** 
 638:Generated_Source\PSoC5/USBUART_1.c **** 
 639:Generated_Source\PSoC5/USBUART_1.c **** /*******************************************************************************
 640:Generated_Source\PSoC5/USBUART_1.c **** * Function Name: USBUART_1_ReInitComponent
 641:Generated_Source\PSoC5/USBUART_1.c **** ****************************************************************************//**
 642:Generated_Source\PSoC5/USBUART_1.c **** *
 643:Generated_Source\PSoC5/USBUART_1.c **** *  This function reinitialize the component configuration and is
 644:Generated_Source\PSoC5/USBUART_1.c **** *  intend to be called from the Reset interrupt.
 645:Generated_Source\PSoC5/USBUART_1.c **** *
 646:Generated_Source\PSoC5/USBUART_1.c **** * \globalvars
 647:Generated_Source\PSoC5/USBUART_1.c **** *   USBUART_1_device - Contains the device number of the desired Device
 648:Generated_Source\PSoC5/USBUART_1.c **** *        Descriptor. The device number can be found in the Device Descriptor tab
 649:Generated_Source\PSoC5/USBUART_1.c **** *       of the Configure dialog, under the settings of the desired Device Descriptor,
 650:Generated_Source\PSoC5/USBUART_1.c **** *       in the Device Number field.
 651:Generated_Source\PSoC5/USBUART_1.c **** *   USBUART_1_transferState - This variable is used by the communication
 652:Generated_Source\PSoC5/USBUART_1.c **** *       functions to handle the current transfer state. Initialized to
 653:Generated_Source\PSoC5/USBUART_1.c **** *       TRANS_STATE_IDLE in this API.
 654:Generated_Source\PSoC5/USBUART_1.c **** *   USBUART_1_configuration - Contains the current configuration number
 655:Generated_Source\PSoC5/USBUART_1.c **** *       set by the Host using a SET_CONFIGURATION request.
 656:Generated_Source\PSoC5/USBUART_1.c **** *       Initialized to zero in this API.
 657:Generated_Source\PSoC5/USBUART_1.c **** *   USBUART_1_deviceAddress - Contains the current device address. This
 658:Generated_Source\PSoC5/USBUART_1.c **** *       variable is initialized to zero in this API. The Host starts to communicate
 659:Generated_Source\PSoC5/USBUART_1.c **** *      to the device with address 0 and then sets it to a whatever value using
 660:Generated_Source\PSoC5/USBUART_1.c **** *      a SET_ADDRESS request.
 661:Generated_Source\PSoC5/USBUART_1.c **** *   USBUART_1_deviceStatus - Initialized to 0.
 662:Generated_Source\PSoC5/USBUART_1.c **** *       This is a two-bit variable which contains the power status in the first bit
ARM GAS  C:\Users\jon\AppData\Local\Temp\ccwaPz7c.s 			page 24


 663:Generated_Source\PSoC5/USBUART_1.c **** *       (DEVICE_STATUS_BUS_POWERED or DEVICE_STATUS_SELF_POWERED) and the remote
 664:Generated_Source\PSoC5/USBUART_1.c **** *       wakeup status (DEVICE_STATUS_REMOTE_WAKEUP) in the second bit.
 665:Generated_Source\PSoC5/USBUART_1.c **** *   USBUART_1_lastPacketSize - Initialized to 0;
 666:Generated_Source\PSoC5/USBUART_1.c **** *
 667:Generated_Source\PSoC5/USBUART_1.c **** * \reentrant
 668:Generated_Source\PSoC5/USBUART_1.c **** *  No.
 669:Generated_Source\PSoC5/USBUART_1.c **** *
 670:Generated_Source\PSoC5/USBUART_1.c **** *******************************************************************************/
 671:Generated_Source\PSoC5/USBUART_1.c **** void USBUART_1_ReInitComponent(void) 
 672:Generated_Source\PSoC5/USBUART_1.c **** {
 563              		.loc 1 672 0
 564              		.cfi_startproc
 565              		@ args = 0, pretend = 0, frame = 0
 566              		@ frame_needed = 0, uses_anonymous_args = 0
 567              		@ link register save eliminated.
 568 0000 F0B4     		push	{r4, r5, r6, r7}
 569              		.cfi_def_cfa_offset 16
 570              		.cfi_offset 4, -16
 571              		.cfi_offset 5, -12
 572              		.cfi_offset 6, -8
 573              		.cfi_offset 7, -4
 673:Generated_Source\PSoC5/USBUART_1.c ****     /* Initialize _hidProtocol variable to comply with HID 7.2.6 Set_Protocol
 674:Generated_Source\PSoC5/USBUART_1.c ****     *  Request: "When initialized, all devices default to report protocol."
 675:Generated_Source\PSoC5/USBUART_1.c ****     */
 676:Generated_Source\PSoC5/USBUART_1.c **** #if defined(USBUART_1_ENABLE_HID_CLASS)
 677:Generated_Source\PSoC5/USBUART_1.c ****     uint8 i;
 678:Generated_Source\PSoC5/USBUART_1.c **** 
 679:Generated_Source\PSoC5/USBUART_1.c ****     for (i = 0u; i < USBUART_1_MAX_INTERFACES_NUMBER; i++)
 680:Generated_Source\PSoC5/USBUART_1.c ****     {
 681:Generated_Source\PSoC5/USBUART_1.c ****         USBUART_1_hidProtocol[i] = USBUART_1_PROTOCOL_REPORT;
 682:Generated_Source\PSoC5/USBUART_1.c ****     }
 683:Generated_Source\PSoC5/USBUART_1.c **** #endif /* USBUART_1_ENABLE_HID_CLASS */
 684:Generated_Source\PSoC5/USBUART_1.c **** 
 685:Generated_Source\PSoC5/USBUART_1.c ****     /* Reset component internal variables. */
 686:Generated_Source\PSoC5/USBUART_1.c ****     USBUART_1_transferState   = USBUART_1_TRANS_STATE_IDLE;
 574              		.loc 1 686 0
 575 0002 0B48     		ldr	r0, .L31
 687:Generated_Source\PSoC5/USBUART_1.c ****     USBUART_1_configurationChanged = 0u;
 576              		.loc 1 687 0
 577 0004 0B4A     		ldr	r2, .L31+4
 686:Generated_Source\PSoC5/USBUART_1.c ****     USBUART_1_configurationChanged = 0u;
 578              		.loc 1 686 0
 579 0006 0023     		movs	r3, #0
 688:Generated_Source\PSoC5/USBUART_1.c ****     USBUART_1_configuration   = 0u;
 580              		.loc 1 688 0
 581 0008 0B4C     		ldr	r4, .L31+8
 689:Generated_Source\PSoC5/USBUART_1.c ****     USBUART_1_interfaceNumber = 0u;
 582              		.loc 1 689 0
 583 000a 0C49     		ldr	r1, .L31+12
 686:Generated_Source\PSoC5/USBUART_1.c ****     USBUART_1_configurationChanged = 0u;
 584              		.loc 1 686 0
 585 000c 0370     		strb	r3, [r0]
 690:Generated_Source\PSoC5/USBUART_1.c ****     USBUART_1_deviceAddress   = 0u;
 586              		.loc 1 690 0
 587 000e 0C4F     		ldr	r7, .L31+16
 687:Generated_Source\PSoC5/USBUART_1.c ****     USBUART_1_configuration   = 0u;
 588              		.loc 1 687 0
ARM GAS  C:\Users\jon\AppData\Local\Temp\ccwaPz7c.s 			page 25


 589 0010 1370     		strb	r3, [r2]
 691:Generated_Source\PSoC5/USBUART_1.c ****     USBUART_1_deviceStatus    = 0u;
 590              		.loc 1 691 0
 591 0012 0C4E     		ldr	r6, .L31+20
 692:Generated_Source\PSoC5/USBUART_1.c ****     USBUART_1_lastPacketSize  = 0u;
 592              		.loc 1 692 0
 593 0014 0C4D     		ldr	r5, .L31+24
 693:Generated_Source\PSoC5/USBUART_1.c **** 
 694:Generated_Source\PSoC5/USBUART_1.c **** #if (CY_PSOC4)
 695:Generated_Source\PSoC5/USBUART_1.c ****     /* Set EP0.CR: ACK Setup, NAK IN/OUT. */
 696:Generated_Source\PSoC5/USBUART_1.c ****     USBUART_1_EP0_CR_REG = USBUART_1_MODE_NAK_IN_OUT;
 697:Generated_Source\PSoC5/USBUART_1.c **** #else
 698:Generated_Source\PSoC5/USBUART_1.c ****     /* Set EP0.CR: ACK Setup, STALL IN/OUT. */
 699:Generated_Source\PSoC5/USBUART_1.c ****     USBUART_1_EP0_CR_REG = USBUART_1_MODE_STALL_IN_OUT;
 594              		.loc 1 699 0
 595 0016 0D48     		ldr	r0, .L31+28
 700:Generated_Source\PSoC5/USBUART_1.c **** #endif /* (CY_PSOC4) */
 701:Generated_Source\PSoC5/USBUART_1.c **** 
 702:Generated_Source\PSoC5/USBUART_1.c ****     /* Enable device to respond to USB traffic with address 0. */
 703:Generated_Source\PSoC5/USBUART_1.c ****     USBUART_1_CR0_REG = USBUART_1_DEFUALT_CR0;
 596              		.loc 1 703 0
 597 0018 0D4A     		ldr	r2, .L31+32
 688:Generated_Source\PSoC5/USBUART_1.c ****     USBUART_1_interfaceNumber = 0u;
 598              		.loc 1 688 0
 599 001a 2370     		strb	r3, [r4]
 689:Generated_Source\PSoC5/USBUART_1.c ****     USBUART_1_deviceAddress   = 0u;
 600              		.loc 1 689 0
 601 001c 0B70     		strb	r3, [r1]
 699:Generated_Source\PSoC5/USBUART_1.c **** #endif /* (CY_PSOC4) */
 602              		.loc 1 699 0
 603 001e 0324     		movs	r4, #3
 604              		.loc 1 703 0
 605 0020 8021     		movs	r1, #128
 690:Generated_Source\PSoC5/USBUART_1.c ****     USBUART_1_deviceStatus    = 0u;
 606              		.loc 1 690 0
 607 0022 3B70     		strb	r3, [r7]
 691:Generated_Source\PSoC5/USBUART_1.c ****     USBUART_1_lastPacketSize  = 0u;
 608              		.loc 1 691 0
 609 0024 3370     		strb	r3, [r6]
 692:Generated_Source\PSoC5/USBUART_1.c **** 
 610              		.loc 1 692 0
 611 0026 2B70     		strb	r3, [r5]
 699:Generated_Source\PSoC5/USBUART_1.c **** #endif /* (CY_PSOC4) */
 612              		.loc 1 699 0
 613 0028 0470     		strb	r4, [r0]
 614              		.loc 1 703 0
 615 002a 1170     		strb	r1, [r2]
 704:Generated_Source\PSoC5/USBUART_1.c **** }
 616              		.loc 1 704 0
 617 002c F0BC     		pop	{r4, r5, r6, r7}
 618              		.cfi_restore 7
 619              		.cfi_restore 6
 620              		.cfi_restore 5
 621              		.cfi_restore 4
 622              		.cfi_def_cfa_offset 0
 623 002e 7047     		bx	lr
 624              	.L32:
ARM GAS  C:\Users\jon\AppData\Local\Temp\ccwaPz7c.s 			page 26


 625              		.align	2
 626              	.L31:
 627 0030 00000000 		.word	USBUART_1_transferState
 628 0034 00000000 		.word	USBUART_1_configurationChanged
 629 0038 00000000 		.word	USBUART_1_configuration
 630 003c 00000000 		.word	USBUART_1_interfaceNumber
 631 0040 00000000 		.word	USBUART_1_deviceAddress
 632 0044 00000000 		.word	USBUART_1_deviceStatus
 633 0048 00000000 		.word	USBUART_1_lastPacketSize
 634 004c 28600040 		.word	1073766440
 635 0050 08600040 		.word	1073766408
 636              		.cfi_endproc
 637              	.LFE3:
 638              		.size	USBUART_1_ReInitComponent, .-USBUART_1_ReInitComponent
 639              		.section	.text.USBUART_1_Stop,"ax",%progbits
 640              		.align	2
 641              		.global	USBUART_1_Stop
 642              		.thumb
 643              		.thumb_func
 644              		.type	USBUART_1_Stop, %function
 645              	USBUART_1_Stop:
 646              	.LFB4:
 705:Generated_Source\PSoC5/USBUART_1.c **** 
 706:Generated_Source\PSoC5/USBUART_1.c **** 
 707:Generated_Source\PSoC5/USBUART_1.c **** /*******************************************************************************
 708:Generated_Source\PSoC5/USBUART_1.c **** * Function Name: USBUART_1_Stop
 709:Generated_Source\PSoC5/USBUART_1.c **** ****************************************************************************//**
 710:Generated_Source\PSoC5/USBUART_1.c **** *
 711:Generated_Source\PSoC5/USBUART_1.c **** *  This function shuts down the USB function including to release
 712:Generated_Source\PSoC5/USBUART_1.c **** *  the D+ pull-up and disabling the SIE.
 713:Generated_Source\PSoC5/USBUART_1.c **** *
 714:Generated_Source\PSoC5/USBUART_1.c **** * \globalvars
 715:Generated_Source\PSoC5/USBUART_1.c **** *   \ref USBUART_1_configuration
 716:Generated_Source\PSoC5/USBUART_1.c **** *
 717:Generated_Source\PSoC5/USBUART_1.c **** *   USBUART_1_deviceAddress - Contains the current device address. This
 718:Generated_Source\PSoC5/USBUART_1.c **** *       variable is initialized to zero in this API. The Host starts to communicate
 719:Generated_Source\PSoC5/USBUART_1.c **** *      to the device with address 0 and then sets it to a whatever value using
 720:Generated_Source\PSoC5/USBUART_1.c **** *      a SET_ADDRESS request.
 721:Generated_Source\PSoC5/USBUART_1.c **** *
 722:Generated_Source\PSoC5/USBUART_1.c **** *   \ref USBUART_1_deviceStatus
 723:Generated_Source\PSoC5/USBUART_1.c **** *
 724:Generated_Source\PSoC5/USBUART_1.c **** *   \ref USBUART_1_configurationChanged
 725:Generated_Source\PSoC5/USBUART_1.c **** *
 726:Generated_Source\PSoC5/USBUART_1.c **** *   USBUART_1_intiVar -  This variable is set to zero
 727:Generated_Source\PSoC5/USBUART_1.c **** *
 728:Generated_Source\PSoC5/USBUART_1.c **** *******************************************************************************/
 729:Generated_Source\PSoC5/USBUART_1.c **** void USBUART_1_Stop(void) 
 730:Generated_Source\PSoC5/USBUART_1.c **** {
 647              		.loc 1 730 0
 648              		.cfi_startproc
 649              		@ args = 0, pretend = 0, frame = 0
 650              		@ frame_needed = 0, uses_anonymous_args = 0
 651 0000 F8B5     		push	{r3, r4, r5, r6, r7, lr}
 652              		.cfi_def_cfa_offset 24
 653              		.cfi_offset 3, -24
 654              		.cfi_offset 4, -20
 655              		.cfi_offset 5, -16
ARM GAS  C:\Users\jon\AppData\Local\Temp\ccwaPz7c.s 			page 27


 656              		.cfi_offset 6, -12
 657              		.cfi_offset 7, -8
 658              		.cfi_offset 14, -4
 731:Generated_Source\PSoC5/USBUART_1.c ****     uint8 enableInterrupts;
 732:Generated_Source\PSoC5/USBUART_1.c **** 
 733:Generated_Source\PSoC5/USBUART_1.c **** #if (USBUART_1_EP_MANAGEMENT_DMA)
 734:Generated_Source\PSoC5/USBUART_1.c ****     /* Stop all DMA channels. */
 735:Generated_Source\PSoC5/USBUART_1.c ****     USBUART_1_Stop_DMA(USBUART_1_MAX_EP);
 736:Generated_Source\PSoC5/USBUART_1.c **** #endif /* (USBUART_1_EP_MANAGEMENT_DMA) */
 737:Generated_Source\PSoC5/USBUART_1.c **** 
 738:Generated_Source\PSoC5/USBUART_1.c ****     enableInterrupts = CyEnterCriticalSection();
 659              		.loc 1 738 0
 660 0002 FFF7FEFF 		bl	CyEnterCriticalSection
 661              	.LVL34:
 739:Generated_Source\PSoC5/USBUART_1.c **** 
 740:Generated_Source\PSoC5/USBUART_1.c ****     /* Disable USB IP to respond to USB traffic. */
 741:Generated_Source\PSoC5/USBUART_1.c ****     USBUART_1_CR0_REG &= (uint8) ~USBUART_1_CR0_ENABLE;
 662              		.loc 1 741 0
 663 0006 2249     		ldr	r1, .L35
 742:Generated_Source\PSoC5/USBUART_1.c **** 
 743:Generated_Source\PSoC5/USBUART_1.c ****     /* Disable D+ pull-up. */
 744:Generated_Source\PSoC5/USBUART_1.c ****     USBUART_1_USBIO_CR1_REG &= (uint8) ~ USBUART_1_USBIO_CR1_USBPUEN;
 664              		.loc 1 744 0
 665 0008 224A     		ldr	r2, .L35+4
 741:Generated_Source\PSoC5/USBUART_1.c **** 
 666              		.loc 1 741 0
 667 000a 0B78     		ldrb	r3, [r1]	@ zero_extendqisi2
 745:Generated_Source\PSoC5/USBUART_1.c **** 
 746:Generated_Source\PSoC5/USBUART_1.c **** #if (CY_PSOC4)
 747:Generated_Source\PSoC5/USBUART_1.c ****     /* Disable USBFS block. */
 748:Generated_Source\PSoC5/USBUART_1.c ****     USBUART_1_POWER_CTRL_REG &= (uint32) ~USBUART_1_POWER_CTRL_ENABLE;
 749:Generated_Source\PSoC5/USBUART_1.c **** #else
 750:Generated_Source\PSoC5/USBUART_1.c ****     /* Clear power active and standby mode templates. */
 751:Generated_Source\PSoC5/USBUART_1.c ****     USBUART_1_PM_ACT_CFG_REG  &= (uint8) ~USBUART_1_PM_ACT_EN_FSUSB;
 668              		.loc 1 751 0
 669 000c 224C     		ldr	r4, .L35+8
 741:Generated_Source\PSoC5/USBUART_1.c **** 
 670              		.loc 1 741 0
 671 000e 03F07F03 		and	r3, r3, #127
 672 0012 0B70     		strb	r3, [r1]
 744:Generated_Source\PSoC5/USBUART_1.c **** 
 673              		.loc 1 744 0
 674 0014 1378     		ldrb	r3, [r2]	@ zero_extendqisi2
 752:Generated_Source\PSoC5/USBUART_1.c ****     USBUART_1_PM_STBY_CFG_REG &= (uint8) ~USBUART_1_PM_STBY_EN_FSUSB;
 675              		.loc 1 752 0
 676 0016 A1F5E251 		sub	r1, r1, #7232
 744:Generated_Source\PSoC5/USBUART_1.c **** 
 677              		.loc 1 744 0
 678 001a 03F0FB03 		and	r3, r3, #251
 679 001e 1370     		strb	r3, [r2]
 751:Generated_Source\PSoC5/USBUART_1.c ****     USBUART_1_PM_STBY_CFG_REG &= (uint8) ~USBUART_1_PM_STBY_EN_FSUSB;
 680              		.loc 1 751 0
 681 0020 2278     		ldrb	r2, [r4]	@ zero_extendqisi2
 682              		.loc 1 752 0
 683 0022 1339     		subs	r1, r1, #19
 751:Generated_Source\PSoC5/USBUART_1.c ****     USBUART_1_PM_STBY_CFG_REG &= (uint8) ~USBUART_1_PM_STBY_EN_FSUSB;
 684              		.loc 1 751 0
ARM GAS  C:\Users\jon\AppData\Local\Temp\ccwaPz7c.s 			page 28


 685 0024 02F0FE02 		and	r2, r2, #254
 686 0028 2270     		strb	r2, [r4]
 687              		.loc 1 752 0
 688 002a 0A78     		ldrb	r2, [r1]	@ zero_extendqisi2
 753:Generated_Source\PSoC5/USBUART_1.c **** 
 754:Generated_Source\PSoC5/USBUART_1.c ****     /* Ensure single-ended disable bits are high (PRT15.INP_DIS[7:6])
 755:Generated_Source\PSoC5/USBUART_1.c ****      * (input receiver disabled). */
 756:Generated_Source\PSoC5/USBUART_1.c ****     USBUART_1_DM_INP_DIS_REG |= (uint8) USBUART_1_DM_MASK;
 689              		.loc 1 756 0
 690 002c 1B4B     		ldr	r3, .L35+12
 752:Generated_Source\PSoC5/USBUART_1.c **** 
 691              		.loc 1 752 0
 692 002e 02F0FE02 		and	r2, r2, #254
 693 0032 0A70     		strb	r2, [r1]
 694              		.loc 1 756 0
 695 0034 1A78     		ldrb	r2, [r3]	@ zero_extendqisi2
 757:Generated_Source\PSoC5/USBUART_1.c ****     USBUART_1_DP_INP_DIS_REG |= (uint8) USBUART_1_DP_MASK;
 758:Generated_Source\PSoC5/USBUART_1.c **** 
 759:Generated_Source\PSoC5/USBUART_1.c **** #endif /* (CY_PSOC4) */
 760:Generated_Source\PSoC5/USBUART_1.c **** 
 761:Generated_Source\PSoC5/USBUART_1.c ****     CyExitCriticalSection(enableInterrupts);
 762:Generated_Source\PSoC5/USBUART_1.c **** 
 763:Generated_Source\PSoC5/USBUART_1.c ****     /* Disable component interrupts. */
 764:Generated_Source\PSoC5/USBUART_1.c **** #if (CY_PSOC4)
 765:Generated_Source\PSoC5/USBUART_1.c ****     CyIntDisable(USBUART_1_INTR_HI_VECT_NUM);
 766:Generated_Source\PSoC5/USBUART_1.c ****     CyIntDisable(USBUART_1_INTR_LO_VECT_NUM);
 767:Generated_Source\PSoC5/USBUART_1.c ****     CyIntDisable(USBUART_1_INTR_MED_VECT_NUM);
 768:Generated_Source\PSoC5/USBUART_1.c **** #else
 769:Generated_Source\PSoC5/USBUART_1.c **** 
 770:Generated_Source\PSoC5/USBUART_1.c ****     CyIntDisable(USBUART_1_BUS_RESET_VECT_NUM);
 696              		.loc 1 770 0
 697 0036 4FF40006 		mov	r6, #8388608
 756:Generated_Source\PSoC5/USBUART_1.c ****     USBUART_1_DP_INP_DIS_REG |= (uint8) USBUART_1_DP_MASK;
 698              		.loc 1 756 0
 699 003a 42F08002 		orr	r2, r2, #128
 700 003e 1A70     		strb	r2, [r3]
 757:Generated_Source\PSoC5/USBUART_1.c ****     USBUART_1_DP_INP_DIS_REG |= (uint8) USBUART_1_DP_MASK;
 701              		.loc 1 757 0
 702 0040 1A78     		ldrb	r2, [r3]	@ zero_extendqisi2
 771:Generated_Source\PSoC5/USBUART_1.c ****     CyIntDisable(USBUART_1_EP_0_VECT_NUM);
 703              		.loc 1 771 0
 704 0042 4FF08075 		mov	r5, #16777216
 757:Generated_Source\PSoC5/USBUART_1.c ****     USBUART_1_DP_INP_DIS_REG |= (uint8) USBUART_1_DP_MASK;
 705              		.loc 1 757 0
 706 0046 42F04002 		orr	r2, r2, #64
 707 004a 1A70     		strb	r2, [r3]
 761:Generated_Source\PSoC5/USBUART_1.c **** 
 708              		.loc 1 761 0
 709 004c FFF7FEFF 		bl	CyExitCriticalSection
 710              	.LVL35:
 770:Generated_Source\PSoC5/USBUART_1.c ****     CyIntDisable(USBUART_1_EP_0_VECT_NUM);
 711              		.loc 1 770 0
 712 0050 134B     		ldr	r3, .L35+16
 772:Generated_Source\PSoC5/USBUART_1.c **** 
 773:Generated_Source\PSoC5/USBUART_1.c ****     #if (USBUART_1_SOF_ISR_ACTIVE)
 774:Generated_Source\PSoC5/USBUART_1.c ****         CyIntDisable(USBUART_1_SOF_VECT_NUM);
 775:Generated_Source\PSoC5/USBUART_1.c ****     #endif /* (USBUART_1_SOF_ISR_ACTIVE) */
ARM GAS  C:\Users\jon\AppData\Local\Temp\ccwaPz7c.s 			page 29


 776:Generated_Source\PSoC5/USBUART_1.c **** 
 777:Generated_Source\PSoC5/USBUART_1.c ****     #if (USBUART_1_EP1_ISR_ACTIVE)
 778:Generated_Source\PSoC5/USBUART_1.c ****         CyIntDisable(USBUART_1_EP_1_VECT_NUM);
 779:Generated_Source\PSoC5/USBUART_1.c ****     #endif /* (USBUART_1_EP1_ISR_ACTIVE) */
 780:Generated_Source\PSoC5/USBUART_1.c **** 
 781:Generated_Source\PSoC5/USBUART_1.c ****     #if (USBUART_1_EP2_ISR_ACTIVE)
 782:Generated_Source\PSoC5/USBUART_1.c ****         CyIntDisable(USBUART_1_EP_2_VECT_NUM);
 713              		.loc 1 782 0
 714 0052 0421     		movs	r1, #4
 783:Generated_Source\PSoC5/USBUART_1.c ****     #endif /* (USBUART_1_EP2_ISR_ACTIVE) */
 784:Generated_Source\PSoC5/USBUART_1.c **** 
 785:Generated_Source\PSoC5/USBUART_1.c ****     #if (USBUART_1_EP3_ISR_ACTIVE)
 786:Generated_Source\PSoC5/USBUART_1.c ****         CyIntDisable(USBUART_1_EP_3_VECT_NUM);
 715              		.loc 1 786 0
 716 0054 0822     		movs	r2, #8
 774:Generated_Source\PSoC5/USBUART_1.c ****     #endif /* (USBUART_1_SOF_ISR_ACTIVE) */
 717              		.loc 1 774 0
 718 0056 4FF40014 		mov	r4, #2097152
 778:Generated_Source\PSoC5/USBUART_1.c ****     #endif /* (USBUART_1_EP1_ISR_ACTIVE) */
 719              		.loc 1 778 0
 720 005a 0220     		movs	r0, #2
 770:Generated_Source\PSoC5/USBUART_1.c ****     CyIntDisable(USBUART_1_EP_0_VECT_NUM);
 721              		.loc 1 770 0
 722 005c 1E60     		str	r6, [r3]
 771:Generated_Source\PSoC5/USBUART_1.c **** 
 723              		.loc 1 771 0
 724 005e 1D60     		str	r5, [r3]
 774:Generated_Source\PSoC5/USBUART_1.c ****     #endif /* (USBUART_1_SOF_ISR_ACTIVE) */
 725              		.loc 1 774 0
 726 0060 1C60     		str	r4, [r3]
 778:Generated_Source\PSoC5/USBUART_1.c ****     #endif /* (USBUART_1_EP1_ISR_ACTIVE) */
 727              		.loc 1 778 0
 728 0062 1860     		str	r0, [r3]
 782:Generated_Source\PSoC5/USBUART_1.c ****     #endif /* (USBUART_1_EP2_ISR_ACTIVE) */
 729              		.loc 1 782 0
 730 0064 1960     		str	r1, [r3]
 731              		.loc 1 786 0
 732 0066 1A60     		str	r2, [r3]
 787:Generated_Source\PSoC5/USBUART_1.c ****     #endif /* (USBUART_1_EP3_ISR_ACTIVE) */
 788:Generated_Source\PSoC5/USBUART_1.c **** 
 789:Generated_Source\PSoC5/USBUART_1.c ****     #if (USBUART_1_EP4_ISR_ACTIVE)
 790:Generated_Source\PSoC5/USBUART_1.c ****         CyIntDisable(USBUART_1_EP_4_VECT_NUM);
 791:Generated_Source\PSoC5/USBUART_1.c ****     #endif /* (USBUART_1_EP4_ISR_ACTIVE) */
 792:Generated_Source\PSoC5/USBUART_1.c **** 
 793:Generated_Source\PSoC5/USBUART_1.c ****     #if (USBUART_1_EP5_ISR_ACTIVE)
 794:Generated_Source\PSoC5/USBUART_1.c ****         CyIntDisable(USBUART_1_EP_5_VECT_NUM);
 795:Generated_Source\PSoC5/USBUART_1.c ****     #endif /* (USBUART_1_EP5_ISR_ACTIVE) */
 796:Generated_Source\PSoC5/USBUART_1.c **** 
 797:Generated_Source\PSoC5/USBUART_1.c ****     #if (USBUART_1_EP6_ISR_ACTIVE)
 798:Generated_Source\PSoC5/USBUART_1.c ****         CyIntDisable(USBUART_1_EP_6_VECT_NUM);
 799:Generated_Source\PSoC5/USBUART_1.c ****     #endif /* USBUART_1_EP6_ISR_REMOVE */
 800:Generated_Source\PSoC5/USBUART_1.c **** 
 801:Generated_Source\PSoC5/USBUART_1.c ****     #if (USBUART_1_EP7_ISR_ACTIVE)
 802:Generated_Source\PSoC5/USBUART_1.c ****         CyIntDisable(USBUART_1_EP_7_VECT_NUM);
 803:Generated_Source\PSoC5/USBUART_1.c ****     #endif /* (USBUART_1_EP7_ISR_ACTIVE) */
 804:Generated_Source\PSoC5/USBUART_1.c **** 
 805:Generated_Source\PSoC5/USBUART_1.c ****     #if (USBUART_1_EP8_ISR_ACTIVE)
ARM GAS  C:\Users\jon\AppData\Local\Temp\ccwaPz7c.s 			page 30


 806:Generated_Source\PSoC5/USBUART_1.c ****         CyIntDisable(USBUART_1_EP_8_VECT_NUM);
 807:Generated_Source\PSoC5/USBUART_1.c ****     #endif /* (USBUART_1_EP8_ISR_ACTIVE) */
 808:Generated_Source\PSoC5/USBUART_1.c **** 
 809:Generated_Source\PSoC5/USBUART_1.c ****     #if (USBUART_1_DP_ISR_ACTIVE)
 810:Generated_Source\PSoC5/USBUART_1.c ****         /* Clear active mode Dp interrupt source history. */
 811:Generated_Source\PSoC5/USBUART_1.c ****         (void) USBUART_1_Dp_ClearInterrupt();
 733              		.loc 1 811 0
 734 0068 FFF7FEFF 		bl	USBUART_1_Dp_ClearInterrupt
 735              	.LVL36:
 812:Generated_Source\PSoC5/USBUART_1.c ****         CyIntClearPending(USBUART_1_DP_INTC_VECT_NUM);
 736              		.loc 1 812 0
 737 006c 0D4B     		ldr	r3, .L35+20
 813:Generated_Source\PSoC5/USBUART_1.c ****     #endif /* (USBUART_1_DP_ISR_ACTIVE). */
 814:Generated_Source\PSoC5/USBUART_1.c **** 
 815:Generated_Source\PSoC5/USBUART_1.c **** #endif /* (CY_PSOC4) */
 816:Generated_Source\PSoC5/USBUART_1.c **** 
 817:Generated_Source\PSoC5/USBUART_1.c ****     /* Reset component internal variables. */
 818:Generated_Source\PSoC5/USBUART_1.c ****     USBUART_1_configurationChanged = 0u;
 738              		.loc 1 818 0
 739 006e 0E4E     		ldr	r6, .L35+24
 819:Generated_Source\PSoC5/USBUART_1.c ****     USBUART_1_configuration   = 0u;
 740              		.loc 1 819 0
 741 0070 0E4C     		ldr	r4, .L35+28
 820:Generated_Source\PSoC5/USBUART_1.c ****     USBUART_1_interfaceNumber = 0u;
 742              		.loc 1 820 0
 743 0072 0F48     		ldr	r0, .L35+32
 821:Generated_Source\PSoC5/USBUART_1.c ****     USBUART_1_deviceAddress   = 0u;
 744              		.loc 1 821 0
 745 0074 0F49     		ldr	r1, .L35+36
 822:Generated_Source\PSoC5/USBUART_1.c ****     USBUART_1_deviceStatus    = 0u;
 746              		.loc 1 822 0
 747 0076 104A     		ldr	r2, .L35+40
 823:Generated_Source\PSoC5/USBUART_1.c **** 
 824:Generated_Source\PSoC5/USBUART_1.c ****     /* It is mandatory for correct device startup. */
 825:Generated_Source\PSoC5/USBUART_1.c ****     USBUART_1_initVar = 0u;
 748              		.loc 1 825 0
 749 0078 104D     		ldr	r5, .L35+44
 812:Generated_Source\PSoC5/USBUART_1.c ****     #endif /* (USBUART_1_DP_ISR_ACTIVE). */
 750              		.loc 1 812 0
 751 007a 4FF48057 		mov	r7, #4096
 752 007e 1F60     		str	r7, [r3]
 818:Generated_Source\PSoC5/USBUART_1.c ****     USBUART_1_configuration   = 0u;
 753              		.loc 1 818 0
 754 0080 0023     		movs	r3, #0
 755 0082 3370     		strb	r3, [r6]
 756              		.loc 1 825 0
 757 0084 2B70     		strb	r3, [r5]
 819:Generated_Source\PSoC5/USBUART_1.c ****     USBUART_1_interfaceNumber = 0u;
 758              		.loc 1 819 0
 759 0086 2370     		strb	r3, [r4]
 820:Generated_Source\PSoC5/USBUART_1.c ****     USBUART_1_deviceAddress   = 0u;
 760              		.loc 1 820 0
 761 0088 0370     		strb	r3, [r0]
 821:Generated_Source\PSoC5/USBUART_1.c ****     USBUART_1_deviceStatus    = 0u;
 762              		.loc 1 821 0
 763 008a 0B70     		strb	r3, [r1]
 822:Generated_Source\PSoC5/USBUART_1.c **** 
ARM GAS  C:\Users\jon\AppData\Local\Temp\ccwaPz7c.s 			page 31


 764              		.loc 1 822 0
 765 008c 1370     		strb	r3, [r2]
 766 008e F8BD     		pop	{r3, r4, r5, r6, r7, pc}
 767              	.L36:
 768              		.align	2
 769              	.L35:
 770 0090 08600040 		.word	1073766408
 771 0094 12600040 		.word	1073766418
 772 0098 A5430040 		.word	1073759141
 773 009c F8510040 		.word	1073762808
 774 00a0 80E100E0 		.word	-536813184
 775 00a4 80E200E0 		.word	-536812928
 776 00a8 00000000 		.word	USBUART_1_configurationChanged
 777 00ac 00000000 		.word	USBUART_1_configuration
 778 00b0 00000000 		.word	USBUART_1_interfaceNumber
 779 00b4 00000000 		.word	USBUART_1_deviceAddress
 780 00b8 00000000 		.word	USBUART_1_deviceStatus
 781 00bc 00000000 		.word	.LANCHOR0
 782              		.cfi_endproc
 783              	.LFE4:
 784              		.size	USBUART_1_Stop, .-USBUART_1_Stop
 785              		.section	.text.USBUART_1_CheckActivity,"ax",%progbits
 786              		.align	2
 787              		.global	USBUART_1_CheckActivity
 788              		.thumb
 789              		.thumb_func
 790              		.type	USBUART_1_CheckActivity, %function
 791              	USBUART_1_CheckActivity:
 792              	.LFB5:
 826:Generated_Source\PSoC5/USBUART_1.c **** }
 827:Generated_Source\PSoC5/USBUART_1.c **** 
 828:Generated_Source\PSoC5/USBUART_1.c **** 
 829:Generated_Source\PSoC5/USBUART_1.c **** /*******************************************************************************
 830:Generated_Source\PSoC5/USBUART_1.c **** * Function Name: USBUART_1_CheckActivity
 831:Generated_Source\PSoC5/USBUART_1.c **** ****************************************************************************//**
 832:Generated_Source\PSoC5/USBUART_1.c **** *
 833:Generated_Source\PSoC5/USBUART_1.c **** *  This function returns the activity status of the bus. It clears the hardware
 834:Generated_Source\PSoC5/USBUART_1.c **** *  status to provide updated status on the next call of this function. It
 835:Generated_Source\PSoC5/USBUART_1.c **** *  provides a way to determine whether any USB bus activity occurred. The
 836:Generated_Source\PSoC5/USBUART_1.c **** *  application should use this function to determine if the USB suspend
 837:Generated_Source\PSoC5/USBUART_1.c **** *  conditions are met.
 838:Generated_Source\PSoC5/USBUART_1.c **** *
 839:Generated_Source\PSoC5/USBUART_1.c **** *
 840:Generated_Source\PSoC5/USBUART_1.c **** * \return
 841:Generated_Source\PSoC5/USBUART_1.c **** *  cystatus: Status of the bus since the last call of the function.
 842:Generated_Source\PSoC5/USBUART_1.c **** *  Return Value |   Description
 843:Generated_Source\PSoC5/USBUART_1.c **** *  -------------|---------------------------------------------------------------
 844:Generated_Source\PSoC5/USBUART_1.c **** *  1            |Bus activity was detected since the last call to this function
 845:Generated_Source\PSoC5/USBUART_1.c **** *  0            |Bus activity was not detected since the last call to this function
 846:Generated_Source\PSoC5/USBUART_1.c **** *
 847:Generated_Source\PSoC5/USBUART_1.c **** *
 848:Generated_Source\PSoC5/USBUART_1.c **** *******************************************************************************/
 849:Generated_Source\PSoC5/USBUART_1.c **** uint8 USBUART_1_CheckActivity(void) 
 850:Generated_Source\PSoC5/USBUART_1.c **** {
 793              		.loc 1 850 0
 794              		.cfi_startproc
 795              		@ args = 0, pretend = 0, frame = 0
ARM GAS  C:\Users\jon\AppData\Local\Temp\ccwaPz7c.s 			page 32


 796              		@ frame_needed = 0, uses_anonymous_args = 0
 797              		@ link register save eliminated.
 851:Generated_Source\PSoC5/USBUART_1.c ****     uint8 cr1Reg = USBUART_1_CR1_REG;
 798              		.loc 1 851 0
 799 0000 044B     		ldr	r3, .L38
 800 0002 1878     		ldrb	r0, [r3]	@ zero_extendqisi2
 801 0004 C0B2     		uxtb	r0, r0
 802              	.LVL37:
 852:Generated_Source\PSoC5/USBUART_1.c **** 
 853:Generated_Source\PSoC5/USBUART_1.c ****     /* Clear bus activity. */
 854:Generated_Source\PSoC5/USBUART_1.c ****     USBUART_1_CR1_REG = (cr1Reg & (uint8) ~USBUART_1_CR1_BUS_ACTIVITY);
 803              		.loc 1 854 0
 804 0006 00F0FB02 		and	r2, r0, #251
 805 000a 1A70     		strb	r2, [r3]
 855:Generated_Source\PSoC5/USBUART_1.c **** 
 856:Generated_Source\PSoC5/USBUART_1.c ****     /* Get bus activity. */
 857:Generated_Source\PSoC5/USBUART_1.c ****     return ((0u != (cr1Reg & USBUART_1_CR1_BUS_ACTIVITY)) ? (1u) : (0u));
 858:Generated_Source\PSoC5/USBUART_1.c **** }
 806              		.loc 1 858 0
 807 000c C0F38000 		ubfx	r0, r0, #2, #1
 808              	.LVL38:
 809 0010 7047     		bx	lr
 810              	.L39:
 811 0012 00BF     		.align	2
 812              	.L38:
 813 0014 09600040 		.word	1073766409
 814              		.cfi_endproc
 815              	.LFE5:
 816              		.size	USBUART_1_CheckActivity, .-USBUART_1_CheckActivity
 817              		.section	.text.USBUART_1_GetConfiguration,"ax",%progbits
 818              		.align	2
 819              		.global	USBUART_1_GetConfiguration
 820              		.thumb
 821              		.thumb_func
 822              		.type	USBUART_1_GetConfiguration, %function
 823              	USBUART_1_GetConfiguration:
 824              	.LFB6:
 859:Generated_Source\PSoC5/USBUART_1.c **** 
 860:Generated_Source\PSoC5/USBUART_1.c **** 
 861:Generated_Source\PSoC5/USBUART_1.c **** /*******************************************************************************
 862:Generated_Source\PSoC5/USBUART_1.c **** * Function Name: USBUART_1_GetConfiguration
 863:Generated_Source\PSoC5/USBUART_1.c **** ****************************************************************************//**
 864:Generated_Source\PSoC5/USBUART_1.c **** *
 865:Generated_Source\PSoC5/USBUART_1.c **** *  This function gets the current configuration of the USB device.
 866:Generated_Source\PSoC5/USBUART_1.c **** *
 867:Generated_Source\PSoC5/USBUART_1.c **** * \return
 868:Generated_Source\PSoC5/USBUART_1.c **** *  Returns the currently assigned configuration. Returns 0 if the device
 869:Generated_Source\PSoC5/USBUART_1.c **** *  is not configured
 870:Generated_Source\PSoC5/USBUART_1.c **** *
 871:Generated_Source\PSoC5/USBUART_1.c **** *******************************************************************************/
 872:Generated_Source\PSoC5/USBUART_1.c **** uint8 USBUART_1_GetConfiguration(void) 
 873:Generated_Source\PSoC5/USBUART_1.c **** {
 825              		.loc 1 873 0
 826              		.cfi_startproc
 827              		@ args = 0, pretend = 0, frame = 0
 828              		@ frame_needed = 0, uses_anonymous_args = 0
 829              		@ link register save eliminated.
ARM GAS  C:\Users\jon\AppData\Local\Temp\ccwaPz7c.s 			page 33


 874:Generated_Source\PSoC5/USBUART_1.c ****     return (USBUART_1_configuration);
 830              		.loc 1 874 0
 831 0000 014B     		ldr	r3, .L41
 832 0002 1878     		ldrb	r0, [r3]	@ zero_extendqisi2
 875:Generated_Source\PSoC5/USBUART_1.c **** }
 833              		.loc 1 875 0
 834 0004 7047     		bx	lr
 835              	.L42:
 836 0006 00BF     		.align	2
 837              	.L41:
 838 0008 00000000 		.word	USBUART_1_configuration
 839              		.cfi_endproc
 840              	.LFE6:
 841              		.size	USBUART_1_GetConfiguration, .-USBUART_1_GetConfiguration
 842              		.section	.text.USBUART_1_IsConfigurationChanged,"ax",%progbits
 843              		.align	2
 844              		.global	USBUART_1_IsConfigurationChanged
 845              		.thumb
 846              		.thumb_func
 847              		.type	USBUART_1_IsConfigurationChanged, %function
 848              	USBUART_1_IsConfigurationChanged:
 849              	.LFB7:
 876:Generated_Source\PSoC5/USBUART_1.c **** 
 877:Generated_Source\PSoC5/USBUART_1.c **** 
 878:Generated_Source\PSoC5/USBUART_1.c **** /*******************************************************************************
 879:Generated_Source\PSoC5/USBUART_1.c **** * Function Name: USBUART_1_IsConfigurationChanged
 880:Generated_Source\PSoC5/USBUART_1.c **** ****************************************************************************//**
 881:Generated_Source\PSoC5/USBUART_1.c **** *
 882:Generated_Source\PSoC5/USBUART_1.c **** *  This function returns the clear-on-read configuration state.  It is useful
 883:Generated_Source\PSoC5/USBUART_1.c **** *  when the host sends double SET_CONFIGURATION request with the same 
 884:Generated_Source\PSoC5/USBUART_1.c **** *  configuration number or changes alternate settings of the interface. 
 885:Generated_Source\PSoC5/USBUART_1.c **** *  After configuration has been changed the OUT endpoints must be enabled and IN 
 886:Generated_Source\PSoC5/USBUART_1.c **** *  endpoint must be loaded with data to start communication with the host.
 887:Generated_Source\PSoC5/USBUART_1.c **** *
 888:Generated_Source\PSoC5/USBUART_1.c **** * \return
 889:Generated_Source\PSoC5/USBUART_1.c **** *  None-zero value when new configuration has been changed, otherwise zero is
 890:Generated_Source\PSoC5/USBUART_1.c **** *  returned.
 891:Generated_Source\PSoC5/USBUART_1.c **** *
 892:Generated_Source\PSoC5/USBUART_1.c **** * \globalvars
 893:Generated_Source\PSoC5/USBUART_1.c **** *
 894:Generated_Source\PSoC5/USBUART_1.c **** *  \ref USBUART_1_configurationChanged - This variable is set to 1 after
 895:Generated_Source\PSoC5/USBUART_1.c **** *   a SET_CONFIGURATION request and cleared in this function.
 896:Generated_Source\PSoC5/USBUART_1.c **** *
 897:Generated_Source\PSoC5/USBUART_1.c **** *******************************************************************************/
 898:Generated_Source\PSoC5/USBUART_1.c **** uint8 USBUART_1_IsConfigurationChanged(void) 
 899:Generated_Source\PSoC5/USBUART_1.c **** {
 850              		.loc 1 899 0
 851              		.cfi_startproc
 852              		@ args = 0, pretend = 0, frame = 0
 853              		@ frame_needed = 0, uses_anonymous_args = 0
 854              		@ link register save eliminated.
 855              	.LVL39:
 900:Generated_Source\PSoC5/USBUART_1.c ****     uint8 res = 0u;
 901:Generated_Source\PSoC5/USBUART_1.c **** 
 902:Generated_Source\PSoC5/USBUART_1.c ****     if (USBUART_1_configurationChanged != 0u)
 856              		.loc 1 902 0
 857 0000 044B     		ldr	r3, .L46
ARM GAS  C:\Users\jon\AppData\Local\Temp\ccwaPz7c.s 			page 34


 858 0002 1A78     		ldrb	r2, [r3]	@ zero_extendqisi2
 859 0004 02F0FF00 		and	r0, r2, #255
 860 0008 1AB1     		cbz	r2, .L44
 903:Generated_Source\PSoC5/USBUART_1.c ****     {
 904:Generated_Source\PSoC5/USBUART_1.c ****         res = USBUART_1_configurationChanged;
 861              		.loc 1 904 0
 862 000a 1878     		ldrb	r0, [r3]	@ zero_extendqisi2
 905:Generated_Source\PSoC5/USBUART_1.c ****         USBUART_1_configurationChanged = 0u;
 863              		.loc 1 905 0
 864 000c 0022     		movs	r2, #0
 904:Generated_Source\PSoC5/USBUART_1.c ****         USBUART_1_configurationChanged = 0u;
 865              		.loc 1 904 0
 866 000e C0B2     		uxtb	r0, r0
 867              	.LVL40:
 868              		.loc 1 905 0
 869 0010 1A70     		strb	r2, [r3]
 870              	.LVL41:
 871              	.L44:
 906:Generated_Source\PSoC5/USBUART_1.c ****     }
 907:Generated_Source\PSoC5/USBUART_1.c **** 
 908:Generated_Source\PSoC5/USBUART_1.c ****     return (res);
 909:Generated_Source\PSoC5/USBUART_1.c **** }
 872              		.loc 1 909 0
 873 0012 7047     		bx	lr
 874              	.L47:
 875              		.align	2
 876              	.L46:
 877 0014 00000000 		.word	USBUART_1_configurationChanged
 878              		.cfi_endproc
 879              	.LFE7:
 880              		.size	USBUART_1_IsConfigurationChanged, .-USBUART_1_IsConfigurationChanged
 881              		.section	.text.USBUART_1_GetInterfaceSetting,"ax",%progbits
 882              		.align	2
 883              		.global	USBUART_1_GetInterfaceSetting
 884              		.thumb
 885              		.thumb_func
 886              		.type	USBUART_1_GetInterfaceSetting, %function
 887              	USBUART_1_GetInterfaceSetting:
 888              	.LFB8:
 910:Generated_Source\PSoC5/USBUART_1.c **** 
 911:Generated_Source\PSoC5/USBUART_1.c **** 
 912:Generated_Source\PSoC5/USBUART_1.c **** /*******************************************************************************
 913:Generated_Source\PSoC5/USBUART_1.c **** * Function Name: USBUART_1_GetInterfaceSetting
 914:Generated_Source\PSoC5/USBUART_1.c **** ****************************************************************************//**
 915:Generated_Source\PSoC5/USBUART_1.c **** *
 916:Generated_Source\PSoC5/USBUART_1.c **** *  This function gets the current alternate setting for the specified interface.
 917:Generated_Source\PSoC5/USBUART_1.c **** *  It is useful to identify which alternate settings are active in the specified 
 918:Generated_Source\PSoC5/USBUART_1.c **** *  interface.
 919:Generated_Source\PSoC5/USBUART_1.c **** *
 920:Generated_Source\PSoC5/USBUART_1.c **** *  \param
 921:Generated_Source\PSoC5/USBUART_1.c **** *  interfaceNumber interface number
 922:Generated_Source\PSoC5/USBUART_1.c **** *
 923:Generated_Source\PSoC5/USBUART_1.c **** * \return
 924:Generated_Source\PSoC5/USBUART_1.c **** *  Returns the current alternate setting for the specified interface.
 925:Generated_Source\PSoC5/USBUART_1.c **** *
 926:Generated_Source\PSoC5/USBUART_1.c **** *******************************************************************************/
 927:Generated_Source\PSoC5/USBUART_1.c **** uint8  USBUART_1_GetInterfaceSetting(uint8 interfaceNumber)
ARM GAS  C:\Users\jon\AppData\Local\Temp\ccwaPz7c.s 			page 35


 928:Generated_Source\PSoC5/USBUART_1.c ****                                                     
 929:Generated_Source\PSoC5/USBUART_1.c **** {
 889              		.loc 1 929 0
 890              		.cfi_startproc
 891              		@ args = 0, pretend = 0, frame = 0
 892              		@ frame_needed = 0, uses_anonymous_args = 0
 893              		@ link register save eliminated.
 894              	.LVL42:
 930:Generated_Source\PSoC5/USBUART_1.c ****     return (USBUART_1_interfaceSetting[interfaceNumber]);
 895              		.loc 1 930 0
 896 0000 014B     		ldr	r3, .L49
 897 0002 185C     		ldrb	r0, [r3, r0]	@ zero_extendqisi2
 898              	.LVL43:
 931:Generated_Source\PSoC5/USBUART_1.c **** }
 899              		.loc 1 931 0
 900 0004 7047     		bx	lr
 901              	.L50:
 902 0006 00BF     		.align	2
 903              	.L49:
 904 0008 00000000 		.word	USBUART_1_interfaceSetting
 905              		.cfi_endproc
 906              	.LFE8:
 907              		.size	USBUART_1_GetInterfaceSetting, .-USBUART_1_GetInterfaceSetting
 908              		.section	.text.USBUART_1_GetEPState,"ax",%progbits
 909              		.align	2
 910              		.global	USBUART_1_GetEPState
 911              		.thumb
 912              		.thumb_func
 913              		.type	USBUART_1_GetEPState, %function
 914              	USBUART_1_GetEPState:
 915              	.LFB9:
 932:Generated_Source\PSoC5/USBUART_1.c **** 
 933:Generated_Source\PSoC5/USBUART_1.c **** 
 934:Generated_Source\PSoC5/USBUART_1.c **** /*******************************************************************************
 935:Generated_Source\PSoC5/USBUART_1.c **** * Function Name: USBUART_1_GetEPState
 936:Generated_Source\PSoC5/USBUART_1.c **** ****************************************************************************//**
 937:Generated_Source\PSoC5/USBUART_1.c **** *
 938:Generated_Source\PSoC5/USBUART_1.c **** *  This function returns the state of the requested endpoint.
 939:Generated_Source\PSoC5/USBUART_1.c **** *
 940:Generated_Source\PSoC5/USBUART_1.c **** * \param epNumber Data endpoint number
 941:Generated_Source\PSoC5/USBUART_1.c **** *
 942:Generated_Source\PSoC5/USBUART_1.c **** * \return
 943:Generated_Source\PSoC5/USBUART_1.c **** *  Returns the current state of the specified USBFS endpoint. Symbolic names and
 944:Generated_Source\PSoC5/USBUART_1.c **** *  their associated values are given in the following table. Use these constants
 945:Generated_Source\PSoC5/USBUART_1.c **** *  whenever you write code to change the state of the endpoints, such as ISR
 946:Generated_Source\PSoC5/USBUART_1.c **** *  code, to handle data sent or received.
 947:Generated_Source\PSoC5/USBUART_1.c **** *
 948:Generated_Source\PSoC5/USBUART_1.c **** *  Return Value           | Description
 949:Generated_Source\PSoC5/USBUART_1.c **** *  -----------------------|-----------------------------------------------------
 950:Generated_Source\PSoC5/USBUART_1.c **** *  USBFS_NO_EVENT_PENDING |The endpoint is awaiting SIE action
 951:Generated_Source\PSoC5/USBUART_1.c **** *  USBFS_EVENT_PENDING    |The endpoint is awaiting CPU action
 952:Generated_Source\PSoC5/USBUART_1.c **** *  USBFS_NO_EVENT_ALLOWED |The endpoint is locked from access
 953:Generated_Source\PSoC5/USBUART_1.c **** *  USBFS_IN_BUFFER_FULL   |The IN endpoint is loaded and the mode is set to ACK IN
 954:Generated_Source\PSoC5/USBUART_1.c **** *  USBFS_IN_BUFFER_EMPTY  |An IN transaction occurred and more data can be loaded
 955:Generated_Source\PSoC5/USBUART_1.c **** *  USBFS_OUT_BUFFER_EMPTY |The OUT endpoint is set to ACK OUT and is waiting for data
 956:Generated_Source\PSoC5/USBUART_1.c **** *  USBFS_OUT_BUFFER_FULL  |An OUT transaction has occurred and data can be read
 957:Generated_Source\PSoC5/USBUART_1.c **** *
ARM GAS  C:\Users\jon\AppData\Local\Temp\ccwaPz7c.s 			page 36


 958:Generated_Source\PSoC5/USBUART_1.c **** *******************************************************************************/
 959:Generated_Source\PSoC5/USBUART_1.c **** uint8 USBUART_1_GetEPState(uint8 epNumber) 
 960:Generated_Source\PSoC5/USBUART_1.c **** {
 916              		.loc 1 960 0
 917              		.cfi_startproc
 918              		@ args = 0, pretend = 0, frame = 0
 919              		@ frame_needed = 0, uses_anonymous_args = 0
 920              		@ link register save eliminated.
 921              	.LVL44:
 961:Generated_Source\PSoC5/USBUART_1.c ****     return (USBUART_1_EP[epNumber].apiEpState);
 922              		.loc 1 961 0
 923 0000 034B     		ldr	r3, .L52
 924 0002 00EB4000 		add	r0, r0, r0, lsl #1
 925              	.LVL45:
 926 0006 03EB8003 		add	r3, r3, r0, lsl #2
 927 000a 5878     		ldrb	r0, [r3, #1]	@ zero_extendqisi2
 962:Generated_Source\PSoC5/USBUART_1.c **** }
 928              		.loc 1 962 0
 929 000c 7047     		bx	lr
 930              	.L53:
 931 000e 00BF     		.align	2
 932              	.L52:
 933 0010 00000000 		.word	USBUART_1_EP
 934              		.cfi_endproc
 935              	.LFE9:
 936              		.size	USBUART_1_GetEPState, .-USBUART_1_GetEPState
 937              		.section	.text.USBUART_1_GetEPCount,"ax",%progbits
 938              		.align	2
 939              		.global	USBUART_1_GetEPCount
 940              		.thumb
 941              		.thumb_func
 942              		.type	USBUART_1_GetEPCount, %function
 943              	USBUART_1_GetEPCount:
 944              	.LFB10:
 963:Generated_Source\PSoC5/USBUART_1.c **** 
 964:Generated_Source\PSoC5/USBUART_1.c **** 
 965:Generated_Source\PSoC5/USBUART_1.c **** /*******************************************************************************
 966:Generated_Source\PSoC5/USBUART_1.c **** * Function Name: USBUART_1_GetEPCount
 967:Generated_Source\PSoC5/USBUART_1.c **** ****************************************************************************//**
 968:Generated_Source\PSoC5/USBUART_1.c **** *
 969:Generated_Source\PSoC5/USBUART_1.c **** *  This function supports Data Endpoints only(EP1-EP8).
 970:Generated_Source\PSoC5/USBUART_1.c **** *  Returns the transfer count for the requested endpoint.  The value from
 971:Generated_Source\PSoC5/USBUART_1.c **** *  the count registers includes 2 counts for the two byte checksum of the
 972:Generated_Source\PSoC5/USBUART_1.c **** *  packet.  This function subtracts the two counts.
 973:Generated_Source\PSoC5/USBUART_1.c **** *
 974:Generated_Source\PSoC5/USBUART_1.c **** *  \param epNumber Data Endpoint Number.
 975:Generated_Source\PSoC5/USBUART_1.c **** *                   Valid values are between 1 and 8.
 976:Generated_Source\PSoC5/USBUART_1.c **** *
 977:Generated_Source\PSoC5/USBUART_1.c **** * \return
 978:Generated_Source\PSoC5/USBUART_1.c **** *  Returns the current byte count from the specified endpoint or 0 for an
 979:Generated_Source\PSoC5/USBUART_1.c **** *  invalid endpoint.
 980:Generated_Source\PSoC5/USBUART_1.c **** *
 981:Generated_Source\PSoC5/USBUART_1.c **** *******************************************************************************/
 982:Generated_Source\PSoC5/USBUART_1.c **** uint16 USBUART_1_GetEPCount(uint8 epNumber) 
 983:Generated_Source\PSoC5/USBUART_1.c **** {
 945              		.loc 1 983 0
 946              		.cfi_startproc
ARM GAS  C:\Users\jon\AppData\Local\Temp\ccwaPz7c.s 			page 37


 947              		@ args = 0, pretend = 0, frame = 0
 948              		@ frame_needed = 0, uses_anonymous_args = 0
 949              		@ link register save eliminated.
 950              	.LVL46:
 984:Generated_Source\PSoC5/USBUART_1.c ****     uint16 cntr = 0u;
 985:Generated_Source\PSoC5/USBUART_1.c **** 
 986:Generated_Source\PSoC5/USBUART_1.c ****     if ((epNumber > USBUART_1_EP0) && (epNumber < USBUART_1_MAX_EP))
 951              		.loc 1 986 0
 952 0000 431E     		subs	r3, r0, #1
 953 0002 072B     		cmp	r3, #7
 954 0004 0CD8     		bhi	.L56
 955              	.LVL47:
 956 0006 074B     		ldr	r3, .L57
 957 0008 0001     		lsls	r0, r0, #4
 958              	.LVL48:
 959 000a 1A46     		mov	r2, r3
 960 000c 0344     		add	r3, r3, r0
 961              	.LBB15:
 962              	.LBB16:
 987:Generated_Source\PSoC5/USBUART_1.c ****     {
 988:Generated_Source\PSoC5/USBUART_1.c ****         /* Get 11-bits EP counter where epCnt0 - 3 bits MSB and epCnt1 - 8 bits LSB. */
 989:Generated_Source\PSoC5/USBUART_1.c ****         cntr  = ((uint16) USBUART_1_SIE_EP_BASE.sieEp[epNumber].epCnt0) & USBUART_1_EPX_CNT0_MASK;
 963              		.loc 1 989 0
 964 000e 805C     		ldrb	r0, [r0, r2]	@ zero_extendqisi2
 965              	.LVL49:
 990:Generated_Source\PSoC5/USBUART_1.c ****         cntr  = ((uint16) (cntr << 8u)) | ((uint16) USBUART_1_SIE_EP_BASE.sieEp[epNumber].epCnt1);
 966              		.loc 1 990 0
 967 0010 5B78     		ldrb	r3, [r3, #1]	@ zero_extendqisi2
 968 0012 00F00F00 		and	r0, r0, #15
 969              	.LVL50:
 991:Generated_Source\PSoC5/USBUART_1.c ****         cntr -= USBUART_1_EPX_CNTX_CRC_COUNT;
 970              		.loc 1 991 0
 971 0016 43EA0020 		orr	r0, r3, r0, lsl #8
 972              	.LVL51:
 973 001a 0238     		subs	r0, r0, #2
 974 001c 80B2     		uxth	r0, r0
 975              	.LVL52:
 976 001e 7047     		bx	lr
 977              	.LVL53:
 978              	.L56:
 979              	.LBE16:
 980              	.LBE15:
 984:Generated_Source\PSoC5/USBUART_1.c **** 
 981              		.loc 1 984 0
 982 0020 0020     		movs	r0, #0
 983              	.LVL54:
 992:Generated_Source\PSoC5/USBUART_1.c ****     }
 993:Generated_Source\PSoC5/USBUART_1.c **** 
 994:Generated_Source\PSoC5/USBUART_1.c ****     return (cntr);
 995:Generated_Source\PSoC5/USBUART_1.c **** }
 984              		.loc 1 995 0
 985 0022 7047     		bx	lr
 986              	.L58:
 987              		.align	2
 988              	.L57:
 989 0024 FC5F0040 		.word	1073766396
 990              		.cfi_endproc
ARM GAS  C:\Users\jon\AppData\Local\Temp\ccwaPz7c.s 			page 38


 991              	.LFE10:
 992              		.size	USBUART_1_GetEPCount, .-USBUART_1_GetEPCount
 993              		.section	.text.USBUART_1_LoadInEP,"ax",%progbits
 994              		.align	2
 995              		.global	USBUART_1_LoadInEP
 996              		.thumb
 997              		.thumb_func
 998              		.type	USBUART_1_LoadInEP, %function
 999              	USBUART_1_LoadInEP:
 1000              	.LFB11:
 996:Generated_Source\PSoC5/USBUART_1.c **** 
 997:Generated_Source\PSoC5/USBUART_1.c **** 
 998:Generated_Source\PSoC5/USBUART_1.c **** #if (USBUART_1_EP_MANAGEMENT_DMA)
 999:Generated_Source\PSoC5/USBUART_1.c **** #if (CY_PSOC4)
1000:Generated_Source\PSoC5/USBUART_1.c ****     /*******************************************************************************
1001:Generated_Source\PSoC5/USBUART_1.c ****     * Function Name: USBUART_1_InitEpDma
1002:Generated_Source\PSoC5/USBUART_1.c ****     ****************************************************************************//**
1003:Generated_Source\PSoC5/USBUART_1.c ****     *
1004:Generated_Source\PSoC5/USBUART_1.c ****     *  This function configures priority for all DMA channels utilized by the
1005:Generated_Source\PSoC5/USBUART_1.c ****     *  component. Also sets callbacks for DMA auto mode.
1006:Generated_Source\PSoC5/USBUART_1.c ****     *
1007:Generated_Source\PSoC5/USBUART_1.c ****     *******************************************************************************/
1008:Generated_Source\PSoC5/USBUART_1.c ****     static void USBUART_1_InitEpDma(void)
1009:Generated_Source\PSoC5/USBUART_1.c ****     {
1010:Generated_Source\PSoC5/USBUART_1.c ****     #if (USBUART_1_DMA1_ACTIVE)
1011:Generated_Source\PSoC5/USBUART_1.c ****         CYDMA_CH_CTL_BASE.ctl[USBUART_1_ep1_dma_CHANNEL] = USBUART_1_ep1_dma_CHANNEL_CFG;
1012:Generated_Source\PSoC5/USBUART_1.c ****     #endif /* (USBUART_1_DMA1_ACTIVE) */
1013:Generated_Source\PSoC5/USBUART_1.c **** 
1014:Generated_Source\PSoC5/USBUART_1.c ****     #if (USBUART_1_DMA2_ACTIVE)
1015:Generated_Source\PSoC5/USBUART_1.c ****         CYDMA_CH_CTL_BASE.ctl[USBUART_1_ep2_dma_CHANNEL] = USBUART_1_ep2_dma_CHANNEL_CFG;
1016:Generated_Source\PSoC5/USBUART_1.c ****     #endif /* (USBUART_1_DMA2_ACTIVE) */
1017:Generated_Source\PSoC5/USBUART_1.c **** 
1018:Generated_Source\PSoC5/USBUART_1.c ****     #if (USBUART_1_DMA3_ACTIVE)
1019:Generated_Source\PSoC5/USBUART_1.c ****         CYDMA_CH_CTL_BASE.ctl[USBUART_1_ep3_dma_CHANNEL] = USBUART_1_ep3_dma_CHANNEL_CFG;
1020:Generated_Source\PSoC5/USBUART_1.c ****     #endif /* (USBUART_1_DMA3_ACTIVE) */
1021:Generated_Source\PSoC5/USBUART_1.c **** 
1022:Generated_Source\PSoC5/USBUART_1.c ****     #if (USBUART_1_DMA4_ACTIVE)
1023:Generated_Source\PSoC5/USBUART_1.c ****         CYDMA_CH_CTL_BASE.ctl[USBUART_1_ep4_dma_CHANNEL] = USBUART_1_ep4_dma_CHANNEL_CFG;
1024:Generated_Source\PSoC5/USBUART_1.c ****     #endif /* (USBUART_1_DMA4_ACTIVE) */
1025:Generated_Source\PSoC5/USBUART_1.c **** 
1026:Generated_Source\PSoC5/USBUART_1.c ****     #if (USBUART_1_DMA5_ACTIVE)
1027:Generated_Source\PSoC5/USBUART_1.c ****         CYDMA_CH_CTL_BASE.ctl[USBUART_1_ep5_dma_CHANNEL] = USBUART_1_ep5_dma_CHANNEL_CFG;
1028:Generated_Source\PSoC5/USBUART_1.c ****     #endif /* (USBUART_1_DMA5_ACTIVE) */
1029:Generated_Source\PSoC5/USBUART_1.c **** 
1030:Generated_Source\PSoC5/USBUART_1.c ****     #if (USBUART_1_DMA6_ACTIVE)
1031:Generated_Source\PSoC5/USBUART_1.c ****         CYDMA_CH_CTL_BASE.ctl[USBUART_1_ep6_dma_CHANNEL] = USBUART_1_ep6_dma_CHANNEL_CFG;
1032:Generated_Source\PSoC5/USBUART_1.c ****     #endif /* (USBUART_1_DMA6_ACTIVE) */
1033:Generated_Source\PSoC5/USBUART_1.c **** 
1034:Generated_Source\PSoC5/USBUART_1.c ****     #if (USBUART_1_DMA7_ACTIVE)
1035:Generated_Source\PSoC5/USBUART_1.c ****         CYDMA_CH_CTL_BASE.ctl[USBUART_1_ep7_dma_CHANNEL] = USBUART_1_ep7_dma_CHANNEL_CFG;
1036:Generated_Source\PSoC5/USBUART_1.c ****     #endif /* (USBUART_1_DMA7_ACTIVE) */
1037:Generated_Source\PSoC5/USBUART_1.c **** 
1038:Generated_Source\PSoC5/USBUART_1.c ****     #if (USBUART_1_DMA8_ACTIVE)
1039:Generated_Source\PSoC5/USBUART_1.c ****         CYDMA_CH_CTL_BASE.ctl[USBUART_1_ep8_dma_CHANNEL] = USBUART_1_ep8_dma_CHANNEL_CFG;
1040:Generated_Source\PSoC5/USBUART_1.c ****     #endif /* (USBUART_1_DMA8_ACTIVE) */
1041:Generated_Source\PSoC5/USBUART_1.c **** 
1042:Generated_Source\PSoC5/USBUART_1.c ****     #if (USBUART_1_EP_MANAGEMENT_DMA_AUTO)
ARM GAS  C:\Users\jon\AppData\Local\Temp\ccwaPz7c.s 			page 39


1043:Generated_Source\PSoC5/USBUART_1.c ****         /* Initialize DMA channel callbacks. */
1044:Generated_Source\PSoC5/USBUART_1.c ****         #if (USBUART_1_DMA1_ACTIVE)
1045:Generated_Source\PSoC5/USBUART_1.c ****             (void) USBUART_1_ep1_dma_SetInterruptCallback(&USBUART_1_EP1_DMA_DONE_ISR);
1046:Generated_Source\PSoC5/USBUART_1.c ****         #endif /* (USBUART_1_DMA1_ACTIVE) */
1047:Generated_Source\PSoC5/USBUART_1.c **** 
1048:Generated_Source\PSoC5/USBUART_1.c ****         #if (USBUART_1_DMA2_ACTIVE)
1049:Generated_Source\PSoC5/USBUART_1.c ****             (void) USBUART_1_ep2_dma_SetInterruptCallback(&USBUART_1_EP2_DMA_DONE_ISR);
1050:Generated_Source\PSoC5/USBUART_1.c ****         #endif /* (USBUART_1_DMA2_ACTIVE) */
1051:Generated_Source\PSoC5/USBUART_1.c **** 
1052:Generated_Source\PSoC5/USBUART_1.c ****         #if (USBUART_1_DMA3_ACTIVE)
1053:Generated_Source\PSoC5/USBUART_1.c ****             (void) USBUART_1_ep3_dma_SetInterruptCallback(&USBUART_1_EP3_DMA_DONE_ISR);
1054:Generated_Source\PSoC5/USBUART_1.c ****         #endif /* (USBUART_1_DMA3_ACTIVE) */
1055:Generated_Source\PSoC5/USBUART_1.c **** 
1056:Generated_Source\PSoC5/USBUART_1.c ****         #if (USBUART_1_DMA4_ACTIVE)
1057:Generated_Source\PSoC5/USBUART_1.c ****             (void) USBUART_1_ep4_dma_SetInterruptCallback(&USBUART_1_EP4_DMA_DONE_ISR);
1058:Generated_Source\PSoC5/USBUART_1.c ****         #endif /* (USBUART_1_DMA4_ACTIVE) */
1059:Generated_Source\PSoC5/USBUART_1.c **** 
1060:Generated_Source\PSoC5/USBUART_1.c ****         #if (USBUART_1_DMA5_ACTIVE)
1061:Generated_Source\PSoC5/USBUART_1.c ****             (void) USBUART_1_ep5_dma_SetInterruptCallback(&USBUART_1_EP5_DMA_DONE_ISR);
1062:Generated_Source\PSoC5/USBUART_1.c ****         #endif /* (USBUART_1_DMA5_ACTIVE) */
1063:Generated_Source\PSoC5/USBUART_1.c **** 
1064:Generated_Source\PSoC5/USBUART_1.c ****         #if (USBUART_1_DMA6_ACTIVE)
1065:Generated_Source\PSoC5/USBUART_1.c ****             (void) USBUART_1_ep6_dma_SetInterruptCallback(&USBUART_1_EP6_DMA_DONE_ISR);
1066:Generated_Source\PSoC5/USBUART_1.c ****         #endif /* (USBUART_1_DMA6_ACTIVE) */
1067:Generated_Source\PSoC5/USBUART_1.c **** 
1068:Generated_Source\PSoC5/USBUART_1.c ****         #if (USBUART_1_DMA7_ACTIVE)
1069:Generated_Source\PSoC5/USBUART_1.c ****             (void) USBUART_1_ep7_dma_SetInterruptCallback(&USBUART_1_EP7_DMA_DONE_ISR);
1070:Generated_Source\PSoC5/USBUART_1.c ****         #endif /* (USBUART_1_DMA7_ACTIVE) */
1071:Generated_Source\PSoC5/USBUART_1.c **** 
1072:Generated_Source\PSoC5/USBUART_1.c ****         #if (USBUART_1_DMA8_ACTIVE)
1073:Generated_Source\PSoC5/USBUART_1.c ****             (void) USBUART_1_ep8_dma_SetInterruptCallback(&USBUART_1_EP8_DMA_DONE_ISR);
1074:Generated_Source\PSoC5/USBUART_1.c ****         #endif /* (USBUART_1_DMA8_ACTIVE) */
1075:Generated_Source\PSoC5/USBUART_1.c ****     #endif /* (USBUART_1_EP_MANAGEMENT_DMA_AUTO) */
1076:Generated_Source\PSoC5/USBUART_1.c ****     }
1077:Generated_Source\PSoC5/USBUART_1.c **** #else
1078:Generated_Source\PSoC5/USBUART_1.c **** 
1079:Generated_Source\PSoC5/USBUART_1.c **** 
1080:Generated_Source\PSoC5/USBUART_1.c ****     /***************************************************************************
1081:Generated_Source\PSoC5/USBUART_1.c ****     * Function Name: USBUART_1_InitEP_DMA
1082:Generated_Source\PSoC5/USBUART_1.c ****     ************************************************************************//**
1083:Generated_Source\PSoC5/USBUART_1.c ****     *
1084:Generated_Source\PSoC5/USBUART_1.c ****     *  This function allocates and initializes a DMA channel to be used by the
1085:Generated_Source\PSoC5/USBUART_1.c ****     *  USBUART_1_LoadInEP() or USBUART_1_ReadOutEP() APIs for data
1086:Generated_Source\PSoC5/USBUART_1.c ****     *  transfer. It is available when the Endpoint Memory Management parameter
1087:Generated_Source\PSoC5/USBUART_1.c ****     *  is set to DMA.
1088:Generated_Source\PSoC5/USBUART_1.c ****     *
1089:Generated_Source\PSoC5/USBUART_1.c ****     *  This function is automatically called from the USBFS_LoadInEP() and USBFS_ReadOutEP() APIs.
1090:Generated_Source\PSoC5/USBUART_1.c ****     *
1091:Generated_Source\PSoC5/USBUART_1.c ****     *  \param epNumber Contains the data endpoint number.
1092:Generated_Source\PSoC5/USBUART_1.c ****     *            Valid values are between 1 and 8.
1093:Generated_Source\PSoC5/USBUART_1.c ****     *  \param *pData Pointer to a data array that is related to the EP transfers.
1094:Generated_Source\PSoC5/USBUART_1.c ****     *
1095:Generated_Source\PSoC5/USBUART_1.c ****     * \reentrant No.
1096:Generated_Source\PSoC5/USBUART_1.c ****     *
1097:Generated_Source\PSoC5/USBUART_1.c ****     ***************************************************************************/
1098:Generated_Source\PSoC5/USBUART_1.c ****     void USBUART_1_InitEP_DMA(uint8 epNumber, const uint8 *pData)
1099:Generated_Source\PSoC5/USBUART_1.c ****                                                                     
ARM GAS  C:\Users\jon\AppData\Local\Temp\ccwaPz7c.s 			page 40


1100:Generated_Source\PSoC5/USBUART_1.c ****     {
1101:Generated_Source\PSoC5/USBUART_1.c ****         uint16 src;
1102:Generated_Source\PSoC5/USBUART_1.c ****         uint16 dst;
1103:Generated_Source\PSoC5/USBUART_1.c **** 
1104:Generated_Source\PSoC5/USBUART_1.c ****     #if (CY_PSOC3)
1105:Generated_Source\PSoC5/USBUART_1.c ****         src = HI16(CYDEV_SRAM_BASE);
1106:Generated_Source\PSoC5/USBUART_1.c ****         dst = HI16(CYDEV_PERIPH_BASE);
1107:Generated_Source\PSoC5/USBUART_1.c ****         pData = pData;
1108:Generated_Source\PSoC5/USBUART_1.c ****     #else
1109:Generated_Source\PSoC5/USBUART_1.c ****         if ((USBUART_1_EP[epNumber].addr & USBUART_1_DIR_IN) != 0u)
1110:Generated_Source\PSoC5/USBUART_1.c ****         {
1111:Generated_Source\PSoC5/USBUART_1.c ****             /* IN endpoint: source is memory buffer. */
1112:Generated_Source\PSoC5/USBUART_1.c ****             src = HI16(pData);
1113:Generated_Source\PSoC5/USBUART_1.c ****             dst = HI16(CYDEV_PERIPH_BASE);
1114:Generated_Source\PSoC5/USBUART_1.c ****         }
1115:Generated_Source\PSoC5/USBUART_1.c ****         else
1116:Generated_Source\PSoC5/USBUART_1.c ****         {
1117:Generated_Source\PSoC5/USBUART_1.c ****             /* OUT endpoint: source is USB IP memory buffer. */
1118:Generated_Source\PSoC5/USBUART_1.c ****             src = HI16(CYDEV_PERIPH_BASE);
1119:Generated_Source\PSoC5/USBUART_1.c ****             dst = HI16(pData);
1120:Generated_Source\PSoC5/USBUART_1.c ****         }
1121:Generated_Source\PSoC5/USBUART_1.c ****     #endif  /* (CY_PSOC3) */
1122:Generated_Source\PSoC5/USBUART_1.c **** 
1123:Generated_Source\PSoC5/USBUART_1.c ****         switch(epNumber)
1124:Generated_Source\PSoC5/USBUART_1.c ****         {
1125:Generated_Source\PSoC5/USBUART_1.c ****     #if (USBUART_1_DMA1_ACTIVE)
1126:Generated_Source\PSoC5/USBUART_1.c ****         case USBUART_1_EP1:
1127:Generated_Source\PSoC5/USBUART_1.c ****             USBUART_1_DmaChan[epNumber] = USBUART_1_ep1_DmaInitialize(USBUART_1_DMA_BYTES_PER_BURST
1128:Generated_Source\PSoC5/USBUART_1.c ****                                                                                     USBUART_1_DMA_R
1129:Generated_Source\PSoC5/USBUART_1.c ****             break;
1130:Generated_Source\PSoC5/USBUART_1.c ****     #endif /* (USBUART_1_DMA1_ACTIVE) */
1131:Generated_Source\PSoC5/USBUART_1.c **** 
1132:Generated_Source\PSoC5/USBUART_1.c ****     #if (USBUART_1_DMA2_ACTIVE)
1133:Generated_Source\PSoC5/USBUART_1.c ****         case USBUART_1_EP2:
1134:Generated_Source\PSoC5/USBUART_1.c ****             USBUART_1_DmaChan[epNumber] = USBUART_1_ep2_DmaInitialize(USBUART_1_DMA_BYTES_PER_BURST
1135:Generated_Source\PSoC5/USBUART_1.c ****                                                                                     USBUART_1_DMA_R
1136:Generated_Source\PSoC5/USBUART_1.c ****             break;
1137:Generated_Source\PSoC5/USBUART_1.c ****     #endif /* (USBUART_1_DMA2_ACTIVE) */
1138:Generated_Source\PSoC5/USBUART_1.c **** 
1139:Generated_Source\PSoC5/USBUART_1.c ****     #if (USBUART_1_DMA3_ACTIVE)
1140:Generated_Source\PSoC5/USBUART_1.c ****             case USBUART_1_EP3:
1141:Generated_Source\PSoC5/USBUART_1.c ****                 USBUART_1_DmaChan[epNumber] = USBUART_1_ep3_DmaInitialize(USBUART_1_DMA_BYTES_PER_B
1142:Generated_Source\PSoC5/USBUART_1.c ****                                                                                         USBUART_1_D
1143:Generated_Source\PSoC5/USBUART_1.c ****             break;
1144:Generated_Source\PSoC5/USBUART_1.c ****     #endif /* (USBUART_1_DMA3_ACTIVE) */
1145:Generated_Source\PSoC5/USBUART_1.c **** 
1146:Generated_Source\PSoC5/USBUART_1.c ****     #if (USBUART_1_DMA4_ACTIVE)
1147:Generated_Source\PSoC5/USBUART_1.c ****             case USBUART_1_EP4:
1148:Generated_Source\PSoC5/USBUART_1.c ****                 USBUART_1_DmaChan[epNumber] = USBUART_1_ep4_DmaInitialize(USBUART_1_DMA_BYTES_PER_B
1149:Generated_Source\PSoC5/USBUART_1.c ****                                                                                         USBUART_1_D
1150:Generated_Source\PSoC5/USBUART_1.c ****             break;
1151:Generated_Source\PSoC5/USBUART_1.c ****     #endif /* (USBUART_1_DMA4_ACTIVE) */
1152:Generated_Source\PSoC5/USBUART_1.c **** 
1153:Generated_Source\PSoC5/USBUART_1.c ****     #if (USBUART_1_DMA5_ACTIVE)
1154:Generated_Source\PSoC5/USBUART_1.c ****             case USBUART_1_EP5:
1155:Generated_Source\PSoC5/USBUART_1.c ****                 USBUART_1_DmaChan[epNumber] = USBUART_1_ep5_DmaInitialize(USBUART_1_DMA_BYTES_PER_B
1156:Generated_Source\PSoC5/USBUART_1.c ****                                                                                         USBUART_1_D
ARM GAS  C:\Users\jon\AppData\Local\Temp\ccwaPz7c.s 			page 41


1157:Generated_Source\PSoC5/USBUART_1.c ****             break;
1158:Generated_Source\PSoC5/USBUART_1.c ****     #endif /* (USBUART_1_DMA5_ACTIVE) */
1159:Generated_Source\PSoC5/USBUART_1.c **** 
1160:Generated_Source\PSoC5/USBUART_1.c ****     #if (USBUART_1_DMA6_ACTIVE)
1161:Generated_Source\PSoC5/USBUART_1.c ****         case USBUART_1_EP6:
1162:Generated_Source\PSoC5/USBUART_1.c ****             USBUART_1_DmaChan[epNumber] = USBUART_1_ep6_DmaInitialize(USBUART_1_DMA_BYTES_PER_BURST
1163:Generated_Source\PSoC5/USBUART_1.c ****                                                                                     USBUART_1_DMA_R
1164:Generated_Source\PSoC5/USBUART_1.c ****             break;
1165:Generated_Source\PSoC5/USBUART_1.c ****     #endif /* (USBUART_1_DMA6_ACTIVE) */
1166:Generated_Source\PSoC5/USBUART_1.c **** 
1167:Generated_Source\PSoC5/USBUART_1.c ****     #if (USBUART_1_DMA7_ACTIVE)
1168:Generated_Source\PSoC5/USBUART_1.c ****         case USBUART_1_EP7:
1169:Generated_Source\PSoC5/USBUART_1.c ****                 USBUART_1_DmaChan[epNumber] = USBUART_1_ep7_DmaInitialize(USBUART_1_DMA_BYTES_PER_B
1170:Generated_Source\PSoC5/USBUART_1.c ****                                                                                         USBUART_1_D
1171:Generated_Source\PSoC5/USBUART_1.c ****             break;
1172:Generated_Source\PSoC5/USBUART_1.c ****     #endif /* (USBUART_1_DMA7_ACTIVE) */
1173:Generated_Source\PSoC5/USBUART_1.c **** 
1174:Generated_Source\PSoC5/USBUART_1.c ****     #if (USBUART_1_DMA8_ACTIVE)
1175:Generated_Source\PSoC5/USBUART_1.c ****         case USBUART_1_EP8:
1176:Generated_Source\PSoC5/USBUART_1.c ****                 USBUART_1_DmaChan[epNumber] = USBUART_1_ep8_DmaInitialize(USBUART_1_DMA_BYTES_PER_B
1177:Generated_Source\PSoC5/USBUART_1.c ****                                                                                         USBUART_1_D
1178:Generated_Source\PSoC5/USBUART_1.c ****             break;
1179:Generated_Source\PSoC5/USBUART_1.c ****     #endif /* (USBUART_1_DMA8_ACTIVE) */
1180:Generated_Source\PSoC5/USBUART_1.c **** 
1181:Generated_Source\PSoC5/USBUART_1.c ****         default:
1182:Generated_Source\PSoC5/USBUART_1.c ****             /* Do nothing for endpoints other than 1-8. */
1183:Generated_Source\PSoC5/USBUART_1.c ****             break;
1184:Generated_Source\PSoC5/USBUART_1.c ****         }
1185:Generated_Source\PSoC5/USBUART_1.c **** 
1186:Generated_Source\PSoC5/USBUART_1.c ****         if ((epNumber > USBUART_1_EP0) && (epNumber < USBUART_1_MAX_EP))
1187:Generated_Source\PSoC5/USBUART_1.c ****         {
1188:Generated_Source\PSoC5/USBUART_1.c ****             USBUART_1_DmaTd[epNumber] = CyDmaTdAllocate();
1189:Generated_Source\PSoC5/USBUART_1.c **** 
1190:Generated_Source\PSoC5/USBUART_1.c ****         #if (USBUART_1_EP_MANAGEMENT_DMA_AUTO && (USBUART_1_EP_DMA_AUTO_OPT == 0u))
1191:Generated_Source\PSoC5/USBUART_1.c ****             USBUART_1_DmaNextTd[epNumber] = CyDmaTdAllocate();
1192:Generated_Source\PSoC5/USBUART_1.c ****         #endif /* (USBUART_1_EP_MANAGEMENT_DMA_AUTO && (USBUART_1_EP_DMA_AUTO_OPT == 0u)) */
1193:Generated_Source\PSoC5/USBUART_1.c ****         }
1194:Generated_Source\PSoC5/USBUART_1.c ****     }
1195:Generated_Source\PSoC5/USBUART_1.c **** #endif /* (CY_PSOC4) */
1196:Generated_Source\PSoC5/USBUART_1.c **** 
1197:Generated_Source\PSoC5/USBUART_1.c ****     /***************************************************************************
1198:Generated_Source\PSoC5/USBUART_1.c ****     * Function Name: USBUART_1_Stop_DMA
1199:Generated_Source\PSoC5/USBUART_1.c ****     ************************************************************************//**
1200:Generated_Source\PSoC5/USBUART_1.c ****     *  
1201:Generated_Source\PSoC5/USBUART_1.c ****     *  This function stops DMA channel associated with endpoint. It is available 
1202:Generated_Source\PSoC5/USBUART_1.c ****     *  when the Endpoint Buffer Management parameter is set to DMA. Call this 
1203:Generated_Source\PSoC5/USBUART_1.c ****     *  function when endpoint direction is changed from IN to OUT or vice versa 
1204:Generated_Source\PSoC5/USBUART_1.c ****     *  to trigger DMA re-configuration when USBUART_1_LoadInEP() or 
1205:Generated_Source\PSoC5/USBUART_1.c ****     *  USBUART_1_ReadOutEP() functions are called the first time. 
1206:Generated_Source\PSoC5/USBUART_1.c ****     *  
1207:Generated_Source\PSoC5/USBUART_1.c ****     *  \param epNumber: The data endpoint number for which associated DMA 
1208:Generated_Source\PSoC5/USBUART_1.c ****     *  channel is stopped. The range of valid values is between 1 and 8. To stop 
1209:Generated_Source\PSoC5/USBUART_1.c ****     *  all DMAs associated with endpoints call this function with 
1210:Generated_Source\PSoC5/USBUART_1.c ****     *  USBUART_1_MAX_EP argument.
1211:Generated_Source\PSoC5/USBUART_1.c ****     *
1212:Generated_Source\PSoC5/USBUART_1.c ****     * \reentrant
1213:Generated_Source\PSoC5/USBUART_1.c ****     *  No.
ARM GAS  C:\Users\jon\AppData\Local\Temp\ccwaPz7c.s 			page 42


1214:Generated_Source\PSoC5/USBUART_1.c ****     *
1215:Generated_Source\PSoC5/USBUART_1.c ****     ***************************************************************************/
1216:Generated_Source\PSoC5/USBUART_1.c ****     void USBUART_1_Stop_DMA(uint8 epNumber) 
1217:Generated_Source\PSoC5/USBUART_1.c ****     {
1218:Generated_Source\PSoC5/USBUART_1.c ****         uint8 i;
1219:Generated_Source\PSoC5/USBUART_1.c **** 
1220:Generated_Source\PSoC5/USBUART_1.c ****         i = (epNumber < USBUART_1_MAX_EP) ? epNumber : USBUART_1_EP1;
1221:Generated_Source\PSoC5/USBUART_1.c **** 
1222:Generated_Source\PSoC5/USBUART_1.c ****         do
1223:Generated_Source\PSoC5/USBUART_1.c ****         {
1224:Generated_Source\PSoC5/USBUART_1.c ****         #if (CY_PSOC4)
1225:Generated_Source\PSoC5/USBUART_1.c ****             if (0u != USBUART_1_DmaChan[i])
1226:Generated_Source\PSoC5/USBUART_1.c ****             {
1227:Generated_Source\PSoC5/USBUART_1.c ****                 USBUART_1_CyDmaChDisable(USBUART_1_DmaChan[i]);
1228:Generated_Source\PSoC5/USBUART_1.c ****             }
1229:Generated_Source\PSoC5/USBUART_1.c ****         #else
1230:Generated_Source\PSoC5/USBUART_1.c ****             if(USBUART_1_DmaTd[i] != DMA_INVALID_TD)
1231:Generated_Source\PSoC5/USBUART_1.c ****             {
1232:Generated_Source\PSoC5/USBUART_1.c ****                 (void) CyDmaChDisable(USBUART_1_DmaChan[i]);
1233:Generated_Source\PSoC5/USBUART_1.c ****                 CyDmaTdFree(USBUART_1_DmaTd[i]);
1234:Generated_Source\PSoC5/USBUART_1.c ****                 USBUART_1_DmaTd[i] = DMA_INVALID_TD;
1235:Generated_Source\PSoC5/USBUART_1.c ****             }
1236:Generated_Source\PSoC5/USBUART_1.c **** 
1237:Generated_Source\PSoC5/USBUART_1.c ****             #if (USBUART_1_EP_MANAGEMENT_DMA_AUTO && (USBUART_1_EP_DMA_AUTO_OPT == 0u))
1238:Generated_Source\PSoC5/USBUART_1.c ****                 if(USBUART_1_DmaNextTd[i] != DMA_INVALID_TD)
1239:Generated_Source\PSoC5/USBUART_1.c ****                 {
1240:Generated_Source\PSoC5/USBUART_1.c ****                     CyDmaTdFree(USBUART_1_DmaNextTd[i]);
1241:Generated_Source\PSoC5/USBUART_1.c ****                     USBUART_1_DmaNextTd[i] = DMA_INVALID_TD;
1242:Generated_Source\PSoC5/USBUART_1.c ****                 }
1243:Generated_Source\PSoC5/USBUART_1.c ****             #endif /* (USBUART_1_EP_MANAGEMENT_DMA_AUTO && (USBUART_1_EP_DMA_AUTO_OPT == 0u)) */
1244:Generated_Source\PSoC5/USBUART_1.c **** 
1245:Generated_Source\PSoC5/USBUART_1.c ****         #endif /* (CY_PSOC4) */
1246:Generated_Source\PSoC5/USBUART_1.c ****             i++;
1247:Generated_Source\PSoC5/USBUART_1.c ****         }
1248:Generated_Source\PSoC5/USBUART_1.c ****         while ((i < USBUART_1_MAX_EP) && (epNumber == USBUART_1_MAX_EP));
1249:Generated_Source\PSoC5/USBUART_1.c ****     }
1250:Generated_Source\PSoC5/USBUART_1.c **** #endif /* (USBUART_1_EP_MANAGEMENT_DMA) */
1251:Generated_Source\PSoC5/USBUART_1.c **** 
1252:Generated_Source\PSoC5/USBUART_1.c **** 
1253:Generated_Source\PSoC5/USBUART_1.c **** #if (CY_PSOC3 || CY_PSOC5)
1254:Generated_Source\PSoC5/USBUART_1.c **** #if (USBUART_1_EP_MANAGEMENT_DMA_AUTO && (USBUART_1_EP_DMA_AUTO_OPT == 0u))
1255:Generated_Source\PSoC5/USBUART_1.c ****     /***************************************************************************
1256:Generated_Source\PSoC5/USBUART_1.c ****     * Function Name: USBUART_1_LoadNextInEP
1257:Generated_Source\PSoC5/USBUART_1.c ****     ************************************************************************//**
1258:Generated_Source\PSoC5/USBUART_1.c ****     *
1259:Generated_Source\PSoC5/USBUART_1.c ****     * Summary:
1260:Generated_Source\PSoC5/USBUART_1.c ****     *  This internal function is used for IN endpoint DMA reconfiguration in
1261:Generated_Source\PSoC5/USBUART_1.c ****     *  Auto DMA mode.
1262:Generated_Source\PSoC5/USBUART_1.c ****     *
1263:Generated_Source\PSoC5/USBUART_1.c ****     * Parameters:
1264:Generated_Source\PSoC5/USBUART_1.c ****     *  epNumber: Contains the data endpoint number.
1265:Generated_Source\PSoC5/USBUART_1.c ****     *  mode:   0 - Configure DMA to send the the rest of data.
1266:Generated_Source\PSoC5/USBUART_1.c ****     *          1 - Configure DMA to repeat 2 last bytes of the first burst.
1267:Generated_Source\PSoC5/USBUART_1.c ****     *
1268:Generated_Source\PSoC5/USBUART_1.c ****     ***************************************************************************/
1269:Generated_Source\PSoC5/USBUART_1.c ****     void USBUART_1_LoadNextInEP(uint8 epNumber, uint8 mode) 
1270:Generated_Source\PSoC5/USBUART_1.c ****     {
ARM GAS  C:\Users\jon\AppData\Local\Temp\ccwaPz7c.s 			page 43


1271:Generated_Source\PSoC5/USBUART_1.c ****         reg16 *convert;
1272:Generated_Source\PSoC5/USBUART_1.c **** 
1273:Generated_Source\PSoC5/USBUART_1.c ****         if (mode == 0u)
1274:Generated_Source\PSoC5/USBUART_1.c ****         {
1275:Generated_Source\PSoC5/USBUART_1.c ****             /* Configure DMA to send rest of data. */
1276:Generated_Source\PSoC5/USBUART_1.c ****             /* CyDmaTdSetConfiguration API is optimized to change transfer length only and configur
1277:Generated_Source\PSoC5/USBUART_1.c ****             convert = (reg16 *) &CY_DMA_TDMEM_STRUCT_PTR[USBUART_1_DmaTd[epNumber]].TD0[0u];
1278:Generated_Source\PSoC5/USBUART_1.c ****             /* Set transfer length. */
1279:Generated_Source\PSoC5/USBUART_1.c ****             CY_SET_REG16(convert, USBUART_1_inLength[epNumber] - USBUART_1_DMA_BYTES_PER_BURST);
1280:Generated_Source\PSoC5/USBUART_1.c ****             /* CyDmaTdSetAddress API is optimized to change source address only. */
1281:Generated_Source\PSoC5/USBUART_1.c ****             convert = (reg16 *) &CY_DMA_TDMEM_STRUCT_PTR[USBUART_1_DmaTd[epNumber]].TD1[0u];
1282:Generated_Source\PSoC5/USBUART_1.c ****             CY_SET_REG16(convert, LO16((uint32)USBUART_1_inDataPointer[epNumber] +
1283:Generated_Source\PSoC5/USBUART_1.c ****                                             USBUART_1_DMA_BYTES_PER_BURST));
1284:Generated_Source\PSoC5/USBUART_1.c ****             USBUART_1_inBufFull[epNumber] = 1u;
1285:Generated_Source\PSoC5/USBUART_1.c ****         }
1286:Generated_Source\PSoC5/USBUART_1.c ****         else
1287:Generated_Source\PSoC5/USBUART_1.c ****         {
1288:Generated_Source\PSoC5/USBUART_1.c ****             /* Configure DMA to repeat 2 last bytes of the first burst. */
1289:Generated_Source\PSoC5/USBUART_1.c ****             /* CyDmaTdSetConfiguration API is optimized to change transfer length only and configur
1290:Generated_Source\PSoC5/USBUART_1.c ****             convert = (reg16 *) &CY_DMA_TDMEM_STRUCT_PTR[USBUART_1_DmaTd[epNumber]].TD0[0u];
1291:Generated_Source\PSoC5/USBUART_1.c ****             /* Set transfer length. */
1292:Generated_Source\PSoC5/USBUART_1.c ****             CY_SET_REG16(convert, USBUART_1_DMA_BYTES_REPEAT);
1293:Generated_Source\PSoC5/USBUART_1.c ****             /* CyDmaTdSetAddress API is optimized to change source address only. */
1294:Generated_Source\PSoC5/USBUART_1.c ****             convert = (reg16 *) &CY_DMA_TDMEM_STRUCT_PTR[USBUART_1_DmaTd[epNumber]].TD1[0u];
1295:Generated_Source\PSoC5/USBUART_1.c ****             CY_SET_REG16(convert,  LO16((uint32)USBUART_1_inDataPointer[epNumber] +
1296:Generated_Source\PSoC5/USBUART_1.c ****                                    (USBUART_1_DMA_BYTES_PER_BURST - USBUART_1_DMA_BYTES_REPEAT)));
1297:Generated_Source\PSoC5/USBUART_1.c ****         }
1298:Generated_Source\PSoC5/USBUART_1.c **** 
1299:Generated_Source\PSoC5/USBUART_1.c ****         /* CyDmaChSetInitialTd API is optimized to initialize TD. */
1300:Generated_Source\PSoC5/USBUART_1.c ****         CY_DMA_CH_STRUCT_PTR[USBUART_1_DmaChan[epNumber]].basic_status[1u] = USBUART_1_DmaTd[epNumb
1301:Generated_Source\PSoC5/USBUART_1.c ****     }
1302:Generated_Source\PSoC5/USBUART_1.c **** #endif /* (USBUART_1_EP_MANAGEMENT_DMA_AUTO && (USBUART_1_EP_DMA_AUTO_OPT == 0u)) */
1303:Generated_Source\PSoC5/USBUART_1.c **** #endif /* (CY_PSOC3 || CY_PSOC5) */
1304:Generated_Source\PSoC5/USBUART_1.c **** 
1305:Generated_Source\PSoC5/USBUART_1.c **** 
1306:Generated_Source\PSoC5/USBUART_1.c **** /*******************************************************************************
1307:Generated_Source\PSoC5/USBUART_1.c **** * Function Name: USBUART_1_LoadInEP
1308:Generated_Source\PSoC5/USBUART_1.c **** ****************************************************************************//**
1309:Generated_Source\PSoC5/USBUART_1.c **** *
1310:Generated_Source\PSoC5/USBUART_1.c **** *  This function performs different functionality depending on the Component’s
1311:Generated_Source\PSoC5/USBUART_1.c **** *  configured Endpoint Buffer Management. This parameter is defined in
1312:Generated_Source\PSoC5/USBUART_1.c **** *  the Descriptor Root in Component Configure window.
1313:Generated_Source\PSoC5/USBUART_1.c **** *
1314:Generated_Source\PSoC5/USBUART_1.c **** *  *Manual (Static/Dynamic Allocation):*
1315:Generated_Source\PSoC5/USBUART_1.c **** *  This function loads and enables the specified USB data endpoint for an IN
1316:Generated_Source\PSoC5/USBUART_1.c **** *  data transfer.
1317:Generated_Source\PSoC5/USBUART_1.c **** *
1318:Generated_Source\PSoC5/USBUART_1.c **** *  *DMA with Manual Buffer Management:*
1319:Generated_Source\PSoC5/USBUART_1.c **** *  Configures DMA for a data transfer from system RAM to endpoint buffer.
1320:Generated_Source\PSoC5/USBUART_1.c **** *  Generates request for a transfer.
1321:Generated_Source\PSoC5/USBUART_1.c **** *
1322:Generated_Source\PSoC5/USBUART_1.c **** *  *DMA with Automatic Buffer Management:*
1323:Generated_Source\PSoC5/USBUART_1.c **** *  Configures DMA. This is required only once, so it is done only when parameter
1324:Generated_Source\PSoC5/USBUART_1.c **** *  pData is not NULL. When the pData pointer is NULL, the function skips this
1325:Generated_Source\PSoC5/USBUART_1.c **** *  task. Sets Data ready status: This generates the first DMA transfer and
1326:Generated_Source\PSoC5/USBUART_1.c **** *  prepares data in endpoint buffer.
1327:Generated_Source\PSoC5/USBUART_1.c **** *
ARM GAS  C:\Users\jon\AppData\Local\Temp\ccwaPz7c.s 			page 44


1328:Generated_Source\PSoC5/USBUART_1.c **** *  \param epNumber Contains the data endpoint number.
1329:Generated_Source\PSoC5/USBUART_1.c **** *            Valid values are between 1 and 8.
1330:Generated_Source\PSoC5/USBUART_1.c **** *  \param *pData A pointer to a data array from which the data for the endpoint space
1331:Generated_Source\PSoC5/USBUART_1.c **** *          is loaded.
1332:Generated_Source\PSoC5/USBUART_1.c **** *  \param length The number of bytes to transfer from the array and then send as
1333:Generated_Source\PSoC5/USBUART_1.c **** *          a result of an IN request. Valid values are between 0 and 512
1334:Generated_Source\PSoC5/USBUART_1.c **** *          (1023 for DMA with Automatic Buffer Management mode). The value 512
1335:Generated_Source\PSoC5/USBUART_1.c **** *          is applicable if only one endpoint is used.
1336:Generated_Source\PSoC5/USBUART_1.c **** *
1337:Generated_Source\PSoC5/USBUART_1.c **** *
1338:Generated_Source\PSoC5/USBUART_1.c **** * \reentrant
1339:Generated_Source\PSoC5/USBUART_1.c **** *  No.
1340:Generated_Source\PSoC5/USBUART_1.c **** *
1341:Generated_Source\PSoC5/USBUART_1.c **** *******************************************************************************/
1342:Generated_Source\PSoC5/USBUART_1.c **** void USBUART_1_LoadInEP(uint8 epNumber, const uint8 pData[], uint16 length)
1343:Generated_Source\PSoC5/USBUART_1.c ****                                                                         
1344:Generated_Source\PSoC5/USBUART_1.c **** {
 1001              		.loc 1 1344 0
 1002              		.cfi_startproc
 1003              		@ args = 0, pretend = 0, frame = 0
 1004              		@ frame_needed = 0, uses_anonymous_args = 0
 1005              	.LVL55:
1345:Generated_Source\PSoC5/USBUART_1.c ****     if ((epNumber > USBUART_1_EP0) && (epNumber < USBUART_1_MAX_EP))
 1006              		.loc 1 1345 0
 1007 0000 431E     		subs	r3, r0, #1
 1008 0002 072B     		cmp	r3, #7
 1009 0004 35D8     		bhi	.L70
1344:Generated_Source\PSoC5/USBUART_1.c ****     if ((epNumber > USBUART_1_EP0) && (epNumber < USBUART_1_MAX_EP))
 1010              		.loc 1 1344 0
 1011 0006 F0B5     		push	{r4, r5, r6, r7, lr}
 1012              		.cfi_def_cfa_offset 20
 1013              		.cfi_offset 4, -20
 1014              		.cfi_offset 5, -16
 1015              		.cfi_offset 6, -12
 1016              		.cfi_offset 7, -8
 1017              		.cfi_offset 14, -4
1346:Generated_Source\PSoC5/USBUART_1.c ****     {
1347:Generated_Source\PSoC5/USBUART_1.c ****     #if (!USBUART_1_EP_MANAGEMENT_DMA_AUTO)
1348:Generated_Source\PSoC5/USBUART_1.c ****         /* Limit length to available buffer USB IP buffer size.*/
1349:Generated_Source\PSoC5/USBUART_1.c ****         if (length > (USBUART_1_EPX_DATA_BUF_MAX - USBUART_1_EP[epNumber].buffOffset))
 1018              		.loc 1 1349 0
 1019 0008 4500     		lsls	r5, r0, #1
 1020 000a 1A4E     		ldr	r6, .L72
 1021 000c 2C18     		adds	r4, r5, r0
 1022 000e 06EB8404 		add	r4, r6, r4, lsl #2
 1023 0012 E388     		ldrh	r3, [r4, #6]
 1024 0014 9BB2     		uxth	r3, r3
 1025 0016 C3F50073 		rsb	r3, r3, #512
 1026 001a 9A42     		cmp	r2, r3
 1027 001c 24D8     		bhi	.L71
 1028              	.L61:
 1029 001e 164F     		ldr	r7, .L72+4
1350:Generated_Source\PSoC5/USBUART_1.c ****         {
1351:Generated_Source\PSoC5/USBUART_1.c ****             length = USBUART_1_EPX_DATA_BUF_MAX - USBUART_1_EP[epNumber].buffOffset;
1352:Generated_Source\PSoC5/USBUART_1.c ****         }
1353:Generated_Source\PSoC5/USBUART_1.c ****     #endif /* (!USBUART_1_EP_MANAGEMENT_DMA_AUTO) */
1354:Generated_Source\PSoC5/USBUART_1.c **** 
ARM GAS  C:\Users\jon\AppData\Local\Temp\ccwaPz7c.s 			page 45


1355:Generated_Source\PSoC5/USBUART_1.c ****         /* Set count and data toggle. */
1356:Generated_Source\PSoC5/USBUART_1.c ****         USBUART_1_SIE_EP_BASE.sieEp[epNumber].epCnt0 = (uint8) HI8(length) | USBUART_1_EP[epNumber]
 1030              		.loc 1 1356 0
 1031 0020 2B18     		adds	r3, r5, r0
 1032 0022 3C46     		mov	r4, r7
 1033 0024 06EB8303 		add	r3, r6, r3, lsl #2
 1034 0028 DB78     		ldrb	r3, [r3, #3]	@ zero_extendqisi2
 1035 002a 4FEA001E 		lsl	lr, r0, #4
 1036 002e 43EA1223 		orr	r3, r3, r2, lsr #8
 1037 0032 0EF80430 		strb	r3, [lr, r4]
 1038 0036 7744     		add	r7, r7, lr
1357:Generated_Source\PSoC5/USBUART_1.c ****         USBUART_1_SIE_EP_BASE.sieEp[epNumber].epCnt1 = (uint8) LO8(length);
 1039              		.loc 1 1357 0
 1040 0038 D3B2     		uxtb	r3, r2
 1041 003a 7B70     		strb	r3, [r7, #1]
1358:Generated_Source\PSoC5/USBUART_1.c **** 
1359:Generated_Source\PSoC5/USBUART_1.c ****     #if (USBUART_1_EP_MANAGEMENT_MANUAL)
1360:Generated_Source\PSoC5/USBUART_1.c ****         if (NULL != pData)
 1042              		.loc 1 1360 0
 1043 003c 59B1     		cbz	r1, .L63
 1044              	.LVL56:
 1045              	.LBB17:
1361:Generated_Source\PSoC5/USBUART_1.c ****         {
1362:Generated_Source\PSoC5/USBUART_1.c **** 			/* Copy data using arbiter data register. */
1363:Generated_Source\PSoC5/USBUART_1.c ****             uint16 i;
1364:Generated_Source\PSoC5/USBUART_1.c ****             for (i = 0u; i < length; ++i)
 1046              		.loc 1 1364 0 discriminator 1
 1047 003e 52B1     		cbz	r2, .L63
 1048 0040 531E     		subs	r3, r2, #1
1365:Generated_Source\PSoC5/USBUART_1.c ****             {
1366:Generated_Source\PSoC5/USBUART_1.c ****                 USBUART_1_ARB_EP_BASE.arbEp[epNumber].rwDr = pData[i];
 1049              		.loc 1 1366 0
 1050 0042 0E4C     		ldr	r4, .L72+8
 1051 0044 9BB2     		uxth	r3, r3
 1052 0046 0B44     		add	r3, r3, r1
 1053 0048 7444     		add	r4, r4, lr
 1054 004a 0139     		subs	r1, r1, #1
 1055              	.LVL57:
 1056              	.L64:
 1057              		.loc 1 1366 0 is_stmt 0 discriminator 3
 1058 004c 11F8012F 		ldrb	r2, [r1, #1]!	@ zero_extendqisi2
 1059              	.LVL58:
1364:Generated_Source\PSoC5/USBUART_1.c ****             {
 1060              		.loc 1 1364 0 is_stmt 1 discriminator 3
 1061 0050 9942     		cmp	r1, r3
 1062              		.loc 1 1366 0 discriminator 3
 1063 0052 2272     		strb	r2, [r4, #8]
 1064              	.LVL59:
1364:Generated_Source\PSoC5/USBUART_1.c ****             {
 1065              		.loc 1 1364 0 discriminator 3
 1066 0054 FAD1     		bne	.L64
 1067              	.LVL60:
 1068              	.L63:
 1069              	.LBE17:
1367:Generated_Source\PSoC5/USBUART_1.c ****             }
1368:Generated_Source\PSoC5/USBUART_1.c ****         }
1369:Generated_Source\PSoC5/USBUART_1.c **** 
ARM GAS  C:\Users\jon\AppData\Local\Temp\ccwaPz7c.s 			page 46


1370:Generated_Source\PSoC5/USBUART_1.c ****         /* IN endpoint buffer is full - read to be read. */
1371:Generated_Source\PSoC5/USBUART_1.c ****         USBUART_1_EP[epNumber].apiEpState = USBUART_1_NO_EVENT_PENDING;
 1070              		.loc 1 1371 0
 1071 0056 2844     		add	r0, r0, r5
 1072              	.LVL61:
 1073 0058 06EB8006 		add	r6, r6, r0, lsl #2
 1074 005c 0023     		movs	r3, #0
 1075 005e 7370     		strb	r3, [r6, #1]
1372:Generated_Source\PSoC5/USBUART_1.c **** 
1373:Generated_Source\PSoC5/USBUART_1.c ****         /* Arm IN endpoint. */
1374:Generated_Source\PSoC5/USBUART_1.c ****         USBUART_1_SIE_EP_BASE.sieEp[epNumber].epCr0 = USBUART_1_EP[epNumber].epMode;
 1076              		.loc 1 1374 0
 1077 0060 7379     		ldrb	r3, [r6, #5]	@ zero_extendqisi2
 1078 0062 DBB2     		uxtb	r3, r3
 1079 0064 BB70     		strb	r3, [r7, #2]
 1080 0066 F0BD     		pop	{r4, r5, r6, r7, pc}
 1081              	.LVL62:
 1082              	.L71:
1351:Generated_Source\PSoC5/USBUART_1.c ****         }
 1083              		.loc 1 1351 0
 1084 0068 E288     		ldrh	r2, [r4, #6]
 1085              	.LVL63:
 1086 006a C2F50072 		rsb	r2, r2, #512
 1087 006e 92B2     		uxth	r2, r2
 1088              	.LVL64:
 1089 0070 D5E7     		b	.L61
 1090              	.L70:
 1091              		.cfi_def_cfa_offset 0
 1092              		.cfi_restore 4
 1093              		.cfi_restore 5
 1094              		.cfi_restore 6
 1095              		.cfi_restore 7
 1096              		.cfi_restore 14
 1097 0072 7047     		bx	lr
 1098              	.L73:
 1099              		.align	2
 1100              	.L72:
 1101 0074 00000000 		.word	USBUART_1_EP
 1102 0078 FC5F0040 		.word	1073766396
 1103 007c 70600040 		.word	1073766512
 1104              		.cfi_endproc
 1105              	.LFE11:
 1106              		.size	USBUART_1_LoadInEP, .-USBUART_1_LoadInEP
 1107              		.section	.text.USBUART_1_ReadOutEP,"ax",%progbits
 1108              		.align	2
 1109              		.global	USBUART_1_ReadOutEP
 1110              		.thumb
 1111              		.thumb_func
 1112              		.type	USBUART_1_ReadOutEP, %function
 1113              	USBUART_1_ReadOutEP:
 1114              	.LFB12:
1375:Generated_Source\PSoC5/USBUART_1.c **** 
1376:Generated_Source\PSoC5/USBUART_1.c ****     #else
1377:Generated_Source\PSoC5/USBUART_1.c **** 
1378:Generated_Source\PSoC5/USBUART_1.c ****         #if (CY_PSOC3 || CY_PSOC5LP)
1379:Generated_Source\PSoC5/USBUART_1.c ****             /* Initialize DMA if it was not initialized. */
1380:Generated_Source\PSoC5/USBUART_1.c ****             if (DMA_INVALID_TD == USBUART_1_DmaTd[epNumber])
ARM GAS  C:\Users\jon\AppData\Local\Temp\ccwaPz7c.s 			page 47


1381:Generated_Source\PSoC5/USBUART_1.c ****             {
1382:Generated_Source\PSoC5/USBUART_1.c ****                 USBUART_1_InitEP_DMA(epNumber, pData);
1383:Generated_Source\PSoC5/USBUART_1.c ****             }
1384:Generated_Source\PSoC5/USBUART_1.c ****         #endif /* (CY_PSOC3 || CY_PSOC5LP) */
1385:Generated_Source\PSoC5/USBUART_1.c **** 
1386:Generated_Source\PSoC5/USBUART_1.c ****         #if (USBUART_1_EP_MANAGEMENT_DMA_MANUAL)
1387:Generated_Source\PSoC5/USBUART_1.c ****             /* IN endpoint buffer will be fully loaded by DMA shortly. */
1388:Generated_Source\PSoC5/USBUART_1.c ****             USBUART_1_EP[epNumber].apiEpState = USBUART_1_NO_EVENT_PENDING;
1389:Generated_Source\PSoC5/USBUART_1.c **** 
1390:Generated_Source\PSoC5/USBUART_1.c ****             if ((pData != NULL) && (length > 0u))
1391:Generated_Source\PSoC5/USBUART_1.c ****             {
1392:Generated_Source\PSoC5/USBUART_1.c ****             #if (CY_PSOC4)
1393:Generated_Source\PSoC5/USBUART_1.c ****                 uint32 channelNum = (uint32) USBUART_1_DmaChan[epNumber];
1394:Generated_Source\PSoC5/USBUART_1.c **** 
1395:Generated_Source\PSoC5/USBUART_1.c ****                 /* Disable DMA channel: start configuration. */
1396:Generated_Source\PSoC5/USBUART_1.c ****                 USBUART_1_CyDmaChDisable(channelNum);
1397:Generated_Source\PSoC5/USBUART_1.c **** 
1398:Generated_Source\PSoC5/USBUART_1.c ****                 /* Configure source and destination. */
1399:Generated_Source\PSoC5/USBUART_1.c ****                 USBUART_1_CyDmaSetSrcAddress(channelNum, USBUART_1_DMA_DESCR0, (void*) pData);
1400:Generated_Source\PSoC5/USBUART_1.c ****                 USBUART_1_CyDmaSetDstAddress(channelNum, USBUART_1_DMA_DESCR0, (void*) &USBUART_1_A
1401:Generated_Source\PSoC5/USBUART_1.c **** 
1402:Generated_Source\PSoC5/USBUART_1.c ****                 /* Configure DMA descriptor. */
1403:Generated_Source\PSoC5/USBUART_1.c ****                 --length;
1404:Generated_Source\PSoC5/USBUART_1.c ****                 USBUART_1_CyDmaSetConfiguration(channelNum, USBUART_1_DMA_DESCR0, USBUART_1_DMA_COM
1405:Generated_Source\PSoC5/USBUART_1.c ****                                                         CYDMA_BYTE | CYDMA_ELEMENT_WORD | CYDMA_INC
1406:Generated_Source\PSoC5/USBUART_1.c **** 
1407:Generated_Source\PSoC5/USBUART_1.c ****                 /* Validate descriptor to execute on following DMA request. */
1408:Generated_Source\PSoC5/USBUART_1.c ****                 USBUART_1_CyDmaValidateDescriptor(channelNum, USBUART_1_DMA_DESCR0);
1409:Generated_Source\PSoC5/USBUART_1.c **** 
1410:Generated_Source\PSoC5/USBUART_1.c ****                 /* Enable DMA channel: configuration complete. */
1411:Generated_Source\PSoC5/USBUART_1.c ****                 USBUART_1_CyDmaChEnable(channelNum);
1412:Generated_Source\PSoC5/USBUART_1.c ****             #else
1413:Generated_Source\PSoC5/USBUART_1.c ****                 /* Configure DMA to transfer data. */
1414:Generated_Source\PSoC5/USBUART_1.c ****                 (void) CyDmaChDisable(USBUART_1_DmaChan[epNumber]);
1415:Generated_Source\PSoC5/USBUART_1.c ****                 (void) CyDmaTdSetConfiguration(USBUART_1_DmaTd[epNumber], length, CY_DMA_DISABLE_TD
1416:Generated_Source\PSoC5/USBUART_1.c ****                 (void) CyDmaTdSetAddress(USBUART_1_DmaTd[epNumber], LO16((uint32) pData), LO16((uin
1417:Generated_Source\PSoC5/USBUART_1.c **** 
1418:Generated_Source\PSoC5/USBUART_1.c ****                 /* Enable DMA channel. */
1419:Generated_Source\PSoC5/USBUART_1.c ****                 (void) CyDmaChSetInitialTd(USBUART_1_DmaChan[epNumber], USBUART_1_DmaTd[epNumber]);
1420:Generated_Source\PSoC5/USBUART_1.c ****                 (void) CyDmaChEnable(USBUART_1_DmaChan[epNumber], 1u);
1421:Generated_Source\PSoC5/USBUART_1.c ****             #endif /* (CY_PSOC4) */
1422:Generated_Source\PSoC5/USBUART_1.c **** 
1423:Generated_Source\PSoC5/USBUART_1.c ****                 /* Generate DMA request. */
1424:Generated_Source\PSoC5/USBUART_1.c ****                 USBUART_1_ARB_EP_BASE.arbEp[epNumber].epCfg |=  (uint8)  USBUART_1_ARB_EPX_CFG_DMA_
1425:Generated_Source\PSoC5/USBUART_1.c ****                 USBUART_1_ARB_EP_BASE.arbEp[epNumber].epCfg &=  (uint8) ~USBUART_1_ARB_EPX_CFG_DMA_
1426:Generated_Source\PSoC5/USBUART_1.c **** 
1427:Generated_Source\PSoC5/USBUART_1.c ****                 /* IN endpoint will be armed in ARB_ISR(source: IN_BUF_FULL) after first DMA transf
1428:Generated_Source\PSoC5/USBUART_1.c ****             }
1429:Generated_Source\PSoC5/USBUART_1.c ****             else
1430:Generated_Source\PSoC5/USBUART_1.c ****             {
1431:Generated_Source\PSoC5/USBUART_1.c ****                 /* When zero-length packet: arm IN endpoint directly. */
1432:Generated_Source\PSoC5/USBUART_1.c ****                 USBUART_1_SIE_EP_BASE.sieEp[epNumber].epCr0 = USBUART_1_EP[epNumber].epMode;
1433:Generated_Source\PSoC5/USBUART_1.c ****             }
1434:Generated_Source\PSoC5/USBUART_1.c ****         #endif /* (USBUART_1_EP_MANAGEMENT_DMA_MANUAL) */
1435:Generated_Source\PSoC5/USBUART_1.c **** 
1436:Generated_Source\PSoC5/USBUART_1.c ****         #if (USBUART_1_EP_MANAGEMENT_DMA_AUTO)
1437:Generated_Source\PSoC5/USBUART_1.c ****             if (pData != NULL)
ARM GAS  C:\Users\jon\AppData\Local\Temp\ccwaPz7c.s 			page 48


1438:Generated_Source\PSoC5/USBUART_1.c ****             {
1439:Generated_Source\PSoC5/USBUART_1.c ****             #if (CY_PSOC4)
1440:Generated_Source\PSoC5/USBUART_1.c ****                 uint32 channelNum = (uint32) USBUART_1_DmaChan[epNumber];
1441:Generated_Source\PSoC5/USBUART_1.c **** 
1442:Generated_Source\PSoC5/USBUART_1.c ****                 /* Store address of buffer. */
1443:Generated_Source\PSoC5/USBUART_1.c ****                 USBUART_1_DmaEpBufferAddrBackup[epNumber] = (uint32) pData;
1444:Generated_Source\PSoC5/USBUART_1.c **** 
1445:Generated_Source\PSoC5/USBUART_1.c ****                 /* Disable DMA channel: start configuration. */
1446:Generated_Source\PSoC5/USBUART_1.c ****                 USBUART_1_CyDmaChDisable(channelNum);
1447:Generated_Source\PSoC5/USBUART_1.c **** 
1448:Generated_Source\PSoC5/USBUART_1.c ****                 /* Set destination address. */
1449:Generated_Source\PSoC5/USBUART_1.c ****                 USBUART_1_CyDmaSetDstAddress(channelNum, USBUART_1_DMA_DESCR0, (void*) &USBUART_1_A
1450:Generated_Source\PSoC5/USBUART_1.c ****                 USBUART_1_CyDmaSetDstAddress(channelNum, USBUART_1_DMA_DESCR1, (void*) &USBUART_1_A
1451:Generated_Source\PSoC5/USBUART_1.c **** 
1452:Generated_Source\PSoC5/USBUART_1.c ****                 /* Configure DMA descriptor. */
1453:Generated_Source\PSoC5/USBUART_1.c ****                 USBUART_1_CyDmaSetConfiguration(channelNum, USBUART_1_DMA_DESCR0, USBUART_1_DMA_COM
1454:Generated_Source\PSoC5/USBUART_1.c ****                                                         CYDMA_BYTE | CYDMA_ELEMENT_WORD | CYDMA_INC
1455:Generated_Source\PSoC5/USBUART_1.c **** 
1456:Generated_Source\PSoC5/USBUART_1.c ****                 /* Configure DMA descriptor. */
1457:Generated_Source\PSoC5/USBUART_1.c ****                 USBUART_1_CyDmaSetConfiguration(channelNum, USBUART_1_DMA_DESCR1, USBUART_1_DMA_COM
1458:Generated_Source\PSoC5/USBUART_1.c ****                                                         CYDMA_BYTE | CYDMA_ELEMENT_WORD | CYDMA_INC
1459:Generated_Source\PSoC5/USBUART_1.c **** 
1460:Generated_Source\PSoC5/USBUART_1.c ****                 /* Enable interrupt from DMA channel. */
1461:Generated_Source\PSoC5/USBUART_1.c ****                 USBUART_1_CyDmaSetInterruptMask(channelNum);
1462:Generated_Source\PSoC5/USBUART_1.c **** 
1463:Generated_Source\PSoC5/USBUART_1.c **** 
1464:Generated_Source\PSoC5/USBUART_1.c ****                 /* Enable DMA channel: configuration complete. */
1465:Generated_Source\PSoC5/USBUART_1.c ****                 USBUART_1_CyDmaChEnable(channelNum);
1466:Generated_Source\PSoC5/USBUART_1.c **** 
1467:Generated_Source\PSoC5/USBUART_1.c ****             #else
1468:Generated_Source\PSoC5/USBUART_1.c ****                 (void) CyDmaChDisable(USBUART_1_DmaChan[epNumber]);
1469:Generated_Source\PSoC5/USBUART_1.c **** 
1470:Generated_Source\PSoC5/USBUART_1.c ****                 #if (USBUART_1_EP_DMA_AUTO_OPT == 0u)
1471:Generated_Source\PSoC5/USBUART_1.c ****                     USBUART_1_inLength[epNumber] = length;
1472:Generated_Source\PSoC5/USBUART_1.c ****                     USBUART_1_inDataPointer[epNumber] = pData;
1473:Generated_Source\PSoC5/USBUART_1.c **** 
1474:Generated_Source\PSoC5/USBUART_1.c ****                     /* Configure DMA to send data only for first burst */
1475:Generated_Source\PSoC5/USBUART_1.c ****                     (void) CyDmaTdSetConfiguration(USBUART_1_DmaTd[epNumber],
1476:Generated_Source\PSoC5/USBUART_1.c ****                         (length > USBUART_1_DMA_BYTES_PER_BURST) ? USBUART_1_DMA_BYTES_PER_BURST : 
1477:Generated_Source\PSoC5/USBUART_1.c ****                         USBUART_1_DmaNextTd[epNumber], TD_TERMIN_EN | TD_INC_SRC_ADR);
1478:Generated_Source\PSoC5/USBUART_1.c ****                     (void) CyDmaTdSetAddress(USBUART_1_DmaTd[epNumber], LO16((uint32) pData),
1479:Generated_Source\PSoC5/USBUART_1.c ****                                                                                LO16((uint32) &USBUA
1480:Generated_Source\PSoC5/USBUART_1.c **** 
1481:Generated_Source\PSoC5/USBUART_1.c ****                     /* The second TD will be executed only when the first one fails.
1482:Generated_Source\PSoC5/USBUART_1.c ****                     *  The intention of this TD is to generate NRQ interrupt
1483:Generated_Source\PSoC5/USBUART_1.c ****                     *  and repeat 2 last bytes of the first burst.
1484:Generated_Source\PSoC5/USBUART_1.c ****                     */
1485:Generated_Source\PSoC5/USBUART_1.c ****                     (void) CyDmaTdSetConfiguration(USBUART_1_DmaNextTd[epNumber], 1u,
1486:Generated_Source\PSoC5/USBUART_1.c ****                                                    USBUART_1_DmaNextTd[epNumber],
1487:Generated_Source\PSoC5/USBUART_1.c ****                                                    USBUART_1_epX_TD_TERMOUT_EN[epNumber]);
1488:Generated_Source\PSoC5/USBUART_1.c **** 
1489:Generated_Source\PSoC5/USBUART_1.c ****                     /* Configure DmaNextTd to clear Data Ready status. */
1490:Generated_Source\PSoC5/USBUART_1.c ****                     (void) CyDmaTdSetAddress(USBUART_1_DmaNextTd[epNumber], LO16((uint32) &clearInD
1491:Generated_Source\PSoC5/USBUART_1.c ****                                                                                    LO16((uint32) &U
1492:Generated_Source\PSoC5/USBUART_1.c ****                 #else
1493:Generated_Source\PSoC5/USBUART_1.c ****                     /* Configure DMA to send all data. */
1494:Generated_Source\PSoC5/USBUART_1.c ****                     (void) CyDmaTdSetConfiguration(USBUART_1_DmaTd[epNumber], length,
ARM GAS  C:\Users\jon\AppData\Local\Temp\ccwaPz7c.s 			page 49


1495:Generated_Source\PSoC5/USBUART_1.c ****                                                    USBUART_1_DmaTd[epNumber], TD_TERMIN_EN | TD_INC
1496:Generated_Source\PSoC5/USBUART_1.c ****                     (void) CyDmaTdSetAddress(USBUART_1_DmaTd[epNumber], LO16((uint32) pData),
1497:Generated_Source\PSoC5/USBUART_1.c ****                                                                                LO16((uint32) &USBUA
1498:Generated_Source\PSoC5/USBUART_1.c ****                 #endif /* (USBUART_1_EP_DMA_AUTO_OPT == 0u) */
1499:Generated_Source\PSoC5/USBUART_1.c **** 
1500:Generated_Source\PSoC5/USBUART_1.c ****                 /* Clear any potential pending DMA requests before starting DMA channel to transfer
1501:Generated_Source\PSoC5/USBUART_1.c ****                 (void) CyDmaClearPendingDrq(USBUART_1_DmaChan[epNumber]);
1502:Generated_Source\PSoC5/USBUART_1.c ****                 /* Enable DMA. */
1503:Generated_Source\PSoC5/USBUART_1.c ****                 (void) CyDmaChSetInitialTd(USBUART_1_DmaChan[epNumber], USBUART_1_DmaTd[epNumber]);
1504:Generated_Source\PSoC5/USBUART_1.c ****                 (void) CyDmaChEnable(USBUART_1_DmaChan[epNumber], 1u);
1505:Generated_Source\PSoC5/USBUART_1.c ****             #endif /* (CY_PSOC4) */
1506:Generated_Source\PSoC5/USBUART_1.c ****             }
1507:Generated_Source\PSoC5/USBUART_1.c ****             else
1508:Generated_Source\PSoC5/USBUART_1.c ****             {
1509:Generated_Source\PSoC5/USBUART_1.c ****                 /* IN endpoint buffer (32 bytes) will shortly be preloaded by DMA. */
1510:Generated_Source\PSoC5/USBUART_1.c ****                 USBUART_1_EP[epNumber].apiEpState = USBUART_1_NO_EVENT_PENDING;
1511:Generated_Source\PSoC5/USBUART_1.c **** 
1512:Generated_Source\PSoC5/USBUART_1.c ****                 if (length > 0u)
1513:Generated_Source\PSoC5/USBUART_1.c ****                 {
1514:Generated_Source\PSoC5/USBUART_1.c ****                 #if (CY_PSOC4)
1515:Generated_Source\PSoC5/USBUART_1.c ****                     uint32 lengthDescr0, lengthDescr1;
1516:Generated_Source\PSoC5/USBUART_1.c ****                     uint32 channelNum = (uint32) USBUART_1_DmaChan[epNumber];
1517:Generated_Source\PSoC5/USBUART_1.c **** 
1518:Generated_Source\PSoC5/USBUART_1.c ****                     /* Get number of full bursts. */
1519:Generated_Source\PSoC5/USBUART_1.c ****                     USBUART_1_DmaEpBurstCnt[epNumber] = (uint8) (length / USBUART_1_DMA_BYTES_PER_B
1520:Generated_Source\PSoC5/USBUART_1.c **** 
1521:Generated_Source\PSoC5/USBUART_1.c ****                     /* Get number of elements in the last burst. */
1522:Generated_Source\PSoC5/USBUART_1.c ****                     USBUART_1_DmaEpLastBurstEl[epNumber] = (uint8) (length % USBUART_1_DMA_BYTES_PE
1523:Generated_Source\PSoC5/USBUART_1.c **** 
1524:Generated_Source\PSoC5/USBUART_1.c ****                     /* Get total number of bursts. */
1525:Generated_Source\PSoC5/USBUART_1.c ****                     USBUART_1_DmaEpBurstCnt[epNumber] += (0u != USBUART_1_DmaEpLastBurstEl[epNumber
1526:Generated_Source\PSoC5/USBUART_1.c **** 
1527:Generated_Source\PSoC5/USBUART_1.c ****                     /* Adjust number of data elements transferred in last burst. */
1528:Generated_Source\PSoC5/USBUART_1.c ****                     USBUART_1_DmaEpLastBurstEl[epNumber] = (0u != USBUART_1_DmaEpLastBurstEl[epNumb
1529:Generated_Source\PSoC5/USBUART_1.c ****                                                                           (USBUART_1_DmaEpLastBurst
1530:Generated_Source\PSoC5/USBUART_1.c ****                                                                           (USBUART_1_DMA_BYTES_PER_
1531:Generated_Source\PSoC5/USBUART_1.c **** 
1532:Generated_Source\PSoC5/USBUART_1.c ****                     /* Get number of data elements to transfer for descriptor 0 and 1. */
1533:Generated_Source\PSoC5/USBUART_1.c ****                     lengthDescr0 = (1u == USBUART_1_DmaEpBurstCnt[epNumber]) ? USBUART_1_DmaEpLastB
1534:Generated_Source\PSoC5/USBUART_1.c ****                     lengthDescr1 = (2u == USBUART_1_DmaEpBurstCnt[epNumber]) ? USBUART_1_DmaEpLastB
1535:Generated_Source\PSoC5/USBUART_1.c **** 
1536:Generated_Source\PSoC5/USBUART_1.c **** 
1537:Generated_Source\PSoC5/USBUART_1.c ****                     /* Mark which descriptor is last one to execute. */
1538:Generated_Source\PSoC5/USBUART_1.c ****                     USBUART_1_DmaEpLastBurstEl[epNumber] |= (0u != (USBUART_1_DmaEpBurstCnt[epNumbe
1539:Generated_Source\PSoC5/USBUART_1.c ****                                                                             USBUART_1_DMA_DESCR0_MA
1540:Generated_Source\PSoC5/USBUART_1.c **** 
1541:Generated_Source\PSoC5/USBUART_1.c ****                     /* Restore DMA settings for current transfer. */
1542:Generated_Source\PSoC5/USBUART_1.c ****                     USBUART_1_CyDmaChDisable(channelNum);
1543:Generated_Source\PSoC5/USBUART_1.c **** 
1544:Generated_Source\PSoC5/USBUART_1.c ****                     /* Restore destination address for input endpoint. */
1545:Generated_Source\PSoC5/USBUART_1.c ****                     USBUART_1_CyDmaSetSrcAddress(channelNum, USBUART_1_DMA_DESCR0, (void*) ((uint32
1546:Generated_Source\PSoC5/USBUART_1.c ****                     USBUART_1_CyDmaSetSrcAddress(channelNum, USBUART_1_DMA_DESCR1, (void*) ((uint32
1547:Generated_Source\PSoC5/USBUART_1.c ****                                                                                                    
1548:Generated_Source\PSoC5/USBUART_1.c **** 
1549:Generated_Source\PSoC5/USBUART_1.c ****                     /* Set number of elements to transfer. */
1550:Generated_Source\PSoC5/USBUART_1.c ****                     USBUART_1_CyDmaSetNumDataElements(channelNum, USBUART_1_DMA_DESCR0, lengthDescr
1551:Generated_Source\PSoC5/USBUART_1.c ****                     USBUART_1_CyDmaSetNumDataElements(channelNum, USBUART_1_DMA_DESCR1, lengthDescr
ARM GAS  C:\Users\jon\AppData\Local\Temp\ccwaPz7c.s 			page 50


1552:Generated_Source\PSoC5/USBUART_1.c **** 
1553:Generated_Source\PSoC5/USBUART_1.c ****                     /* Validate descriptor 0 and command to start with it. */
1554:Generated_Source\PSoC5/USBUART_1.c ****                     USBUART_1_CyDmaValidateDescriptor(channelNum, USBUART_1_DMA_DESCR0);
1555:Generated_Source\PSoC5/USBUART_1.c ****                     USBUART_1_CyDmaSetDescriptor0Next(channelNum);
1556:Generated_Source\PSoC5/USBUART_1.c **** 
1557:Generated_Source\PSoC5/USBUART_1.c ****                     /* Validate descriptor 1. */
1558:Generated_Source\PSoC5/USBUART_1.c ****                     if (USBUART_1_DmaEpBurstCnt[epNumber] > 1u)
1559:Generated_Source\PSoC5/USBUART_1.c ****                     {
1560:Generated_Source\PSoC5/USBUART_1.c ****                         USBUART_1_CyDmaValidateDescriptor(channelNum, USBUART_1_DMA_DESCR1); 
1561:Generated_Source\PSoC5/USBUART_1.c ****                     }                   
1562:Generated_Source\PSoC5/USBUART_1.c **** 
1563:Generated_Source\PSoC5/USBUART_1.c ****                     /* Adjust burst counter taking to account: 2 valid descriptors and interrupt tr
1564:Generated_Source\PSoC5/USBUART_1.c ****                     USBUART_1_DmaEpBurstCnt[epNumber] = USBUART_1_DMA_GET_BURST_CNT(USBUART_1_DmaEp
1565:Generated_Source\PSoC5/USBUART_1.c **** 
1566:Generated_Source\PSoC5/USBUART_1.c ****                     /* Enable DMA channel: configuration complete. */
1567:Generated_Source\PSoC5/USBUART_1.c ****                     USBUART_1_CyDmaChEnable(channelNum);
1568:Generated_Source\PSoC5/USBUART_1.c **** 
1569:Generated_Source\PSoC5/USBUART_1.c ****                 #elif (USBUART_1_EP_DMA_AUTO_OPT == 0u)
1570:Generated_Source\PSoC5/USBUART_1.c ****                     USBUART_1_inLength[epNumber]  = length;
1571:Generated_Source\PSoC5/USBUART_1.c ****                     USBUART_1_inBufFull[epNumber] = 0u;
1572:Generated_Source\PSoC5/USBUART_1.c **** 
1573:Generated_Source\PSoC5/USBUART_1.c ****                     (void) CyDmaChDisable(USBUART_1_DmaChan[epNumber]);
1574:Generated_Source\PSoC5/USBUART_1.c ****                     /* Configure DMA to send data only for first burst. */
1575:Generated_Source\PSoC5/USBUART_1.c ****                     (void) CyDmaTdSetConfiguration(
1576:Generated_Source\PSoC5/USBUART_1.c ****                         USBUART_1_DmaTd[epNumber], (length > USBUART_1_DMA_BYTES_PER_BURST) ?
1577:Generated_Source\PSoC5/USBUART_1.c ****                         USBUART_1_DMA_BYTES_PER_BURST : length,
1578:Generated_Source\PSoC5/USBUART_1.c ****                         USBUART_1_DmaNextTd[epNumber], TD_TERMIN_EN | TD_INC_SRC_ADR );
1579:Generated_Source\PSoC5/USBUART_1.c ****                     (void) CyDmaTdSetAddress(USBUART_1_DmaTd[epNumber], LO16((uint32)  USBUART_1_in
1580:Generated_Source\PSoC5/USBUART_1.c ****                                                                                LO16((uint32) &USBUA
1581:Generated_Source\PSoC5/USBUART_1.c ****                     /* Clear Any potential pending DMA requests before starting DMA channel to tran
1582:Generated_Source\PSoC5/USBUART_1.c ****                     (void) CyDmaClearPendingDrq(USBUART_1_DmaChan[epNumber]);
1583:Generated_Source\PSoC5/USBUART_1.c ****                     /* Enable DMA. */
1584:Generated_Source\PSoC5/USBUART_1.c ****                     (void) CyDmaChSetInitialTd(USBUART_1_DmaChan[epNumber], USBUART_1_DmaTd[epNumbe
1585:Generated_Source\PSoC5/USBUART_1.c ****                     (void) CyDmaChEnable(USBUART_1_DmaChan[epNumber], 1u);
1586:Generated_Source\PSoC5/USBUART_1.c ****                 #endif /* (CY_PSOC4) */
1587:Generated_Source\PSoC5/USBUART_1.c **** 
1588:Generated_Source\PSoC5/USBUART_1.c ****                 #if !defined (USBUART_1_MANUAL_IN_EP_ARM)
1589:Generated_Source\PSoC5/USBUART_1.c ****                     /* Set IN data ready to generate DMA request to load data into endpoint buffer.
1590:Generated_Source\PSoC5/USBUART_1.c ****                     USBUART_1_ARB_EP_BASE.arbEp[epNumber].epCfg |= USBUART_1_ARB_EPX_CFG_IN_DATA_RD
1591:Generated_Source\PSoC5/USBUART_1.c ****                 #endif  /* (USBUART_1_MANUAL_IN_EP_ARM) */
1592:Generated_Source\PSoC5/USBUART_1.c **** 
1593:Generated_Source\PSoC5/USBUART_1.c ****                     /* IN endpoint will be armed in ARB_ISR(source: IN_BUF_FULL) after first DMA tr
1594:Generated_Source\PSoC5/USBUART_1.c ****                 }
1595:Generated_Source\PSoC5/USBUART_1.c ****                 else
1596:Generated_Source\PSoC5/USBUART_1.c ****                 {
1597:Generated_Source\PSoC5/USBUART_1.c ****                     /* When zero-length packet: arm IN endpoint directly. */
1598:Generated_Source\PSoC5/USBUART_1.c ****                     USBUART_1_SIE_EP_BASE.sieEp[epNumber].epCr0 = USBUART_1_EP[epNumber].epMode;
1599:Generated_Source\PSoC5/USBUART_1.c ****                 }
1600:Generated_Source\PSoC5/USBUART_1.c ****             }
1601:Generated_Source\PSoC5/USBUART_1.c ****         #endif /* (USBUART_1_EP_MANAGEMENT_DMA_AUTO) */
1602:Generated_Source\PSoC5/USBUART_1.c ****     #endif /* (USBUART_1_EP_MANAGEMENT_MANUAL) */
1603:Generated_Source\PSoC5/USBUART_1.c ****     }
1604:Generated_Source\PSoC5/USBUART_1.c **** }
1605:Generated_Source\PSoC5/USBUART_1.c **** 
1606:Generated_Source\PSoC5/USBUART_1.c **** 
1607:Generated_Source\PSoC5/USBUART_1.c **** /*******************************************************************************
1608:Generated_Source\PSoC5/USBUART_1.c **** * Function Name: USBUART_1_ReadOutEP
ARM GAS  C:\Users\jon\AppData\Local\Temp\ccwaPz7c.s 			page 51


1609:Generated_Source\PSoC5/USBUART_1.c **** ****************************************************************************//**
1610:Generated_Source\PSoC5/USBUART_1.c **** *
1611:Generated_Source\PSoC5/USBUART_1.c **** *   This function performs different functionality depending on the Component’s
1612:Generated_Source\PSoC5/USBUART_1.c **** *   configured Endpoint Buffer Management. This parameter is defined in the
1613:Generated_Source\PSoC5/USBUART_1.c **** *   Descriptor Root in Component Configure window.
1614:Generated_Source\PSoC5/USBUART_1.c **** *
1615:Generated_Source\PSoC5/USBUART_1.c **** *   *Manual (Static/Dynamic Allocation):*
1616:Generated_Source\PSoC5/USBUART_1.c **** *   This function moves the specified number of bytes from endpoint buffer to
1617:Generated_Source\PSoC5/USBUART_1.c **** *   system RAM. The number of bytes actually transferred from endpoint buffer to
1618:Generated_Source\PSoC5/USBUART_1.c **** *   system RAM is the lesser of the actual number of bytes sent by the host or
1619:Generated_Source\PSoC5/USBUART_1.c **** *   the number of bytes requested by the length parameter.
1620:Generated_Source\PSoC5/USBUART_1.c **** *
1621:Generated_Source\PSoC5/USBUART_1.c **** *   *DMA with Manual Buffer Management:*
1622:Generated_Source\PSoC5/USBUART_1.c **** *   Configure DMA to transfer data from endpoint buffer to system RAM. Generate
1623:Generated_Source\PSoC5/USBUART_1.c **** *   a DMA request. The firmware must wait until the DMA completes the data
1624:Generated_Source\PSoC5/USBUART_1.c **** *   transfer after calling the USBUART_1_ReadOutEP() API. For example,
1625:Generated_Source\PSoC5/USBUART_1.c **** *   by checking EPstate:
1626:Generated_Source\PSoC5/USBUART_1.c **** *
1627:Generated_Source\PSoC5/USBUART_1.c **** *   \snippet /USBFS_sut_02.cydsn/main.c checking EPstatey
1628:Generated_Source\PSoC5/USBUART_1.c **** *
1629:Generated_Source\PSoC5/USBUART_1.c **** *   The USBFS_EnableOutEP() has to be called to allow host to write data into
1630:Generated_Source\PSoC5/USBUART_1.c **** *   the endpoint buffer after DMA has completed transfer data from OUT endpoint
1631:Generated_Source\PSoC5/USBUART_1.c **** *   buffer to SRAM.
1632:Generated_Source\PSoC5/USBUART_1.c **** *
1633:Generated_Source\PSoC5/USBUART_1.c **** *   *DMA with Automatic Buffer Management:*
1634:Generated_Source\PSoC5/USBUART_1.c **** *   Configure DMA. This is required only once and automatically generates DMA
1635:Generated_Source\PSoC5/USBUART_1.c **** *   requests as data arrives
1636:Generated_Source\PSoC5/USBUART_1.c **** *
1637:Generated_Source\PSoC5/USBUART_1.c **** *  \param epNumber: Contains the data endpoint number.
1638:Generated_Source\PSoC5/USBUART_1.c **** *            Valid values are between 1 and 8.
1639:Generated_Source\PSoC5/USBUART_1.c **** *  \param pData: A pointer to a data array from which the data for the endpoint
1640:Generated_Source\PSoC5/USBUART_1.c **** *         space is loaded.
1641:Generated_Source\PSoC5/USBUART_1.c **** *  \param length: The number of bytes to transfer from the USB Out endpoint and
1642:Generated_Source\PSoC5/USBUART_1.c **** *          loads it into data array. Valid values are between 0 and 1023. The
1643:Generated_Source\PSoC5/USBUART_1.c **** *          function moves fewer than the requested number of bytes if the host
1644:Generated_Source\PSoC5/USBUART_1.c **** *          sends fewer bytes than requested.
1645:Generated_Source\PSoC5/USBUART_1.c **** *
1646:Generated_Source\PSoC5/USBUART_1.c **** * \return
1647:Generated_Source\PSoC5/USBUART_1.c **** *  Number of bytes received, 0 for an invalid endpoint.
1648:Generated_Source\PSoC5/USBUART_1.c **** *
1649:Generated_Source\PSoC5/USBUART_1.c **** * \reentrant
1650:Generated_Source\PSoC5/USBUART_1.c **** *  No.
1651:Generated_Source\PSoC5/USBUART_1.c **** *
1652:Generated_Source\PSoC5/USBUART_1.c **** *******************************************************************************/
1653:Generated_Source\PSoC5/USBUART_1.c **** uint16 USBUART_1_ReadOutEP(uint8 epNumber, uint8 pData[], uint16 length)
1654:Generated_Source\PSoC5/USBUART_1.c ****                                                                         
1655:Generated_Source\PSoC5/USBUART_1.c **** {
 1115              		.loc 1 1655 0
 1116              		.cfi_startproc
 1117              		@ args = 0, pretend = 0, frame = 0
 1118              		@ frame_needed = 0, uses_anonymous_args = 0
 1119              		@ link register save eliminated.
 1120              	.LVL65:
1656:Generated_Source\PSoC5/USBUART_1.c ****     if ((pData != NULL) && (epNumber > USBUART_1_EP0) && (epNumber < USBUART_1_MAX_EP))
 1121              		.loc 1 1656 0
 1122 0000 69B3     		cbz	r1, .L80
 1123              		.loc 1 1656 0 is_stmt 0 discriminator 1
ARM GAS  C:\Users\jon\AppData\Local\Temp\ccwaPz7c.s 			page 52


 1124 0002 431E     		subs	r3, r0, #1
 1125 0004 072B     		cmp	r3, #7
 1126 0006 27D8     		bhi	.L81
 1127              	.LVL66:
1655:Generated_Source\PSoC5/USBUART_1.c ****     if ((pData != NULL) && (epNumber > USBUART_1_EP0) && (epNumber < USBUART_1_MAX_EP))
 1128              		.loc 1 1655 0 is_stmt 1
 1129 0008 F0B4     		push	{r4, r5, r6, r7}
 1130              		.cfi_def_cfa_offset 16
 1131              		.cfi_offset 4, -16
 1132              		.cfi_offset 5, -12
 1133              		.cfi_offset 6, -8
 1134              		.cfi_offset 7, -4
 1135 000a 1B4D     		ldr	r5, .L86
 1136 000c 0701     		lsls	r7, r0, #4
 1137 000e 2E46     		mov	r6, r5
 1138              	.LBB29:
 1139              	.LBB30:
 1140              	.LBB31:
 1141              	.LBB32:
 989:Generated_Source\PSoC5/USBUART_1.c ****         cntr  = ((uint16) (cntr << 8u)) | ((uint16) USBUART_1_SIE_EP_BASE.sieEp[epNumber].epCnt1);
 1142              		.loc 1 989 0
 1143 0010 7B5D     		ldrb	r3, [r7, r5]	@ zero_extendqisi2
 1144              	.LVL67:
 1145 0012 3E44     		add	r6, r6, r7
 990:Generated_Source\PSoC5/USBUART_1.c ****         cntr -= USBUART_1_EPX_CNTX_CRC_COUNT;
 1146              		.loc 1 990 0
 1147 0014 7478     		ldrb	r4, [r6, #1]	@ zero_extendqisi2
 1148 0016 03F00F03 		and	r3, r3, #15
 1149              	.LBE32:
 1150              	.LBE31:
 1151              	.LBE30:
 1152              	.LBE29:
1657:Generated_Source\PSoC5/USBUART_1.c ****     {
1658:Generated_Source\PSoC5/USBUART_1.c ****     #if (!USBUART_1_EP_MANAGEMENT_DMA_AUTO)
1659:Generated_Source\PSoC5/USBUART_1.c ****         /* Adjust requested length to available data. */
1660:Generated_Source\PSoC5/USBUART_1.c ****         length = (length > USBUART_1_GetEPCount(epNumber)) ? USBUART_1_GetEPCount(epNumber) : lengt
 1153              		.loc 1 1660 0
 1154 001a 44EA0323 		orr	r3, r4, r3, lsl #8
 1155 001e 023B     		subs	r3, r3, #2
 1156 0020 9BB2     		uxth	r3, r3
 1157 0022 9A42     		cmp	r2, r3
 1158 0024 1ED8     		bhi	.L85
 1159              	.LVL68:
 1160              	.L76:
 1161              	.LBB33:
1661:Generated_Source\PSoC5/USBUART_1.c ****     #endif /* (!USBUART_1_EP_MANAGEMENT_DMA_AUTO) */
1662:Generated_Source\PSoC5/USBUART_1.c **** 
1663:Generated_Source\PSoC5/USBUART_1.c ****     #if (USBUART_1_EP_MANAGEMENT_MANUAL)
1664:Generated_Source\PSoC5/USBUART_1.c ****         {
1665:Generated_Source\PSoC5/USBUART_1.c ****             /* Copy data using arbiter data register. */
1666:Generated_Source\PSoC5/USBUART_1.c ****             uint16 i;
1667:Generated_Source\PSoC5/USBUART_1.c ****             for (i = 0u; i < length; ++i)
 1162              		.loc 1 1667 0 discriminator 4
 1163 0026 52B1     		cbz	r2, .L79
 1164 0028 541E     		subs	r4, r2, #1
1668:Generated_Source\PSoC5/USBUART_1.c ****             {
1669:Generated_Source\PSoC5/USBUART_1.c ****                 pData[i] = (uint8) USBUART_1_ARB_EP_BASE.arbEp[epNumber].rwDr;
ARM GAS  C:\Users\jon\AppData\Local\Temp\ccwaPz7c.s 			page 53


 1165              		.loc 1 1669 0
 1166 002a 144D     		ldr	r5, .L86+4
 1167 002c A4B2     		uxth	r4, r4
 1168 002e 0C44     		add	r4, r4, r1
 1169 0030 3D44     		add	r5, r5, r7
 1170 0032 0139     		subs	r1, r1, #1
 1171              	.LVL69:
 1172              	.L78:
 1173              		.loc 1 1669 0 is_stmt 0 discriminator 3
 1174 0034 2B7A     		ldrb	r3, [r5, #8]	@ zero_extendqisi2
 1175 0036 01F8013F 		strb	r3, [r1, #1]!
 1176              	.LVL70:
1667:Generated_Source\PSoC5/USBUART_1.c ****             {
 1177              		.loc 1 1667 0 is_stmt 1 discriminator 3
 1178 003a A142     		cmp	r1, r4
 1179 003c FAD1     		bne	.L78
 1180              	.LVL71:
 1181              	.L79:
 1182              	.LBE33:
 1183              	.LBB34:
 1184              	.LBB35:
1670:Generated_Source\PSoC5/USBUART_1.c ****             }
1671:Generated_Source\PSoC5/USBUART_1.c ****         }
1672:Generated_Source\PSoC5/USBUART_1.c **** 
1673:Generated_Source\PSoC5/USBUART_1.c ****         /* Arm OUT endpoint after data has been copied from endpoint buffer. */
1674:Generated_Source\PSoC5/USBUART_1.c ****         USBUART_1_EnableOutEP(epNumber);
1675:Generated_Source\PSoC5/USBUART_1.c ****     #else
1676:Generated_Source\PSoC5/USBUART_1.c **** 
1677:Generated_Source\PSoC5/USBUART_1.c ****         #if (CY_PSOC3 || CY_PSOC5LP)
1678:Generated_Source\PSoC5/USBUART_1.c ****             /* Initialize DMA if it was not initialized. */
1679:Generated_Source\PSoC5/USBUART_1.c ****             if (DMA_INVALID_TD == USBUART_1_DmaTd[epNumber])
1680:Generated_Source\PSoC5/USBUART_1.c ****             {
1681:Generated_Source\PSoC5/USBUART_1.c ****                 USBUART_1_InitEP_DMA(epNumber, pData);
1682:Generated_Source\PSoC5/USBUART_1.c ****             }
1683:Generated_Source\PSoC5/USBUART_1.c ****         #endif /* (CY_PSOC3 || CY_PSOC5LP) */
1684:Generated_Source\PSoC5/USBUART_1.c **** 
1685:Generated_Source\PSoC5/USBUART_1.c ****         #if (USBUART_1_EP_MANAGEMENT_DMA_MANUAL)
1686:Generated_Source\PSoC5/USBUART_1.c ****         #if (CY_PSOC4)
1687:Generated_Source\PSoC5/USBUART_1.c ****         {
1688:Generated_Source\PSoC5/USBUART_1.c ****             uint32 channelNum = (uint32) USBUART_1_DmaChan[epNumber];
1689:Generated_Source\PSoC5/USBUART_1.c **** 
1690:Generated_Source\PSoC5/USBUART_1.c ****             /* Disable DMA channel: start configuration. */
1691:Generated_Source\PSoC5/USBUART_1.c ****             USBUART_1_CyDmaChDisable(channelNum);
1692:Generated_Source\PSoC5/USBUART_1.c **** 
1693:Generated_Source\PSoC5/USBUART_1.c ****             /* Configure source and destination. */
1694:Generated_Source\PSoC5/USBUART_1.c ****             USBUART_1_CyDmaSetSrcAddress(channelNum, USBUART_1_DMA_DESCR0, (void*) &USBUART_1_ARB_E
1695:Generated_Source\PSoC5/USBUART_1.c ****             USBUART_1_CyDmaSetDstAddress(channelNum, USBUART_1_DMA_DESCR0, (void*) pData);
1696:Generated_Source\PSoC5/USBUART_1.c **** 
1697:Generated_Source\PSoC5/USBUART_1.c ****             /* Configure DMA descriptor. */
1698:Generated_Source\PSoC5/USBUART_1.c ****             USBUART_1_CyDmaSetConfiguration(channelNum, USBUART_1_DMA_DESCR0, USBUART_1_DMA_COMMON_
1699:Generated_Source\PSoC5/USBUART_1.c ****                                                     CYDMA_BYTE | CYDMA_WORD_ELEMENT | CYDMA_INC_DST
1700:Generated_Source\PSoC5/USBUART_1.c **** 
1701:Generated_Source\PSoC5/USBUART_1.c ****             /* Validate descriptor to execute on following DMA request. */
1702:Generated_Source\PSoC5/USBUART_1.c ****             USBUART_1_CyDmaValidateDescriptor(channelNum, USBUART_1_DMA_DESCR0);
1703:Generated_Source\PSoC5/USBUART_1.c **** 
1704:Generated_Source\PSoC5/USBUART_1.c ****             /* Enable DMA channel: configuration complete. */
1705:Generated_Source\PSoC5/USBUART_1.c ****             USBUART_1_CyDmaChEnable(channelNum);
ARM GAS  C:\Users\jon\AppData\Local\Temp\ccwaPz7c.s 			page 54


1706:Generated_Source\PSoC5/USBUART_1.c ****         }
1707:Generated_Source\PSoC5/USBUART_1.c ****         #else
1708:Generated_Source\PSoC5/USBUART_1.c ****             /* Configure DMA to transfer data. */
1709:Generated_Source\PSoC5/USBUART_1.c ****             (void) CyDmaChDisable(USBUART_1_DmaChan[epNumber]);
1710:Generated_Source\PSoC5/USBUART_1.c ****             (void) CyDmaTdSetConfiguration(USBUART_1_DmaTd[epNumber], length, CY_DMA_DISABLE_TD, TD
1711:Generated_Source\PSoC5/USBUART_1.c ****             (void) CyDmaTdSetAddress(USBUART_1_DmaTd[epNumber], LO16((uint32) &USBUART_1_ARB_EP_BAS
1712:Generated_Source\PSoC5/USBUART_1.c **** 
1713:Generated_Source\PSoC5/USBUART_1.c ****             /* Enable DMA channel. */
1714:Generated_Source\PSoC5/USBUART_1.c ****             (void) CyDmaChSetInitialTd(USBUART_1_DmaChan[epNumber], USBUART_1_DmaTd[epNumber]);
1715:Generated_Source\PSoC5/USBUART_1.c ****             (void) CyDmaChEnable(USBUART_1_DmaChan[epNumber], 1u);
1716:Generated_Source\PSoC5/USBUART_1.c ****         #endif /* (CY_PSOC4) */
1717:Generated_Source\PSoC5/USBUART_1.c **** 
1718:Generated_Source\PSoC5/USBUART_1.c ****             /* Generate DMA request. */
1719:Generated_Source\PSoC5/USBUART_1.c ****             USBUART_1_ARB_EP_BASE.arbEp[epNumber].epCfg |=  (uint8)  USBUART_1_ARB_EPX_CFG_DMA_REQ;
1720:Generated_Source\PSoC5/USBUART_1.c ****             USBUART_1_ARB_EP_BASE.arbEp[epNumber].epCfg &=  (uint8) ~USBUART_1_ARB_EPX_CFG_DMA_REQ;
1721:Generated_Source\PSoC5/USBUART_1.c **** 
1722:Generated_Source\PSoC5/USBUART_1.c ****             /* OUT endpoint has to be armed again by user when DMA transfers have been completed.
1723:Generated_Source\PSoC5/USBUART_1.c ****             * NO_EVENT_PENDING: notifies that data has been copied from endpoint buffer.
1724:Generated_Source\PSoC5/USBUART_1.c ****             */
1725:Generated_Source\PSoC5/USBUART_1.c **** 
1726:Generated_Source\PSoC5/USBUART_1.c ****         #endif /* (USBUART_1_EP_MANAGEMENT_DMA_MANUAL) */
1727:Generated_Source\PSoC5/USBUART_1.c **** 
1728:Generated_Source\PSoC5/USBUART_1.c ****         #if (USBUART_1_EP_MANAGEMENT_DMA_AUTO)
1729:Generated_Source\PSoC5/USBUART_1.c ****         #if (CY_PSOC4)
1730:Generated_Source\PSoC5/USBUART_1.c ****         {
1731:Generated_Source\PSoC5/USBUART_1.c ****             uint32 channelNum = (uint32) USBUART_1_DmaChan[epNumber];
1732:Generated_Source\PSoC5/USBUART_1.c ****             uint32 lengthDescr0, lengthDescr1;
1733:Generated_Source\PSoC5/USBUART_1.c **** 
1734:Generated_Source\PSoC5/USBUART_1.c ****             /* Get number of full bursts. */
1735:Generated_Source\PSoC5/USBUART_1.c ****             USBUART_1_DmaEpBurstCnt[epNumber] = (uint8) (length / USBUART_1_DMA_BYTES_PER_BURST);
1736:Generated_Source\PSoC5/USBUART_1.c **** 
1737:Generated_Source\PSoC5/USBUART_1.c ****             /* Get number of elements in the last burst. */
1738:Generated_Source\PSoC5/USBUART_1.c ****             USBUART_1_DmaEpLastBurstEl[epNumber] = (uint8) (length % USBUART_1_DMA_BYTES_PER_BURST)
1739:Generated_Source\PSoC5/USBUART_1.c **** 
1740:Generated_Source\PSoC5/USBUART_1.c ****             /* Get total number of bursts. */
1741:Generated_Source\PSoC5/USBUART_1.c ****             USBUART_1_DmaEpBurstCnt[epNumber] += (0u != USBUART_1_DmaEpLastBurstEl[epNumber]) ? 1u 
1742:Generated_Source\PSoC5/USBUART_1.c **** 
1743:Generated_Source\PSoC5/USBUART_1.c ****             /* Adjust number of the data elements transfered in last burst. */
1744:Generated_Source\PSoC5/USBUART_1.c ****             USBUART_1_DmaEpLastBurstEl[epNumber] = (0u != USBUART_1_DmaEpLastBurstEl[epNumber]) ?
1745:Generated_Source\PSoC5/USBUART_1.c ****                                                                   (USBUART_1_DmaEpLastBurstEl[epNum
1746:Generated_Source\PSoC5/USBUART_1.c ****                                                                   (USBUART_1_DMA_BYTES_PER_BURST - 
1747:Generated_Source\PSoC5/USBUART_1.c **** 
1748:Generated_Source\PSoC5/USBUART_1.c ****             /* Get number of data elements to transfer for descriptor 0 and 1. */
1749:Generated_Source\PSoC5/USBUART_1.c ****             lengthDescr0 = (1u == USBUART_1_DmaEpBurstCnt[epNumber]) ? USBUART_1_DmaEpLastBurstEl[e
1750:Generated_Source\PSoC5/USBUART_1.c ****             lengthDescr1 = (2u == USBUART_1_DmaEpBurstCnt[epNumber]) ? USBUART_1_DmaEpLastBurstEl[e
1751:Generated_Source\PSoC5/USBUART_1.c **** 
1752:Generated_Source\PSoC5/USBUART_1.c ****             /* Mark if revert number of data elements in descriptor after transfer completion. */
1753:Generated_Source\PSoC5/USBUART_1.c ****             USBUART_1_DmaEpLastBurstEl[epNumber] |= (USBUART_1_DmaEpBurstCnt[epNumber] > 2u) ? USBU
1754:Generated_Source\PSoC5/USBUART_1.c **** 
1755:Generated_Source\PSoC5/USBUART_1.c ****             /* Mark last descriptor to be executed. */
1756:Generated_Source\PSoC5/USBUART_1.c ****             USBUART_1_DmaEpLastBurstEl[epNumber] |= (0u != (USBUART_1_DmaEpBurstCnt[epNumber] & 0x1
1757:Generated_Source\PSoC5/USBUART_1.c ****                                                                     USBUART_1_DMA_DESCR0_MASK : USB
1758:Generated_Source\PSoC5/USBUART_1.c **** 
1759:Generated_Source\PSoC5/USBUART_1.c ****             /* Store address of buffer and burst counter for endpoint. */
1760:Generated_Source\PSoC5/USBUART_1.c ****             USBUART_1_DmaEpBufferAddrBackup[epNumber] = (uint32) pData;
1761:Generated_Source\PSoC5/USBUART_1.c ****             USBUART_1_DmaEpBurstCntBackup[epNumber]   = USBUART_1_DmaEpBurstCnt[epNumber];
1762:Generated_Source\PSoC5/USBUART_1.c **** 
ARM GAS  C:\Users\jon\AppData\Local\Temp\ccwaPz7c.s 			page 55


1763:Generated_Source\PSoC5/USBUART_1.c ****             /* Adjust burst counter taking to account: 2 valid descriptors and interrupt trigger af
1764:Generated_Source\PSoC5/USBUART_1.c ****             USBUART_1_DmaEpBurstCnt[epNumber] = USBUART_1_DMA_GET_BURST_CNT(USBUART_1_DmaEpBurstCnt
1765:Generated_Source\PSoC5/USBUART_1.c **** 
1766:Generated_Source\PSoC5/USBUART_1.c ****             /* Disable DMA channel: start configuration. */
1767:Generated_Source\PSoC5/USBUART_1.c ****             USBUART_1_CyDmaChDisable(channelNum);
1768:Generated_Source\PSoC5/USBUART_1.c **** 
1769:Generated_Source\PSoC5/USBUART_1.c ****             /* Set destination address. */
1770:Generated_Source\PSoC5/USBUART_1.c ****             USBUART_1_CyDmaSetSrcAddress(channelNum, USBUART_1_DMA_DESCR0, (void*) &USBUART_1_ARB_E
1771:Generated_Source\PSoC5/USBUART_1.c ****             USBUART_1_CyDmaSetSrcAddress(channelNum, USBUART_1_DMA_DESCR1, (void*) &USBUART_1_ARB_E
1772:Generated_Source\PSoC5/USBUART_1.c **** 
1773:Generated_Source\PSoC5/USBUART_1.c ****             USBUART_1_CyDmaSetDstAddress(channelNum, USBUART_1_DMA_DESCR0, (void*) ((uint32) pData)
1774:Generated_Source\PSoC5/USBUART_1.c ****             USBUART_1_CyDmaSetDstAddress(channelNum, USBUART_1_DMA_DESCR1, (void*) ((uint32) pData 
1775:Generated_Source\PSoC5/USBUART_1.c **** 
1776:Generated_Source\PSoC5/USBUART_1.c ****             /* Configure DMA descriptor. */
1777:Generated_Source\PSoC5/USBUART_1.c ****             USBUART_1_CyDmaSetConfiguration(channelNum, USBUART_1_DMA_DESCR0, USBUART_1_DMA_COMMON_
1778:Generated_Source\PSoC5/USBUART_1.c ****                                                     CYDMA_BYTE | CYDMA_WORD_ELEMENT | CYDMA_INC_DST
1779:Generated_Source\PSoC5/USBUART_1.c **** 
1780:Generated_Source\PSoC5/USBUART_1.c ****             /* Configure DMA descriptor. */
1781:Generated_Source\PSoC5/USBUART_1.c ****             USBUART_1_CyDmaSetConfiguration(channelNum, USBUART_1_DMA_DESCR1, USBUART_1_DMA_COMMON_
1782:Generated_Source\PSoC5/USBUART_1.c ****                                                     CYDMA_BYTE | CYDMA_WORD_ELEMENT | CYDMA_INC_DST
1783:Generated_Source\PSoC5/USBUART_1.c **** 
1784:Generated_Source\PSoC5/USBUART_1.c ****             /* Enable interrupt from DMA channel. */
1785:Generated_Source\PSoC5/USBUART_1.c ****             USBUART_1_CyDmaSetInterruptMask(channelNum);
1786:Generated_Source\PSoC5/USBUART_1.c **** 
1787:Generated_Source\PSoC5/USBUART_1.c ****             /* Validate DMA descriptor 0 and 1. */
1788:Generated_Source\PSoC5/USBUART_1.c ****             USBUART_1_CyDmaValidateDescriptor(channelNum, USBUART_1_DMA_DESCR0);
1789:Generated_Source\PSoC5/USBUART_1.c **** 
1790:Generated_Source\PSoC5/USBUART_1.c ****             if (USBUART_1_DmaEpBurstCntBackup[epNumber] > 1u)
1791:Generated_Source\PSoC5/USBUART_1.c ****             {
1792:Generated_Source\PSoC5/USBUART_1.c ****                 USBUART_1_CyDmaValidateDescriptor(channelNum, USBUART_1_DMA_DESCR1);
1793:Generated_Source\PSoC5/USBUART_1.c ****             }
1794:Generated_Source\PSoC5/USBUART_1.c **** 
1795:Generated_Source\PSoC5/USBUART_1.c ****             /* Enable DMA channel: configuration complete. */
1796:Generated_Source\PSoC5/USBUART_1.c ****             USBUART_1_CyDmaChEnable(channelNum);
1797:Generated_Source\PSoC5/USBUART_1.c ****         }
1798:Generated_Source\PSoC5/USBUART_1.c ****         #else
1799:Generated_Source\PSoC5/USBUART_1.c ****             (void) CyDmaChDisable(USBUART_1_DmaChan[epNumber]);
1800:Generated_Source\PSoC5/USBUART_1.c ****             (void) CyDmaTdSetConfiguration(USBUART_1_DmaTd[epNumber], length,  USBUART_1_DmaTd[epNu
1801:Generated_Source\PSoC5/USBUART_1.c ****             (void) CyDmaTdSetAddress(USBUART_1_DmaTd[epNumber], LO16((uint32) &USBUART_1_ARB_EP_BAS
1802:Generated_Source\PSoC5/USBUART_1.c **** 
1803:Generated_Source\PSoC5/USBUART_1.c ****             /* Clear Any potential pending DMA requests before starting DMA channel to transfer dat
1804:Generated_Source\PSoC5/USBUART_1.c ****             (void) CyDmaClearPendingDrq(USBUART_1_DmaChan[epNumber]);
1805:Generated_Source\PSoC5/USBUART_1.c **** 
1806:Generated_Source\PSoC5/USBUART_1.c ****             /* Enable DMA channel. */
1807:Generated_Source\PSoC5/USBUART_1.c ****             (void) CyDmaChSetInitialTd(USBUART_1_DmaChan[epNumber], USBUART_1_DmaTd[epNumber]);
1808:Generated_Source\PSoC5/USBUART_1.c ****             (void) CyDmaChEnable(USBUART_1_DmaChan[epNumber], 1u);
1809:Generated_Source\PSoC5/USBUART_1.c ****         #endif /* (CY_PSOC4) */
1810:Generated_Source\PSoC5/USBUART_1.c **** 
1811:Generated_Source\PSoC5/USBUART_1.c ****             /* OUT endpoint has to be armed again by user when DMA transfers have been completed.
1812:Generated_Source\PSoC5/USBUART_1.c ****             * NO_EVENT_PENDING: notifies that data has been copied from endpoint buffer.
1813:Generated_Source\PSoC5/USBUART_1.c ****             */
1814:Generated_Source\PSoC5/USBUART_1.c **** 
1815:Generated_Source\PSoC5/USBUART_1.c ****         #endif /* (USBUART_1_EP_MANAGEMENT_DMA_AUTO) */
1816:Generated_Source\PSoC5/USBUART_1.c ****     #endif /* (USBUART_1_EP_MANAGEMENT_MANUAL) */
1817:Generated_Source\PSoC5/USBUART_1.c ****     }
1818:Generated_Source\PSoC5/USBUART_1.c ****     else
1819:Generated_Source\PSoC5/USBUART_1.c ****     {
ARM GAS  C:\Users\jon\AppData\Local\Temp\ccwaPz7c.s 			page 56


1820:Generated_Source\PSoC5/USBUART_1.c ****         length = 0u;
1821:Generated_Source\PSoC5/USBUART_1.c ****     }
1822:Generated_Source\PSoC5/USBUART_1.c **** 
1823:Generated_Source\PSoC5/USBUART_1.c ****     return (length);
1824:Generated_Source\PSoC5/USBUART_1.c **** }
1825:Generated_Source\PSoC5/USBUART_1.c **** 
1826:Generated_Source\PSoC5/USBUART_1.c **** 
1827:Generated_Source\PSoC5/USBUART_1.c **** #if (USBUART_1_16BITS_EP_ACCESS_ENABLE)
1828:Generated_Source\PSoC5/USBUART_1.c **** /*******************************************************************************
1829:Generated_Source\PSoC5/USBUART_1.c **** * Function Name: USBUART_1_LoadInEP16
1830:Generated_Source\PSoC5/USBUART_1.c **** ****************************************************************************//**
1831:Generated_Source\PSoC5/USBUART_1.c **** *
1832:Generated_Source\PSoC5/USBUART_1.c **** *  This function performs different functionality depending on the Component’s
1833:Generated_Source\PSoC5/USBUART_1.c **** *  configured Endpoint Buffer Management. This parameter is defined in
1834:Generated_Source\PSoC5/USBUART_1.c **** *  the Descriptor Root in Component Configure window.
1835:Generated_Source\PSoC5/USBUART_1.c **** *
1836:Generated_Source\PSoC5/USBUART_1.c **** *  *Manual (Static/Dynamic Allocation):*
1837:Generated_Source\PSoC5/USBUART_1.c **** *  This function loads and enables the specified USB data endpoint for an IN
1838:Generated_Source\PSoC5/USBUART_1.c **** *  data transfer.
1839:Generated_Source\PSoC5/USBUART_1.c **** *
1840:Generated_Source\PSoC5/USBUART_1.c **** *  *DMA with Manual Buffer Management:*
1841:Generated_Source\PSoC5/USBUART_1.c **** *  Configures DMA for a data transfer from system RAM to endpoint buffer.
1842:Generated_Source\PSoC5/USBUART_1.c **** *  Generates request for a transfer.
1843:Generated_Source\PSoC5/USBUART_1.c **** *
1844:Generated_Source\PSoC5/USBUART_1.c **** *  *DMA with Automatic Buffer Management:*
1845:Generated_Source\PSoC5/USBUART_1.c **** *  Configures DMA. This is required only once, so it is done only when parameter
1846:Generated_Source\PSoC5/USBUART_1.c **** *  pData is not NULL. When the pData pointer is NULL, the function skips this
1847:Generated_Source\PSoC5/USBUART_1.c **** *  task. Sets Data ready status: This generates the first DMA transfer and
1848:Generated_Source\PSoC5/USBUART_1.c **** *  prepares data in endpoint buffer.
1849:Generated_Source\PSoC5/USBUART_1.c **** *
1850:Generated_Source\PSoC5/USBUART_1.c **** *  \param epNumber Contains the data endpoint number.
1851:Generated_Source\PSoC5/USBUART_1.c **** *        Valid values are between 1 and 8.
1852:Generated_Source\PSoC5/USBUART_1.c **** *  \param *pData A pointer to a data array from which the data for the endpoint
1853:Generated_Source\PSoC5/USBUART_1.c **** *        space is loaded. It shall be ensured that this pointer address is even
1854:Generated_Source\PSoC5/USBUART_1.c **** *        to ensure the 16-bit transfer is aligned to even address. Else, a hard
1855:Generated_Source\PSoC5/USBUART_1.c **** *        fault condition can occur.
1856:Generated_Source\PSoC5/USBUART_1.c **** *  \param length The number of bytes to transfer from the array and then send as
1857:Generated_Source\PSoC5/USBUART_1.c **** *        a result of an IN request. Valid values are between 0 and 512 (1023 for
1858:Generated_Source\PSoC5/USBUART_1.c **** *        DMA with Automatic Buffer Management mode). The value 512 is applicable
1859:Generated_Source\PSoC5/USBUART_1.c **** *        if only one endpoint is used.
1860:Generated_Source\PSoC5/USBUART_1.c **** *
1861:Generated_Source\PSoC5/USBUART_1.c **** * \reentrant
1862:Generated_Source\PSoC5/USBUART_1.c **** *  No.
1863:Generated_Source\PSoC5/USBUART_1.c **** *
1864:Generated_Source\PSoC5/USBUART_1.c **** *******************************************************************************/
1865:Generated_Source\PSoC5/USBUART_1.c **** void USBUART_1_LoadInEP16(uint8 epNumber, const uint8 pData[], uint16 length)
1866:Generated_Source\PSoC5/USBUART_1.c **** {
1867:Generated_Source\PSoC5/USBUART_1.c ****     /* Check array alignment on half-word boundary. */
1868:Generated_Source\PSoC5/USBUART_1.c ****     CYASSERT(0u == (((uint32) pData) & 0x01u));
1869:Generated_Source\PSoC5/USBUART_1.c **** 
1870:Generated_Source\PSoC5/USBUART_1.c ****     if ((epNumber > USBUART_1_EP0) && (epNumber < USBUART_1_MAX_EP))
1871:Generated_Source\PSoC5/USBUART_1.c ****     {
1872:Generated_Source\PSoC5/USBUART_1.c ****     #if (!USBUART_1_EP_MANAGEMENT_DMA_AUTO)
1873:Generated_Source\PSoC5/USBUART_1.c ****         /* Limit length to available buffer USB IP buffer size. */
1874:Generated_Source\PSoC5/USBUART_1.c ****         if (length > (USBUART_1_EPX_DATA_BUF_MAX - USBUART_1_EP[epNumber].buffOffset))
1875:Generated_Source\PSoC5/USBUART_1.c ****         {
1876:Generated_Source\PSoC5/USBUART_1.c ****             length = USBUART_1_EPX_DATA_BUF_MAX - USBUART_1_EP[epNumber].buffOffset;
ARM GAS  C:\Users\jon\AppData\Local\Temp\ccwaPz7c.s 			page 57


1877:Generated_Source\PSoC5/USBUART_1.c ****         }
1878:Generated_Source\PSoC5/USBUART_1.c ****     #endif /* (!USBUART_1_EP_MANAGEMENT_DMA_AUTO) */
1879:Generated_Source\PSoC5/USBUART_1.c **** 
1880:Generated_Source\PSoC5/USBUART_1.c ****         /* Set count and data toggle. */
1881:Generated_Source\PSoC5/USBUART_1.c ****         USBUART_1_SIE_EP_BASE.sieEp[epNumber].epCnt0 = (uint32) HI8(length) | USBUART_1_EP[epNumber
1882:Generated_Source\PSoC5/USBUART_1.c ****         USBUART_1_SIE_EP_BASE.sieEp[epNumber].epCnt1 = (uint32) LO8(length);
1883:Generated_Source\PSoC5/USBUART_1.c **** 
1884:Generated_Source\PSoC5/USBUART_1.c ****         /* Adjust requested length: 2 bytes are handled at one data register access. */
1885:Generated_Source\PSoC5/USBUART_1.c ****         length += (length & 0x01u);
1886:Generated_Source\PSoC5/USBUART_1.c **** 
1887:Generated_Source\PSoC5/USBUART_1.c ****     #if (USBUART_1_EP_MANAGEMENT_MANUAL)
1888:Generated_Source\PSoC5/USBUART_1.c ****         if (NULL != pData)
1889:Generated_Source\PSoC5/USBUART_1.c ****         {
1890:Generated_Source\PSoC5/USBUART_1.c ****             /* Convert uint8 array to uint16. */
1891:Generated_Source\PSoC5/USBUART_1.c ****             const uint16 *dataBuf = (uint16 *) pData;
1892:Generated_Source\PSoC5/USBUART_1.c **** 
1893:Generated_Source\PSoC5/USBUART_1.c ****             /* Copy data using 16-bits arbiter data register. */
1894:Generated_Source\PSoC5/USBUART_1.c ****             uint16 i;
1895:Generated_Source\PSoC5/USBUART_1.c ****             for (i = 0u; i < (length >> 1u); ++i)
1896:Generated_Source\PSoC5/USBUART_1.c ****             {
1897:Generated_Source\PSoC5/USBUART_1.c ****                 USBUART_1_ARB_EP16_BASE.arbEp[epNumber].rwDr16 = dataBuf[i];
1898:Generated_Source\PSoC5/USBUART_1.c ****             }
1899:Generated_Source\PSoC5/USBUART_1.c ****         }
1900:Generated_Source\PSoC5/USBUART_1.c **** 
1901:Generated_Source\PSoC5/USBUART_1.c ****         /* IN endpoint buffer is full - read to be read. */
1902:Generated_Source\PSoC5/USBUART_1.c ****         USBUART_1_EP[epNumber].apiEpState = USBUART_1_NO_EVENT_PENDING;
1903:Generated_Source\PSoC5/USBUART_1.c **** 
1904:Generated_Source\PSoC5/USBUART_1.c ****         /* Arm IN endpoint. */
1905:Generated_Source\PSoC5/USBUART_1.c ****         USBUART_1_SIE_EP_BASE.sieEp[epNumber].epCr0 = USBUART_1_EP[epNumber].epMode;
1906:Generated_Source\PSoC5/USBUART_1.c **** 
1907:Generated_Source\PSoC5/USBUART_1.c ****     #else
1908:Generated_Source\PSoC5/USBUART_1.c **** 
1909:Generated_Source\PSoC5/USBUART_1.c ****         #if (USBUART_1_EP_MANAGEMENT_DMA_MANUAL)
1910:Generated_Source\PSoC5/USBUART_1.c ****             /* IN endpoint buffer will be fully loaded by DMA shortly. */
1911:Generated_Source\PSoC5/USBUART_1.c ****             USBUART_1_EP[epNumber].apiEpState = USBUART_1_NO_EVENT_PENDING;
1912:Generated_Source\PSoC5/USBUART_1.c **** 
1913:Generated_Source\PSoC5/USBUART_1.c ****             if ((pData != NULL) && (length > 0u))
1914:Generated_Source\PSoC5/USBUART_1.c ****             {
1915:Generated_Source\PSoC5/USBUART_1.c ****                 uint32 channelNum = (uint32) USBUART_1_DmaChan[epNumber];
1916:Generated_Source\PSoC5/USBUART_1.c **** 
1917:Generated_Source\PSoC5/USBUART_1.c ****                 /* Disable DMA channel: start configuration. */
1918:Generated_Source\PSoC5/USBUART_1.c ****                 USBUART_1_CyDmaChDisable(channelNum);
1919:Generated_Source\PSoC5/USBUART_1.c **** 
1920:Generated_Source\PSoC5/USBUART_1.c ****                 /* Configure source and destination. */
1921:Generated_Source\PSoC5/USBUART_1.c ****                 USBUART_1_CyDmaSetSrcAddress(channelNum, USBUART_1_DMA_DESCR0, (void*) pData);
1922:Generated_Source\PSoC5/USBUART_1.c ****                 USBUART_1_CyDmaSetDstAddress(channelNum, USBUART_1_DMA_DESCR0, (void*) &USBUART_1_A
1923:Generated_Source\PSoC5/USBUART_1.c **** 
1924:Generated_Source\PSoC5/USBUART_1.c ****                 /* Configure DMA descriptor. */
1925:Generated_Source\PSoC5/USBUART_1.c ****                 length = (length >> 1u) - 1u;
1926:Generated_Source\PSoC5/USBUART_1.c ****                 USBUART_1_CyDmaSetConfiguration(channelNum, USBUART_1_DMA_DESCR0, USBUART_1_DMA_COM
1927:Generated_Source\PSoC5/USBUART_1.c ****                                                         CYDMA_HALFWORD | CYDMA_ELEMENT_WORD | CYDMA
1928:Generated_Source\PSoC5/USBUART_1.c **** 
1929:Generated_Source\PSoC5/USBUART_1.c ****                 /* Validate descriptor to execute on following DMA request. */
1930:Generated_Source\PSoC5/USBUART_1.c ****                 USBUART_1_CyDmaValidateDescriptor(channelNum, USBUART_1_DMA_DESCR0);
1931:Generated_Source\PSoC5/USBUART_1.c **** 
1932:Generated_Source\PSoC5/USBUART_1.c ****                 /* Enable DMA channel: configuration complete. */
1933:Generated_Source\PSoC5/USBUART_1.c ****                 USBUART_1_CyDmaChEnable(channelNum);
ARM GAS  C:\Users\jon\AppData\Local\Temp\ccwaPz7c.s 			page 58


1934:Generated_Source\PSoC5/USBUART_1.c **** 
1935:Generated_Source\PSoC5/USBUART_1.c ****                 /* Generate DMA request. */
1936:Generated_Source\PSoC5/USBUART_1.c ****                 USBUART_1_ARB_EP_BASE.arbEp[epNumber].epCfg |=  (uint32)  USBUART_1_ARB_EPX_CFG_DMA
1937:Generated_Source\PSoC5/USBUART_1.c ****                 USBUART_1_ARB_EP_BASE.arbEp[epNumber].epCfg &=  (uint32) ~USBUART_1_ARB_EPX_CFG_DMA
1938:Generated_Source\PSoC5/USBUART_1.c **** 
1939:Generated_Source\PSoC5/USBUART_1.c ****                 /* IN endpoint will be armed in ARB_ISR(source: IN_BUF_FULL) after first DMA transf
1940:Generated_Source\PSoC5/USBUART_1.c ****             }
1941:Generated_Source\PSoC5/USBUART_1.c ****             else
1942:Generated_Source\PSoC5/USBUART_1.c ****             {
1943:Generated_Source\PSoC5/USBUART_1.c ****                 /* When zero-length packet: arm IN endpoint directly. */
1944:Generated_Source\PSoC5/USBUART_1.c ****                 USBUART_1_SIE_EP_BASE.sieEp[epNumber].epCr0 = USBUART_1_EP[epNumber].epMode;
1945:Generated_Source\PSoC5/USBUART_1.c ****             }
1946:Generated_Source\PSoC5/USBUART_1.c ****         #endif /* (USBUART_1_EP_MANAGEMENT_DMA_MANUAL) */
1947:Generated_Source\PSoC5/USBUART_1.c **** 
1948:Generated_Source\PSoC5/USBUART_1.c ****         #if (USBUART_1_EP_MANAGEMENT_DMA_AUTO)
1949:Generated_Source\PSoC5/USBUART_1.c ****             if (pData != NULL)
1950:Generated_Source\PSoC5/USBUART_1.c ****             {
1951:Generated_Source\PSoC5/USBUART_1.c ****                 uint32 channelNum = (uint32) USBUART_1_DmaChan[epNumber];
1952:Generated_Source\PSoC5/USBUART_1.c **** 
1953:Generated_Source\PSoC5/USBUART_1.c ****                 /* Store address of buffer. */
1954:Generated_Source\PSoC5/USBUART_1.c ****                 USBUART_1_DmaEpBufferAddrBackup[epNumber] = (uint32) pData;
1955:Generated_Source\PSoC5/USBUART_1.c **** 
1956:Generated_Source\PSoC5/USBUART_1.c ****                 /* Disable DMA channel: start configuration. */
1957:Generated_Source\PSoC5/USBUART_1.c ****                 USBUART_1_CyDmaChDisable(channelNum);
1958:Generated_Source\PSoC5/USBUART_1.c **** 
1959:Generated_Source\PSoC5/USBUART_1.c ****                 /* Set destination address. */
1960:Generated_Source\PSoC5/USBUART_1.c ****                 USBUART_1_CyDmaSetDstAddress(channelNum, USBUART_1_DMA_DESCR0, (void*) &USBUART_1_A
1961:Generated_Source\PSoC5/USBUART_1.c ****                 USBUART_1_CyDmaSetDstAddress(channelNum, USBUART_1_DMA_DESCR1, (void*) &USBUART_1_A
1962:Generated_Source\PSoC5/USBUART_1.c **** 
1963:Generated_Source\PSoC5/USBUART_1.c ****                 /* Configure DMA descriptor. */
1964:Generated_Source\PSoC5/USBUART_1.c ****                 USBUART_1_CyDmaSetConfiguration(channelNum, USBUART_1_DMA_DESCR0, USBUART_1_DMA_COM
1965:Generated_Source\PSoC5/USBUART_1.c ****                                                         CYDMA_HALFWORD | CYDMA_ELEMENT_WORD | CYDMA
1966:Generated_Source\PSoC5/USBUART_1.c **** 
1967:Generated_Source\PSoC5/USBUART_1.c ****                 /* Configure DMA descriptor. */
1968:Generated_Source\PSoC5/USBUART_1.c ****                 USBUART_1_CyDmaSetConfiguration(channelNum, USBUART_1_DMA_DESCR1, USBUART_1_DMA_COM
1969:Generated_Source\PSoC5/USBUART_1.c ****                                                         CYDMA_HALFWORD | CYDMA_ELEMENT_WORD | CYDMA
1970:Generated_Source\PSoC5/USBUART_1.c **** 
1971:Generated_Source\PSoC5/USBUART_1.c ****                 /* Enable interrupt from DMA channel. */
1972:Generated_Source\PSoC5/USBUART_1.c ****                 USBUART_1_CyDmaSetInterruptMask(channelNum);
1973:Generated_Source\PSoC5/USBUART_1.c **** 
1974:Generated_Source\PSoC5/USBUART_1.c ****                 /* Enable DMA channel: configuration complete. */
1975:Generated_Source\PSoC5/USBUART_1.c ****                 USBUART_1_CyDmaChEnable(channelNum);
1976:Generated_Source\PSoC5/USBUART_1.c ****             }
1977:Generated_Source\PSoC5/USBUART_1.c ****             else
1978:Generated_Source\PSoC5/USBUART_1.c ****             {
1979:Generated_Source\PSoC5/USBUART_1.c ****                 /* IN endpoint buffer (32 bytes) will shortly be preloaded by DMA. */
1980:Generated_Source\PSoC5/USBUART_1.c ****                 USBUART_1_EP[epNumber].apiEpState = USBUART_1_NO_EVENT_PENDING;
1981:Generated_Source\PSoC5/USBUART_1.c **** 
1982:Generated_Source\PSoC5/USBUART_1.c ****                 if (length > 0u)
1983:Generated_Source\PSoC5/USBUART_1.c ****                 {
1984:Generated_Source\PSoC5/USBUART_1.c ****                     uint32 lengthDescr0, lengthDescr1;
1985:Generated_Source\PSoC5/USBUART_1.c ****                     uint32 channelNum = (uint32) USBUART_1_DmaChan[epNumber];
1986:Generated_Source\PSoC5/USBUART_1.c **** 
1987:Generated_Source\PSoC5/USBUART_1.c ****                     /* Get number of full bursts. */
1988:Generated_Source\PSoC5/USBUART_1.c ****                     USBUART_1_DmaEpBurstCnt[epNumber] = (uint8) (length / USBUART_1_DMA_BYTES_PER_B
1989:Generated_Source\PSoC5/USBUART_1.c **** 
1990:Generated_Source\PSoC5/USBUART_1.c ****                     /* Get number of elements in the last burst. */
ARM GAS  C:\Users\jon\AppData\Local\Temp\ccwaPz7c.s 			page 59


1991:Generated_Source\PSoC5/USBUART_1.c ****                     USBUART_1_DmaEpLastBurstEl[epNumber] = (uint8) (length % USBUART_1_DMA_BYTES_PE
1992:Generated_Source\PSoC5/USBUART_1.c **** 
1993:Generated_Source\PSoC5/USBUART_1.c ****                     /* Get total number of bursts. */
1994:Generated_Source\PSoC5/USBUART_1.c ****                     USBUART_1_DmaEpBurstCnt[epNumber] += (0u != USBUART_1_DmaEpLastBurstEl[epNumber
1995:Generated_Source\PSoC5/USBUART_1.c **** 
1996:Generated_Source\PSoC5/USBUART_1.c ****                     /* Adjust number of data elements transferred in last burst. */
1997:Generated_Source\PSoC5/USBUART_1.c ****                     USBUART_1_DmaEpLastBurstEl[epNumber] = (0u != USBUART_1_DmaEpLastBurstEl[epNumb
1998:Generated_Source\PSoC5/USBUART_1.c ****                                                                           ((USBUART_1_DmaEpLastBurs
1999:Generated_Source\PSoC5/USBUART_1.c ****                                                                            (USBUART_1_DMA_HALFWORDS
2000:Generated_Source\PSoC5/USBUART_1.c **** 
2001:Generated_Source\PSoC5/USBUART_1.c ****                     /* Get number of data elements to transfer for descriptor 0 and 1. */
2002:Generated_Source\PSoC5/USBUART_1.c ****                     lengthDescr0 = (1u == USBUART_1_DmaEpBurstCnt[epNumber]) ? USBUART_1_DmaEpLastB
2003:Generated_Source\PSoC5/USBUART_1.c ****                     lengthDescr1 = (2u == USBUART_1_DmaEpBurstCnt[epNumber]) ? USBUART_1_DmaEpLastB
2004:Generated_Source\PSoC5/USBUART_1.c **** 
2005:Generated_Source\PSoC5/USBUART_1.c ****                     /* Mark which descriptor is last one to execute. */
2006:Generated_Source\PSoC5/USBUART_1.c ****                     USBUART_1_DmaEpLastBurstEl[epNumber] |= (0u != (USBUART_1_DmaEpBurstCnt[epNumbe
2007:Generated_Source\PSoC5/USBUART_1.c ****                                                                             USBUART_1_DMA_DESCR0_MA
2008:Generated_Source\PSoC5/USBUART_1.c **** 
2009:Generated_Source\PSoC5/USBUART_1.c ****                     /* Restore DMA settings for current transfer. */
2010:Generated_Source\PSoC5/USBUART_1.c ****                     USBUART_1_CyDmaChDisable(channelNum);
2011:Generated_Source\PSoC5/USBUART_1.c **** 
2012:Generated_Source\PSoC5/USBUART_1.c ****                     /* Restore destination address for input endpoint. */
2013:Generated_Source\PSoC5/USBUART_1.c ****                     USBUART_1_CyDmaSetSrcAddress(channelNum, USBUART_1_DMA_DESCR0, (void*) ((uint32
2014:Generated_Source\PSoC5/USBUART_1.c ****                     USBUART_1_CyDmaSetSrcAddress(channelNum, USBUART_1_DMA_DESCR1, (void*) ((uint32
2015:Generated_Source\PSoC5/USBUART_1.c ****                                                                                                    
2016:Generated_Source\PSoC5/USBUART_1.c **** 
2017:Generated_Source\PSoC5/USBUART_1.c ****                     /* Set number of elements to transfer. */
2018:Generated_Source\PSoC5/USBUART_1.c ****                     USBUART_1_CyDmaSetNumDataElements(channelNum, USBUART_1_DMA_DESCR0, lengthDescr
2019:Generated_Source\PSoC5/USBUART_1.c ****                     USBUART_1_CyDmaSetNumDataElements(channelNum, USBUART_1_DMA_DESCR1, lengthDescr
2020:Generated_Source\PSoC5/USBUART_1.c **** 
2021:Generated_Source\PSoC5/USBUART_1.c ****                     /* Validate descriptor 0 and command to start with it. */
2022:Generated_Source\PSoC5/USBUART_1.c ****                     USBUART_1_CyDmaValidateDescriptor(channelNum, USBUART_1_DMA_DESCR0);
2023:Generated_Source\PSoC5/USBUART_1.c ****                     USBUART_1_CyDmaSetDescriptor0Next(channelNum);
2024:Generated_Source\PSoC5/USBUART_1.c **** 
2025:Generated_Source\PSoC5/USBUART_1.c ****                     /* Validate descriptor 1. */
2026:Generated_Source\PSoC5/USBUART_1.c ****                     if (USBUART_1_DmaEpBurstCnt[epNumber] > 1u)
2027:Generated_Source\PSoC5/USBUART_1.c ****                     {
2028:Generated_Source\PSoC5/USBUART_1.c ****                         USBUART_1_CyDmaValidateDescriptor(channelNum, USBUART_1_DMA_DESCR1);
2029:Generated_Source\PSoC5/USBUART_1.c ****                     }
2030:Generated_Source\PSoC5/USBUART_1.c **** 
2031:Generated_Source\PSoC5/USBUART_1.c ****                     /* Adjust burst counter taking to account: 2 valid descriptors and interrupt tr
2032:Generated_Source\PSoC5/USBUART_1.c ****                     USBUART_1_DmaEpBurstCnt[epNumber] = USBUART_1_DMA_GET_BURST_CNT(USBUART_1_DmaEp
2033:Generated_Source\PSoC5/USBUART_1.c **** 
2034:Generated_Source\PSoC5/USBUART_1.c ****                     /* Enable DMA channel: configuration complete. */
2035:Generated_Source\PSoC5/USBUART_1.c ****                     USBUART_1_CyDmaChEnable(channelNum);
2036:Generated_Source\PSoC5/USBUART_1.c **** 
2037:Generated_Source\PSoC5/USBUART_1.c ****                 #if !defined (USBUART_1_MANUAL_IN_EP_ARM)
2038:Generated_Source\PSoC5/USBUART_1.c ****                     /* Set IN data ready to generate DMA request to load data into endpoint buffer.
2039:Generated_Source\PSoC5/USBUART_1.c ****                     USBUART_1_ARB_EP_BASE.arbEp[epNumber].epCfg |= USBUART_1_ARB_EPX_CFG_IN_DATA_RD
2040:Generated_Source\PSoC5/USBUART_1.c ****                 #endif  /* (USBUART_1_MANUAL_IN_EP_ARM) */
2041:Generated_Source\PSoC5/USBUART_1.c **** 
2042:Generated_Source\PSoC5/USBUART_1.c ****                     /* IN endpoint will be armed in ARB_ISR(source: IN_BUF_FULL) after first DMA tr
2043:Generated_Source\PSoC5/USBUART_1.c ****                 }
2044:Generated_Source\PSoC5/USBUART_1.c ****                 else
2045:Generated_Source\PSoC5/USBUART_1.c ****                 {
2046:Generated_Source\PSoC5/USBUART_1.c ****                     /* When zero-length packet: arm IN endpoint directly. */
2047:Generated_Source\PSoC5/USBUART_1.c ****                     USBUART_1_SIE_EP_BASE.sieEp[epNumber].epCr0 = USBUART_1_EP[epNumber].epMode;
ARM GAS  C:\Users\jon\AppData\Local\Temp\ccwaPz7c.s 			page 60


2048:Generated_Source\PSoC5/USBUART_1.c ****                 }
2049:Generated_Source\PSoC5/USBUART_1.c ****             }
2050:Generated_Source\PSoC5/USBUART_1.c ****         #endif /* (USBUART_1_EP_MANAGEMENT_DMA_AUTO) */
2051:Generated_Source\PSoC5/USBUART_1.c ****     #endif /* (USBUART_1_EP_MANAGEMENT_MANUAL) */
2052:Generated_Source\PSoC5/USBUART_1.c ****     }
2053:Generated_Source\PSoC5/USBUART_1.c **** }
2054:Generated_Source\PSoC5/USBUART_1.c **** 
2055:Generated_Source\PSoC5/USBUART_1.c **** 
2056:Generated_Source\PSoC5/USBUART_1.c **** /*******************************************************************************
2057:Generated_Source\PSoC5/USBUART_1.c **** * Function Name: USBUART_1_ReadOutEP16
2058:Generated_Source\PSoC5/USBUART_1.c **** ****************************************************************************//**
2059:Generated_Source\PSoC5/USBUART_1.c **** *
2060:Generated_Source\PSoC5/USBUART_1.c **** *   This function performs different functionality depending on the Component’s
2061:Generated_Source\PSoC5/USBUART_1.c **** *   configured Endpoint Buffer Management. This parameter is defined in the
2062:Generated_Source\PSoC5/USBUART_1.c **** *   Descriptor Root in Component Configure window.
2063:Generated_Source\PSoC5/USBUART_1.c **** *
2064:Generated_Source\PSoC5/USBUART_1.c **** *   *Manual (Static/Dynamic Allocation):*
2065:Generated_Source\PSoC5/USBUART_1.c **** *   This function moves the specified number of bytes from endpoint buffer to
2066:Generated_Source\PSoC5/USBUART_1.c **** *   system RAM. The number of bytes actually transferred from endpoint buffer to
2067:Generated_Source\PSoC5/USBUART_1.c **** *   system RAM is the lesser of the actual number of bytes sent by the host or
2068:Generated_Source\PSoC5/USBUART_1.c **** *   the number of bytes requested by the length parameter.
2069:Generated_Source\PSoC5/USBUART_1.c **** *
2070:Generated_Source\PSoC5/USBUART_1.c **** *   *DMA with Manual Buffer Management:*
2071:Generated_Source\PSoC5/USBUART_1.c **** *   Configure DMA to transfer data from endpoint buffer to system RAM. Generate
2072:Generated_Source\PSoC5/USBUART_1.c **** *   a DMA request. The firmware must wait until the DMA completes the data
2073:Generated_Source\PSoC5/USBUART_1.c **** *   transfer after calling the USBUART_1_ReadOutEP() API. For example,
2074:Generated_Source\PSoC5/USBUART_1.c **** *   by checking EPstate:
2075:Generated_Source\PSoC5/USBUART_1.c **** *
2076:Generated_Source\PSoC5/USBUART_1.c **** *   \snippet /USBFS_sut_02.cydsn/main.c checking EPstatey
2077:Generated_Source\PSoC5/USBUART_1.c **** *
2078:Generated_Source\PSoC5/USBUART_1.c **** *   The USBFS_EnableOutEP() has to be called to allow host to write data into
2079:Generated_Source\PSoC5/USBUART_1.c **** *   the endpoint buffer after DMA has completed transfer data from OUT endpoint
2080:Generated_Source\PSoC5/USBUART_1.c **** *   buffer to SRAM.
2081:Generated_Source\PSoC5/USBUART_1.c **** *
2082:Generated_Source\PSoC5/USBUART_1.c **** *   *DMA with Automatic Buffer Management:*
2083:Generated_Source\PSoC5/USBUART_1.c **** *   Configure DMA. This is required only once and automatically generates DMA
2084:Generated_Source\PSoC5/USBUART_1.c **** *   requests as data arrives
2085:Generated_Source\PSoC5/USBUART_1.c **** *
2086:Generated_Source\PSoC5/USBUART_1.c **** *  \param epNumber: Contains the data endpoint number.
2087:Generated_Source\PSoC5/USBUART_1.c **** *         Valid values are between 1 and 8.
2088:Generated_Source\PSoC5/USBUART_1.c **** *  \param pData: A pointer to a data array into which the data for the endpoint
2089:Generated_Source\PSoC5/USBUART_1.c **** *         space is copied. It shall be ensured that this pointer address is
2090:Generated_Source\PSoC5/USBUART_1.c **** *         even to ensure the 16-bit transfer is aligned to even address. Else,
2091:Generated_Source\PSoC5/USBUART_1.c **** *         a hard fault condition can occur.
2092:Generated_Source\PSoC5/USBUART_1.c **** *  \param length: The number of bytes to transfer from the USB Out endpoint and
2093:Generated_Source\PSoC5/USBUART_1.c **** *         loads it into data array. Valid values are between 0 and 1023. The
2094:Generated_Source\PSoC5/USBUART_1.c **** *         function moves fewer than the requested number of bytes if the host
2095:Generated_Source\PSoC5/USBUART_1.c **** *         sends fewer bytes than requested.
2096:Generated_Source\PSoC5/USBUART_1.c **** *
2097:Generated_Source\PSoC5/USBUART_1.c **** * \return
2098:Generated_Source\PSoC5/USBUART_1.c **** *  Number of bytes received, 0 for an invalid endpoint.
2099:Generated_Source\PSoC5/USBUART_1.c **** *
2100:Generated_Source\PSoC5/USBUART_1.c **** * \reentrant
2101:Generated_Source\PSoC5/USBUART_1.c **** *  No.
2102:Generated_Source\PSoC5/USBUART_1.c **** *
2103:Generated_Source\PSoC5/USBUART_1.c **** *******************************************************************************/
2104:Generated_Source\PSoC5/USBUART_1.c **** uint16 USBUART_1_ReadOutEP16(uint8 epNumber, uint8 pData[], uint16 length)
ARM GAS  C:\Users\jon\AppData\Local\Temp\ccwaPz7c.s 			page 61


2105:Generated_Source\PSoC5/USBUART_1.c **** {
2106:Generated_Source\PSoC5/USBUART_1.c ****     uint32 adjLength;
2107:Generated_Source\PSoC5/USBUART_1.c **** 
2108:Generated_Source\PSoC5/USBUART_1.c ****     /* Check array alignment on half-word boundary */
2109:Generated_Source\PSoC5/USBUART_1.c ****     CYASSERT(0u == (((uint32) pData) & 0x01u));
2110:Generated_Source\PSoC5/USBUART_1.c **** 
2111:Generated_Source\PSoC5/USBUART_1.c ****     if ((pData != NULL) && (epNumber > USBUART_1_EP0) && (epNumber < USBUART_1_MAX_EP))
2112:Generated_Source\PSoC5/USBUART_1.c ****     {
2113:Generated_Source\PSoC5/USBUART_1.c ****     #if (!USBUART_1_EP_MANAGEMENT_DMA_AUTO)
2114:Generated_Source\PSoC5/USBUART_1.c ****         /* Adjust requested length to available data. */
2115:Generated_Source\PSoC5/USBUART_1.c ****         length = (length > USBUART_1_GetEPCount(epNumber)) ? USBUART_1_GetEPCount(epNumber) : lengt
2116:Generated_Source\PSoC5/USBUART_1.c ****     #endif /* (!USBUART_1_EP_MANAGEMENT_DMA_AUTO) */
2117:Generated_Source\PSoC5/USBUART_1.c **** 
2118:Generated_Source\PSoC5/USBUART_1.c ****     /* Adjust requested length: 2 bytes are handled at one data register access. */
2119:Generated_Source\PSoC5/USBUART_1.c ****     adjLength =  length + ((uint32)length & 1u);
2120:Generated_Source\PSoC5/USBUART_1.c **** 
2121:Generated_Source\PSoC5/USBUART_1.c ****     #if (USBUART_1_EP_MANAGEMENT_MANUAL)
2122:Generated_Source\PSoC5/USBUART_1.c ****         {
2123:Generated_Source\PSoC5/USBUART_1.c ****             /* Convert uint8 array to uint16. */
2124:Generated_Source\PSoC5/USBUART_1.c ****             uint16 *dataBuf = (uint16 *) pData;
2125:Generated_Source\PSoC5/USBUART_1.c **** 
2126:Generated_Source\PSoC5/USBUART_1.c ****             /* Copy data using 16-bits arbiter data register. */
2127:Generated_Source\PSoC5/USBUART_1.c ****             uint16 i;
2128:Generated_Source\PSoC5/USBUART_1.c ****             for (i = 0u; i < (adjLength >> 1u); ++i)
2129:Generated_Source\PSoC5/USBUART_1.c ****             {
2130:Generated_Source\PSoC5/USBUART_1.c ****                 dataBuf[i] = (uint16) USBUART_1_ARB_EP16_BASE.arbEp[epNumber].rwDr16;
2131:Generated_Source\PSoC5/USBUART_1.c ****             }
2132:Generated_Source\PSoC5/USBUART_1.c ****         }
2133:Generated_Source\PSoC5/USBUART_1.c **** 
2134:Generated_Source\PSoC5/USBUART_1.c ****         /* Arm OUT endpoint after data has been read from endpoint buffer. */
2135:Generated_Source\PSoC5/USBUART_1.c ****         USBUART_1_EnableOutEP(epNumber);
2136:Generated_Source\PSoC5/USBUART_1.c ****     #else
2137:Generated_Source\PSoC5/USBUART_1.c **** 
2138:Generated_Source\PSoC5/USBUART_1.c ****         #if (USBUART_1_EP_MANAGEMENT_DMA_MANUAL)
2139:Generated_Source\PSoC5/USBUART_1.c ****         {
2140:Generated_Source\PSoC5/USBUART_1.c ****             uint32 channelNum = (uint32) USBUART_1_DmaChan[epNumber];
2141:Generated_Source\PSoC5/USBUART_1.c **** 
2142:Generated_Source\PSoC5/USBUART_1.c ****             /* Disable DMA channel: start configuration. */
2143:Generated_Source\PSoC5/USBUART_1.c ****             USBUART_1_CyDmaChDisable(channelNum);
2144:Generated_Source\PSoC5/USBUART_1.c **** 
2145:Generated_Source\PSoC5/USBUART_1.c ****             /* Configure source and destination. */
2146:Generated_Source\PSoC5/USBUART_1.c ****             USBUART_1_CyDmaSetSrcAddress(channelNum, USBUART_1_DMA_DESCR0, (void*) &USBUART_1_ARB_E
2147:Generated_Source\PSoC5/USBUART_1.c ****             USBUART_1_CyDmaSetDstAddress(channelNum, USBUART_1_DMA_DESCR0, (void*) pData);
2148:Generated_Source\PSoC5/USBUART_1.c **** 
2149:Generated_Source\PSoC5/USBUART_1.c ****             /* Configure DMA descriptor. */
2150:Generated_Source\PSoC5/USBUART_1.c ****             USBUART_1_CyDmaSetConfiguration(channelNum, USBUART_1_DMA_DESCR0, USBUART_1_DMA_COMMON_
2151:Generated_Source\PSoC5/USBUART_1.c ****                                                     CYDMA_HALFWORD | CYDMA_WORD_ELEMENT | CYDMA_INC
2152:Generated_Source\PSoC5/USBUART_1.c **** 
2153:Generated_Source\PSoC5/USBUART_1.c ****             /* Validate descriptor to execute on following DMA request. */
2154:Generated_Source\PSoC5/USBUART_1.c ****             USBUART_1_CyDmaValidateDescriptor(channelNum, USBUART_1_DMA_DESCR0);
2155:Generated_Source\PSoC5/USBUART_1.c **** 
2156:Generated_Source\PSoC5/USBUART_1.c ****             /* Enable DMA channel: configuration complete. */
2157:Generated_Source\PSoC5/USBUART_1.c ****             USBUART_1_CyDmaChEnable(channelNum);
2158:Generated_Source\PSoC5/USBUART_1.c **** 
2159:Generated_Source\PSoC5/USBUART_1.c ****             /* Generate DMA request. */
2160:Generated_Source\PSoC5/USBUART_1.c ****             USBUART_1_ARB_EP_BASE.arbEp[epNumber].epCfg |=  (uint32)  USBUART_1_ARB_EPX_CFG_DMA_REQ
2161:Generated_Source\PSoC5/USBUART_1.c ****             USBUART_1_ARB_EP_BASE.arbEp[epNumber].epCfg &=  (uint32) ~USBUART_1_ARB_EPX_CFG_DMA_REQ
ARM GAS  C:\Users\jon\AppData\Local\Temp\ccwaPz7c.s 			page 62


2162:Generated_Source\PSoC5/USBUART_1.c **** 
2163:Generated_Source\PSoC5/USBUART_1.c ****             /* OUT endpoint has to be armed again by user when DMA transfers have been completed.
2164:Generated_Source\PSoC5/USBUART_1.c ****             * NO_EVENT_PENDING: notifies that data has been copied from endpoint buffer.
2165:Generated_Source\PSoC5/USBUART_1.c ****             */
2166:Generated_Source\PSoC5/USBUART_1.c ****         }
2167:Generated_Source\PSoC5/USBUART_1.c ****         #endif /* (USBUART_1_EP_MANAGEMENT_DMA_MANUAL) */
2168:Generated_Source\PSoC5/USBUART_1.c **** 
2169:Generated_Source\PSoC5/USBUART_1.c ****         #if (USBUART_1_EP_MANAGEMENT_DMA_AUTO)
2170:Generated_Source\PSoC5/USBUART_1.c ****         {
2171:Generated_Source\PSoC5/USBUART_1.c ****             uint32 lengthDescr0, lengthDescr1;
2172:Generated_Source\PSoC5/USBUART_1.c ****             uint32 channelNum = (uint32) USBUART_1_DmaChan[epNumber];
2173:Generated_Source\PSoC5/USBUART_1.c **** 
2174:Generated_Source\PSoC5/USBUART_1.c ****             /* Get number of full bursts. */
2175:Generated_Source\PSoC5/USBUART_1.c ****             USBUART_1_DmaEpBurstCnt[epNumber] = (uint8) (adjLength / USBUART_1_DMA_BYTES_PER_BURST)
2176:Generated_Source\PSoC5/USBUART_1.c **** 
2177:Generated_Source\PSoC5/USBUART_1.c ****             /* Get number of elements in last burst. */
2178:Generated_Source\PSoC5/USBUART_1.c ****             USBUART_1_DmaEpLastBurstEl[epNumber] = (uint8) (adjLength % USBUART_1_DMA_BYTES_PER_BUR
2179:Generated_Source\PSoC5/USBUART_1.c **** 
2180:Generated_Source\PSoC5/USBUART_1.c ****             /* Get total number of bursts. */
2181:Generated_Source\PSoC5/USBUART_1.c ****             USBUART_1_DmaEpBurstCnt[epNumber] += (0u != USBUART_1_DmaEpLastBurstEl[epNumber]) ? 1u 
2182:Generated_Source\PSoC5/USBUART_1.c **** 
2183:Generated_Source\PSoC5/USBUART_1.c ****             /* Adjust number of data elements transferred in last burst. */
2184:Generated_Source\PSoC5/USBUART_1.c ****             USBUART_1_DmaEpLastBurstEl[epNumber] = (0u != USBUART_1_DmaEpLastBurstEl[epNumber]) ?
2185:Generated_Source\PSoC5/USBUART_1.c ****                                                                   ((USBUART_1_DmaEpLastBurstEl[epNu
2186:Generated_Source\PSoC5/USBUART_1.c ****                                                                    (USBUART_1_DMA_HALFWORDS_PER_BUR
2187:Generated_Source\PSoC5/USBUART_1.c **** 
2188:Generated_Source\PSoC5/USBUART_1.c ****             /* Get number of data elements to transfer for descriptor 0 and 1. */
2189:Generated_Source\PSoC5/USBUART_1.c ****             lengthDescr0 = (1u == USBUART_1_DmaEpBurstCnt[epNumber]) ? USBUART_1_DmaEpLastBurstEl[e
2190:Generated_Source\PSoC5/USBUART_1.c ****             lengthDescr1 = (2u == USBUART_1_DmaEpBurstCnt[epNumber]) ? USBUART_1_DmaEpLastBurstEl[e
2191:Generated_Source\PSoC5/USBUART_1.c **** 
2192:Generated_Source\PSoC5/USBUART_1.c ****             /* Mark last descriptor to be executed. */
2193:Generated_Source\PSoC5/USBUART_1.c ****             USBUART_1_DmaEpLastBurstEl[epNumber] |= (0u != (USBUART_1_DmaEpBurstCnt[epNumber] & 0x1
2194:Generated_Source\PSoC5/USBUART_1.c ****                                                                     USBUART_1_DMA_DESCR0_MASK : USB
2195:Generated_Source\PSoC5/USBUART_1.c **** 
2196:Generated_Source\PSoC5/USBUART_1.c ****             /* Mark if revert number of data elements in descriptor after transfer completion. */
2197:Generated_Source\PSoC5/USBUART_1.c ****             USBUART_1_DmaEpLastBurstEl[epNumber] |= (USBUART_1_DmaEpBurstCnt[epNumber] > 2u) ? USBU
2198:Generated_Source\PSoC5/USBUART_1.c **** 
2199:Generated_Source\PSoC5/USBUART_1.c ****             /* Mark that 16-bits access to data register is performed. */
2200:Generated_Source\PSoC5/USBUART_1.c ****             USBUART_1_DmaEpLastBurstEl[epNumber] |= USBUART_1_DMA_DESCR_16BITS;
2201:Generated_Source\PSoC5/USBUART_1.c **** 
2202:Generated_Source\PSoC5/USBUART_1.c ****             /* Store address of buffer and burst counter for endpoint. */
2203:Generated_Source\PSoC5/USBUART_1.c ****             USBUART_1_DmaEpBufferAddrBackup[epNumber] = (uint32) pData;
2204:Generated_Source\PSoC5/USBUART_1.c ****             USBUART_1_DmaEpBurstCntBackup[epNumber]   = USBUART_1_DmaEpBurstCnt[epNumber];
2205:Generated_Source\PSoC5/USBUART_1.c **** 
2206:Generated_Source\PSoC5/USBUART_1.c ****             /* Adjust burst counter taking to account: 2 valid descriptors and interrupt trigger af
2207:Generated_Source\PSoC5/USBUART_1.c ****             USBUART_1_DmaEpBurstCnt[epNumber] = USBUART_1_DMA_GET_BURST_CNT(USBUART_1_DmaEpBurstCnt
2208:Generated_Source\PSoC5/USBUART_1.c **** 
2209:Generated_Source\PSoC5/USBUART_1.c ****             /* Disable DMA channel: start configuration. */
2210:Generated_Source\PSoC5/USBUART_1.c ****             USBUART_1_CyDmaChDisable(channelNum);
2211:Generated_Source\PSoC5/USBUART_1.c **** 
2212:Generated_Source\PSoC5/USBUART_1.c ****             /* Set destination address. */
2213:Generated_Source\PSoC5/USBUART_1.c ****             USBUART_1_CyDmaSetSrcAddress(channelNum, USBUART_1_DMA_DESCR0, (void*) &USBUART_1_ARB_E
2214:Generated_Source\PSoC5/USBUART_1.c ****             USBUART_1_CyDmaSetSrcAddress(channelNum, USBUART_1_DMA_DESCR1, (void*) &USBUART_1_ARB_E
2215:Generated_Source\PSoC5/USBUART_1.c **** 
2216:Generated_Source\PSoC5/USBUART_1.c ****             USBUART_1_CyDmaSetDstAddress(channelNum, USBUART_1_DMA_DESCR0, (void*) ((uint32) pData)
2217:Generated_Source\PSoC5/USBUART_1.c ****             USBUART_1_CyDmaSetDstAddress(channelNum, USBUART_1_DMA_DESCR1, (void*) ((uint32) pData 
2218:Generated_Source\PSoC5/USBUART_1.c **** 
ARM GAS  C:\Users\jon\AppData\Local\Temp\ccwaPz7c.s 			page 63


2219:Generated_Source\PSoC5/USBUART_1.c ****             /* Configure DMA descriptor 0. */
2220:Generated_Source\PSoC5/USBUART_1.c ****             USBUART_1_CyDmaSetConfiguration(channelNum, USBUART_1_DMA_DESCR0, USBUART_1_DMA_COMMON_
2221:Generated_Source\PSoC5/USBUART_1.c ****                                                     CYDMA_HALFWORD | CYDMA_WORD_ELEMENT | CYDMA_INC
2222:Generated_Source\PSoC5/USBUART_1.c **** 
2223:Generated_Source\PSoC5/USBUART_1.c ****             /* Configure DMA descriptor 1. */
2224:Generated_Source\PSoC5/USBUART_1.c ****             USBUART_1_CyDmaSetConfiguration(channelNum, USBUART_1_DMA_DESCR1, USBUART_1_DMA_COMMON_
2225:Generated_Source\PSoC5/USBUART_1.c ****                                                     CYDMA_HALFWORD | CYDMA_WORD_ELEMENT | CYDMA_INC
2226:Generated_Source\PSoC5/USBUART_1.c **** 
2227:Generated_Source\PSoC5/USBUART_1.c ****             /* Enable interrupt from DMA channel. */
2228:Generated_Source\PSoC5/USBUART_1.c ****             USBUART_1_CyDmaSetInterruptMask(channelNum);
2229:Generated_Source\PSoC5/USBUART_1.c **** 
2230:Generated_Source\PSoC5/USBUART_1.c ****             /* Validate DMA descriptor 0 and 1. */
2231:Generated_Source\PSoC5/USBUART_1.c ****             USBUART_1_CyDmaValidateDescriptor(channelNum, USBUART_1_DMA_DESCR0);
2232:Generated_Source\PSoC5/USBUART_1.c ****             
2233:Generated_Source\PSoC5/USBUART_1.c ****             if (USBUART_1_DmaEpBurstCntBackup[epNumber] > 1u)
2234:Generated_Source\PSoC5/USBUART_1.c ****             {
2235:Generated_Source\PSoC5/USBUART_1.c ****                 USBUART_1_CyDmaValidateDescriptor(channelNum, USBUART_1_DMA_DESCR1);
2236:Generated_Source\PSoC5/USBUART_1.c ****             }
2237:Generated_Source\PSoC5/USBUART_1.c **** 
2238:Generated_Source\PSoC5/USBUART_1.c ****             /* Enable DMA channel: configuration complete. */
2239:Generated_Source\PSoC5/USBUART_1.c ****             USBUART_1_CyDmaChEnable(channelNum);
2240:Generated_Source\PSoC5/USBUART_1.c **** 
2241:Generated_Source\PSoC5/USBUART_1.c ****             /* OUT endpoint has to be armed again by user when DMA transfers have been completed.
2242:Generated_Source\PSoC5/USBUART_1.c ****             * NO_EVENT_PENDING: notifies that data has been copied from endpoint buffer.
2243:Generated_Source\PSoC5/USBUART_1.c ****             */
2244:Generated_Source\PSoC5/USBUART_1.c ****         }
2245:Generated_Source\PSoC5/USBUART_1.c ****         #endif /* (USBUART_1_EP_MANAGEMENT_DMA_AUTO) */
2246:Generated_Source\PSoC5/USBUART_1.c ****     #endif /* (USBUART_1_EP_MANAGEMENT_MANUAL) */
2247:Generated_Source\PSoC5/USBUART_1.c ****     }
2248:Generated_Source\PSoC5/USBUART_1.c ****     else
2249:Generated_Source\PSoC5/USBUART_1.c ****     {
2250:Generated_Source\PSoC5/USBUART_1.c ****         length = 0u;
2251:Generated_Source\PSoC5/USBUART_1.c ****     }
2252:Generated_Source\PSoC5/USBUART_1.c **** 
2253:Generated_Source\PSoC5/USBUART_1.c ****     return (length);
2254:Generated_Source\PSoC5/USBUART_1.c **** }
2255:Generated_Source\PSoC5/USBUART_1.c **** #endif /* (USBUART_1_16BITS_EP_ACCESS_ENABLE) */
2256:Generated_Source\PSoC5/USBUART_1.c **** 
2257:Generated_Source\PSoC5/USBUART_1.c **** 
2258:Generated_Source\PSoC5/USBUART_1.c **** /*******************************************************************************
2259:Generated_Source\PSoC5/USBUART_1.c **** * Function Name: USBUART_1_EnableOutEP
2260:Generated_Source\PSoC5/USBUART_1.c **** ****************************************************************************//**
2261:Generated_Source\PSoC5/USBUART_1.c **** *
2262:Generated_Source\PSoC5/USBUART_1.c **** *  This function enables the specified endpoint for OUT transfers. Do not call
2263:Generated_Source\PSoC5/USBUART_1.c **** *  this function for IN endpoints.
2264:Generated_Source\PSoC5/USBUART_1.c **** *
2265:Generated_Source\PSoC5/USBUART_1.c **** *  \param epNumber: Contains the data endpoint number. Valid values are between
2266:Generated_Source\PSoC5/USBUART_1.c **** *  1 and 8.
2267:Generated_Source\PSoC5/USBUART_1.c **** *
2268:Generated_Source\PSoC5/USBUART_1.c **** * \globalvars
2269:Generated_Source\PSoC5/USBUART_1.c **** *
2270:Generated_Source\PSoC5/USBUART_1.c **** *  \ref USBUART_1_EP[epNumber].apiEpState - set to NO_EVENT_PENDING
2271:Generated_Source\PSoC5/USBUART_1.c **** *
2272:Generated_Source\PSoC5/USBUART_1.c **** * \reentrant
2273:Generated_Source\PSoC5/USBUART_1.c **** *  No.
2274:Generated_Source\PSoC5/USBUART_1.c **** *
2275:Generated_Source\PSoC5/USBUART_1.c **** *******************************************************************************/
ARM GAS  C:\Users\jon\AppData\Local\Temp\ccwaPz7c.s 			page 64


2276:Generated_Source\PSoC5/USBUART_1.c **** void USBUART_1_EnableOutEP(uint8 epNumber) 
2277:Generated_Source\PSoC5/USBUART_1.c **** {
2278:Generated_Source\PSoC5/USBUART_1.c ****     if ((epNumber > USBUART_1_EP0) && (epNumber < USBUART_1_MAX_EP))
2279:Generated_Source\PSoC5/USBUART_1.c ****     {
2280:Generated_Source\PSoC5/USBUART_1.c ****         USBUART_1_EP[epNumber].apiEpState = USBUART_1_NO_EVENT_PENDING;
 1185              		.loc 1 2280 0
 1186 003e 104B     		ldr	r3, .L86+8
 1187 0040 00EB4000 		add	r0, r0, r0, lsl #1
 1188              	.LVL72:
 1189 0044 03EB8000 		add	r0, r3, r0, lsl #2
 1190 0048 0023     		movs	r3, #0
 1191 004a 4370     		strb	r3, [r0, #1]
2281:Generated_Source\PSoC5/USBUART_1.c **** 
2282:Generated_Source\PSoC5/USBUART_1.c ****         /* Enable OUT endpoint to be written by Host. */
2283:Generated_Source\PSoC5/USBUART_1.c ****         USBUART_1_SIE_EP_BASE.sieEp[epNumber].epCr0 = USBUART_1_EP[epNumber].epMode;
 1192              		.loc 1 2283 0
 1193 004c 4379     		ldrb	r3, [r0, #5]	@ zero_extendqisi2
 1194              	.LBE35:
 1195              	.LBE34:
1824:Generated_Source\PSoC5/USBUART_1.c **** 
 1196              		.loc 1 1824 0
 1197 004e 1046     		mov	r0, r2
 1198              	.LBB37:
 1199              	.LBB36:
 1200              		.loc 1 2283 0
 1201 0050 DBB2     		uxtb	r3, r3
 1202 0052 B370     		strb	r3, [r6, #2]
 1203              	.LBE36:
 1204              	.LBE37:
1824:Generated_Source\PSoC5/USBUART_1.c **** 
 1205              		.loc 1 1824 0
 1206 0054 F0BC     		pop	{r4, r5, r6, r7}
 1207              		.cfi_restore 7
 1208              		.cfi_restore 6
 1209              		.cfi_restore 5
 1210              		.cfi_restore 4
 1211              		.cfi_def_cfa_offset 0
 1212 0056 7047     		bx	lr
 1213              	.LVL73:
 1214              	.L81:
1820:Generated_Source\PSoC5/USBUART_1.c ****     }
 1215              		.loc 1 1820 0
 1216 0058 0022     		movs	r2, #0
 1217              	.LVL74:
1824:Generated_Source\PSoC5/USBUART_1.c **** 
 1218              		.loc 1 1824 0
 1219 005a 1046     		mov	r0, r2
 1220              	.LVL75:
 1221 005c 7047     		bx	lr
 1222              	.LVL76:
 1223              	.L80:
1820:Generated_Source\PSoC5/USBUART_1.c ****     }
 1224              		.loc 1 1820 0
 1225 005e 0A46     		mov	r2, r1
 1226              	.LVL77:
1824:Generated_Source\PSoC5/USBUART_1.c **** 
 1227              		.loc 1 1824 0
ARM GAS  C:\Users\jon\AppData\Local\Temp\ccwaPz7c.s 			page 65


 1228 0060 1046     		mov	r0, r2
 1229              	.LVL78:
 1230 0062 7047     		bx	lr
 1231              	.LVL79:
 1232              	.L85:
 1233              		.cfi_def_cfa_offset 16
 1234              		.cfi_offset 4, -16
 1235              		.cfi_offset 5, -12
 1236              		.cfi_offset 6, -8
 1237              		.cfi_offset 7, -4
 1238              	.LBB38:
 1239              	.LBB39:
 1240              	.LBB40:
 1241              	.LBB41:
 989:Generated_Source\PSoC5/USBUART_1.c ****         cntr  = ((uint16) (cntr << 8u)) | ((uint16) USBUART_1_SIE_EP_BASE.sieEp[epNumber].epCnt1);
 1242              		.loc 1 989 0
 1243 0064 7A5D     		ldrb	r2, [r7, r5]	@ zero_extendqisi2
 1244              	.LVL80:
 990:Generated_Source\PSoC5/USBUART_1.c ****         cntr -= USBUART_1_EPX_CNTX_CRC_COUNT;
 1245              		.loc 1 990 0
 1246 0066 7378     		ldrb	r3, [r6, #1]	@ zero_extendqisi2
 1247 0068 02F00F02 		and	r2, r2, #15
 1248              	.LVL81:
 991:Generated_Source\PSoC5/USBUART_1.c ****     }
 1249              		.loc 1 991 0
 1250 006c 43EA0222 		orr	r2, r3, r2, lsl #8
 1251              	.LVL82:
 1252 0070 023A     		subs	r2, r2, #2
 1253 0072 92B2     		uxth	r2, r2
 1254              	.LVL83:
 1255 0074 D7E7     		b	.L76
 1256              	.L87:
 1257 0076 00BF     		.align	2
 1258              	.L86:
 1259 0078 FC5F0040 		.word	1073766396
 1260 007c 70600040 		.word	1073766512
 1261 0080 00000000 		.word	USBUART_1_EP
 1262              	.LBE41:
 1263              	.LBE40:
 1264              	.LBE39:
 1265              	.LBE38:
 1266              		.cfi_endproc
 1267              	.LFE12:
 1268              		.size	USBUART_1_ReadOutEP, .-USBUART_1_ReadOutEP
 1269              		.section	.text.USBUART_1_EnableOutEP,"ax",%progbits
 1270              		.align	2
 1271              		.global	USBUART_1_EnableOutEP
 1272              		.thumb
 1273              		.thumb_func
 1274              		.type	USBUART_1_EnableOutEP, %function
 1275              	USBUART_1_EnableOutEP:
 1276              	.LFB13:
2277:Generated_Source\PSoC5/USBUART_1.c ****     if ((epNumber > USBUART_1_EP0) && (epNumber < USBUART_1_MAX_EP))
 1277              		.loc 1 2277 0
 1278              		.cfi_startproc
 1279              		@ args = 0, pretend = 0, frame = 0
 1280              		@ frame_needed = 0, uses_anonymous_args = 0
ARM GAS  C:\Users\jon\AppData\Local\Temp\ccwaPz7c.s 			page 66


 1281              		@ link register save eliminated.
 1282              	.LVL84:
2278:Generated_Source\PSoC5/USBUART_1.c ****     {
 1283              		.loc 1 2278 0
 1284 0000 431E     		subs	r3, r0, #1
 1285 0002 072B     		cmp	r3, #7
 1286 0004 0CD8     		bhi	.L88
2280:Generated_Source\PSoC5/USBUART_1.c **** 
 1287              		.loc 1 2280 0
 1288 0006 074B     		ldr	r3, .L90
 1289 0008 00EB4002 		add	r2, r0, r0, lsl #1
 1290 000c 03EB8203 		add	r3, r3, r2, lsl #2
 1291 0010 0022     		movs	r2, #0
 1292 0012 5A70     		strb	r2, [r3, #1]
 1293              		.loc 1 2283 0
 1294 0014 5A79     		ldrb	r2, [r3, #5]	@ zero_extendqisi2
 1295 0016 044B     		ldr	r3, .L90+4
 1296 0018 0001     		lsls	r0, r0, #4
 1297              	.LVL85:
 1298 001a D2B2     		uxtb	r2, r2
 1299 001c 0344     		add	r3, r3, r0
 1300 001e 9A70     		strb	r2, [r3, #2]
 1301              	.L88:
 1302 0020 7047     		bx	lr
 1303              	.L91:
 1304 0022 00BF     		.align	2
 1305              	.L90:
 1306 0024 00000000 		.word	USBUART_1_EP
 1307 0028 FC5F0040 		.word	1073766396
 1308              		.cfi_endproc
 1309              	.LFE13:
 1310              		.size	USBUART_1_EnableOutEP, .-USBUART_1_EnableOutEP
 1311              		.section	.text.USBUART_1_DisableOutEP,"ax",%progbits
 1312              		.align	2
 1313              		.global	USBUART_1_DisableOutEP
 1314              		.thumb
 1315              		.thumb_func
 1316              		.type	USBUART_1_DisableOutEP, %function
 1317              	USBUART_1_DisableOutEP:
 1318              	.LFB14:
2284:Generated_Source\PSoC5/USBUART_1.c ****         
2285:Generated_Source\PSoC5/USBUART_1.c ****     }
2286:Generated_Source\PSoC5/USBUART_1.c **** }
2287:Generated_Source\PSoC5/USBUART_1.c **** 
2288:Generated_Source\PSoC5/USBUART_1.c **** 
2289:Generated_Source\PSoC5/USBUART_1.c **** /*******************************************************************************
2290:Generated_Source\PSoC5/USBUART_1.c **** * Function Name: USBUART_1_DisableOutEP
2291:Generated_Source\PSoC5/USBUART_1.c **** ****************************************************************************//**
2292:Generated_Source\PSoC5/USBUART_1.c **** *
2293:Generated_Source\PSoC5/USBUART_1.c **** *  This function disables the specified USBFS OUT endpoint. Do not call this
2294:Generated_Source\PSoC5/USBUART_1.c **** *  function for IN endpoints.
2295:Generated_Source\PSoC5/USBUART_1.c **** *
2296:Generated_Source\PSoC5/USBUART_1.c **** *  \param epNumber: Contains the data endpoint number.
2297:Generated_Source\PSoC5/USBUART_1.c **** *            Valid values are between 1 and 8.
2298:Generated_Source\PSoC5/USBUART_1.c **** *
2299:Generated_Source\PSoC5/USBUART_1.c **** *******************************************************************************/
2300:Generated_Source\PSoC5/USBUART_1.c **** void USBUART_1_DisableOutEP(uint8 epNumber) 
ARM GAS  C:\Users\jon\AppData\Local\Temp\ccwaPz7c.s 			page 67


2301:Generated_Source\PSoC5/USBUART_1.c **** {
 1319              		.loc 1 2301 0
 1320              		.cfi_startproc
 1321              		@ args = 0, pretend = 0, frame = 0
 1322              		@ frame_needed = 0, uses_anonymous_args = 0
 1323              		@ link register save eliminated.
 1324              	.LVL86:
2302:Generated_Source\PSoC5/USBUART_1.c ****     if ((epNumber > USBUART_1_EP0) && (epNumber < USBUART_1_MAX_EP))
 1325              		.loc 1 2302 0
 1326 0000 431E     		subs	r3, r0, #1
 1327 0002 072B     		cmp	r3, #7
 1328 0004 04D8     		bhi	.L92
2303:Generated_Source\PSoC5/USBUART_1.c ****     {
2304:Generated_Source\PSoC5/USBUART_1.c ****         /* Set NAK response for OUT endpoint. */
2305:Generated_Source\PSoC5/USBUART_1.c ****         USBUART_1_SIE_EP_BASE.sieEp[epNumber].epCr0 = USBUART_1_MODE_NAK_OUT;
 1329              		.loc 1 2305 0
 1330 0006 034B     		ldr	r3, .L94
 1331 0008 0001     		lsls	r0, r0, #4
 1332              	.LVL87:
 1333 000a 0344     		add	r3, r3, r0
 1334 000c 0822     		movs	r2, #8
 1335 000e 9A70     		strb	r2, [r3, #2]
 1336              	.L92:
 1337 0010 7047     		bx	lr
 1338              	.L95:
 1339 0012 00BF     		.align	2
 1340              	.L94:
 1341 0014 FC5F0040 		.word	1073766396
 1342              		.cfi_endproc
 1343              	.LFE14:
 1344              		.size	USBUART_1_DisableOutEP, .-USBUART_1_DisableOutEP
 1345              		.section	.text.USBUART_1_Force,"ax",%progbits
 1346              		.align	2
 1347              		.global	USBUART_1_Force
 1348              		.thumb
 1349              		.thumb_func
 1350              		.type	USBUART_1_Force, %function
 1351              	USBUART_1_Force:
 1352              	.LFB15:
2306:Generated_Source\PSoC5/USBUART_1.c ****     }
2307:Generated_Source\PSoC5/USBUART_1.c **** }
2308:Generated_Source\PSoC5/USBUART_1.c **** 
2309:Generated_Source\PSoC5/USBUART_1.c **** 
2310:Generated_Source\PSoC5/USBUART_1.c **** /*******************************************************************************
2311:Generated_Source\PSoC5/USBUART_1.c **** * Function Name: USBUART_1_Force
2312:Generated_Source\PSoC5/USBUART_1.c **** ****************************************************************************//**
2313:Generated_Source\PSoC5/USBUART_1.c **** *
2314:Generated_Source\PSoC5/USBUART_1.c **** *  This function forces a USB J, K, or SE0 state on the D+/D– lines. It provides
2315:Generated_Source\PSoC5/USBUART_1.c **** *  the necessary mechanism for a USB device application to perform a USB Remote
2316:Generated_Source\PSoC5/USBUART_1.c **** *  Wakeup. For more information, see the USB 2.0 Specification for details on
2317:Generated_Source\PSoC5/USBUART_1.c **** *  Suspend and Resume.
2318:Generated_Source\PSoC5/USBUART_1.c **** *
2319:Generated_Source\PSoC5/USBUART_1.c **** *  \param state A byte indicating which of the four bus states to enable.
2320:Generated_Source\PSoC5/USBUART_1.c **** *        Symbolic names  and their associated values are listed here:
2321:Generated_Source\PSoC5/USBUART_1.c **** *    State                      |Description
2322:Generated_Source\PSoC5/USBUART_1.c **** *    ---------------------------|----------------------------------------------
2323:Generated_Source\PSoC5/USBUART_1.c **** *    USBUART_1_FORCE_J   | Force a J State onto the D+/D– lines
ARM GAS  C:\Users\jon\AppData\Local\Temp\ccwaPz7c.s 			page 68


2324:Generated_Source\PSoC5/USBUART_1.c **** *    USBUART_1_FORCE_K   | Force a K State onto the D+/D– lines
2325:Generated_Source\PSoC5/USBUART_1.c **** *    USBUART_1_FORCE_SE0 | Force a Single Ended 0 onto the D+/D– lines
2326:Generated_Source\PSoC5/USBUART_1.c **** *    USBUART_1_FORCE_NONE| Return bus to SIE control
2327:Generated_Source\PSoC5/USBUART_1.c **** *
2328:Generated_Source\PSoC5/USBUART_1.c **** *
2329:Generated_Source\PSoC5/USBUART_1.c **** *******************************************************************************/
2330:Generated_Source\PSoC5/USBUART_1.c **** void USBUART_1_Force(uint8 bState) 
2331:Generated_Source\PSoC5/USBUART_1.c **** {
 1353              		.loc 1 2331 0
 1354              		.cfi_startproc
 1355              		@ args = 0, pretend = 0, frame = 0
 1356              		@ frame_needed = 0, uses_anonymous_args = 0
 1357              		@ link register save eliminated.
 1358              	.LVL88:
2332:Generated_Source\PSoC5/USBUART_1.c ****     /* This registers is used only for manual control of SIE (no masking is
2333:Generated_Source\PSoC5/USBUART_1.c ****     * needed before write into it).
2334:Generated_Source\PSoC5/USBUART_1.c ****     */
2335:Generated_Source\PSoC5/USBUART_1.c ****     USBUART_1_USBIO_CR0_REG = bState;
 1359              		.loc 1 2335 0
 1360 0000 014B     		ldr	r3, .L97
 1361 0002 1870     		strb	r0, [r3]
 1362 0004 7047     		bx	lr
 1363              	.L98:
 1364 0006 00BF     		.align	2
 1365              	.L97:
 1366 0008 10600040 		.word	1073766416
 1367              		.cfi_endproc
 1368              	.LFE15:
 1369              		.size	USBUART_1_Force, .-USBUART_1_Force
 1370              		.section	.text.USBUART_1_GetEPAckState,"ax",%progbits
 1371              		.align	2
 1372              		.global	USBUART_1_GetEPAckState
 1373              		.thumb
 1374              		.thumb_func
 1375              		.type	USBUART_1_GetEPAckState, %function
 1376              	USBUART_1_GetEPAckState:
 1377              	.LFB16:
2336:Generated_Source\PSoC5/USBUART_1.c **** }
2337:Generated_Source\PSoC5/USBUART_1.c **** 
2338:Generated_Source\PSoC5/USBUART_1.c **** 
2339:Generated_Source\PSoC5/USBUART_1.c **** /*******************************************************************************
2340:Generated_Source\PSoC5/USBUART_1.c **** * Function Name: USBUART_1_GetEPAckState
2341:Generated_Source\PSoC5/USBUART_1.c **** ****************************************************************************//**
2342:Generated_Source\PSoC5/USBUART_1.c **** *
2343:Generated_Source\PSoC5/USBUART_1.c **** *  This function determines whether an ACK transaction occurred on this endpoint
2344:Generated_Source\PSoC5/USBUART_1.c **** *  by reading the ACK bit in the control register of the endpoint. It does not
2345:Generated_Source\PSoC5/USBUART_1.c **** *  clear the ACK bit.
2346:Generated_Source\PSoC5/USBUART_1.c **** *
2347:Generated_Source\PSoC5/USBUART_1.c **** *  \param epNumber Contains the data endpoint number.
2348:Generated_Source\PSoC5/USBUART_1.c **** *            Valid values are between 1 and 8.
2349:Generated_Source\PSoC5/USBUART_1.c **** *
2350:Generated_Source\PSoC5/USBUART_1.c **** *  \return
2351:Generated_Source\PSoC5/USBUART_1.c **** *  If an ACKed transaction occurred, this function returns a non-zero value.
2352:Generated_Source\PSoC5/USBUART_1.c **** *  Otherwise, it returns zero.
2353:Generated_Source\PSoC5/USBUART_1.c **** *
2354:Generated_Source\PSoC5/USBUART_1.c **** *******************************************************************************/
2355:Generated_Source\PSoC5/USBUART_1.c **** uint8 USBUART_1_GetEPAckState(uint8 epNumber) 
ARM GAS  C:\Users\jon\AppData\Local\Temp\ccwaPz7c.s 			page 69


2356:Generated_Source\PSoC5/USBUART_1.c **** {
 1378              		.loc 1 2356 0
 1379              		.cfi_startproc
 1380              		@ args = 0, pretend = 0, frame = 0
 1381              		@ frame_needed = 0, uses_anonymous_args = 0
 1382              		@ link register save eliminated.
 1383              	.LVL89:
2357:Generated_Source\PSoC5/USBUART_1.c ****     uint8 cr = 0u;
2358:Generated_Source\PSoC5/USBUART_1.c **** 
2359:Generated_Source\PSoC5/USBUART_1.c ****     if ((epNumber > USBUART_1_EP0) && (epNumber < USBUART_1_MAX_EP))
 1384              		.loc 1 2359 0
 1385 0000 431E     		subs	r3, r0, #1
 1386 0002 072B     		cmp	r3, #7
 1387 0004 07D8     		bhi	.L101
2360:Generated_Source\PSoC5/USBUART_1.c ****     {
2361:Generated_Source\PSoC5/USBUART_1.c ****         cr = USBUART_1_SIE_EP_BASE.sieEp[epNumber].epCr0 & USBUART_1_MODE_ACKD;
 1388              		.loc 1 2361 0
 1389 0006 054B     		ldr	r3, .L102
 1390 0008 0001     		lsls	r0, r0, #4
 1391              	.LVL90:
 1392 000a 0344     		add	r3, r3, r0
 1393 000c 9878     		ldrb	r0, [r3, #2]	@ zero_extendqisi2
 1394 000e 00F01000 		and	r0, r0, #16
 1395 0012 C0B2     		uxtb	r0, r0
 1396              	.LVL91:
 1397 0014 7047     		bx	lr
 1398              	.LVL92:
 1399              	.L101:
2357:Generated_Source\PSoC5/USBUART_1.c ****     uint8 cr = 0u;
 1400              		.loc 1 2357 0
 1401 0016 0020     		movs	r0, #0
 1402              	.LVL93:
2362:Generated_Source\PSoC5/USBUART_1.c ****     }
2363:Generated_Source\PSoC5/USBUART_1.c **** 
2364:Generated_Source\PSoC5/USBUART_1.c ****     return ((uint8) cr);
2365:Generated_Source\PSoC5/USBUART_1.c **** }
 1403              		.loc 1 2365 0
 1404 0018 7047     		bx	lr
 1405              	.L103:
 1406 001a 00BF     		.align	2
 1407              	.L102:
 1408 001c FC5F0040 		.word	1073766396
 1409              		.cfi_endproc
 1410              	.LFE16:
 1411              		.size	USBUART_1_GetEPAckState, .-USBUART_1_GetEPAckState
 1412              		.section	.text.USBUART_1_SetPowerStatus,"ax",%progbits
 1413              		.align	2
 1414              		.global	USBUART_1_SetPowerStatus
 1415              		.thumb
 1416              		.thumb_func
 1417              		.type	USBUART_1_SetPowerStatus, %function
 1418              	USBUART_1_SetPowerStatus:
 1419              	.LFB17:
2366:Generated_Source\PSoC5/USBUART_1.c **** 
2367:Generated_Source\PSoC5/USBUART_1.c **** 
2368:Generated_Source\PSoC5/USBUART_1.c **** /*******************************************************************************
2369:Generated_Source\PSoC5/USBUART_1.c **** * Function Name: USBUART_1_SetPowerStatus
ARM GAS  C:\Users\jon\AppData\Local\Temp\ccwaPz7c.s 			page 70


2370:Generated_Source\PSoC5/USBUART_1.c **** ****************************************************************************//**
2371:Generated_Source\PSoC5/USBUART_1.c **** *
2372:Generated_Source\PSoC5/USBUART_1.c **** *  This function sets the current power status. The device replies to USB
2373:Generated_Source\PSoC5/USBUART_1.c **** *  GET_STATUS requests based on this value. This allows the device to properly
2374:Generated_Source\PSoC5/USBUART_1.c **** *  report its status for USB Chapter 9 compliance. Devices can change their
2375:Generated_Source\PSoC5/USBUART_1.c **** *  power source from self powered to bus powered at any time and report their
2376:Generated_Source\PSoC5/USBUART_1.c **** *  current power source as part of the device status. You should call this
2377:Generated_Source\PSoC5/USBUART_1.c **** *  function any time your device changes from self powered to bus powered or
2378:Generated_Source\PSoC5/USBUART_1.c **** *  vice versa, and set the status appropriately.
2379:Generated_Source\PSoC5/USBUART_1.c **** *
2380:Generated_Source\PSoC5/USBUART_1.c **** *  \param powerStatus: Contains the desired power status, one for self powered
2381:Generated_Source\PSoC5/USBUART_1.c **** *        or zero for bus powered. Symbolic names and their associated values are
2382:Generated_Source\PSoC5/USBUART_1.c **** *        given here:
2383:Generated_Source\PSoC5/USBUART_1.c **** *  Power Status                                |Description
2384:Generated_Source\PSoC5/USBUART_1.c **** *  --------------------------------------------|---------------------------
2385:Generated_Source\PSoC5/USBUART_1.c **** *  USBUART_1_DEVICE_STATUS_BUS_POWERED  | Set the device to bus powered
2386:Generated_Source\PSoC5/USBUART_1.c **** *  USBUART_1_DEVICE_STATUS_SELF_POWERED | Set the device to self powered
2387:Generated_Source\PSoC5/USBUART_1.c **** *
2388:Generated_Source\PSoC5/USBUART_1.c **** * \globalvars
2389:Generated_Source\PSoC5/USBUART_1.c **** *
2390:Generated_Source\PSoC5/USBUART_1.c **** *  \ref USBUART_1_deviceStatus - set power status
2391:Generated_Source\PSoC5/USBUART_1.c **** *
2392:Generated_Source\PSoC5/USBUART_1.c **** * \reentrant
2393:Generated_Source\PSoC5/USBUART_1.c **** *  No.
2394:Generated_Source\PSoC5/USBUART_1.c **** *
2395:Generated_Source\PSoC5/USBUART_1.c **** *******************************************************************************/
2396:Generated_Source\PSoC5/USBUART_1.c **** void USBUART_1_SetPowerStatus(uint8 powerStatus) 
2397:Generated_Source\PSoC5/USBUART_1.c **** {
 1420              		.loc 1 2397 0
 1421              		.cfi_startproc
 1422              		@ args = 0, pretend = 0, frame = 0
 1423              		@ frame_needed = 0, uses_anonymous_args = 0
 1424              		@ link register save eliminated.
 1425              	.LVL94:
2398:Generated_Source\PSoC5/USBUART_1.c ****     if (powerStatus != USBUART_1_DEVICE_STATUS_BUS_POWERED)
2399:Generated_Source\PSoC5/USBUART_1.c ****     {
2400:Generated_Source\PSoC5/USBUART_1.c ****         USBUART_1_deviceStatus |= (uint8)  USBUART_1_DEVICE_STATUS_SELF_POWERED;
 1426              		.loc 1 2400 0
 1427 0000 054A     		ldr	r2, .L108
 1428 0002 1378     		ldrb	r3, [r2]	@ zero_extendqisi2
2398:Generated_Source\PSoC5/USBUART_1.c ****     if (powerStatus != USBUART_1_DEVICE_STATUS_BUS_POWERED)
 1429              		.loc 1 2398 0
 1430 0004 18B9     		cbnz	r0, .L107
2401:Generated_Source\PSoC5/USBUART_1.c ****     }
2402:Generated_Source\PSoC5/USBUART_1.c ****     else
2403:Generated_Source\PSoC5/USBUART_1.c ****     {
2404:Generated_Source\PSoC5/USBUART_1.c ****         USBUART_1_deviceStatus &= (uint8) ~USBUART_1_DEVICE_STATUS_SELF_POWERED;
 1431              		.loc 1 2404 0
 1432 0006 03F0FE03 		and	r3, r3, #254
 1433 000a 1370     		strb	r3, [r2]
 1434 000c 7047     		bx	lr
 1435              	.L107:
2400:Generated_Source\PSoC5/USBUART_1.c ****     }
 1436              		.loc 1 2400 0
 1437 000e 43F00103 		orr	r3, r3, #1
 1438 0012 1370     		strb	r3, [r2]
 1439 0014 7047     		bx	lr
ARM GAS  C:\Users\jon\AppData\Local\Temp\ccwaPz7c.s 			page 71


 1440              	.L109:
 1441 0016 00BF     		.align	2
 1442              	.L108:
 1443 0018 00000000 		.word	USBUART_1_deviceStatus
 1444              		.cfi_endproc
 1445              	.LFE17:
 1446              		.size	USBUART_1_SetPowerStatus, .-USBUART_1_SetPowerStatus
 1447              		.section	.text.USBUART_1_RWUEnabled,"ax",%progbits
 1448              		.align	2
 1449              		.global	USBUART_1_RWUEnabled
 1450              		.thumb
 1451              		.thumb_func
 1452              		.type	USBUART_1_RWUEnabled, %function
 1453              	USBUART_1_RWUEnabled:
 1454              	.LFB18:
2405:Generated_Source\PSoC5/USBUART_1.c ****     }
2406:Generated_Source\PSoC5/USBUART_1.c **** }
2407:Generated_Source\PSoC5/USBUART_1.c **** 
2408:Generated_Source\PSoC5/USBUART_1.c **** 
2409:Generated_Source\PSoC5/USBUART_1.c **** #if (USBUART_1_VBUS_MONITORING_ENABLE)
2410:Generated_Source\PSoC5/USBUART_1.c ****     /***************************************************************************
2411:Generated_Source\PSoC5/USBUART_1.c ****     * Function Name: USBUART_1_VBusPresent
2412:Generated_Source\PSoC5/USBUART_1.c ****     ************************************************************************//**
2413:Generated_Source\PSoC5/USBUART_1.c ****     *
2414:Generated_Source\PSoC5/USBUART_1.c ****     *  Determines VBUS presence for self-powered devices. This function is
2415:Generated_Source\PSoC5/USBUART_1.c ****     *  available when the VBUS Monitoring option is enabled in the Advanced tab.
2416:Generated_Source\PSoC5/USBUART_1.c ****     *
2417:Generated_Source\PSoC5/USBUART_1.c ****     * \return
2418:Generated_Source\PSoC5/USBUART_1.c ****     *  The return value can be the following:
2419:Generated_Source\PSoC5/USBUART_1.c ****     *  Return Value | Description
2420:Generated_Source\PSoC5/USBUART_1.c ****     *  -------------|-----------------
2421:Generated_Source\PSoC5/USBUART_1.c ****     *  1            | VBUS is present
2422:Generated_Source\PSoC5/USBUART_1.c ****     *  0            | VBUS is absent
2423:Generated_Source\PSoC5/USBUART_1.c ****     *
2424:Generated_Source\PSoC5/USBUART_1.c ****     *
2425:Generated_Source\PSoC5/USBUART_1.c ****     ***************************************************************************/
2426:Generated_Source\PSoC5/USBUART_1.c ****     uint8 USBUART_1_VBusPresent(void) 
2427:Generated_Source\PSoC5/USBUART_1.c ****     {
2428:Generated_Source\PSoC5/USBUART_1.c ****         return ((0u != (USBUART_1_VBUS_STATUS_REG & USBUART_1_VBUS_VALID)) ? (uint8) 1u : (uint8) 0
2429:Generated_Source\PSoC5/USBUART_1.c ****     }
2430:Generated_Source\PSoC5/USBUART_1.c **** #endif /* (USBUART_1_VBUS_MONITORING_ENABLE) */
2431:Generated_Source\PSoC5/USBUART_1.c **** 
2432:Generated_Source\PSoC5/USBUART_1.c **** 
2433:Generated_Source\PSoC5/USBUART_1.c **** /*******************************************************************************
2434:Generated_Source\PSoC5/USBUART_1.c **** * Function Name: USBUART_1_RWUEnabled
2435:Generated_Source\PSoC5/USBUART_1.c **** ****************************************************************************//**
2436:Generated_Source\PSoC5/USBUART_1.c **** *
2437:Generated_Source\PSoC5/USBUART_1.c **** *  This function returns the current remote wakeup status.
2438:Generated_Source\PSoC5/USBUART_1.c **** *  If the device supports remote wakeup, the application should use this
2439:Generated_Source\PSoC5/USBUART_1.c **** *  function to determine if remote wakeup was enabled by the host. When the
2440:Generated_Source\PSoC5/USBUART_1.c **** *  device is suspended and it determines the conditions to initiate a remote
2441:Generated_Source\PSoC5/USBUART_1.c **** *  wakeup are met, the application should use the USBFS_Force() function to
2442:Generated_Source\PSoC5/USBUART_1.c **** *  force the appropriate J and K states onto the USB bus, signaling a remote
2443:Generated_Source\PSoC5/USBUART_1.c **** *  wakeup.
2444:Generated_Source\PSoC5/USBUART_1.c **** *
2445:Generated_Source\PSoC5/USBUART_1.c **** *
2446:Generated_Source\PSoC5/USBUART_1.c **** * \return
ARM GAS  C:\Users\jon\AppData\Local\Temp\ccwaPz7c.s 			page 72


2447:Generated_Source\PSoC5/USBUART_1.c **** *  Returns non-zero value if remote wakeup is enabled and zero otherwise.
2448:Generated_Source\PSoC5/USBUART_1.c **** *
2449:Generated_Source\PSoC5/USBUART_1.c **** * \globalvars
2450:Generated_Source\PSoC5/USBUART_1.c **** *  USBUART_1_deviceStatus - checked to determine remote status
2451:Generated_Source\PSoC5/USBUART_1.c **** *
2452:Generated_Source\PSoC5/USBUART_1.c **** *******************************************************************************/
2453:Generated_Source\PSoC5/USBUART_1.c **** uint8 USBUART_1_RWUEnabled(void) 
2454:Generated_Source\PSoC5/USBUART_1.c **** {
 1455              		.loc 1 2454 0
 1456              		.cfi_startproc
 1457              		@ args = 0, pretend = 0, frame = 0
 1458              		@ frame_needed = 0, uses_anonymous_args = 0
 1459              		@ link register save eliminated.
 1460              	.LVL95:
2455:Generated_Source\PSoC5/USBUART_1.c ****     uint8 result = USBUART_1_FALSE;
2456:Generated_Source\PSoC5/USBUART_1.c **** 
2457:Generated_Source\PSoC5/USBUART_1.c ****     if (0u != (USBUART_1_deviceStatus & USBUART_1_DEVICE_STATUS_REMOTE_WAKEUP))
 1461              		.loc 1 2457 0
 1462 0000 024B     		ldr	r3, .L111
 1463 0002 1878     		ldrb	r0, [r3]	@ zero_extendqisi2
 1464              	.LVL96:
2458:Generated_Source\PSoC5/USBUART_1.c ****     {
2459:Generated_Source\PSoC5/USBUART_1.c ****         result = USBUART_1_TRUE;
2460:Generated_Source\PSoC5/USBUART_1.c ****     }
2461:Generated_Source\PSoC5/USBUART_1.c **** 
2462:Generated_Source\PSoC5/USBUART_1.c ****     return (result);
2463:Generated_Source\PSoC5/USBUART_1.c **** }
 1465              		.loc 1 2463 0
 1466 0004 C0F34000 		ubfx	r0, r0, #1, #1
 1467              	.LVL97:
 1468 0008 7047     		bx	lr
 1469              	.L112:
 1470 000a 00BF     		.align	2
 1471              	.L111:
 1472 000c 00000000 		.word	USBUART_1_deviceStatus
 1473              		.cfi_endproc
 1474              	.LFE18:
 1475              		.size	USBUART_1_RWUEnabled, .-USBUART_1_RWUEnabled
 1476              		.section	.text.USBUART_1_GetDeviceAddress,"ax",%progbits
 1477              		.align	2
 1478              		.global	USBUART_1_GetDeviceAddress
 1479              		.thumb
 1480              		.thumb_func
 1481              		.type	USBUART_1_GetDeviceAddress, %function
 1482              	USBUART_1_GetDeviceAddress:
 1483              	.LFB19:
2464:Generated_Source\PSoC5/USBUART_1.c **** 
2465:Generated_Source\PSoC5/USBUART_1.c **** 
2466:Generated_Source\PSoC5/USBUART_1.c **** /*******************************************************************************
2467:Generated_Source\PSoC5/USBUART_1.c **** * Function Name: USBUART_1_GetDeviceAddress
2468:Generated_Source\PSoC5/USBUART_1.c **** ****************************************************************************//**
2469:Generated_Source\PSoC5/USBUART_1.c **** *
2470:Generated_Source\PSoC5/USBUART_1.c **** *  This function returns the currently assigned address for the USB device.
2471:Generated_Source\PSoC5/USBUART_1.c **** *
2472:Generated_Source\PSoC5/USBUART_1.c **** * \return
2473:Generated_Source\PSoC5/USBUART_1.c **** *  Returns the currently assigned address.
2474:Generated_Source\PSoC5/USBUART_1.c **** *  Returns 0 if the device has not yet been assigned an address.
ARM GAS  C:\Users\jon\AppData\Local\Temp\ccwaPz7c.s 			page 73


2475:Generated_Source\PSoC5/USBUART_1.c **** *
2476:Generated_Source\PSoC5/USBUART_1.c **** *******************************************************************************/
2477:Generated_Source\PSoC5/USBUART_1.c **** uint8 USBUART_1_GetDeviceAddress(void) 
2478:Generated_Source\PSoC5/USBUART_1.c **** {
 1484              		.loc 1 2478 0
 1485              		.cfi_startproc
 1486              		@ args = 0, pretend = 0, frame = 0
 1487              		@ frame_needed = 0, uses_anonymous_args = 0
 1488              		@ link register save eliminated.
2479:Generated_Source\PSoC5/USBUART_1.c ****     return (uint8)(USBUART_1_CR0_REG & USBUART_1_CR0_DEVICE_ADDRESS_MASK);
 1489              		.loc 1 2479 0
 1490 0000 024B     		ldr	r3, .L114
 1491 0002 1878     		ldrb	r0, [r3]	@ zero_extendqisi2
2480:Generated_Source\PSoC5/USBUART_1.c **** }
 1492              		.loc 1 2480 0
 1493 0004 00F07F00 		and	r0, r0, #127
 1494 0008 7047     		bx	lr
 1495              	.L115:
 1496 000a 00BF     		.align	2
 1497              	.L114:
 1498 000c 08600040 		.word	1073766408
 1499              		.cfi_endproc
 1500              	.LFE19:
 1501              		.size	USBUART_1_GetDeviceAddress, .-USBUART_1_GetDeviceAddress
 1502              		.section	.text.USBUART_1_EnableSofInt,"ax",%progbits
 1503              		.align	2
 1504              		.global	USBUART_1_EnableSofInt
 1505              		.thumb
 1506              		.thumb_func
 1507              		.type	USBUART_1_EnableSofInt, %function
 1508              	USBUART_1_EnableSofInt:
 1509              	.LFB20:
2481:Generated_Source\PSoC5/USBUART_1.c **** 
2482:Generated_Source\PSoC5/USBUART_1.c **** 
2483:Generated_Source\PSoC5/USBUART_1.c **** /*******************************************************************************
2484:Generated_Source\PSoC5/USBUART_1.c **** * Function Name: USBUART_1_EnableSofInt
2485:Generated_Source\PSoC5/USBUART_1.c **** ****************************************************************************//**
2486:Generated_Source\PSoC5/USBUART_1.c **** *
2487:Generated_Source\PSoC5/USBUART_1.c **** *  This function enables interrupt generation when a Start-of-Frame (SOF)
2488:Generated_Source\PSoC5/USBUART_1.c **** *  packet is received from the host.
2489:Generated_Source\PSoC5/USBUART_1.c **** *
2490:Generated_Source\PSoC5/USBUART_1.c **** *******************************************************************************/
2491:Generated_Source\PSoC5/USBUART_1.c **** void USBUART_1_EnableSofInt(void) 
2492:Generated_Source\PSoC5/USBUART_1.c **** {
 1510              		.loc 1 2492 0
 1511              		.cfi_startproc
 1512              		@ args = 0, pretend = 0, frame = 0
 1513              		@ frame_needed = 0, uses_anonymous_args = 0
 1514              		@ link register save eliminated.
2493:Generated_Source\PSoC5/USBUART_1.c **** #if (CY_PSOC4)
2494:Generated_Source\PSoC5/USBUART_1.c ****     /* Enable SOF interrupt interrupt source. */
2495:Generated_Source\PSoC5/USBUART_1.c ****     USBUART_1_INTR_SIE_MASK_REG |= (uint32) USBUART_1_INTR_SIE_SOF_INTR;
2496:Generated_Source\PSoC5/USBUART_1.c **** #else
2497:Generated_Source\PSoC5/USBUART_1.c ****     /* Enable SOF interrupt if it is present. */
2498:Generated_Source\PSoC5/USBUART_1.c ****     #if (USBUART_1_SOF_ISR_ACTIVE)
2499:Generated_Source\PSoC5/USBUART_1.c ****         CyIntEnable(USBUART_1_SOF_VECT_NUM);
 1515              		.loc 1 2499 0
ARM GAS  C:\Users\jon\AppData\Local\Temp\ccwaPz7c.s 			page 74


 1516 0000 024B     		ldr	r3, .L117
 1517 0002 4FF40012 		mov	r2, #2097152
 1518 0006 1A60     		str	r2, [r3]
 1519 0008 7047     		bx	lr
 1520              	.L118:
 1521 000a 00BF     		.align	2
 1522              	.L117:
 1523 000c 00E100E0 		.word	-536813312
 1524              		.cfi_endproc
 1525              	.LFE20:
 1526              		.size	USBUART_1_EnableSofInt, .-USBUART_1_EnableSofInt
 1527              		.section	.text.USBUART_1_DisableSofInt,"ax",%progbits
 1528              		.align	2
 1529              		.global	USBUART_1_DisableSofInt
 1530              		.thumb
 1531              		.thumb_func
 1532              		.type	USBUART_1_DisableSofInt, %function
 1533              	USBUART_1_DisableSofInt:
 1534              	.LFB21:
2500:Generated_Source\PSoC5/USBUART_1.c ****     #endif /* (USBUART_1_SOF_ISR_ACTIVE) */
2501:Generated_Source\PSoC5/USBUART_1.c **** #endif /* (CY_PSOC4) */
2502:Generated_Source\PSoC5/USBUART_1.c **** }
2503:Generated_Source\PSoC5/USBUART_1.c **** 
2504:Generated_Source\PSoC5/USBUART_1.c **** 
2505:Generated_Source\PSoC5/USBUART_1.c **** /*******************************************************************************
2506:Generated_Source\PSoC5/USBUART_1.c **** * Function Name: USBUART_1_DisableSofInt
2507:Generated_Source\PSoC5/USBUART_1.c **** ****************************************************************************//**
2508:Generated_Source\PSoC5/USBUART_1.c **** *
2509:Generated_Source\PSoC5/USBUART_1.c **** *  This function disables interrupt generation when a Start-of-Frame (SOF)
2510:Generated_Source\PSoC5/USBUART_1.c **** *  packet is received from the host.
2511:Generated_Source\PSoC5/USBUART_1.c **** *
2512:Generated_Source\PSoC5/USBUART_1.c **** *******************************************************************************/
2513:Generated_Source\PSoC5/USBUART_1.c **** void USBUART_1_DisableSofInt(void) 
2514:Generated_Source\PSoC5/USBUART_1.c **** {
 1535              		.loc 1 2514 0
 1536              		.cfi_startproc
 1537              		@ args = 0, pretend = 0, frame = 0
 1538              		@ frame_needed = 0, uses_anonymous_args = 0
 1539              		@ link register save eliminated.
2515:Generated_Source\PSoC5/USBUART_1.c **** #if (CY_PSOC4)
2516:Generated_Source\PSoC5/USBUART_1.c ****     /* Disable SOF interrupt interrupt source. */
2517:Generated_Source\PSoC5/USBUART_1.c ****     USBUART_1_INTR_SIE_MASK_REG &= (uint32) ~USBUART_1_INTR_SIE_SOF_INTR;
2518:Generated_Source\PSoC5/USBUART_1.c **** #else
2519:Generated_Source\PSoC5/USBUART_1.c ****     /* Disable SOF interrupt if it is present. */
2520:Generated_Source\PSoC5/USBUART_1.c ****     #if (USBUART_1_SOF_ISR_ACTIVE)
2521:Generated_Source\PSoC5/USBUART_1.c ****         CyIntDisable(USBUART_1_SOF_VECT_NUM);
 1540              		.loc 1 2521 0
 1541 0000 024B     		ldr	r3, .L120
 1542 0002 4FF40012 		mov	r2, #2097152
 1543 0006 1A60     		str	r2, [r3]
 1544 0008 7047     		bx	lr
 1545              	.L121:
 1546 000a 00BF     		.align	2
 1547              	.L120:
 1548 000c 80E100E0 		.word	-536813184
 1549              		.cfi_endproc
 1550              	.LFE21:
ARM GAS  C:\Users\jon\AppData\Local\Temp\ccwaPz7c.s 			page 75


 1551              		.size	USBUART_1_DisableSofInt, .-USBUART_1_DisableSofInt
 1552              		.global	USBUART_1_initVar
 1553              		.bss
 1554              		.set	.LANCHOR0,. + 0
 1555              		.type	USBUART_1_initVar, %object
 1556              		.size	USBUART_1_initVar, 1
 1557              	USBUART_1_initVar:
 1558 0000 00       		.space	1
 1559              		.text
 1560              	.Letext0:
 1561              		.file 2 "Generated_Source\\PSoC5\\cytypes.h"
 1562              		.file 3 "Generated_Source\\PSoC5\\USBUART_1.h"
 1563              		.file 4 "Generated_Source\\PSoC5\\USBUART_1_pvt.h"
 1564              		.file 5 "Generated_Source\\PSoC5\\CyLib.h"
 1565              		.file 6 "Generated_Source\\PSoC5\\USBUART_1_Dp.h"
 1566              		.section	.debug_info,"",%progbits
 1567              	.Ldebug_info0:
 1568 0000 9B0A0000 		.4byte	0xa9b
 1569 0004 0400     		.2byte	0x4
 1570 0006 00000000 		.4byte	.Ldebug_abbrev0
 1571 000a 04       		.byte	0x4
 1572 000b 01       		.uleb128 0x1
 1573 000c C9020000 		.4byte	.LASF97
 1574 0010 0C       		.byte	0xc
 1575 0011 F2010000 		.4byte	.LASF98
 1576 0015 F5000000 		.4byte	.LASF99
 1577 0019 18000000 		.4byte	.Ldebug_ranges0+0x18
 1578 001d 00000000 		.4byte	0
 1579 0021 00000000 		.4byte	.Ldebug_line0
 1580 0025 02       		.uleb128 0x2
 1581 0026 01       		.byte	0x1
 1582 0027 06       		.byte	0x6
 1583 0028 A7030000 		.4byte	.LASF0
 1584 002c 02       		.uleb128 0x2
 1585 002d 01       		.byte	0x1
 1586 002e 08       		.byte	0x8
 1587 002f 75030000 		.4byte	.LASF1
 1588 0033 02       		.uleb128 0x2
 1589 0034 02       		.byte	0x2
 1590 0035 05       		.byte	0x5
 1591 0036 82000000 		.4byte	.LASF2
 1592 003a 02       		.uleb128 0x2
 1593 003b 02       		.byte	0x2
 1594 003c 07       		.byte	0x7
 1595 003d 44040000 		.4byte	.LASF3
 1596 0041 02       		.uleb128 0x2
 1597 0042 04       		.byte	0x4
 1598 0043 05       		.byte	0x5
 1599 0044 87020000 		.4byte	.LASF4
 1600 0048 02       		.uleb128 0x2
 1601 0049 04       		.byte	0x4
 1602 004a 07       		.byte	0x7
 1603 004b 48050000 		.4byte	.LASF5
 1604 004f 02       		.uleb128 0x2
 1605 0050 08       		.byte	0x8
 1606 0051 05       		.byte	0x5
 1607 0052 3A020000 		.4byte	.LASF6
ARM GAS  C:\Users\jon\AppData\Local\Temp\ccwaPz7c.s 			page 76


 1608 0056 02       		.uleb128 0x2
 1609 0057 08       		.byte	0x8
 1610 0058 07       		.byte	0x7
 1611 0059 B3030000 		.4byte	.LASF7
 1612 005d 03       		.uleb128 0x3
 1613 005e 04       		.byte	0x4
 1614 005f 05       		.byte	0x5
 1615 0060 696E7400 		.ascii	"int\000"
 1616 0064 02       		.uleb128 0x2
 1617 0065 04       		.byte	0x4
 1618 0066 07       		.byte	0x7
 1619 0067 ED030000 		.4byte	.LASF8
 1620 006b 04       		.uleb128 0x4
 1621 006c EA040000 		.4byte	.LASF9
 1622 0070 02       		.byte	0x2
 1623 0071 E401     		.2byte	0x1e4
 1624 0073 2C000000 		.4byte	0x2c
 1625 0077 04       		.uleb128 0x4
 1626 0078 72010000 		.4byte	.LASF10
 1627 007c 02       		.byte	0x2
 1628 007d E501     		.2byte	0x1e5
 1629 007f 3A000000 		.4byte	0x3a
 1630 0083 04       		.uleb128 0x4
 1631 0084 3C050000 		.4byte	.LASF11
 1632 0088 02       		.byte	0x2
 1633 0089 E601     		.2byte	0x1e6
 1634 008b 48000000 		.4byte	0x48
 1635 008f 02       		.uleb128 0x2
 1636 0090 04       		.byte	0x4
 1637 0091 04       		.byte	0x4
 1638 0092 23020000 		.4byte	.LASF12
 1639 0096 02       		.uleb128 0x2
 1640 0097 08       		.byte	0x8
 1641 0098 04       		.byte	0x4
 1642 0099 5A050000 		.4byte	.LASF13
 1643 009d 02       		.uleb128 0x2
 1644 009e 01       		.byte	0x1
 1645 009f 08       		.byte	0x8
 1646 00a0 82040000 		.4byte	.LASF14
 1647 00a4 04       		.uleb128 0x4
 1648 00a5 43050000 		.4byte	.LASF15
 1649 00a9 02       		.byte	0x2
 1650 00aa 8E02     		.2byte	0x28e
 1651 00ac B0000000 		.4byte	0xb0
 1652 00b0 05       		.uleb128 0x5
 1653 00b1 6B000000 		.4byte	0x6b
 1654 00b5 04       		.uleb128 0x4
 1655 00b6 3E040000 		.4byte	.LASF16
 1656 00ba 02       		.byte	0x2
 1657 00bb 9002     		.2byte	0x290
 1658 00bd C1000000 		.4byte	0xc1
 1659 00c1 05       		.uleb128 0x5
 1660 00c2 83000000 		.4byte	0x83
 1661 00c6 02       		.uleb128 0x2
 1662 00c7 08       		.byte	0x8
 1663 00c8 04       		.byte	0x4
 1664 00c9 CA000000 		.4byte	.LASF17
ARM GAS  C:\Users\jon\AppData\Local\Temp\ccwaPz7c.s 			page 77


 1665 00cd 02       		.uleb128 0x2
 1666 00ce 04       		.byte	0x4
 1667 00cf 07       		.byte	0x7
 1668 00d0 CE050000 		.4byte	.LASF18
 1669 00d4 06       		.uleb128 0x6
 1670 00d5 0C       		.byte	0xc
 1671 00d6 03       		.byte	0x3
 1672 00d7 8D       		.byte	0x8d
 1673 00d8 49010000 		.4byte	0x149
 1674 00dc 07       		.uleb128 0x7
 1675 00dd 5F040000 		.4byte	.LASF19
 1676 00e1 03       		.byte	0x3
 1677 00e2 8F       		.byte	0x8f
 1678 00e3 6B000000 		.4byte	0x6b
 1679 00e7 00       		.byte	0
 1680 00e8 07       		.uleb128 0x7
 1681 00e9 61050000 		.4byte	.LASF20
 1682 00ed 03       		.byte	0x3
 1683 00ee 90       		.byte	0x90
 1684 00ef 6B000000 		.4byte	0x6b
 1685 00f3 01       		.byte	0x1
 1686 00f4 07       		.uleb128 0x7
 1687 00f5 32050000 		.4byte	.LASF21
 1688 00f9 03       		.byte	0x3
 1689 00fa 91       		.byte	0x91
 1690 00fb 6B000000 		.4byte	0x6b
 1691 00ff 02       		.byte	0x2
 1692 0100 07       		.uleb128 0x7
 1693 0101 00000000 		.4byte	.LASF22
 1694 0105 03       		.byte	0x3
 1695 0106 92       		.byte	0x92
 1696 0107 6B000000 		.4byte	0x6b
 1697 010b 03       		.byte	0x3
 1698 010c 07       		.uleb128 0x7
 1699 010d A5020000 		.4byte	.LASF23
 1700 0111 03       		.byte	0x3
 1701 0112 93       		.byte	0x93
 1702 0113 6B000000 		.4byte	0x6b
 1703 0117 04       		.byte	0x4
 1704 0118 07       		.uleb128 0x7
 1705 0119 9C000000 		.4byte	.LASF24
 1706 011d 03       		.byte	0x3
 1707 011e 94       		.byte	0x94
 1708 011f 6B000000 		.4byte	0x6b
 1709 0123 05       		.byte	0x5
 1710 0124 07       		.uleb128 0x7
 1711 0125 60030000 		.4byte	.LASF25
 1712 0129 03       		.byte	0x3
 1713 012a 95       		.byte	0x95
 1714 012b 77000000 		.4byte	0x77
 1715 012f 06       		.byte	0x6
 1716 0130 07       		.uleb128 0x7
 1717 0131 85050000 		.4byte	.LASF26
 1718 0135 03       		.byte	0x3
 1719 0136 96       		.byte	0x96
 1720 0137 77000000 		.4byte	0x77
 1721 013b 08       		.byte	0x8
ARM GAS  C:\Users\jon\AppData\Local\Temp\ccwaPz7c.s 			page 78


 1722 013c 07       		.uleb128 0x7
 1723 013d 50060000 		.4byte	.LASF27
 1724 0141 03       		.byte	0x3
 1725 0142 97       		.byte	0x97
 1726 0143 6B000000 		.4byte	0x6b
 1727 0147 0A       		.byte	0xa
 1728 0148 00       		.byte	0
 1729 0149 08       		.uleb128 0x8
 1730 014a FF030000 		.4byte	.LASF28
 1731 014e 03       		.byte	0x3
 1732 014f 98       		.byte	0x98
 1733 0150 D4000000 		.4byte	0xd4
 1734 0154 06       		.uleb128 0x6
 1735 0155 10       		.byte	0x10
 1736 0156 03       		.byte	0x3
 1737 0157 D4       		.byte	0xd4
 1738 0158 8D010000 		.4byte	0x18d
 1739 015c 07       		.uleb128 0x7
 1740 015d E3040000 		.4byte	.LASF29
 1741 0161 03       		.byte	0x3
 1742 0162 D6       		.byte	0xd6
 1743 0163 6B000000 		.4byte	0x6b
 1744 0167 00       		.byte	0
 1745 0168 07       		.uleb128 0x7
 1746 0169 10050000 		.4byte	.LASF30
 1747 016d 03       		.byte	0x3
 1748 016e D7       		.byte	0xd7
 1749 016f 6B000000 		.4byte	0x6b
 1750 0173 01       		.byte	0x1
 1751 0174 07       		.uleb128 0x7
 1752 0175 48020000 		.4byte	.LASF31
 1753 0179 03       		.byte	0x3
 1754 017a D8       		.byte	0xd8
 1755 017b 6B000000 		.4byte	0x6b
 1756 017f 02       		.byte	0x2
 1757 0180 09       		.uleb128 0x9
 1758 0181 67617000 		.ascii	"gap\000"
 1759 0185 03       		.byte	0x3
 1760 0186 D9       		.byte	0xd9
 1761 0187 8D010000 		.4byte	0x18d
 1762 018b 03       		.byte	0x3
 1763 018c 00       		.byte	0
 1764 018d 0A       		.uleb128 0xa
 1765 018e 6B000000 		.4byte	0x6b
 1766 0192 9D010000 		.4byte	0x19d
 1767 0196 0B       		.uleb128 0xb
 1768 0197 CD000000 		.4byte	0xcd
 1769 019b 0C       		.byte	0xc
 1770 019c 00       		.byte	0
 1771 019d 08       		.uleb128 0x8
 1772 019e 4E020000 		.4byte	.LASF32
 1773 01a2 03       		.byte	0x3
 1774 01a3 DA       		.byte	0xda
 1775 01a4 54010000 		.4byte	0x154
 1776 01a8 06       		.uleb128 0x6
 1777 01a9 10       		.byte	0x10
 1778 01aa 03       		.byte	0x3
ARM GAS  C:\Users\jon\AppData\Local\Temp\ccwaPz7c.s 			page 79


 1779 01ab E6       		.byte	0xe6
 1780 01ac 29020000 		.4byte	0x229
 1781 01b0 07       		.uleb128 0x7
 1782 01b1 81020000 		.4byte	.LASF33
 1783 01b5 03       		.byte	0x3
 1784 01b6 E8       		.byte	0xe8
 1785 01b7 6B000000 		.4byte	0x6b
 1786 01bb 00       		.byte	0
 1787 01bc 07       		.uleb128 0x7
 1788 01bd 7A000000 		.4byte	.LASF34
 1789 01c1 03       		.byte	0x3
 1790 01c2 E9       		.byte	0xe9
 1791 01c3 6B000000 		.4byte	0x6b
 1792 01c7 01       		.byte	0x1
 1793 01c8 07       		.uleb128 0x7
 1794 01c9 8B030000 		.4byte	.LASF35
 1795 01cd 03       		.byte	0x3
 1796 01ce EA       		.byte	0xea
 1797 01cf 6B000000 		.4byte	0x6b
 1798 01d3 02       		.byte	0x2
 1799 01d4 07       		.uleb128 0x7
 1800 01d5 47060000 		.4byte	.LASF36
 1801 01d9 03       		.byte	0x3
 1802 01da EB       		.byte	0xeb
 1803 01db 6B000000 		.4byte	0x6b
 1804 01df 03       		.byte	0x3
 1805 01e0 07       		.uleb128 0x7
 1806 01e1 CA030000 		.4byte	.LASF37
 1807 01e5 03       		.byte	0x3
 1808 01e6 EC       		.byte	0xec
 1809 01e7 6B000000 		.4byte	0x6b
 1810 01eb 04       		.byte	0x4
 1811 01ec 07       		.uleb128 0x7
 1812 01ed 83030000 		.4byte	.LASF38
 1813 01f1 03       		.byte	0x3
 1814 01f2 ED       		.byte	0xed
 1815 01f3 6B000000 		.4byte	0x6b
 1816 01f7 05       		.byte	0x5
 1817 01f8 07       		.uleb128 0x7
 1818 01f9 79010000 		.4byte	.LASF39
 1819 01fd 03       		.byte	0x3
 1820 01fe EE       		.byte	0xee
 1821 01ff 6B000000 		.4byte	0x6b
 1822 0203 06       		.byte	0x6
 1823 0204 07       		.uleb128 0x7
 1824 0205 57040000 		.4byte	.LASF40
 1825 0209 03       		.byte	0x3
 1826 020a EF       		.byte	0xef
 1827 020b 6B000000 		.4byte	0x6b
 1828 020f 07       		.byte	0x7
 1829 0210 07       		.uleb128 0x7
 1830 0211 FA030000 		.4byte	.LASF41
 1831 0215 03       		.byte	0x3
 1832 0216 F0       		.byte	0xf0
 1833 0217 6B000000 		.4byte	0x6b
 1834 021b 08       		.byte	0x8
 1835 021c 09       		.uleb128 0x9
ARM GAS  C:\Users\jon\AppData\Local\Temp\ccwaPz7c.s 			page 80


 1836 021d 67617000 		.ascii	"gap\000"
 1837 0221 03       		.byte	0x3
 1838 0222 F1       		.byte	0xf1
 1839 0223 29020000 		.4byte	0x229
 1840 0227 09       		.byte	0x9
 1841 0228 00       		.byte	0
 1842 0229 0A       		.uleb128 0xa
 1843 022a 6B000000 		.4byte	0x6b
 1844 022e 39020000 		.4byte	0x239
 1845 0232 0B       		.uleb128 0xb
 1846 0233 CD000000 		.4byte	0xcd
 1847 0237 06       		.byte	0x6
 1848 0238 00       		.byte	0
 1849 0239 08       		.uleb128 0x8
 1850 023a 72060000 		.4byte	.LASF42
 1851 023e 03       		.byte	0x3
 1852 023f F2       		.byte	0xf2
 1853 0240 A8010000 		.4byte	0x1a8
 1854 0244 0C       		.uleb128 0xc
 1855 0245 90       		.byte	0x90
 1856 0246 03       		.byte	0x3
 1857 0247 0E01     		.2byte	0x10e
 1858 0249 5B020000 		.4byte	0x25b
 1859 024d 0D       		.uleb128 0xd
 1860 024e B0010000 		.4byte	.LASF43
 1861 0252 03       		.byte	0x3
 1862 0253 1001     		.2byte	0x110
 1863 0255 5B020000 		.4byte	0x25b
 1864 0259 00       		.byte	0
 1865 025a 00       		.byte	0
 1866 025b 0A       		.uleb128 0xa
 1867 025c 9D010000 		.4byte	0x19d
 1868 0260 6B020000 		.4byte	0x26b
 1869 0264 0B       		.uleb128 0xb
 1870 0265 CD000000 		.4byte	0xcd
 1871 0269 08       		.byte	0x8
 1872 026a 00       		.byte	0
 1873 026b 04       		.uleb128 0x4
 1874 026c 6C050000 		.4byte	.LASF44
 1875 0270 03       		.byte	0x3
 1876 0271 1101     		.2byte	0x111
 1877 0273 44020000 		.4byte	0x244
 1878 0277 0C       		.uleb128 0xc
 1879 0278 90       		.byte	0x90
 1880 0279 03       		.byte	0x3
 1881 027a 1401     		.2byte	0x114
 1882 027c 8E020000 		.4byte	0x28e
 1883 0280 0D       		.uleb128 0xd
 1884 0281 A3000000 		.4byte	.LASF45
 1885 0285 03       		.byte	0x3
 1886 0286 1601     		.2byte	0x116
 1887 0288 8E020000 		.4byte	0x28e
 1888 028c 00       		.byte	0
 1889 028d 00       		.byte	0
 1890 028e 0A       		.uleb128 0xa
 1891 028f 39020000 		.4byte	0x239
 1892 0293 9E020000 		.4byte	0x29e
ARM GAS  C:\Users\jon\AppData\Local\Temp\ccwaPz7c.s 			page 81


 1893 0297 0B       		.uleb128 0xb
 1894 0298 CD000000 		.4byte	0xcd
 1895 029c 08       		.byte	0x8
 1896 029d 00       		.byte	0
 1897 029e 04       		.uleb128 0x4
 1898 029f 42010000 		.4byte	.LASF46
 1899 02a3 03       		.byte	0x3
 1900 02a4 1701     		.2byte	0x117
 1901 02a6 77020000 		.4byte	0x277
 1902 02aa 0E       		.uleb128 0xe
 1903 02ab 90020000 		.4byte	.LASF100
 1904 02af 01       		.byte	0x1
 1905 02b0 D603     		.2byte	0x3d6
 1906 02b2 77000000 		.4byte	0x77
 1907 02b6 01       		.byte	0x1
 1908 02b7 D4020000 		.4byte	0x2d4
 1909 02bb 0F       		.uleb128 0xf
 1910 02bc 57030000 		.4byte	.LASF47
 1911 02c0 01       		.byte	0x1
 1912 02c1 D603     		.2byte	0x3d6
 1913 02c3 6B000000 		.4byte	0x6b
 1914 02c7 10       		.uleb128 0x10
 1915 02c8 19000000 		.4byte	.LASF101
 1916 02cc 01       		.byte	0x1
 1917 02cd D803     		.2byte	0x3d8
 1918 02cf 77000000 		.4byte	0x77
 1919 02d3 00       		.byte	0
 1920 02d4 11       		.uleb128 0x11
 1921 02d5 A9050000 		.4byte	.LASF48
 1922 02d9 01       		.byte	0x1
 1923 02da E408     		.2byte	0x8e4
 1924 02dc 01       		.byte	0x1
 1925 02dd EE020000 		.4byte	0x2ee
 1926 02e1 0F       		.uleb128 0xf
 1927 02e2 57030000 		.4byte	.LASF47
 1928 02e6 01       		.byte	0x1
 1929 02e7 E408     		.2byte	0x8e4
 1930 02e9 6B000000 		.4byte	0x6b
 1931 02ed 00       		.byte	0
 1932 02ee 12       		.uleb128 0x12
 1933 02ef E9050000 		.4byte	.LASF52
 1934 02f3 01       		.byte	0x1
 1935 02f4 D3       		.byte	0xd3
 1936 02f5 00000000 		.4byte	.LFB1
 1937 02f9 50010000 		.4byte	.LFE1-.LFB1
 1938 02fd 01       		.uleb128 0x1
 1939 02fe 9C       		.byte	0x9c
 1940 02ff AC040000 		.4byte	0x4ac
 1941 0303 13       		.uleb128 0x13
 1942 0304 61060000 		.4byte	.LASF55
 1943 0308 01       		.byte	0x1
 1944 0309 FA       		.byte	0xfa
 1945 030a 6B000000 		.4byte	0x6b
 1946 030e 00000000 		.4byte	.LLST0
 1947 0312 14       		.uleb128 0x14
 1948 0313 06000000 		.4byte	.LVL0
 1949 0317 510A0000 		.4byte	0xa51
ARM GAS  C:\Users\jon\AppData\Local\Temp\ccwaPz7c.s 			page 82


 1950 031b 15       		.uleb128 0x15
 1951 031c 42000000 		.4byte	.LVL2
 1952 0320 5C0A0000 		.4byte	0xa5c
 1953 0324 2E030000 		.4byte	0x32e
 1954 0328 16       		.uleb128 0x16
 1955 0329 01       		.uleb128 0x1
 1956 032a 50       		.byte	0x50
 1957 032b 01       		.uleb128 0x1
 1958 032c 30       		.byte	0x30
 1959 032d 00       		.byte	0
 1960 032e 15       		.uleb128 0x15
 1961 032f 60000000 		.4byte	.LVL3
 1962 0333 5C0A0000 		.4byte	0xa5c
 1963 0337 42030000 		.4byte	0x342
 1964 033b 16       		.uleb128 0x16
 1965 033c 01       		.uleb128 0x1
 1966 033d 50       		.byte	0x50
 1967 033e 02       		.uleb128 0x2
 1968 033f 76       		.byte	0x76
 1969 0340 00       		.sleb128 0
 1970 0341 00       		.byte	0
 1971 0342 15       		.uleb128 0x15
 1972 0343 66000000 		.4byte	.LVL4
 1973 0347 5C0A0000 		.4byte	0xa5c
 1974 034b 56030000 		.4byte	0x356
 1975 034f 16       		.uleb128 0x16
 1976 0350 01       		.uleb128 0x1
 1977 0351 50       		.byte	0x50
 1978 0352 02       		.uleb128 0x2
 1979 0353 08       		.byte	0x8
 1980 0354 28       		.byte	0x28
 1981 0355 00       		.byte	0
 1982 0356 15       		.uleb128 0x15
 1983 0357 84000000 		.4byte	.LVL5
 1984 035b 5C0A0000 		.4byte	0xa5c
 1985 035f 6A030000 		.4byte	0x36a
 1986 0363 16       		.uleb128 0x16
 1987 0364 01       		.uleb128 0x1
 1988 0365 50       		.byte	0x50
 1989 0366 02       		.uleb128 0x2
 1990 0367 75       		.byte	0x75
 1991 0368 00       		.sleb128 0
 1992 0369 00       		.byte	0
 1993 036a 15       		.uleb128 0x15
 1994 036b A0000000 		.4byte	.LVL6
 1995 036f 670A0000 		.4byte	0xa67
 1996 0373 7E030000 		.4byte	0x37e
 1997 0377 16       		.uleb128 0x16
 1998 0378 01       		.uleb128 0x1
 1999 0379 50       		.byte	0x50
 2000 037a 02       		.uleb128 0x2
 2001 037b 77       		.byte	0x77
 2002 037c 00       		.sleb128 0
 2003 037d 00       		.byte	0
 2004 037e 15       		.uleb128 0x15
 2005 037f A8000000 		.4byte	.LVL7
 2006 0383 720A0000 		.4byte	0xa72
ARM GAS  C:\Users\jon\AppData\Local\Temp\ccwaPz7c.s 			page 83


 2007 0387 96030000 		.4byte	0x396
 2008 038b 16       		.uleb128 0x16
 2009 038c 01       		.uleb128 0x1
 2010 038d 50       		.byte	0x50
 2011 038e 01       		.uleb128 0x1
 2012 038f 47       		.byte	0x47
 2013 0390 16       		.uleb128 0x16
 2014 0391 01       		.uleb128 0x1
 2015 0392 51       		.byte	0x51
 2016 0393 01       		.uleb128 0x1
 2017 0394 37       		.byte	0x37
 2018 0395 00       		.byte	0
 2019 0396 15       		.uleb128 0x15
 2020 0397 B0000000 		.4byte	.LVL8
 2021 039b 7D0A0000 		.4byte	0xa7d
 2022 039f A9030000 		.4byte	0x3a9
 2023 03a3 16       		.uleb128 0x16
 2024 03a4 01       		.uleb128 0x1
 2025 03a5 50       		.byte	0x50
 2026 03a6 01       		.uleb128 0x1
 2027 03a7 47       		.byte	0x47
 2028 03a8 00       		.byte	0
 2029 03a9 15       		.uleb128 0x15
 2030 03aa B8000000 		.4byte	.LVL9
 2031 03ae 720A0000 		.4byte	0xa72
 2032 03b2 C1030000 		.4byte	0x3c1
 2033 03b6 16       		.uleb128 0x16
 2034 03b7 01       		.uleb128 0x1
 2035 03b8 50       		.byte	0x50
 2036 03b9 01       		.uleb128 0x1
 2037 03ba 48       		.byte	0x48
 2038 03bb 16       		.uleb128 0x16
 2039 03bc 01       		.uleb128 0x1
 2040 03bd 51       		.byte	0x51
 2041 03be 01       		.uleb128 0x1
 2042 03bf 37       		.byte	0x37
 2043 03c0 00       		.byte	0
 2044 03c1 15       		.uleb128 0x15
 2045 03c2 C0000000 		.4byte	.LVL10
 2046 03c6 7D0A0000 		.4byte	0xa7d
 2047 03ca D4030000 		.4byte	0x3d4
 2048 03ce 16       		.uleb128 0x16
 2049 03cf 01       		.uleb128 0x1
 2050 03d0 50       		.byte	0x50
 2051 03d1 01       		.uleb128 0x1
 2052 03d2 48       		.byte	0x48
 2053 03d3 00       		.byte	0
 2054 03d4 15       		.uleb128 0x15
 2055 03d5 C8000000 		.4byte	.LVL11
 2056 03d9 720A0000 		.4byte	0xa72
 2057 03dd EC030000 		.4byte	0x3ec
 2058 03e1 16       		.uleb128 0x16
 2059 03e2 01       		.uleb128 0x1
 2060 03e3 50       		.byte	0x50
 2061 03e4 01       		.uleb128 0x1
 2062 03e5 45       		.byte	0x45
 2063 03e6 16       		.uleb128 0x16
ARM GAS  C:\Users\jon\AppData\Local\Temp\ccwaPz7c.s 			page 84


 2064 03e7 01       		.uleb128 0x1
 2065 03e8 51       		.byte	0x51
 2066 03e9 01       		.uleb128 0x1
 2067 03ea 37       		.byte	0x37
 2068 03eb 00       		.byte	0
 2069 03ec 15       		.uleb128 0x15
 2070 03ed D0000000 		.4byte	.LVL12
 2071 03f1 7D0A0000 		.4byte	0xa7d
 2072 03f5 FF030000 		.4byte	0x3ff
 2073 03f9 16       		.uleb128 0x16
 2074 03fa 01       		.uleb128 0x1
 2075 03fb 50       		.byte	0x50
 2076 03fc 01       		.uleb128 0x1
 2077 03fd 45       		.byte	0x45
 2078 03fe 00       		.byte	0
 2079 03ff 15       		.uleb128 0x15
 2080 0400 D8000000 		.4byte	.LVL13
 2081 0404 720A0000 		.4byte	0xa72
 2082 0408 18040000 		.4byte	0x418
 2083 040c 16       		.uleb128 0x16
 2084 040d 01       		.uleb128 0x1
 2085 040e 50       		.byte	0x50
 2086 040f 02       		.uleb128 0x2
 2087 0410 76       		.byte	0x76
 2088 0411 00       		.sleb128 0
 2089 0412 16       		.uleb128 0x16
 2090 0413 01       		.uleb128 0x1
 2091 0414 51       		.byte	0x51
 2092 0415 01       		.uleb128 0x1
 2093 0416 37       		.byte	0x37
 2094 0417 00       		.byte	0
 2095 0418 15       		.uleb128 0x15
 2096 0419 E0000000 		.4byte	.LVL14
 2097 041d 7D0A0000 		.4byte	0xa7d
 2098 0421 2C040000 		.4byte	0x42c
 2099 0425 16       		.uleb128 0x16
 2100 0426 01       		.uleb128 0x1
 2101 0427 50       		.byte	0x50
 2102 0428 02       		.uleb128 0x2
 2103 0429 76       		.byte	0x76
 2104 042a 00       		.sleb128 0
 2105 042b 00       		.byte	0
 2106 042c 15       		.uleb128 0x15
 2107 042d E8000000 		.4byte	.LVL15
 2108 0431 720A0000 		.4byte	0xa72
 2109 0435 45040000 		.4byte	0x445
 2110 0439 16       		.uleb128 0x16
 2111 043a 01       		.uleb128 0x1
 2112 043b 50       		.byte	0x50
 2113 043c 02       		.uleb128 0x2
 2114 043d 75       		.byte	0x75
 2115 043e 00       		.sleb128 0
 2116 043f 16       		.uleb128 0x16
 2117 0440 01       		.uleb128 0x1
 2118 0441 51       		.byte	0x51
 2119 0442 01       		.uleb128 0x1
 2120 0443 37       		.byte	0x37
ARM GAS  C:\Users\jon\AppData\Local\Temp\ccwaPz7c.s 			page 85


 2121 0444 00       		.byte	0
 2122 0445 15       		.uleb128 0x15
 2123 0446 F0000000 		.4byte	.LVL16
 2124 044a 7D0A0000 		.4byte	0xa7d
 2125 044e 59040000 		.4byte	0x459
 2126 0452 16       		.uleb128 0x16
 2127 0453 01       		.uleb128 0x1
 2128 0454 50       		.byte	0x50
 2129 0455 02       		.uleb128 0x2
 2130 0456 75       		.byte	0x75
 2131 0457 00       		.sleb128 0
 2132 0458 00       		.byte	0
 2133 0459 15       		.uleb128 0x15
 2134 045a F8000000 		.4byte	.LVL17
 2135 045e 720A0000 		.4byte	0xa72
 2136 0462 71040000 		.4byte	0x471
 2137 0466 16       		.uleb128 0x16
 2138 0467 01       		.uleb128 0x1
 2139 0468 50       		.byte	0x50
 2140 0469 01       		.uleb128 0x1
 2141 046a 33       		.byte	0x33
 2142 046b 16       		.uleb128 0x16
 2143 046c 01       		.uleb128 0x1
 2144 046d 51       		.byte	0x51
 2145 046e 01       		.uleb128 0x1
 2146 046f 37       		.byte	0x37
 2147 0470 00       		.byte	0
 2148 0471 15       		.uleb128 0x15
 2149 0472 00010000 		.4byte	.LVL18
 2150 0476 7D0A0000 		.4byte	0xa7d
 2151 047a 84040000 		.4byte	0x484
 2152 047e 16       		.uleb128 0x16
 2153 047f 01       		.uleb128 0x1
 2154 0480 50       		.byte	0x50
 2155 0481 01       		.uleb128 0x1
 2156 0482 33       		.byte	0x33
 2157 0483 00       		.byte	0
 2158 0484 15       		.uleb128 0x15
 2159 0485 08010000 		.4byte	.LVL19
 2160 0489 720A0000 		.4byte	0xa72
 2161 048d 9C040000 		.4byte	0x49c
 2162 0491 16       		.uleb128 0x16
 2163 0492 01       		.uleb128 0x1
 2164 0493 50       		.byte	0x50
 2165 0494 01       		.uleb128 0x1
 2166 0495 3C       		.byte	0x3c
 2167 0496 16       		.uleb128 0x16
 2168 0497 01       		.uleb128 0x1
 2169 0498 51       		.byte	0x51
 2170 0499 01       		.uleb128 0x1
 2171 049a 37       		.byte	0x37
 2172 049b 00       		.byte	0
 2173 049c 17       		.uleb128 0x17
 2174 049d 14010000 		.4byte	.LVL21
 2175 04a1 7D0A0000 		.4byte	0xa7d
 2176 04a5 16       		.uleb128 0x16
 2177 04a6 01       		.uleb128 0x1
ARM GAS  C:\Users\jon\AppData\Local\Temp\ccwaPz7c.s 			page 86


 2178 04a7 50       		.byte	0x50
 2179 04a8 01       		.uleb128 0x1
 2180 04a9 3C       		.byte	0x3c
 2181 04aa 00       		.byte	0
 2182 04ab 00       		.byte	0
 2183 04ac 11       		.uleb128 0x11
 2184 04ad 10060000 		.4byte	.LASF49
 2185 04b1 01       		.byte	0x1
 2186 04b2 CC01     		.2byte	0x1cc
 2187 04b4 01       		.byte	0x1
 2188 04b5 D2040000 		.4byte	0x4d2
 2189 04b9 0F       		.uleb128 0xf
 2190 04ba 1C020000 		.4byte	.LASF50
 2191 04be 01       		.byte	0x1
 2192 04bf CC01     		.2byte	0x1cc
 2193 04c1 6B000000 		.4byte	0x6b
 2194 04c5 0F       		.uleb128 0xf
 2195 04c6 D6000000 		.4byte	.LASF51
 2196 04ca 01       		.byte	0x1
 2197 04cb CC01     		.2byte	0x1cc
 2198 04cd 6B000000 		.4byte	0x6b
 2199 04d1 00       		.byte	0
 2200 04d2 12       		.uleb128 0x12
 2201 04d3 A2060000 		.4byte	.LASF53
 2202 04d7 01       		.byte	0x1
 2203 04d8 BA       		.byte	0xba
 2204 04d9 00000000 		.4byte	.LFB0
 2205 04dd C8000000 		.4byte	.LFE0-.LFB0
 2206 04e1 01       		.uleb128 0x1
 2207 04e2 9C       		.byte	0x9c
 2208 04e3 44050000 		.4byte	0x544
 2209 04e7 18       		.uleb128 0x18
 2210 04e8 1C020000 		.4byte	.LASF50
 2211 04ec 01       		.byte	0x1
 2212 04ed BA       		.byte	0xba
 2213 04ee 6B000000 		.4byte	0x6b
 2214 04f2 13000000 		.4byte	.LLST1
 2215 04f6 18       		.uleb128 0x18
 2216 04f7 D6000000 		.4byte	.LASF51
 2217 04fb 01       		.byte	0x1
 2218 04fc BA       		.byte	0xba
 2219 04fd 6B000000 		.4byte	0x6b
 2220 0501 34000000 		.4byte	.LLST2
 2221 0505 19       		.uleb128 0x19
 2222 0506 AC040000 		.4byte	0x4ac
 2223 050a 16000000 		.4byte	.LBB11
 2224 050e B2000000 		.4byte	.LBE11-.LBB11
 2225 0512 01       		.byte	0x1
 2226 0513 C2       		.byte	0xc2
 2227 0514 3A050000 		.4byte	0x53a
 2228 0518 1A       		.uleb128 0x1a
 2229 0519 C5040000 		.4byte	0x4c5
 2230 051d 55000000 		.4byte	.LLST3
 2231 0521 1A       		.uleb128 0x1a
 2232 0522 B9040000 		.4byte	0x4b9
 2233 0526 73000000 		.4byte	.LLST4
 2234 052a 1B       		.uleb128 0x1b
ARM GAS  C:\Users\jon\AppData\Local\Temp\ccwaPz7c.s 			page 87


 2235 052b 78000000 		.4byte	.LVL25
 2236 052f 880A0000 		.4byte	0xa88
 2237 0533 16       		.uleb128 0x16
 2238 0534 01       		.uleb128 0x1
 2239 0535 50       		.byte	0x50
 2240 0536 01       		.uleb128 0x1
 2241 0537 31       		.byte	0x31
 2242 0538 00       		.byte	0
 2243 0539 00       		.byte	0
 2244 053a 14       		.uleb128 0x14
 2245 053b 12000000 		.4byte	.LVL23
 2246 053f EE020000 		.4byte	0x2ee
 2247 0543 00       		.byte	0
 2248 0544 1C       		.uleb128 0x1c
 2249 0545 AC040000 		.4byte	0x4ac
 2250 0549 00000000 		.4byte	.LFB2
 2251 054d B0000000 		.4byte	.LFE2-.LFB2
 2252 0551 01       		.uleb128 0x1
 2253 0552 9C       		.byte	0x9c
 2254 0553 79050000 		.4byte	0x579
 2255 0557 1A       		.uleb128 0x1a
 2256 0558 B9040000 		.4byte	0x4b9
 2257 055c 91000000 		.4byte	.LLST5
 2258 0560 1A       		.uleb128 0x1a
 2259 0561 C5040000 		.4byte	0x4c5
 2260 0565 B2000000 		.4byte	.LLST6
 2261 0569 1B       		.uleb128 0x1b
 2262 056a 66000000 		.4byte	.LVL32
 2263 056e 880A0000 		.4byte	0xa88
 2264 0572 16       		.uleb128 0x16
 2265 0573 01       		.uleb128 0x1
 2266 0574 50       		.byte	0x50
 2267 0575 01       		.uleb128 0x1
 2268 0576 31       		.byte	0x31
 2269 0577 00       		.byte	0
 2270 0578 00       		.byte	0
 2271 0579 1D       		.uleb128 0x1d
 2272 057a DB000000 		.4byte	.LASF76
 2273 057e 01       		.byte	0x1
 2274 057f 9F02     		.2byte	0x29f
 2275 0581 00000000 		.4byte	.LFB3
 2276 0585 54000000 		.4byte	.LFE3-.LFB3
 2277 0589 01       		.uleb128 0x1
 2278 058a 9C       		.byte	0x9c
 2279 058b 1E       		.uleb128 0x1e
 2280 058c 38000000 		.4byte	.LASF54
 2281 0590 01       		.byte	0x1
 2282 0591 D902     		.2byte	0x2d9
 2283 0593 00000000 		.4byte	.LFB4
 2284 0597 C0000000 		.4byte	.LFE4-.LFB4
 2285 059b 01       		.uleb128 0x1
 2286 059c 9C       		.byte	0x9c
 2287 059d CD050000 		.4byte	0x5cd
 2288 05a1 1F       		.uleb128 0x1f
 2289 05a2 61060000 		.4byte	.LASF55
 2290 05a6 01       		.byte	0x1
 2291 05a7 DB02     		.2byte	0x2db
ARM GAS  C:\Users\jon\AppData\Local\Temp\ccwaPz7c.s 			page 88


 2292 05a9 6B000000 		.4byte	0x6b
 2293 05ad DE000000 		.4byte	.LLST7
 2294 05b1 14       		.uleb128 0x14
 2295 05b2 06000000 		.4byte	.LVL34
 2296 05b6 510A0000 		.4byte	0xa51
 2297 05ba 14       		.uleb128 0x14
 2298 05bb 50000000 		.4byte	.LVL35
 2299 05bf 670A0000 		.4byte	0xa67
 2300 05c3 14       		.uleb128 0x14
 2301 05c4 6C000000 		.4byte	.LVL36
 2302 05c8 930A0000 		.4byte	0xa93
 2303 05cc 00       		.byte	0
 2304 05cd 20       		.uleb128 0x20
 2305 05ce 8A060000 		.4byte	.LASF57
 2306 05d2 01       		.byte	0x1
 2307 05d3 5103     		.2byte	0x351
 2308 05d5 6B000000 		.4byte	0x6b
 2309 05d9 00000000 		.4byte	.LFB5
 2310 05dd 18000000 		.4byte	.LFE5-.LFB5
 2311 05e1 01       		.uleb128 0x1
 2312 05e2 9C       		.byte	0x9c
 2313 05e3 F8050000 		.4byte	0x5f8
 2314 05e7 1F       		.uleb128 0x1f
 2315 05e8 09050000 		.4byte	.LASF56
 2316 05ec 01       		.byte	0x1
 2317 05ed 5303     		.2byte	0x353
 2318 05ef 6B000000 		.4byte	0x6b
 2319 05f3 F1000000 		.4byte	.LLST8
 2320 05f7 00       		.byte	0
 2321 05f8 21       		.uleb128 0x21
 2322 05f9 66020000 		.4byte	.LASF74
 2323 05fd 01       		.byte	0x1
 2324 05fe 6803     		.2byte	0x368
 2325 0600 6B000000 		.4byte	0x6b
 2326 0604 00000000 		.4byte	.LFB6
 2327 0608 0C000000 		.4byte	.LFE6-.LFB6
 2328 060c 01       		.uleb128 0x1
 2329 060d 9C       		.byte	0x9c
 2330 060e 20       		.uleb128 0x20
 2331 060f B6010000 		.4byte	.LASF58
 2332 0613 01       		.byte	0x1
 2333 0614 8203     		.2byte	0x382
 2334 0616 6B000000 		.4byte	0x6b
 2335 061a 00000000 		.4byte	.LFB7
 2336 061e 18000000 		.4byte	.LFE7-.LFB7
 2337 0622 01       		.uleb128 0x1
 2338 0623 9C       		.byte	0x9c
 2339 0624 39060000 		.4byte	0x639
 2340 0628 22       		.uleb128 0x22
 2341 0629 72657300 		.ascii	"res\000"
 2342 062d 01       		.byte	0x1
 2343 062e 8403     		.2byte	0x384
 2344 0630 6B000000 		.4byte	0x6b
 2345 0634 04010000 		.4byte	.LLST9
 2346 0638 00       		.byte	0
 2347 0639 20       		.uleb128 0x20
 2348 063a CF030000 		.4byte	.LASF59
ARM GAS  C:\Users\jon\AppData\Local\Temp\ccwaPz7c.s 			page 89


 2349 063e 01       		.byte	0x1
 2350 063f 9F03     		.2byte	0x39f
 2351 0641 6B000000 		.4byte	0x6b
 2352 0645 00000000 		.4byte	.LFB8
 2353 0649 0C000000 		.4byte	.LFE8-.LFB8
 2354 064d 01       		.uleb128 0x1
 2355 064e 9C       		.byte	0x9c
 2356 064f 64060000 		.4byte	0x664
 2357 0653 23       		.uleb128 0x23
 2358 0654 09000000 		.4byte	.LASF60
 2359 0658 01       		.byte	0x1
 2360 0659 9F03     		.2byte	0x39f
 2361 065b 6B000000 		.4byte	0x6b
 2362 065f 23010000 		.4byte	.LLST10
 2363 0663 00       		.byte	0
 2364 0664 20       		.uleb128 0x20
 2365 0665 A9000000 		.4byte	.LASF61
 2366 0669 01       		.byte	0x1
 2367 066a BF03     		.2byte	0x3bf
 2368 066c 6B000000 		.4byte	0x6b
 2369 0670 00000000 		.4byte	.LFB9
 2370 0674 14000000 		.4byte	.LFE9-.LFB9
 2371 0678 01       		.uleb128 0x1
 2372 0679 9C       		.byte	0x9c
 2373 067a 8F060000 		.4byte	0x68f
 2374 067e 23       		.uleb128 0x23
 2375 067f 57030000 		.4byte	.LASF47
 2376 0683 01       		.byte	0x1
 2377 0684 BF03     		.2byte	0x3bf
 2378 0686 6B000000 		.4byte	0x6b
 2379 068a 44010000 		.4byte	.LLST11
 2380 068e 00       		.byte	0
 2381 068f 1C       		.uleb128 0x1c
 2382 0690 AA020000 		.4byte	0x2aa
 2383 0694 00000000 		.4byte	.LFB10
 2384 0698 28000000 		.4byte	.LFE10-.LFB10
 2385 069c 01       		.uleb128 0x1
 2386 069d 9C       		.byte	0x9c
 2387 069e DB060000 		.4byte	0x6db
 2388 06a2 1A       		.uleb128 0x1a
 2389 06a3 BB020000 		.4byte	0x2bb
 2390 06a7 65010000 		.4byte	.LLST12
 2391 06ab 24       		.uleb128 0x24
 2392 06ac C7020000 		.4byte	0x2c7
 2393 06b0 9F010000 		.4byte	.LLST13
 2394 06b4 25       		.uleb128 0x25
 2395 06b5 0E000000 		.4byte	.LBB15
 2396 06b9 12000000 		.4byte	.LBE15-.LBB15
 2397 06bd 1A       		.uleb128 0x1a
 2398 06be BB020000 		.4byte	0x2bb
 2399 06c2 BE010000 		.4byte	.LLST14
 2400 06c6 25       		.uleb128 0x25
 2401 06c7 0E000000 		.4byte	.LBB16
 2402 06cb 12000000 		.4byte	.LBE16-.LBB16
 2403 06cf 24       		.uleb128 0x24
 2404 06d0 C7020000 		.4byte	0x2c7
 2405 06d4 DF010000 		.4byte	.LLST15
ARM GAS  C:\Users\jon\AppData\Local\Temp\ccwaPz7c.s 			page 90


 2406 06d8 00       		.byte	0
 2407 06d9 00       		.byte	0
 2408 06da 00       		.byte	0
 2409 06db 1E       		.uleb128 0x1e
 2410 06dc 2F010000 		.4byte	.LASF62
 2411 06e0 01       		.byte	0x1
 2412 06e1 3E05     		.2byte	0x53e
 2413 06e3 00000000 		.4byte	.LFB11
 2414 06e7 80000000 		.4byte	.LFE11-.LFB11
 2415 06eb 01       		.uleb128 0x1
 2416 06ec 9C       		.byte	0x9c
 2417 06ed 3A070000 		.4byte	0x73a
 2418 06f1 23       		.uleb128 0x23
 2419 06f2 57030000 		.4byte	.LASF47
 2420 06f6 01       		.byte	0x1
 2421 06f7 3E05     		.2byte	0x53e
 2422 06f9 6B000000 		.4byte	0x6b
 2423 06fd 0E020000 		.4byte	.LLST16
 2424 0701 23       		.uleb128 0x23
 2425 0702 5D000000 		.4byte	.LASF63
 2426 0706 01       		.byte	0x1
 2427 0707 3E05     		.2byte	0x53e
 2428 0709 3A070000 		.4byte	0x73a
 2429 070d 3A020000 		.4byte	.LLST17
 2430 0711 23       		.uleb128 0x23
 2431 0712 15020000 		.4byte	.LASF64
 2432 0716 01       		.byte	0x1
 2433 0717 3E05     		.2byte	0x53e
 2434 0719 77000000 		.4byte	0x77
 2435 071d 66020000 		.4byte	.LLST18
 2436 0721 25       		.uleb128 0x25
 2437 0722 3E000000 		.4byte	.LBB17
 2438 0726 18000000 		.4byte	.LBE17-.LBB17
 2439 072a 22       		.uleb128 0x22
 2440 072b 6900     		.ascii	"i\000"
 2441 072d 01       		.byte	0x1
 2442 072e 5305     		.2byte	0x553
 2443 0730 77000000 		.4byte	0x77
 2444 0734 9D020000 		.4byte	.LLST19
 2445 0738 00       		.byte	0
 2446 0739 00       		.byte	0
 2447 073a 26       		.uleb128 0x26
 2448 073b 04       		.byte	0x4
 2449 073c 40070000 		.4byte	0x740
 2450 0740 27       		.uleb128 0x27
 2451 0741 6B000000 		.4byte	0x6b
 2452 0745 20       		.uleb128 0x20
 2453 0746 8F010000 		.4byte	.LASF65
 2454 074a 01       		.byte	0x1
 2455 074b 7506     		.2byte	0x675
 2456 074d 77000000 		.4byte	0x77
 2457 0751 00000000 		.4byte	.LFB12
 2458 0755 84000000 		.4byte	.LFE12-.LFB12
 2459 0759 01       		.uleb128 0x1
 2460 075a 9C       		.byte	0x9c
 2461 075b 6B080000 		.4byte	0x86b
 2462 075f 23       		.uleb128 0x23
ARM GAS  C:\Users\jon\AppData\Local\Temp\ccwaPz7c.s 			page 91


 2463 0760 57030000 		.4byte	.LASF47
 2464 0764 01       		.byte	0x1
 2465 0765 7506     		.2byte	0x675
 2466 0767 6B000000 		.4byte	0x6b
 2467 076b D7020000 		.4byte	.LLST20
 2468 076f 23       		.uleb128 0x23
 2469 0770 5D000000 		.4byte	.LASF63
 2470 0774 01       		.byte	0x1
 2471 0775 7506     		.2byte	0x675
 2472 0777 6B080000 		.4byte	0x86b
 2473 077b 35030000 		.4byte	.LLST21
 2474 077f 23       		.uleb128 0x23
 2475 0780 15020000 		.4byte	.LASF64
 2476 0784 01       		.byte	0x1
 2477 0785 7506     		.2byte	0x675
 2478 0787 77000000 		.4byte	0x77
 2479 078b 61030000 		.4byte	.LLST22
 2480 078f 28       		.uleb128 0x28
 2481 0790 AA020000 		.4byte	0x2aa
 2482 0794 10000000 		.4byte	.LBB29
 2483 0798 0A000000 		.4byte	.LBE29-.LBB29
 2484 079c 01       		.byte	0x1
 2485 079d 7C06     		.2byte	0x67c
 2486 079f E2070000 		.4byte	0x7e2
 2487 07a3 1A       		.uleb128 0x1a
 2488 07a4 BB020000 		.4byte	0x2bb
 2489 07a8 8D030000 		.4byte	.LLST23
 2490 07ac 25       		.uleb128 0x25
 2491 07ad 10000000 		.4byte	.LBB30
 2492 07b1 0A000000 		.4byte	.LBE30-.LBB30
 2493 07b5 24       		.uleb128 0x24
 2494 07b6 C7020000 		.4byte	0x2c7
 2495 07ba A0030000 		.4byte	.LLST24
 2496 07be 25       		.uleb128 0x25
 2497 07bf 10000000 		.4byte	.LBB31
 2498 07c3 0A000000 		.4byte	.LBE31-.LBB31
 2499 07c7 1A       		.uleb128 0x1a
 2500 07c8 BB020000 		.4byte	0x2bb
 2501 07cc 8D030000 		.4byte	.LLST23
 2502 07d0 25       		.uleb128 0x25
 2503 07d1 10000000 		.4byte	.LBB32
 2504 07d5 0A000000 		.4byte	.LBE32-.LBB32
 2505 07d9 29       		.uleb128 0x29
 2506 07da C7020000 		.4byte	0x2c7
 2507 07de 00       		.byte	0
 2508 07df 00       		.byte	0
 2509 07e0 00       		.byte	0
 2510 07e1 00       		.byte	0
 2511 07e2 2A       		.uleb128 0x2a
 2512 07e3 26000000 		.4byte	.LBB33
 2513 07e7 18000000 		.4byte	.LBE33-.LBB33
 2514 07eb FE070000 		.4byte	0x7fe
 2515 07ef 22       		.uleb128 0x22
 2516 07f0 6900     		.ascii	"i\000"
 2517 07f2 01       		.byte	0x1
 2518 07f3 8206     		.2byte	0x682
 2519 07f5 77000000 		.4byte	0x77
ARM GAS  C:\Users\jon\AppData\Local\Temp\ccwaPz7c.s 			page 92


 2520 07f9 B4030000 		.4byte	.LLST26
 2521 07fd 00       		.byte	0
 2522 07fe 2B       		.uleb128 0x2b
 2523 07ff D4020000 		.4byte	0x2d4
 2524 0803 3E000000 		.4byte	.LBB34
 2525 0807 00000000 		.4byte	.Ldebug_ranges0+0
 2526 080b 01       		.byte	0x1
 2527 080c 8A06     		.2byte	0x68a
 2528 080e 1C080000 		.4byte	0x81c
 2529 0812 1A       		.uleb128 0x1a
 2530 0813 E1020000 		.4byte	0x2e1
 2531 0817 E7030000 		.4byte	.LLST27
 2532 081b 00       		.byte	0
 2533 081c 2C       		.uleb128 0x2c
 2534 081d AA020000 		.4byte	0x2aa
 2535 0821 64000000 		.4byte	.LBB38
 2536 0825 20000000 		.4byte	.LBE38-.LBB38
 2537 0829 01       		.byte	0x1
 2538 082a 7C06     		.2byte	0x67c
 2539 082c 2D       		.uleb128 0x2d
 2540 082d BB020000 		.4byte	0x2bb
 2541 0831 01       		.uleb128 0x1
 2542 0832 50       		.byte	0x50
 2543 0833 25       		.uleb128 0x25
 2544 0834 64000000 		.4byte	.LBB39
 2545 0838 20000000 		.4byte	.LBE39-.LBB39
 2546 083c 2E       		.uleb128 0x2e
 2547 083d C7020000 		.4byte	0x2c7
 2548 0841 00       		.byte	0
 2549 0842 25       		.uleb128 0x25
 2550 0843 64000000 		.4byte	.LBB40
 2551 0847 20000000 		.4byte	.LBE40-.LBB40
 2552 084b 1A       		.uleb128 0x1a
 2553 084c BB020000 		.4byte	0x2bb
 2554 0850 FA030000 		.4byte	.LLST28
 2555 0854 25       		.uleb128 0x25
 2556 0855 64000000 		.4byte	.LBB41
 2557 0859 20000000 		.4byte	.LBE41-.LBB41
 2558 085d 24       		.uleb128 0x24
 2559 085e C7020000 		.4byte	0x2c7
 2560 0862 0D040000 		.4byte	.LLST29
 2561 0866 00       		.byte	0
 2562 0867 00       		.byte	0
 2563 0868 00       		.byte	0
 2564 0869 00       		.byte	0
 2565 086a 00       		.byte	0
 2566 086b 26       		.uleb128 0x26
 2567 086c 04       		.byte	0x4
 2568 086d 6B000000 		.4byte	0x6b
 2569 0871 1C       		.uleb128 0x1c
 2570 0872 D4020000 		.4byte	0x2d4
 2571 0876 00000000 		.4byte	.LFB13
 2572 087a 2C000000 		.4byte	.LFE13-.LFB13
 2573 087e 01       		.uleb128 0x1
 2574 087f 9C       		.byte	0x9c
 2575 0880 8E080000 		.4byte	0x88e
 2576 0884 1A       		.uleb128 0x1a
ARM GAS  C:\Users\jon\AppData\Local\Temp\ccwaPz7c.s 			page 93


 2577 0885 E1020000 		.4byte	0x2e1
 2578 0889 3C040000 		.4byte	.LLST30
 2579 088d 00       		.byte	0
 2580 088e 1E       		.uleb128 0x1e
 2581 088f 90030000 		.4byte	.LASF66
 2582 0893 01       		.byte	0x1
 2583 0894 FC08     		.2byte	0x8fc
 2584 0896 00000000 		.4byte	.LFB14
 2585 089a 18000000 		.4byte	.LFE14-.LFB14
 2586 089e 01       		.uleb128 0x1
 2587 089f 9C       		.byte	0x9c
 2588 08a0 B5080000 		.4byte	0x8b5
 2589 08a4 23       		.uleb128 0x23
 2590 08a5 57030000 		.4byte	.LASF47
 2591 08a9 01       		.byte	0x1
 2592 08aa FC08     		.2byte	0x8fc
 2593 08ac 6B000000 		.4byte	0x6b
 2594 08b0 5D040000 		.4byte	.LLST31
 2595 08b4 00       		.byte	0
 2596 08b5 1E       		.uleb128 0x1e
 2597 08b6 8C000000 		.4byte	.LASF67
 2598 08ba 01       		.byte	0x1
 2599 08bb 1A09     		.2byte	0x91a
 2600 08bd 00000000 		.4byte	.LFB15
 2601 08c1 0C000000 		.4byte	.LFE15-.LFB15
 2602 08c5 01       		.uleb128 0x1
 2603 08c6 9C       		.byte	0x9c
 2604 08c7 DA080000 		.4byte	0x8da
 2605 08cb 2F       		.uleb128 0x2f
 2606 08cc 5A060000 		.4byte	.LASF68
 2607 08d0 01       		.byte	0x1
 2608 08d1 1A09     		.2byte	0x91a
 2609 08d3 6B000000 		.4byte	0x6b
 2610 08d7 01       		.uleb128 0x1
 2611 08d8 50       		.byte	0x50
 2612 08d9 00       		.byte	0
 2613 08da 20       		.uleb128 0x20
 2614 08db 9F040000 		.4byte	.LASF69
 2615 08df 01       		.byte	0x1
 2616 08e0 3309     		.2byte	0x933
 2617 08e2 6B000000 		.4byte	0x6b
 2618 08e6 00000000 		.4byte	.LFB16
 2619 08ea 20000000 		.4byte	.LFE16-.LFB16
 2620 08ee 01       		.uleb128 0x1
 2621 08ef 9C       		.byte	0x9c
 2622 08f0 14090000 		.4byte	0x914
 2623 08f4 23       		.uleb128 0x23
 2624 08f5 57030000 		.4byte	.LASF47
 2625 08f9 01       		.byte	0x1
 2626 08fa 3309     		.2byte	0x933
 2627 08fc 6B000000 		.4byte	0x6b
 2628 0900 7E040000 		.4byte	.LLST32
 2629 0904 22       		.uleb128 0x22
 2630 0905 637200   		.ascii	"cr\000"
 2631 0908 01       		.byte	0x1
 2632 0909 3509     		.2byte	0x935
 2633 090b 6B000000 		.4byte	0x6b
ARM GAS  C:\Users\jon\AppData\Local\Temp\ccwaPz7c.s 			page 94


 2634 090f B8040000 		.4byte	.LLST33
 2635 0913 00       		.byte	0
 2636 0914 1E       		.uleb128 0x1e
 2637 0915 90050000 		.4byte	.LASF70
 2638 0919 01       		.byte	0x1
 2639 091a 5C09     		.2byte	0x95c
 2640 091c 00000000 		.4byte	.LFB17
 2641 0920 1C000000 		.4byte	.LFE17-.LFB17
 2642 0924 01       		.uleb128 0x1
 2643 0925 9C       		.byte	0x9c
 2644 0926 39090000 		.4byte	0x939
 2645 092a 2F       		.uleb128 0x2f
 2646 092b BE000000 		.4byte	.LASF71
 2647 092f 01       		.byte	0x1
 2648 0930 5C09     		.2byte	0x95c
 2649 0932 6B000000 		.4byte	0x6b
 2650 0936 01       		.uleb128 0x1
 2651 0937 50       		.byte	0x50
 2652 0938 00       		.byte	0
 2653 0939 20       		.uleb128 0x20
 2654 093a B7040000 		.4byte	.LASF72
 2655 093e 01       		.byte	0x1
 2656 093f 9509     		.2byte	0x995
 2657 0941 6B000000 		.4byte	0x6b
 2658 0945 00000000 		.4byte	.LFB18
 2659 0949 10000000 		.4byte	.LFE18-.LFB18
 2660 094d 01       		.uleb128 0x1
 2661 094e 9C       		.byte	0x9c
 2662 094f 64090000 		.4byte	0x964
 2663 0953 1F       		.uleb128 0x1f
 2664 0954 AA020000 		.4byte	.LASF73
 2665 0958 01       		.byte	0x1
 2666 0959 9709     		.2byte	0x997
 2667 095b 6B000000 		.4byte	0x6b
 2668 095f EE040000 		.4byte	.LLST34
 2669 0963 00       		.byte	0
 2670 0964 21       		.uleb128 0x21
 2671 0965 D7010000 		.4byte	.LASF75
 2672 0969 01       		.byte	0x1
 2673 096a AD09     		.2byte	0x9ad
 2674 096c 6B000000 		.4byte	0x6b
 2675 0970 00000000 		.4byte	.LFB19
 2676 0974 10000000 		.4byte	.LFE19-.LFB19
 2677 0978 01       		.uleb128 0x1
 2678 0979 9C       		.byte	0x9c
 2679 097a 1D       		.uleb128 0x1d
 2680 097b 5B010000 		.4byte	.LASF77
 2681 097f 01       		.byte	0x1
 2682 0980 BB09     		.2byte	0x9bb
 2683 0982 00000000 		.4byte	.LFB20
 2684 0986 10000000 		.4byte	.LFE20-.LFB20
 2685 098a 01       		.uleb128 0x1
 2686 098b 9C       		.byte	0x9c
 2687 098c 1D       		.uleb128 0x1d
 2688 098d F8050000 		.4byte	.LASF78
 2689 0991 01       		.byte	0x1
 2690 0992 D109     		.2byte	0x9d1
ARM GAS  C:\Users\jon\AppData\Local\Temp\ccwaPz7c.s 			page 95


 2691 0994 00000000 		.4byte	.LFB21
 2692 0998 10000000 		.4byte	.LFE21-.LFB21
 2693 099c 01       		.uleb128 0x1
 2694 099d 9C       		.byte	0x9c
 2695 099e 30       		.uleb128 0x30
 2696 099f D7050000 		.4byte	.LASF79
 2697 09a3 01       		.byte	0x1
 2698 09a4 28       		.byte	0x28
 2699 09a5 6B000000 		.4byte	0x6b
 2700 09a9 05       		.uleb128 0x5
 2701 09aa 03       		.byte	0x3
 2702 09ab 00000000 		.4byte	USBUART_1_initVar
 2703 09af 31       		.uleb128 0x31
 2704 09b0 29020000 		.4byte	.LASF80
 2705 09b4 03       		.byte	0x3
 2706 09b5 D202     		.2byte	0x2d2
 2707 09b7 B0000000 		.4byte	0xb0
 2708 09bb 31       		.uleb128 0x31
 2709 09bc B1020000 		.4byte	.LASF81
 2710 09c0 03       		.byte	0x3
 2711 09c1 D302     		.2byte	0x2d3
 2712 09c3 B0000000 		.4byte	0xb0
 2713 09c7 31       		.uleb128 0x31
 2714 09c8 87040000 		.4byte	.LASF82
 2715 09cc 03       		.byte	0x3
 2716 09cd D402     		.2byte	0x2d4
 2717 09cf B0000000 		.4byte	0xb0
 2718 09d3 31       		.uleb128 0x31
 2719 09d4 28060000 		.4byte	.LASF83
 2720 09d8 03       		.byte	0x3
 2721 09d9 D502     		.2byte	0x2d5
 2722 09db B0000000 		.4byte	0xb0
 2723 09df 31       		.uleb128 0x31
 2724 09e0 63000000 		.4byte	.LASF84
 2725 09e4 03       		.byte	0x3
 2726 09e5 D602     		.2byte	0x2d6
 2727 09e7 B0000000 		.4byte	0xb0
 2728 09eb 32       		.uleb128 0x32
 2729 09ec 1E000000 		.4byte	.LASF85
 2730 09f0 04       		.byte	0x4
 2731 09f1 72       		.byte	0x72
 2732 09f2 B0000000 		.4byte	0xb0
 2733 09f6 0A       		.uleb128 0xa
 2734 09f7 B0000000 		.4byte	0xb0
 2735 09fb 060A0000 		.4byte	0xa06
 2736 09ff 0B       		.uleb128 0xb
 2737 0a00 CD000000 		.4byte	0xcd
 2738 0a04 01       		.byte	0x1
 2739 0a05 00       		.byte	0
 2740 0a06 32       		.uleb128 0x32
 2741 0a07 17050000 		.4byte	.LASF86
 2742 0a0b 04       		.byte	0x4
 2743 0a0c 73       		.byte	0x73
 2744 0a0d 110A0000 		.4byte	0xa11
 2745 0a11 05       		.uleb128 0x5
 2746 0a12 F6090000 		.4byte	0x9f6
 2747 0a16 32       		.uleb128 0x32
ARM GAS  C:\Users\jon\AppData\Local\Temp\ccwaPz7c.s 			page 96


 2748 0a17 26040000 		.4byte	.LASF87
 2749 0a1b 04       		.byte	0x4
 2750 0a1c 75       		.byte	0x75
 2751 0a1d B0000000 		.4byte	0xb0
 2752 0a21 0A       		.uleb128 0xa
 2753 0a22 310A0000 		.4byte	0xa31
 2754 0a26 310A0000 		.4byte	0xa31
 2755 0a2a 0B       		.uleb128 0xb
 2756 0a2b CD000000 		.4byte	0xcd
 2757 0a2f 08       		.byte	0x8
 2758 0a30 00       		.byte	0
 2759 0a31 05       		.uleb128 0x5
 2760 0a32 49010000 		.4byte	0x149
 2761 0a36 32       		.uleb128 0x32
 2762 0a37 A3010000 		.4byte	.LASF88
 2763 0a3b 04       		.byte	0x4
 2764 0a3c 79       		.byte	0x79
 2765 0a3d 410A0000 		.4byte	0xa41
 2766 0a41 05       		.uleb128 0x5
 2767 0a42 210A0000 		.4byte	0xa21
 2768 0a46 32       		.uleb128 0x32
 2769 0a47 F0040000 		.4byte	.LASF89
 2770 0a4b 04       		.byte	0x4
 2771 0a4c 9B       		.byte	0x9b
 2772 0a4d B0000000 		.4byte	0xb0
 2773 0a51 33       		.uleb128 0x33
 2774 0a52 CC040000 		.4byte	.LASF90
 2775 0a56 CC040000 		.4byte	.LASF90
 2776 0a5a 05       		.byte	0x5
 2777 0a5b 7D       		.byte	0x7d
 2778 0a5c 33       		.uleb128 0x33
 2779 0a5d 6B030000 		.4byte	.LASF91
 2780 0a61 6B030000 		.4byte	.LASF91
 2781 0a65 05       		.byte	0x5
 2782 0a66 77       		.byte	0x77
 2783 0a67 33       		.uleb128 0x33
 2784 0a68 47000000 		.4byte	.LASF92
 2785 0a6c 47000000 		.4byte	.LASF92
 2786 0a70 05       		.byte	0x5
 2787 0a71 7E       		.byte	0x7e
 2788 0a72 33       		.uleb128 0x33
 2789 0a73 7E010000 		.4byte	.LASF93
 2790 0a77 7E010000 		.4byte	.LASF93
 2791 0a7b 05       		.byte	0x5
 2792 0a7c 8B       		.byte	0x8b
 2793 0a7d 33       		.uleb128 0x33
 2794 0a7e BF050000 		.4byte	.LASF94
 2795 0a82 BF050000 		.4byte	.LASF94
 2796 0a86 05       		.byte	0x5
 2797 0a87 88       		.byte	0x88
 2798 0a88 33       		.uleb128 0x33
 2799 0a89 18040000 		.4byte	.LASF95
 2800 0a8d 18040000 		.4byte	.LASF95
 2801 0a91 05       		.byte	0x5
 2802 0a92 79       		.byte	0x79
 2803 0a93 33       		.uleb128 0x33
 2804 0a94 66040000 		.4byte	.LASF96
ARM GAS  C:\Users\jon\AppData\Local\Temp\ccwaPz7c.s 			page 97


 2805 0a98 66040000 		.4byte	.LASF96
 2806 0a9c 06       		.byte	0x6
 2807 0a9d 2B       		.byte	0x2b
 2808 0a9e 00       		.byte	0
 2809              		.section	.debug_abbrev,"",%progbits
 2810              	.Ldebug_abbrev0:
 2811 0000 01       		.uleb128 0x1
 2812 0001 11       		.uleb128 0x11
 2813 0002 01       		.byte	0x1
 2814 0003 25       		.uleb128 0x25
 2815 0004 0E       		.uleb128 0xe
 2816 0005 13       		.uleb128 0x13
 2817 0006 0B       		.uleb128 0xb
 2818 0007 03       		.uleb128 0x3
 2819 0008 0E       		.uleb128 0xe
 2820 0009 1B       		.uleb128 0x1b
 2821 000a 0E       		.uleb128 0xe
 2822 000b 55       		.uleb128 0x55
 2823 000c 17       		.uleb128 0x17
 2824 000d 11       		.uleb128 0x11
 2825 000e 01       		.uleb128 0x1
 2826 000f 10       		.uleb128 0x10
 2827 0010 17       		.uleb128 0x17
 2828 0011 00       		.byte	0
 2829 0012 00       		.byte	0
 2830 0013 02       		.uleb128 0x2
 2831 0014 24       		.uleb128 0x24
 2832 0015 00       		.byte	0
 2833 0016 0B       		.uleb128 0xb
 2834 0017 0B       		.uleb128 0xb
 2835 0018 3E       		.uleb128 0x3e
 2836 0019 0B       		.uleb128 0xb
 2837 001a 03       		.uleb128 0x3
 2838 001b 0E       		.uleb128 0xe
 2839 001c 00       		.byte	0
 2840 001d 00       		.byte	0
 2841 001e 03       		.uleb128 0x3
 2842 001f 24       		.uleb128 0x24
 2843 0020 00       		.byte	0
 2844 0021 0B       		.uleb128 0xb
 2845 0022 0B       		.uleb128 0xb
 2846 0023 3E       		.uleb128 0x3e
 2847 0024 0B       		.uleb128 0xb
 2848 0025 03       		.uleb128 0x3
 2849 0026 08       		.uleb128 0x8
 2850 0027 00       		.byte	0
 2851 0028 00       		.byte	0
 2852 0029 04       		.uleb128 0x4
 2853 002a 16       		.uleb128 0x16
 2854 002b 00       		.byte	0
 2855 002c 03       		.uleb128 0x3
 2856 002d 0E       		.uleb128 0xe
 2857 002e 3A       		.uleb128 0x3a
 2858 002f 0B       		.uleb128 0xb
 2859 0030 3B       		.uleb128 0x3b
 2860 0031 05       		.uleb128 0x5
 2861 0032 49       		.uleb128 0x49
ARM GAS  C:\Users\jon\AppData\Local\Temp\ccwaPz7c.s 			page 98


 2862 0033 13       		.uleb128 0x13
 2863 0034 00       		.byte	0
 2864 0035 00       		.byte	0
 2865 0036 05       		.uleb128 0x5
 2866 0037 35       		.uleb128 0x35
 2867 0038 00       		.byte	0
 2868 0039 49       		.uleb128 0x49
 2869 003a 13       		.uleb128 0x13
 2870 003b 00       		.byte	0
 2871 003c 00       		.byte	0
 2872 003d 06       		.uleb128 0x6
 2873 003e 13       		.uleb128 0x13
 2874 003f 01       		.byte	0x1
 2875 0040 0B       		.uleb128 0xb
 2876 0041 0B       		.uleb128 0xb
 2877 0042 3A       		.uleb128 0x3a
 2878 0043 0B       		.uleb128 0xb
 2879 0044 3B       		.uleb128 0x3b
 2880 0045 0B       		.uleb128 0xb
 2881 0046 01       		.uleb128 0x1
 2882 0047 13       		.uleb128 0x13
 2883 0048 00       		.byte	0
 2884 0049 00       		.byte	0
 2885 004a 07       		.uleb128 0x7
 2886 004b 0D       		.uleb128 0xd
 2887 004c 00       		.byte	0
 2888 004d 03       		.uleb128 0x3
 2889 004e 0E       		.uleb128 0xe
 2890 004f 3A       		.uleb128 0x3a
 2891 0050 0B       		.uleb128 0xb
 2892 0051 3B       		.uleb128 0x3b
 2893 0052 0B       		.uleb128 0xb
 2894 0053 49       		.uleb128 0x49
 2895 0054 13       		.uleb128 0x13
 2896 0055 38       		.uleb128 0x38
 2897 0056 0B       		.uleb128 0xb
 2898 0057 00       		.byte	0
 2899 0058 00       		.byte	0
 2900 0059 08       		.uleb128 0x8
 2901 005a 16       		.uleb128 0x16
 2902 005b 00       		.byte	0
 2903 005c 03       		.uleb128 0x3
 2904 005d 0E       		.uleb128 0xe
 2905 005e 3A       		.uleb128 0x3a
 2906 005f 0B       		.uleb128 0xb
 2907 0060 3B       		.uleb128 0x3b
 2908 0061 0B       		.uleb128 0xb
 2909 0062 49       		.uleb128 0x49
 2910 0063 13       		.uleb128 0x13
 2911 0064 00       		.byte	0
 2912 0065 00       		.byte	0
 2913 0066 09       		.uleb128 0x9
 2914 0067 0D       		.uleb128 0xd
 2915 0068 00       		.byte	0
 2916 0069 03       		.uleb128 0x3
 2917 006a 08       		.uleb128 0x8
 2918 006b 3A       		.uleb128 0x3a
ARM GAS  C:\Users\jon\AppData\Local\Temp\ccwaPz7c.s 			page 99


 2919 006c 0B       		.uleb128 0xb
 2920 006d 3B       		.uleb128 0x3b
 2921 006e 0B       		.uleb128 0xb
 2922 006f 49       		.uleb128 0x49
 2923 0070 13       		.uleb128 0x13
 2924 0071 38       		.uleb128 0x38
 2925 0072 0B       		.uleb128 0xb
 2926 0073 00       		.byte	0
 2927 0074 00       		.byte	0
 2928 0075 0A       		.uleb128 0xa
 2929 0076 01       		.uleb128 0x1
 2930 0077 01       		.byte	0x1
 2931 0078 49       		.uleb128 0x49
 2932 0079 13       		.uleb128 0x13
 2933 007a 01       		.uleb128 0x1
 2934 007b 13       		.uleb128 0x13
 2935 007c 00       		.byte	0
 2936 007d 00       		.byte	0
 2937 007e 0B       		.uleb128 0xb
 2938 007f 21       		.uleb128 0x21
 2939 0080 00       		.byte	0
 2940 0081 49       		.uleb128 0x49
 2941 0082 13       		.uleb128 0x13
 2942 0083 2F       		.uleb128 0x2f
 2943 0084 0B       		.uleb128 0xb
 2944 0085 00       		.byte	0
 2945 0086 00       		.byte	0
 2946 0087 0C       		.uleb128 0xc
 2947 0088 13       		.uleb128 0x13
 2948 0089 01       		.byte	0x1
 2949 008a 0B       		.uleb128 0xb
 2950 008b 0B       		.uleb128 0xb
 2951 008c 3A       		.uleb128 0x3a
 2952 008d 0B       		.uleb128 0xb
 2953 008e 3B       		.uleb128 0x3b
 2954 008f 05       		.uleb128 0x5
 2955 0090 01       		.uleb128 0x1
 2956 0091 13       		.uleb128 0x13
 2957 0092 00       		.byte	0
 2958 0093 00       		.byte	0
 2959 0094 0D       		.uleb128 0xd
 2960 0095 0D       		.uleb128 0xd
 2961 0096 00       		.byte	0
 2962 0097 03       		.uleb128 0x3
 2963 0098 0E       		.uleb128 0xe
 2964 0099 3A       		.uleb128 0x3a
 2965 009a 0B       		.uleb128 0xb
 2966 009b 3B       		.uleb128 0x3b
 2967 009c 05       		.uleb128 0x5
 2968 009d 49       		.uleb128 0x49
 2969 009e 13       		.uleb128 0x13
 2970 009f 38       		.uleb128 0x38
 2971 00a0 0B       		.uleb128 0xb
 2972 00a1 00       		.byte	0
 2973 00a2 00       		.byte	0
 2974 00a3 0E       		.uleb128 0xe
 2975 00a4 2E       		.uleb128 0x2e
ARM GAS  C:\Users\jon\AppData\Local\Temp\ccwaPz7c.s 			page 100


 2976 00a5 01       		.byte	0x1
 2977 00a6 3F       		.uleb128 0x3f
 2978 00a7 19       		.uleb128 0x19
 2979 00a8 03       		.uleb128 0x3
 2980 00a9 0E       		.uleb128 0xe
 2981 00aa 3A       		.uleb128 0x3a
 2982 00ab 0B       		.uleb128 0xb
 2983 00ac 3B       		.uleb128 0x3b
 2984 00ad 05       		.uleb128 0x5
 2985 00ae 27       		.uleb128 0x27
 2986 00af 19       		.uleb128 0x19
 2987 00b0 49       		.uleb128 0x49
 2988 00b1 13       		.uleb128 0x13
 2989 00b2 20       		.uleb128 0x20
 2990 00b3 0B       		.uleb128 0xb
 2991 00b4 01       		.uleb128 0x1
 2992 00b5 13       		.uleb128 0x13
 2993 00b6 00       		.byte	0
 2994 00b7 00       		.byte	0
 2995 00b8 0F       		.uleb128 0xf
 2996 00b9 05       		.uleb128 0x5
 2997 00ba 00       		.byte	0
 2998 00bb 03       		.uleb128 0x3
 2999 00bc 0E       		.uleb128 0xe
 3000 00bd 3A       		.uleb128 0x3a
 3001 00be 0B       		.uleb128 0xb
 3002 00bf 3B       		.uleb128 0x3b
 3003 00c0 05       		.uleb128 0x5
 3004 00c1 49       		.uleb128 0x49
 3005 00c2 13       		.uleb128 0x13
 3006 00c3 00       		.byte	0
 3007 00c4 00       		.byte	0
 3008 00c5 10       		.uleb128 0x10
 3009 00c6 34       		.uleb128 0x34
 3010 00c7 00       		.byte	0
 3011 00c8 03       		.uleb128 0x3
 3012 00c9 0E       		.uleb128 0xe
 3013 00ca 3A       		.uleb128 0x3a
 3014 00cb 0B       		.uleb128 0xb
 3015 00cc 3B       		.uleb128 0x3b
 3016 00cd 05       		.uleb128 0x5
 3017 00ce 49       		.uleb128 0x49
 3018 00cf 13       		.uleb128 0x13
 3019 00d0 00       		.byte	0
 3020 00d1 00       		.byte	0
 3021 00d2 11       		.uleb128 0x11
 3022 00d3 2E       		.uleb128 0x2e
 3023 00d4 01       		.byte	0x1
 3024 00d5 3F       		.uleb128 0x3f
 3025 00d6 19       		.uleb128 0x19
 3026 00d7 03       		.uleb128 0x3
 3027 00d8 0E       		.uleb128 0xe
 3028 00d9 3A       		.uleb128 0x3a
 3029 00da 0B       		.uleb128 0xb
 3030 00db 3B       		.uleb128 0x3b
 3031 00dc 05       		.uleb128 0x5
 3032 00dd 27       		.uleb128 0x27
ARM GAS  C:\Users\jon\AppData\Local\Temp\ccwaPz7c.s 			page 101


 3033 00de 19       		.uleb128 0x19
 3034 00df 20       		.uleb128 0x20
 3035 00e0 0B       		.uleb128 0xb
 3036 00e1 01       		.uleb128 0x1
 3037 00e2 13       		.uleb128 0x13
 3038 00e3 00       		.byte	0
 3039 00e4 00       		.byte	0
 3040 00e5 12       		.uleb128 0x12
 3041 00e6 2E       		.uleb128 0x2e
 3042 00e7 01       		.byte	0x1
 3043 00e8 3F       		.uleb128 0x3f
 3044 00e9 19       		.uleb128 0x19
 3045 00ea 03       		.uleb128 0x3
 3046 00eb 0E       		.uleb128 0xe
 3047 00ec 3A       		.uleb128 0x3a
 3048 00ed 0B       		.uleb128 0xb
 3049 00ee 3B       		.uleb128 0x3b
 3050 00ef 0B       		.uleb128 0xb
 3051 00f0 27       		.uleb128 0x27
 3052 00f1 19       		.uleb128 0x19
 3053 00f2 11       		.uleb128 0x11
 3054 00f3 01       		.uleb128 0x1
 3055 00f4 12       		.uleb128 0x12
 3056 00f5 06       		.uleb128 0x6
 3057 00f6 40       		.uleb128 0x40
 3058 00f7 18       		.uleb128 0x18
 3059 00f8 9742     		.uleb128 0x2117
 3060 00fa 19       		.uleb128 0x19
 3061 00fb 01       		.uleb128 0x1
 3062 00fc 13       		.uleb128 0x13
 3063 00fd 00       		.byte	0
 3064 00fe 00       		.byte	0
 3065 00ff 13       		.uleb128 0x13
 3066 0100 34       		.uleb128 0x34
 3067 0101 00       		.byte	0
 3068 0102 03       		.uleb128 0x3
 3069 0103 0E       		.uleb128 0xe
 3070 0104 3A       		.uleb128 0x3a
 3071 0105 0B       		.uleb128 0xb
 3072 0106 3B       		.uleb128 0x3b
 3073 0107 0B       		.uleb128 0xb
 3074 0108 49       		.uleb128 0x49
 3075 0109 13       		.uleb128 0x13
 3076 010a 02       		.uleb128 0x2
 3077 010b 17       		.uleb128 0x17
 3078 010c 00       		.byte	0
 3079 010d 00       		.byte	0
 3080 010e 14       		.uleb128 0x14
 3081 010f 898201   		.uleb128 0x4109
 3082 0112 00       		.byte	0
 3083 0113 11       		.uleb128 0x11
 3084 0114 01       		.uleb128 0x1
 3085 0115 31       		.uleb128 0x31
 3086 0116 13       		.uleb128 0x13
 3087 0117 00       		.byte	0
 3088 0118 00       		.byte	0
 3089 0119 15       		.uleb128 0x15
ARM GAS  C:\Users\jon\AppData\Local\Temp\ccwaPz7c.s 			page 102


 3090 011a 898201   		.uleb128 0x4109
 3091 011d 01       		.byte	0x1
 3092 011e 11       		.uleb128 0x11
 3093 011f 01       		.uleb128 0x1
 3094 0120 31       		.uleb128 0x31
 3095 0121 13       		.uleb128 0x13
 3096 0122 01       		.uleb128 0x1
 3097 0123 13       		.uleb128 0x13
 3098 0124 00       		.byte	0
 3099 0125 00       		.byte	0
 3100 0126 16       		.uleb128 0x16
 3101 0127 8A8201   		.uleb128 0x410a
 3102 012a 00       		.byte	0
 3103 012b 02       		.uleb128 0x2
 3104 012c 18       		.uleb128 0x18
 3105 012d 9142     		.uleb128 0x2111
 3106 012f 18       		.uleb128 0x18
 3107 0130 00       		.byte	0
 3108 0131 00       		.byte	0
 3109 0132 17       		.uleb128 0x17
 3110 0133 898201   		.uleb128 0x4109
 3111 0136 01       		.byte	0x1
 3112 0137 11       		.uleb128 0x11
 3113 0138 01       		.uleb128 0x1
 3114 0139 9542     		.uleb128 0x2115
 3115 013b 19       		.uleb128 0x19
 3116 013c 31       		.uleb128 0x31
 3117 013d 13       		.uleb128 0x13
 3118 013e 00       		.byte	0
 3119 013f 00       		.byte	0
 3120 0140 18       		.uleb128 0x18
 3121 0141 05       		.uleb128 0x5
 3122 0142 00       		.byte	0
 3123 0143 03       		.uleb128 0x3
 3124 0144 0E       		.uleb128 0xe
 3125 0145 3A       		.uleb128 0x3a
 3126 0146 0B       		.uleb128 0xb
 3127 0147 3B       		.uleb128 0x3b
 3128 0148 0B       		.uleb128 0xb
 3129 0149 49       		.uleb128 0x49
 3130 014a 13       		.uleb128 0x13
 3131 014b 02       		.uleb128 0x2
 3132 014c 17       		.uleb128 0x17
 3133 014d 00       		.byte	0
 3134 014e 00       		.byte	0
 3135 014f 19       		.uleb128 0x19
 3136 0150 1D       		.uleb128 0x1d
 3137 0151 01       		.byte	0x1
 3138 0152 31       		.uleb128 0x31
 3139 0153 13       		.uleb128 0x13
 3140 0154 11       		.uleb128 0x11
 3141 0155 01       		.uleb128 0x1
 3142 0156 12       		.uleb128 0x12
 3143 0157 06       		.uleb128 0x6
 3144 0158 58       		.uleb128 0x58
 3145 0159 0B       		.uleb128 0xb
 3146 015a 59       		.uleb128 0x59
ARM GAS  C:\Users\jon\AppData\Local\Temp\ccwaPz7c.s 			page 103


 3147 015b 0B       		.uleb128 0xb
 3148 015c 01       		.uleb128 0x1
 3149 015d 13       		.uleb128 0x13
 3150 015e 00       		.byte	0
 3151 015f 00       		.byte	0
 3152 0160 1A       		.uleb128 0x1a
 3153 0161 05       		.uleb128 0x5
 3154 0162 00       		.byte	0
 3155 0163 31       		.uleb128 0x31
 3156 0164 13       		.uleb128 0x13
 3157 0165 02       		.uleb128 0x2
 3158 0166 17       		.uleb128 0x17
 3159 0167 00       		.byte	0
 3160 0168 00       		.byte	0
 3161 0169 1B       		.uleb128 0x1b
 3162 016a 898201   		.uleb128 0x4109
 3163 016d 01       		.byte	0x1
 3164 016e 11       		.uleb128 0x11
 3165 016f 01       		.uleb128 0x1
 3166 0170 31       		.uleb128 0x31
 3167 0171 13       		.uleb128 0x13
 3168 0172 00       		.byte	0
 3169 0173 00       		.byte	0
 3170 0174 1C       		.uleb128 0x1c
 3171 0175 2E       		.uleb128 0x2e
 3172 0176 01       		.byte	0x1
 3173 0177 31       		.uleb128 0x31
 3174 0178 13       		.uleb128 0x13
 3175 0179 11       		.uleb128 0x11
 3176 017a 01       		.uleb128 0x1
 3177 017b 12       		.uleb128 0x12
 3178 017c 06       		.uleb128 0x6
 3179 017d 40       		.uleb128 0x40
 3180 017e 18       		.uleb128 0x18
 3181 017f 9742     		.uleb128 0x2117
 3182 0181 19       		.uleb128 0x19
 3183 0182 01       		.uleb128 0x1
 3184 0183 13       		.uleb128 0x13
 3185 0184 00       		.byte	0
 3186 0185 00       		.byte	0
 3187 0186 1D       		.uleb128 0x1d
 3188 0187 2E       		.uleb128 0x2e
 3189 0188 00       		.byte	0
 3190 0189 3F       		.uleb128 0x3f
 3191 018a 19       		.uleb128 0x19
 3192 018b 03       		.uleb128 0x3
 3193 018c 0E       		.uleb128 0xe
 3194 018d 3A       		.uleb128 0x3a
 3195 018e 0B       		.uleb128 0xb
 3196 018f 3B       		.uleb128 0x3b
 3197 0190 05       		.uleb128 0x5
 3198 0191 27       		.uleb128 0x27
 3199 0192 19       		.uleb128 0x19
 3200 0193 11       		.uleb128 0x11
 3201 0194 01       		.uleb128 0x1
 3202 0195 12       		.uleb128 0x12
 3203 0196 06       		.uleb128 0x6
ARM GAS  C:\Users\jon\AppData\Local\Temp\ccwaPz7c.s 			page 104


 3204 0197 40       		.uleb128 0x40
 3205 0198 18       		.uleb128 0x18
 3206 0199 9742     		.uleb128 0x2117
 3207 019b 19       		.uleb128 0x19
 3208 019c 00       		.byte	0
 3209 019d 00       		.byte	0
 3210 019e 1E       		.uleb128 0x1e
 3211 019f 2E       		.uleb128 0x2e
 3212 01a0 01       		.byte	0x1
 3213 01a1 3F       		.uleb128 0x3f
 3214 01a2 19       		.uleb128 0x19
 3215 01a3 03       		.uleb128 0x3
 3216 01a4 0E       		.uleb128 0xe
 3217 01a5 3A       		.uleb128 0x3a
 3218 01a6 0B       		.uleb128 0xb
 3219 01a7 3B       		.uleb128 0x3b
 3220 01a8 05       		.uleb128 0x5
 3221 01a9 27       		.uleb128 0x27
 3222 01aa 19       		.uleb128 0x19
 3223 01ab 11       		.uleb128 0x11
 3224 01ac 01       		.uleb128 0x1
 3225 01ad 12       		.uleb128 0x12
 3226 01ae 06       		.uleb128 0x6
 3227 01af 40       		.uleb128 0x40
 3228 01b0 18       		.uleb128 0x18
 3229 01b1 9742     		.uleb128 0x2117
 3230 01b3 19       		.uleb128 0x19
 3231 01b4 01       		.uleb128 0x1
 3232 01b5 13       		.uleb128 0x13
 3233 01b6 00       		.byte	0
 3234 01b7 00       		.byte	0
 3235 01b8 1F       		.uleb128 0x1f
 3236 01b9 34       		.uleb128 0x34
 3237 01ba 00       		.byte	0
 3238 01bb 03       		.uleb128 0x3
 3239 01bc 0E       		.uleb128 0xe
 3240 01bd 3A       		.uleb128 0x3a
 3241 01be 0B       		.uleb128 0xb
 3242 01bf 3B       		.uleb128 0x3b
 3243 01c0 05       		.uleb128 0x5
 3244 01c1 49       		.uleb128 0x49
 3245 01c2 13       		.uleb128 0x13
 3246 01c3 02       		.uleb128 0x2
 3247 01c4 17       		.uleb128 0x17
 3248 01c5 00       		.byte	0
 3249 01c6 00       		.byte	0
 3250 01c7 20       		.uleb128 0x20
 3251 01c8 2E       		.uleb128 0x2e
 3252 01c9 01       		.byte	0x1
 3253 01ca 3F       		.uleb128 0x3f
 3254 01cb 19       		.uleb128 0x19
 3255 01cc 03       		.uleb128 0x3
 3256 01cd 0E       		.uleb128 0xe
 3257 01ce 3A       		.uleb128 0x3a
 3258 01cf 0B       		.uleb128 0xb
 3259 01d0 3B       		.uleb128 0x3b
 3260 01d1 05       		.uleb128 0x5
ARM GAS  C:\Users\jon\AppData\Local\Temp\ccwaPz7c.s 			page 105


 3261 01d2 27       		.uleb128 0x27
 3262 01d3 19       		.uleb128 0x19
 3263 01d4 49       		.uleb128 0x49
 3264 01d5 13       		.uleb128 0x13
 3265 01d6 11       		.uleb128 0x11
 3266 01d7 01       		.uleb128 0x1
 3267 01d8 12       		.uleb128 0x12
 3268 01d9 06       		.uleb128 0x6
 3269 01da 40       		.uleb128 0x40
 3270 01db 18       		.uleb128 0x18
 3271 01dc 9742     		.uleb128 0x2117
 3272 01de 19       		.uleb128 0x19
 3273 01df 01       		.uleb128 0x1
 3274 01e0 13       		.uleb128 0x13
 3275 01e1 00       		.byte	0
 3276 01e2 00       		.byte	0
 3277 01e3 21       		.uleb128 0x21
 3278 01e4 2E       		.uleb128 0x2e
 3279 01e5 00       		.byte	0
 3280 01e6 3F       		.uleb128 0x3f
 3281 01e7 19       		.uleb128 0x19
 3282 01e8 03       		.uleb128 0x3
 3283 01e9 0E       		.uleb128 0xe
 3284 01ea 3A       		.uleb128 0x3a
 3285 01eb 0B       		.uleb128 0xb
 3286 01ec 3B       		.uleb128 0x3b
 3287 01ed 05       		.uleb128 0x5
 3288 01ee 27       		.uleb128 0x27
 3289 01ef 19       		.uleb128 0x19
 3290 01f0 49       		.uleb128 0x49
 3291 01f1 13       		.uleb128 0x13
 3292 01f2 11       		.uleb128 0x11
 3293 01f3 01       		.uleb128 0x1
 3294 01f4 12       		.uleb128 0x12
 3295 01f5 06       		.uleb128 0x6
 3296 01f6 40       		.uleb128 0x40
 3297 01f7 18       		.uleb128 0x18
 3298 01f8 9742     		.uleb128 0x2117
 3299 01fa 19       		.uleb128 0x19
 3300 01fb 00       		.byte	0
 3301 01fc 00       		.byte	0
 3302 01fd 22       		.uleb128 0x22
 3303 01fe 34       		.uleb128 0x34
 3304 01ff 00       		.byte	0
 3305 0200 03       		.uleb128 0x3
 3306 0201 08       		.uleb128 0x8
 3307 0202 3A       		.uleb128 0x3a
 3308 0203 0B       		.uleb128 0xb
 3309 0204 3B       		.uleb128 0x3b
 3310 0205 05       		.uleb128 0x5
 3311 0206 49       		.uleb128 0x49
 3312 0207 13       		.uleb128 0x13
 3313 0208 02       		.uleb128 0x2
 3314 0209 17       		.uleb128 0x17
 3315 020a 00       		.byte	0
 3316 020b 00       		.byte	0
 3317 020c 23       		.uleb128 0x23
ARM GAS  C:\Users\jon\AppData\Local\Temp\ccwaPz7c.s 			page 106


 3318 020d 05       		.uleb128 0x5
 3319 020e 00       		.byte	0
 3320 020f 03       		.uleb128 0x3
 3321 0210 0E       		.uleb128 0xe
 3322 0211 3A       		.uleb128 0x3a
 3323 0212 0B       		.uleb128 0xb
 3324 0213 3B       		.uleb128 0x3b
 3325 0214 05       		.uleb128 0x5
 3326 0215 49       		.uleb128 0x49
 3327 0216 13       		.uleb128 0x13
 3328 0217 02       		.uleb128 0x2
 3329 0218 17       		.uleb128 0x17
 3330 0219 00       		.byte	0
 3331 021a 00       		.byte	0
 3332 021b 24       		.uleb128 0x24
 3333 021c 34       		.uleb128 0x34
 3334 021d 00       		.byte	0
 3335 021e 31       		.uleb128 0x31
 3336 021f 13       		.uleb128 0x13
 3337 0220 02       		.uleb128 0x2
 3338 0221 17       		.uleb128 0x17
 3339 0222 00       		.byte	0
 3340 0223 00       		.byte	0
 3341 0224 25       		.uleb128 0x25
 3342 0225 0B       		.uleb128 0xb
 3343 0226 01       		.byte	0x1
 3344 0227 11       		.uleb128 0x11
 3345 0228 01       		.uleb128 0x1
 3346 0229 12       		.uleb128 0x12
 3347 022a 06       		.uleb128 0x6
 3348 022b 00       		.byte	0
 3349 022c 00       		.byte	0
 3350 022d 26       		.uleb128 0x26
 3351 022e 0F       		.uleb128 0xf
 3352 022f 00       		.byte	0
 3353 0230 0B       		.uleb128 0xb
 3354 0231 0B       		.uleb128 0xb
 3355 0232 49       		.uleb128 0x49
 3356 0233 13       		.uleb128 0x13
 3357 0234 00       		.byte	0
 3358 0235 00       		.byte	0
 3359 0236 27       		.uleb128 0x27
 3360 0237 26       		.uleb128 0x26
 3361 0238 00       		.byte	0
 3362 0239 49       		.uleb128 0x49
 3363 023a 13       		.uleb128 0x13
 3364 023b 00       		.byte	0
 3365 023c 00       		.byte	0
 3366 023d 28       		.uleb128 0x28
 3367 023e 1D       		.uleb128 0x1d
 3368 023f 01       		.byte	0x1
 3369 0240 31       		.uleb128 0x31
 3370 0241 13       		.uleb128 0x13
 3371 0242 11       		.uleb128 0x11
 3372 0243 01       		.uleb128 0x1
 3373 0244 12       		.uleb128 0x12
 3374 0245 06       		.uleb128 0x6
ARM GAS  C:\Users\jon\AppData\Local\Temp\ccwaPz7c.s 			page 107


 3375 0246 58       		.uleb128 0x58
 3376 0247 0B       		.uleb128 0xb
 3377 0248 59       		.uleb128 0x59
 3378 0249 05       		.uleb128 0x5
 3379 024a 01       		.uleb128 0x1
 3380 024b 13       		.uleb128 0x13
 3381 024c 00       		.byte	0
 3382 024d 00       		.byte	0
 3383 024e 29       		.uleb128 0x29
 3384 024f 34       		.uleb128 0x34
 3385 0250 00       		.byte	0
 3386 0251 31       		.uleb128 0x31
 3387 0252 13       		.uleb128 0x13
 3388 0253 00       		.byte	0
 3389 0254 00       		.byte	0
 3390 0255 2A       		.uleb128 0x2a
 3391 0256 0B       		.uleb128 0xb
 3392 0257 01       		.byte	0x1
 3393 0258 11       		.uleb128 0x11
 3394 0259 01       		.uleb128 0x1
 3395 025a 12       		.uleb128 0x12
 3396 025b 06       		.uleb128 0x6
 3397 025c 01       		.uleb128 0x1
 3398 025d 13       		.uleb128 0x13
 3399 025e 00       		.byte	0
 3400 025f 00       		.byte	0
 3401 0260 2B       		.uleb128 0x2b
 3402 0261 1D       		.uleb128 0x1d
 3403 0262 01       		.byte	0x1
 3404 0263 31       		.uleb128 0x31
 3405 0264 13       		.uleb128 0x13
 3406 0265 52       		.uleb128 0x52
 3407 0266 01       		.uleb128 0x1
 3408 0267 55       		.uleb128 0x55
 3409 0268 17       		.uleb128 0x17
 3410 0269 58       		.uleb128 0x58
 3411 026a 0B       		.uleb128 0xb
 3412 026b 59       		.uleb128 0x59
 3413 026c 05       		.uleb128 0x5
 3414 026d 01       		.uleb128 0x1
 3415 026e 13       		.uleb128 0x13
 3416 026f 00       		.byte	0
 3417 0270 00       		.byte	0
 3418 0271 2C       		.uleb128 0x2c
 3419 0272 1D       		.uleb128 0x1d
 3420 0273 01       		.byte	0x1
 3421 0274 31       		.uleb128 0x31
 3422 0275 13       		.uleb128 0x13
 3423 0276 11       		.uleb128 0x11
 3424 0277 01       		.uleb128 0x1
 3425 0278 12       		.uleb128 0x12
 3426 0279 06       		.uleb128 0x6
 3427 027a 58       		.uleb128 0x58
 3428 027b 0B       		.uleb128 0xb
 3429 027c 59       		.uleb128 0x59
 3430 027d 05       		.uleb128 0x5
 3431 027e 00       		.byte	0
ARM GAS  C:\Users\jon\AppData\Local\Temp\ccwaPz7c.s 			page 108


 3432 027f 00       		.byte	0
 3433 0280 2D       		.uleb128 0x2d
 3434 0281 05       		.uleb128 0x5
 3435 0282 00       		.byte	0
 3436 0283 31       		.uleb128 0x31
 3437 0284 13       		.uleb128 0x13
 3438 0285 02       		.uleb128 0x2
 3439 0286 18       		.uleb128 0x18
 3440 0287 00       		.byte	0
 3441 0288 00       		.byte	0
 3442 0289 2E       		.uleb128 0x2e
 3443 028a 34       		.uleb128 0x34
 3444 028b 00       		.byte	0
 3445 028c 31       		.uleb128 0x31
 3446 028d 13       		.uleb128 0x13
 3447 028e 1C       		.uleb128 0x1c
 3448 028f 0B       		.uleb128 0xb
 3449 0290 00       		.byte	0
 3450 0291 00       		.byte	0
 3451 0292 2F       		.uleb128 0x2f
 3452 0293 05       		.uleb128 0x5
 3453 0294 00       		.byte	0
 3454 0295 03       		.uleb128 0x3
 3455 0296 0E       		.uleb128 0xe
 3456 0297 3A       		.uleb128 0x3a
 3457 0298 0B       		.uleb128 0xb
 3458 0299 3B       		.uleb128 0x3b
 3459 029a 05       		.uleb128 0x5
 3460 029b 49       		.uleb128 0x49
 3461 029c 13       		.uleb128 0x13
 3462 029d 02       		.uleb128 0x2
 3463 029e 18       		.uleb128 0x18
 3464 029f 00       		.byte	0
 3465 02a0 00       		.byte	0
 3466 02a1 30       		.uleb128 0x30
 3467 02a2 34       		.uleb128 0x34
 3468 02a3 00       		.byte	0
 3469 02a4 03       		.uleb128 0x3
 3470 02a5 0E       		.uleb128 0xe
 3471 02a6 3A       		.uleb128 0x3a
 3472 02a7 0B       		.uleb128 0xb
 3473 02a8 3B       		.uleb128 0x3b
 3474 02a9 0B       		.uleb128 0xb
 3475 02aa 49       		.uleb128 0x49
 3476 02ab 13       		.uleb128 0x13
 3477 02ac 3F       		.uleb128 0x3f
 3478 02ad 19       		.uleb128 0x19
 3479 02ae 02       		.uleb128 0x2
 3480 02af 18       		.uleb128 0x18
 3481 02b0 00       		.byte	0
 3482 02b1 00       		.byte	0
 3483 02b2 31       		.uleb128 0x31
 3484 02b3 34       		.uleb128 0x34
 3485 02b4 00       		.byte	0
 3486 02b5 03       		.uleb128 0x3
 3487 02b6 0E       		.uleb128 0xe
 3488 02b7 3A       		.uleb128 0x3a
ARM GAS  C:\Users\jon\AppData\Local\Temp\ccwaPz7c.s 			page 109


 3489 02b8 0B       		.uleb128 0xb
 3490 02b9 3B       		.uleb128 0x3b
 3491 02ba 05       		.uleb128 0x5
 3492 02bb 49       		.uleb128 0x49
 3493 02bc 13       		.uleb128 0x13
 3494 02bd 3F       		.uleb128 0x3f
 3495 02be 19       		.uleb128 0x19
 3496 02bf 3C       		.uleb128 0x3c
 3497 02c0 19       		.uleb128 0x19
 3498 02c1 00       		.byte	0
 3499 02c2 00       		.byte	0
 3500 02c3 32       		.uleb128 0x32
 3501 02c4 34       		.uleb128 0x34
 3502 02c5 00       		.byte	0
 3503 02c6 03       		.uleb128 0x3
 3504 02c7 0E       		.uleb128 0xe
 3505 02c8 3A       		.uleb128 0x3a
 3506 02c9 0B       		.uleb128 0xb
 3507 02ca 3B       		.uleb128 0x3b
 3508 02cb 0B       		.uleb128 0xb
 3509 02cc 49       		.uleb128 0x49
 3510 02cd 13       		.uleb128 0x13
 3511 02ce 3F       		.uleb128 0x3f
 3512 02cf 19       		.uleb128 0x19
 3513 02d0 3C       		.uleb128 0x3c
 3514 02d1 19       		.uleb128 0x19
 3515 02d2 00       		.byte	0
 3516 02d3 00       		.byte	0
 3517 02d4 33       		.uleb128 0x33
 3518 02d5 2E       		.uleb128 0x2e
 3519 02d6 00       		.byte	0
 3520 02d7 3F       		.uleb128 0x3f
 3521 02d8 19       		.uleb128 0x19
 3522 02d9 3C       		.uleb128 0x3c
 3523 02da 19       		.uleb128 0x19
 3524 02db 6E       		.uleb128 0x6e
 3525 02dc 0E       		.uleb128 0xe
 3526 02dd 03       		.uleb128 0x3
 3527 02de 0E       		.uleb128 0xe
 3528 02df 3A       		.uleb128 0x3a
 3529 02e0 0B       		.uleb128 0xb
 3530 02e1 3B       		.uleb128 0x3b
 3531 02e2 0B       		.uleb128 0xb
 3532 02e3 00       		.byte	0
 3533 02e4 00       		.byte	0
 3534 02e5 00       		.byte	0
 3535              		.section	.debug_loc,"",%progbits
 3536              	.Ldebug_loc0:
 3537              	.LLST0:
 3538 0000 0E000000 		.4byte	.LVL1
 3539 0004 0C010000 		.4byte	.LVL20
 3540 0008 0100     		.2byte	0x1
 3541 000a 57       		.byte	0x57
 3542 000b 00000000 		.4byte	0
 3543 000f 00000000 		.4byte	0
 3544              	.LLST1:
 3545 0013 00000000 		.4byte	.LVL22
ARM GAS  C:\Users\jon\AppData\Local\Temp\ccwaPz7c.s 			page 110


 3546 0017 11000000 		.4byte	.LVL23-1
 3547 001b 0100     		.2byte	0x1
 3548 001d 50       		.byte	0x50
 3549 001e 11000000 		.4byte	.LVL23-1
 3550 0022 C8000000 		.4byte	.LFE0
 3551 0026 0400     		.2byte	0x4
 3552 0028 F3       		.byte	0xf3
 3553 0029 01       		.uleb128 0x1
 3554 002a 50       		.byte	0x50
 3555 002b 9F       		.byte	0x9f
 3556 002c 00000000 		.4byte	0
 3557 0030 00000000 		.4byte	0
 3558              	.LLST2:
 3559 0034 00000000 		.4byte	.LVL22
 3560 0038 11000000 		.4byte	.LVL23-1
 3561 003c 0100     		.2byte	0x1
 3562 003e 51       		.byte	0x51
 3563 003f 11000000 		.4byte	.LVL23-1
 3564 0043 C8000000 		.4byte	.LFE0
 3565 0047 0400     		.2byte	0x4
 3566 0049 F3       		.byte	0xf3
 3567 004a 01       		.uleb128 0x1
 3568 004b 51       		.byte	0x51
 3569 004c 9F       		.byte	0x9f
 3570 004d 00000000 		.4byte	0
 3571 0051 00000000 		.4byte	0
 3572              	.LLST3:
 3573 0055 16000000 		.4byte	.LVL24
 3574 0059 7E000000 		.4byte	.LVL26
 3575 005d 0100     		.2byte	0x1
 3576 005f 54       		.byte	0x54
 3577 0060 82000000 		.4byte	.LVL27
 3578 0064 C8000000 		.4byte	.LFE0
 3579 0068 0100     		.2byte	0x1
 3580 006a 54       		.byte	0x54
 3581 006b 00000000 		.4byte	0
 3582 006f 00000000 		.4byte	0
 3583              	.LLST4:
 3584 0073 16000000 		.4byte	.LVL24
 3585 0077 7E000000 		.4byte	.LVL26
 3586 007b 0100     		.2byte	0x1
 3587 007d 58       		.byte	0x58
 3588 007e 82000000 		.4byte	.LVL27
 3589 0082 C8000000 		.4byte	.LFE0
 3590 0086 0100     		.2byte	0x1
 3591 0088 58       		.byte	0x58
 3592 0089 00000000 		.4byte	0
 3593 008d 00000000 		.4byte	0
 3594              	.LLST5:
 3595 0091 00000000 		.4byte	.LVL28
 3596 0095 18000000 		.4byte	.LVL29
 3597 0099 0100     		.2byte	0x1
 3598 009b 50       		.byte	0x50
 3599 009c 1C000000 		.4byte	.LVL30
 3600 00a0 B0000000 		.4byte	.LFE2
 3601 00a4 0400     		.2byte	0x4
 3602 00a6 F3       		.byte	0xf3
ARM GAS  C:\Users\jon\AppData\Local\Temp\ccwaPz7c.s 			page 111


 3603 00a7 01       		.uleb128 0x1
 3604 00a8 50       		.byte	0x50
 3605 00a9 9F       		.byte	0x9f
 3606 00aa 00000000 		.4byte	0
 3607 00ae 00000000 		.4byte	0
 3608              	.LLST6:
 3609 00b2 00000000 		.4byte	.LVL28
 3610 00b6 58000000 		.4byte	.LVL31
 3611 00ba 0100     		.2byte	0x1
 3612 00bc 51       		.byte	0x51
 3613 00bd 58000000 		.4byte	.LVL31
 3614 00c1 6E000000 		.4byte	.LVL33
 3615 00c5 0400     		.2byte	0x4
 3616 00c7 F3       		.byte	0xf3
 3617 00c8 01       		.uleb128 0x1
 3618 00c9 51       		.byte	0x51
 3619 00ca 9F       		.byte	0x9f
 3620 00cb 6E000000 		.4byte	.LVL33
 3621 00cf B0000000 		.4byte	.LFE2
 3622 00d3 0100     		.2byte	0x1
 3623 00d5 51       		.byte	0x51
 3624 00d6 00000000 		.4byte	0
 3625 00da 00000000 		.4byte	0
 3626              	.LLST7:
 3627 00de 06000000 		.4byte	.LVL34
 3628 00e2 4F000000 		.4byte	.LVL35-1
 3629 00e6 0100     		.2byte	0x1
 3630 00e8 50       		.byte	0x50
 3631 00e9 00000000 		.4byte	0
 3632 00ed 00000000 		.4byte	0
 3633              	.LLST8:
 3634 00f1 06000000 		.4byte	.LVL37
 3635 00f5 10000000 		.4byte	.LVL38
 3636 00f9 0100     		.2byte	0x1
 3637 00fb 50       		.byte	0x50
 3638 00fc 00000000 		.4byte	0
 3639 0100 00000000 		.4byte	0
 3640              	.LLST9:
 3641 0104 00000000 		.4byte	.LVL39
 3642 0108 10000000 		.4byte	.LVL40
 3643 010c 0200     		.2byte	0x2
 3644 010e 30       		.byte	0x30
 3645 010f 9F       		.byte	0x9f
 3646 0110 10000000 		.4byte	.LVL40
 3647 0114 18000000 		.4byte	.LFE7
 3648 0118 0100     		.2byte	0x1
 3649 011a 50       		.byte	0x50
 3650 011b 00000000 		.4byte	0
 3651 011f 00000000 		.4byte	0
 3652              	.LLST10:
 3653 0123 00000000 		.4byte	.LVL42
 3654 0127 04000000 		.4byte	.LVL43
 3655 012b 0100     		.2byte	0x1
 3656 012d 50       		.byte	0x50
 3657 012e 04000000 		.4byte	.LVL43
 3658 0132 0C000000 		.4byte	.LFE8
 3659 0136 0400     		.2byte	0x4
ARM GAS  C:\Users\jon\AppData\Local\Temp\ccwaPz7c.s 			page 112


 3660 0138 F3       		.byte	0xf3
 3661 0139 01       		.uleb128 0x1
 3662 013a 50       		.byte	0x50
 3663 013b 9F       		.byte	0x9f
 3664 013c 00000000 		.4byte	0
 3665 0140 00000000 		.4byte	0
 3666              	.LLST11:
 3667 0144 00000000 		.4byte	.LVL44
 3668 0148 06000000 		.4byte	.LVL45
 3669 014c 0100     		.2byte	0x1
 3670 014e 50       		.byte	0x50
 3671 014f 06000000 		.4byte	.LVL45
 3672 0153 14000000 		.4byte	.LFE9
 3673 0157 0400     		.2byte	0x4
 3674 0159 F3       		.byte	0xf3
 3675 015a 01       		.uleb128 0x1
 3676 015b 50       		.byte	0x50
 3677 015c 9F       		.byte	0x9f
 3678 015d 00000000 		.4byte	0
 3679 0161 00000000 		.4byte	0
 3680              	.LLST12:
 3681 0165 00000000 		.4byte	.LVL46
 3682 0169 0A000000 		.4byte	.LVL48
 3683 016d 0100     		.2byte	0x1
 3684 016f 50       		.byte	0x50
 3685 0170 0A000000 		.4byte	.LVL48
 3686 0174 20000000 		.4byte	.LVL53
 3687 0178 0400     		.2byte	0x4
 3688 017a F3       		.byte	0xf3
 3689 017b 01       		.uleb128 0x1
 3690 017c 50       		.byte	0x50
 3691 017d 9F       		.byte	0x9f
 3692 017e 20000000 		.4byte	.LVL53
 3693 0182 22000000 		.4byte	.LVL54
 3694 0186 0100     		.2byte	0x1
 3695 0188 50       		.byte	0x50
 3696 0189 22000000 		.4byte	.LVL54
 3697 018d 28000000 		.4byte	.LFE10
 3698 0191 0400     		.2byte	0x4
 3699 0193 F3       		.byte	0xf3
 3700 0194 01       		.uleb128 0x1
 3701 0195 50       		.byte	0x50
 3702 0196 9F       		.byte	0x9f
 3703 0197 00000000 		.4byte	0
 3704 019b 00000000 		.4byte	0
 3705              	.LLST13:
 3706 019f 00000000 		.4byte	.LVL46
 3707 01a3 22000000 		.4byte	.LVL54
 3708 01a7 0200     		.2byte	0x2
 3709 01a9 30       		.byte	0x30
 3710 01aa 9F       		.byte	0x9f
 3711 01ab 22000000 		.4byte	.LVL54
 3712 01af 28000000 		.4byte	.LFE10
 3713 01b3 0100     		.2byte	0x1
 3714 01b5 50       		.byte	0x50
 3715 01b6 00000000 		.4byte	0
 3716 01ba 00000000 		.4byte	0
ARM GAS  C:\Users\jon\AppData\Local\Temp\ccwaPz7c.s 			page 113


 3717              	.LLST14:
 3718 01be 06000000 		.4byte	.LVL47
 3719 01c2 0A000000 		.4byte	.LVL48
 3720 01c6 0100     		.2byte	0x1
 3721 01c8 50       		.byte	0x50
 3722 01c9 0A000000 		.4byte	.LVL48
 3723 01cd 1E000000 		.4byte	.LVL52
 3724 01d1 0400     		.2byte	0x4
 3725 01d3 F3       		.byte	0xf3
 3726 01d4 01       		.uleb128 0x1
 3727 01d5 50       		.byte	0x50
 3728 01d6 9F       		.byte	0x9f
 3729 01d7 00000000 		.4byte	0
 3730 01db 00000000 		.4byte	0
 3731              	.LLST15:
 3732 01df 10000000 		.4byte	.LVL49
 3733 01e3 16000000 		.4byte	.LVL50
 3734 01e7 0800     		.2byte	0x8
 3735 01e9 70       		.byte	0x70
 3736 01ea 00       		.sleb128 0
 3737 01eb 3F       		.byte	0x3f
 3738 01ec 1A       		.byte	0x1a
 3739 01ed 08       		.byte	0x8
 3740 01ee FF       		.byte	0xff
 3741 01ef 1A       		.byte	0x1a
 3742 01f0 9F       		.byte	0x9f
 3743 01f1 16000000 		.4byte	.LVL50
 3744 01f5 1A000000 		.4byte	.LVL51
 3745 01f9 0B00     		.2byte	0xb
 3746 01fb 73       		.byte	0x73
 3747 01fc 00       		.sleb128 0
 3748 01fd 08       		.byte	0x8
 3749 01fe FF       		.byte	0xff
 3750 01ff 1A       		.byte	0x1a
 3751 0200 70       		.byte	0x70
 3752 0201 00       		.sleb128 0
 3753 0202 38       		.byte	0x38
 3754 0203 24       		.byte	0x24
 3755 0204 21       		.byte	0x21
 3756 0205 9F       		.byte	0x9f
 3757 0206 00000000 		.4byte	0
 3758 020a 00000000 		.4byte	0
 3759              	.LLST16:
 3760 020e 00000000 		.4byte	.LVL55
 3761 0212 58000000 		.4byte	.LVL61
 3762 0216 0100     		.2byte	0x1
 3763 0218 50       		.byte	0x50
 3764 0219 58000000 		.4byte	.LVL61
 3765 021d 68000000 		.4byte	.LVL62
 3766 0221 0400     		.2byte	0x4
 3767 0223 F3       		.byte	0xf3
 3768 0224 01       		.uleb128 0x1
 3769 0225 50       		.byte	0x50
 3770 0226 9F       		.byte	0x9f
 3771 0227 68000000 		.4byte	.LVL62
 3772 022b 80000000 		.4byte	.LFE11
 3773 022f 0100     		.2byte	0x1
ARM GAS  C:\Users\jon\AppData\Local\Temp\ccwaPz7c.s 			page 114


 3774 0231 50       		.byte	0x50
 3775 0232 00000000 		.4byte	0
 3776 0236 00000000 		.4byte	0
 3777              	.LLST17:
 3778 023a 00000000 		.4byte	.LVL55
 3779 023e 4C000000 		.4byte	.LVL57
 3780 0242 0100     		.2byte	0x1
 3781 0244 51       		.byte	0x51
 3782 0245 4C000000 		.4byte	.LVL57
 3783 0249 68000000 		.4byte	.LVL62
 3784 024d 0400     		.2byte	0x4
 3785 024f F3       		.byte	0xf3
 3786 0250 01       		.uleb128 0x1
 3787 0251 51       		.byte	0x51
 3788 0252 9F       		.byte	0x9f
 3789 0253 68000000 		.4byte	.LVL62
 3790 0257 80000000 		.4byte	.LFE11
 3791 025b 0100     		.2byte	0x1
 3792 025d 51       		.byte	0x51
 3793 025e 00000000 		.4byte	0
 3794 0262 00000000 		.4byte	0
 3795              	.LLST18:
 3796 0266 00000000 		.4byte	.LVL55
 3797 026a 4C000000 		.4byte	.LVL57
 3798 026e 0100     		.2byte	0x1
 3799 0270 52       		.byte	0x52
 3800 0271 68000000 		.4byte	.LVL62
 3801 0275 6A000000 		.4byte	.LVL63
 3802 0279 0100     		.2byte	0x1
 3803 027b 52       		.byte	0x52
 3804 027c 6A000000 		.4byte	.LVL63
 3805 0280 70000000 		.4byte	.LVL64
 3806 0284 0400     		.2byte	0x4
 3807 0286 F3       		.byte	0xf3
 3808 0287 01       		.uleb128 0x1
 3809 0288 52       		.byte	0x52
 3810 0289 9F       		.byte	0x9f
 3811 028a 70000000 		.4byte	.LVL64
 3812 028e 80000000 		.4byte	.LFE11
 3813 0292 0100     		.2byte	0x1
 3814 0294 52       		.byte	0x52
 3815 0295 00000000 		.4byte	0
 3816 0299 00000000 		.4byte	0
 3817              	.LLST19:
 3818 029d 3E000000 		.4byte	.LVL56
 3819 02a1 4C000000 		.4byte	.LVL57
 3820 02a5 0200     		.2byte	0x2
 3821 02a7 30       		.byte	0x30
 3822 02a8 9F       		.byte	0x9f
 3823 02a9 4C000000 		.4byte	.LVL57
 3824 02ad 50000000 		.4byte	.LVL58
 3825 02b1 0900     		.2byte	0x9
 3826 02b3 71       		.byte	0x71
 3827 02b4 00       		.sleb128 0
 3828 02b5 F3       		.byte	0xf3
 3829 02b6 01       		.uleb128 0x1
 3830 02b7 51       		.byte	0x51
ARM GAS  C:\Users\jon\AppData\Local\Temp\ccwaPz7c.s 			page 115


 3831 02b8 31       		.byte	0x31
 3832 02b9 1C       		.byte	0x1c
 3833 02ba 1C       		.byte	0x1c
 3834 02bb 9F       		.byte	0x9f
 3835 02bc 54000000 		.4byte	.LVL59
 3836 02c0 56000000 		.4byte	.LVL60
 3837 02c4 0900     		.2byte	0x9
 3838 02c6 71       		.byte	0x71
 3839 02c7 00       		.sleb128 0
 3840 02c8 F3       		.byte	0xf3
 3841 02c9 01       		.uleb128 0x1
 3842 02ca 51       		.byte	0x51
 3843 02cb 31       		.byte	0x31
 3844 02cc 1C       		.byte	0x1c
 3845 02cd 1C       		.byte	0x1c
 3846 02ce 9F       		.byte	0x9f
 3847 02cf 00000000 		.4byte	0
 3848 02d3 00000000 		.4byte	0
 3849              	.LLST20:
 3850 02d7 00000000 		.4byte	.LVL65
 3851 02db 44000000 		.4byte	.LVL72
 3852 02df 0100     		.2byte	0x1
 3853 02e1 50       		.byte	0x50
 3854 02e2 44000000 		.4byte	.LVL72
 3855 02e6 58000000 		.4byte	.LVL73
 3856 02ea 0400     		.2byte	0x4
 3857 02ec F3       		.byte	0xf3
 3858 02ed 01       		.uleb128 0x1
 3859 02ee 50       		.byte	0x50
 3860 02ef 9F       		.byte	0x9f
 3861 02f0 58000000 		.4byte	.LVL73
 3862 02f4 5C000000 		.4byte	.LVL75
 3863 02f8 0100     		.2byte	0x1
 3864 02fa 50       		.byte	0x50
 3865 02fb 5C000000 		.4byte	.LVL75
 3866 02ff 5E000000 		.4byte	.LVL76
 3867 0303 0400     		.2byte	0x4
 3868 0305 F3       		.byte	0xf3
 3869 0306 01       		.uleb128 0x1
 3870 0307 50       		.byte	0x50
 3871 0308 9F       		.byte	0x9f
 3872 0309 5E000000 		.4byte	.LVL76
 3873 030d 62000000 		.4byte	.LVL78
 3874 0311 0100     		.2byte	0x1
 3875 0313 50       		.byte	0x50
 3876 0314 62000000 		.4byte	.LVL78
 3877 0318 64000000 		.4byte	.LVL79
 3878 031c 0400     		.2byte	0x4
 3879 031e F3       		.byte	0xf3
 3880 031f 01       		.uleb128 0x1
 3881 0320 50       		.byte	0x50
 3882 0321 9F       		.byte	0x9f
 3883 0322 64000000 		.4byte	.LVL79
 3884 0326 84000000 		.4byte	.LFE12
 3885 032a 0100     		.2byte	0x1
 3886 032c 50       		.byte	0x50
 3887 032d 00000000 		.4byte	0
ARM GAS  C:\Users\jon\AppData\Local\Temp\ccwaPz7c.s 			page 116


 3888 0331 00000000 		.4byte	0
 3889              	.LLST21:
 3890 0335 00000000 		.4byte	.LVL65
 3891 0339 34000000 		.4byte	.LVL69
 3892 033d 0100     		.2byte	0x1
 3893 033f 51       		.byte	0x51
 3894 0340 34000000 		.4byte	.LVL69
 3895 0344 58000000 		.4byte	.LVL73
 3896 0348 0400     		.2byte	0x4
 3897 034a F3       		.byte	0xf3
 3898 034b 01       		.uleb128 0x1
 3899 034c 51       		.byte	0x51
 3900 034d 9F       		.byte	0x9f
 3901 034e 58000000 		.4byte	.LVL73
 3902 0352 84000000 		.4byte	.LFE12
 3903 0356 0100     		.2byte	0x1
 3904 0358 51       		.byte	0x51
 3905 0359 00000000 		.4byte	0
 3906 035d 00000000 		.4byte	0
 3907              	.LLST22:
 3908 0361 00000000 		.4byte	.LVL65
 3909 0365 26000000 		.4byte	.LVL68
 3910 0369 0100     		.2byte	0x1
 3911 036b 52       		.byte	0x52
 3912 036c 26000000 		.4byte	.LVL68
 3913 0370 66000000 		.4byte	.LVL80
 3914 0374 0100     		.2byte	0x1
 3915 0376 52       		.byte	0x52
 3916 0377 66000000 		.4byte	.LVL80
 3917 037b 84000000 		.4byte	.LFE12
 3918 037f 0400     		.2byte	0x4
 3919 0381 F3       		.byte	0xf3
 3920 0382 01       		.uleb128 0x1
 3921 0383 52       		.byte	0x52
 3922 0384 9F       		.byte	0x9f
 3923 0385 00000000 		.4byte	0
 3924 0389 00000000 		.4byte	0
 3925              	.LLST23:
 3926 038d 08000000 		.4byte	.LVL66
 3927 0391 12000000 		.4byte	.LVL67
 3928 0395 0100     		.2byte	0x1
 3929 0397 50       		.byte	0x50
 3930 0398 00000000 		.4byte	0
 3931 039c 00000000 		.4byte	0
 3932              	.LLST24:
 3933 03a0 08000000 		.4byte	.LVL66
 3934 03a4 12000000 		.4byte	.LVL67
 3935 03a8 0200     		.2byte	0x2
 3936 03aa 30       		.byte	0x30
 3937 03ab 9F       		.byte	0x9f
 3938 03ac 00000000 		.4byte	0
 3939 03b0 00000000 		.4byte	0
 3940              	.LLST26:
 3941 03b4 26000000 		.4byte	.LVL68
 3942 03b8 34000000 		.4byte	.LVL69
 3943 03bc 0200     		.2byte	0x2
 3944 03be 30       		.byte	0x30
ARM GAS  C:\Users\jon\AppData\Local\Temp\ccwaPz7c.s 			page 117


 3945 03bf 9F       		.byte	0x9f
 3946 03c0 34000000 		.4byte	.LVL69
 3947 03c4 3E000000 		.4byte	.LVL71
 3948 03c8 0900     		.2byte	0x9
 3949 03ca 71       		.byte	0x71
 3950 03cb 00       		.sleb128 0
 3951 03cc F3       		.byte	0xf3
 3952 03cd 01       		.uleb128 0x1
 3953 03ce 51       		.byte	0x51
 3954 03cf 31       		.byte	0x31
 3955 03d0 1C       		.byte	0x1c
 3956 03d1 1C       		.byte	0x1c
 3957 03d2 9F       		.byte	0x9f
 3958 03d3 3E000000 		.4byte	.LVL71
 3959 03d7 58000000 		.4byte	.LVL73
 3960 03db 0200     		.2byte	0x2
 3961 03dd 30       		.byte	0x30
 3962 03de 9F       		.byte	0x9f
 3963 03df 00000000 		.4byte	0
 3964 03e3 00000000 		.4byte	0
 3965              	.LLST27:
 3966 03e7 3E000000 		.4byte	.LVL71
 3967 03eb 44000000 		.4byte	.LVL72
 3968 03ef 0100     		.2byte	0x1
 3969 03f1 50       		.byte	0x50
 3970 03f2 00000000 		.4byte	0
 3971 03f6 00000000 		.4byte	0
 3972              	.LLST28:
 3973 03fa 64000000 		.4byte	.LVL79
 3974 03fe 74000000 		.4byte	.LVL83
 3975 0402 0100     		.2byte	0x1
 3976 0404 50       		.byte	0x50
 3977 0405 00000000 		.4byte	0
 3978 0409 00000000 		.4byte	0
 3979              	.LLST29:
 3980 040d 66000000 		.4byte	.LVL80
 3981 0411 6C000000 		.4byte	.LVL81
 3982 0415 0800     		.2byte	0x8
 3983 0417 72       		.byte	0x72
 3984 0418 00       		.sleb128 0
 3985 0419 3F       		.byte	0x3f
 3986 041a 1A       		.byte	0x1a
 3987 041b 08       		.byte	0x8
 3988 041c FF       		.byte	0xff
 3989 041d 1A       		.byte	0x1a
 3990 041e 9F       		.byte	0x9f
 3991 041f 6C000000 		.4byte	.LVL81
 3992 0423 70000000 		.4byte	.LVL82
 3993 0427 0B00     		.2byte	0xb
 3994 0429 73       		.byte	0x73
 3995 042a 00       		.sleb128 0
 3996 042b 08       		.byte	0x8
 3997 042c FF       		.byte	0xff
 3998 042d 1A       		.byte	0x1a
 3999 042e 72       		.byte	0x72
 4000 042f 00       		.sleb128 0
 4001 0430 38       		.byte	0x38
ARM GAS  C:\Users\jon\AppData\Local\Temp\ccwaPz7c.s 			page 118


 4002 0431 24       		.byte	0x24
 4003 0432 21       		.byte	0x21
 4004 0433 9F       		.byte	0x9f
 4005 0434 00000000 		.4byte	0
 4006 0438 00000000 		.4byte	0
 4007              	.LLST30:
 4008 043c 00000000 		.4byte	.LVL84
 4009 0440 1A000000 		.4byte	.LVL85
 4010 0444 0100     		.2byte	0x1
 4011 0446 50       		.byte	0x50
 4012 0447 1A000000 		.4byte	.LVL85
 4013 044b 2C000000 		.4byte	.LFE13
 4014 044f 0400     		.2byte	0x4
 4015 0451 F3       		.byte	0xf3
 4016 0452 01       		.uleb128 0x1
 4017 0453 50       		.byte	0x50
 4018 0454 9F       		.byte	0x9f
 4019 0455 00000000 		.4byte	0
 4020 0459 00000000 		.4byte	0
 4021              	.LLST31:
 4022 045d 00000000 		.4byte	.LVL86
 4023 0461 0A000000 		.4byte	.LVL87
 4024 0465 0100     		.2byte	0x1
 4025 0467 50       		.byte	0x50
 4026 0468 0A000000 		.4byte	.LVL87
 4027 046c 18000000 		.4byte	.LFE14
 4028 0470 0400     		.2byte	0x4
 4029 0472 F3       		.byte	0xf3
 4030 0473 01       		.uleb128 0x1
 4031 0474 50       		.byte	0x50
 4032 0475 9F       		.byte	0x9f
 4033 0476 00000000 		.4byte	0
 4034 047a 00000000 		.4byte	0
 4035              	.LLST32:
 4036 047e 00000000 		.4byte	.LVL89
 4037 0482 0A000000 		.4byte	.LVL90
 4038 0486 0100     		.2byte	0x1
 4039 0488 50       		.byte	0x50
 4040 0489 0A000000 		.4byte	.LVL90
 4041 048d 16000000 		.4byte	.LVL92
 4042 0491 0400     		.2byte	0x4
 4043 0493 F3       		.byte	0xf3
 4044 0494 01       		.uleb128 0x1
 4045 0495 50       		.byte	0x50
 4046 0496 9F       		.byte	0x9f
 4047 0497 16000000 		.4byte	.LVL92
 4048 049b 18000000 		.4byte	.LVL93
 4049 049f 0100     		.2byte	0x1
 4050 04a1 50       		.byte	0x50
 4051 04a2 18000000 		.4byte	.LVL93
 4052 04a6 20000000 		.4byte	.LFE16
 4053 04aa 0400     		.2byte	0x4
 4054 04ac F3       		.byte	0xf3
 4055 04ad 01       		.uleb128 0x1
 4056 04ae 50       		.byte	0x50
 4057 04af 9F       		.byte	0x9f
 4058 04b0 00000000 		.4byte	0
ARM GAS  C:\Users\jon\AppData\Local\Temp\ccwaPz7c.s 			page 119


 4059 04b4 00000000 		.4byte	0
 4060              	.LLST33:
 4061 04b8 00000000 		.4byte	.LVL89
 4062 04bc 14000000 		.4byte	.LVL91
 4063 04c0 0200     		.2byte	0x2
 4064 04c2 30       		.byte	0x30
 4065 04c3 9F       		.byte	0x9f
 4066 04c4 14000000 		.4byte	.LVL91
 4067 04c8 16000000 		.4byte	.LVL92
 4068 04cc 0100     		.2byte	0x1
 4069 04ce 50       		.byte	0x50
 4070 04cf 16000000 		.4byte	.LVL92
 4071 04d3 18000000 		.4byte	.LVL93
 4072 04d7 0200     		.2byte	0x2
 4073 04d9 30       		.byte	0x30
 4074 04da 9F       		.byte	0x9f
 4075 04db 18000000 		.4byte	.LVL93
 4076 04df 20000000 		.4byte	.LFE16
 4077 04e3 0100     		.2byte	0x1
 4078 04e5 50       		.byte	0x50
 4079 04e6 00000000 		.4byte	0
 4080 04ea 00000000 		.4byte	0
 4081              	.LLST34:
 4082 04ee 00000000 		.4byte	.LVL95
 4083 04f2 04000000 		.4byte	.LVL96
 4084 04f6 0200     		.2byte	0x2
 4085 04f8 30       		.byte	0x30
 4086 04f9 9F       		.byte	0x9f
 4087 04fa 04000000 		.4byte	.LVL96
 4088 04fe 08000000 		.4byte	.LVL97
 4089 0502 0900     		.2byte	0x9
 4090 0504 70       		.byte	0x70
 4091 0505 00       		.sleb128 0
 4092 0506 32       		.byte	0x32
 4093 0507 1A       		.byte	0x1a
 4094 0508 48       		.byte	0x48
 4095 0509 24       		.byte	0x24
 4096 050a 30       		.byte	0x30
 4097 050b 2E       		.byte	0x2e
 4098 050c 9F       		.byte	0x9f
 4099 050d 00000000 		.4byte	0
 4100 0511 00000000 		.4byte	0
 4101              		.section	.debug_aranges,"",%progbits
 4102 0000 C4000000 		.4byte	0xc4
 4103 0004 0200     		.2byte	0x2
 4104 0006 00000000 		.4byte	.Ldebug_info0
 4105 000a 04       		.byte	0x4
 4106 000b 00       		.byte	0
 4107 000c 0000     		.2byte	0
 4108 000e 0000     		.2byte	0
 4109 0010 00000000 		.4byte	.LFB1
 4110 0014 50010000 		.4byte	.LFE1-.LFB1
 4111 0018 00000000 		.4byte	.LFB0
 4112 001c C8000000 		.4byte	.LFE0-.LFB0
 4113 0020 00000000 		.4byte	.LFB2
 4114 0024 B0000000 		.4byte	.LFE2-.LFB2
 4115 0028 00000000 		.4byte	.LFB3
ARM GAS  C:\Users\jon\AppData\Local\Temp\ccwaPz7c.s 			page 120


 4116 002c 54000000 		.4byte	.LFE3-.LFB3
 4117 0030 00000000 		.4byte	.LFB4
 4118 0034 C0000000 		.4byte	.LFE4-.LFB4
 4119 0038 00000000 		.4byte	.LFB5
 4120 003c 18000000 		.4byte	.LFE5-.LFB5
 4121 0040 00000000 		.4byte	.LFB6
 4122 0044 0C000000 		.4byte	.LFE6-.LFB6
 4123 0048 00000000 		.4byte	.LFB7
 4124 004c 18000000 		.4byte	.LFE7-.LFB7
 4125 0050 00000000 		.4byte	.LFB8
 4126 0054 0C000000 		.4byte	.LFE8-.LFB8
 4127 0058 00000000 		.4byte	.LFB9
 4128 005c 14000000 		.4byte	.LFE9-.LFB9
 4129 0060 00000000 		.4byte	.LFB10
 4130 0064 28000000 		.4byte	.LFE10-.LFB10
 4131 0068 00000000 		.4byte	.LFB11
 4132 006c 80000000 		.4byte	.LFE11-.LFB11
 4133 0070 00000000 		.4byte	.LFB12
 4134 0074 84000000 		.4byte	.LFE12-.LFB12
 4135 0078 00000000 		.4byte	.LFB13
 4136 007c 2C000000 		.4byte	.LFE13-.LFB13
 4137 0080 00000000 		.4byte	.LFB14
 4138 0084 18000000 		.4byte	.LFE14-.LFB14
 4139 0088 00000000 		.4byte	.LFB15
 4140 008c 0C000000 		.4byte	.LFE15-.LFB15
 4141 0090 00000000 		.4byte	.LFB16
 4142 0094 20000000 		.4byte	.LFE16-.LFB16
 4143 0098 00000000 		.4byte	.LFB17
 4144 009c 1C000000 		.4byte	.LFE17-.LFB17
 4145 00a0 00000000 		.4byte	.LFB18
 4146 00a4 10000000 		.4byte	.LFE18-.LFB18
 4147 00a8 00000000 		.4byte	.LFB19
 4148 00ac 10000000 		.4byte	.LFE19-.LFB19
 4149 00b0 00000000 		.4byte	.LFB20
 4150 00b4 10000000 		.4byte	.LFE20-.LFB20
 4151 00b8 00000000 		.4byte	.LFB21
 4152 00bc 10000000 		.4byte	.LFE21-.LFB21
 4153 00c0 00000000 		.4byte	0
 4154 00c4 00000000 		.4byte	0
 4155              		.section	.debug_ranges,"",%progbits
 4156              	.Ldebug_ranges0:
 4157 0000 3E000000 		.4byte	.LBB34
 4158 0004 4E000000 		.4byte	.LBE34
 4159 0008 50000000 		.4byte	.LBB37
 4160 000c 54000000 		.4byte	.LBE37
 4161 0010 00000000 		.4byte	0
 4162 0014 00000000 		.4byte	0
 4163 0018 00000000 		.4byte	.LFB1
 4164 001c 50010000 		.4byte	.LFE1
 4165 0020 00000000 		.4byte	.LFB0
 4166 0024 C8000000 		.4byte	.LFE0
 4167 0028 00000000 		.4byte	.LFB2
 4168 002c B0000000 		.4byte	.LFE2
 4169 0030 00000000 		.4byte	.LFB3
 4170 0034 54000000 		.4byte	.LFE3
 4171 0038 00000000 		.4byte	.LFB4
 4172 003c C0000000 		.4byte	.LFE4
ARM GAS  C:\Users\jon\AppData\Local\Temp\ccwaPz7c.s 			page 121


 4173 0040 00000000 		.4byte	.LFB5
 4174 0044 18000000 		.4byte	.LFE5
 4175 0048 00000000 		.4byte	.LFB6
 4176 004c 0C000000 		.4byte	.LFE6
 4177 0050 00000000 		.4byte	.LFB7
 4178 0054 18000000 		.4byte	.LFE7
 4179 0058 00000000 		.4byte	.LFB8
 4180 005c 0C000000 		.4byte	.LFE8
 4181 0060 00000000 		.4byte	.LFB9
 4182 0064 14000000 		.4byte	.LFE9
 4183 0068 00000000 		.4byte	.LFB10
 4184 006c 28000000 		.4byte	.LFE10
 4185 0070 00000000 		.4byte	.LFB11
 4186 0074 80000000 		.4byte	.LFE11
 4187 0078 00000000 		.4byte	.LFB12
 4188 007c 84000000 		.4byte	.LFE12
 4189 0080 00000000 		.4byte	.LFB13
 4190 0084 2C000000 		.4byte	.LFE13
 4191 0088 00000000 		.4byte	.LFB14
 4192 008c 18000000 		.4byte	.LFE14
 4193 0090 00000000 		.4byte	.LFB15
 4194 0094 0C000000 		.4byte	.LFE15
 4195 0098 00000000 		.4byte	.LFB16
 4196 009c 20000000 		.4byte	.LFE16
 4197 00a0 00000000 		.4byte	.LFB17
 4198 00a4 1C000000 		.4byte	.LFE17
 4199 00a8 00000000 		.4byte	.LFB18
 4200 00ac 10000000 		.4byte	.LFE18
 4201 00b0 00000000 		.4byte	.LFB19
 4202 00b4 10000000 		.4byte	.LFE19
 4203 00b8 00000000 		.4byte	.LFB20
 4204 00bc 10000000 		.4byte	.LFE20
 4205 00c0 00000000 		.4byte	.LFB21
 4206 00c4 10000000 		.4byte	.LFE21
 4207 00c8 00000000 		.4byte	0
 4208 00cc 00000000 		.4byte	0
 4209              		.section	.debug_line,"",%progbits
 4210              	.Ldebug_line0:
 4211 0000 D8030000 		.section	.debug_str,"MS",%progbits,1
 4211      02008500 
 4211      00000201 
 4211      FB0E0D00 
 4211      01010101 
 4212              	.LASF22:
 4213 0000 6570546F 		.ascii	"epToggle\000"
 4213      67676C65 
 4213      00
 4214              	.LASF60:
 4215 0009 696E7465 		.ascii	"interfaceNumber\000"
 4215      72666163 
 4215      654E756D 
 4215      62657200 
 4216              	.LASF101:
 4217 0019 636E7472 		.ascii	"cntr\000"
 4217      00
 4218              	.LASF85:
 4219 001e 55534255 		.ascii	"USBUART_1_interfaceNumber\000"
ARM GAS  C:\Users\jon\AppData\Local\Temp\ccwaPz7c.s 			page 122


 4219      4152545F 
 4219      315F696E 
 4219      74657266 
 4219      6163654E 
 4220              	.LASF54:
 4221 0038 55534255 		.ascii	"USBUART_1_Stop\000"
 4221      4152545F 
 4221      315F5374 
 4221      6F7000
 4222              	.LASF92:
 4223 0047 43794578 		.ascii	"CyExitCriticalSection\000"
 4223      69744372 
 4223      69746963 
 4223      616C5365 
 4223      6374696F 
 4224              	.LASF63:
 4225 005d 70446174 		.ascii	"pData\000"
 4225      6100
 4226              	.LASF84:
 4227 0063 55534255 		.ascii	"USBUART_1_deviceStatus\000"
 4227      4152545F 
 4227      315F6465 
 4227      76696365 
 4227      53746174 
 4228              	.LASF34:
 4229 007a 6570496E 		.ascii	"epIntEn\000"
 4229      74456E00 
 4230              	.LASF2:
 4231 0082 73686F72 		.ascii	"short int\000"
 4231      7420696E 
 4231      7400
 4232              	.LASF67:
 4233 008c 55534255 		.ascii	"USBUART_1_Force\000"
 4233      4152545F 
 4233      315F466F 
 4233      72636500 
 4234              	.LASF24:
 4235 009c 65704D6F 		.ascii	"epMode\000"
 4235      646500
 4236              	.LASF45:
 4237 00a3 61726245 		.ascii	"arbEp\000"
 4237      7000
 4238              	.LASF61:
 4239 00a9 55534255 		.ascii	"USBUART_1_GetEPState\000"
 4239      4152545F 
 4239      315F4765 
 4239      74455053 
 4239      74617465 
 4240              	.LASF71:
 4241 00be 706F7765 		.ascii	"powerStatus\000"
 4241      72537461 
 4241      74757300 
 4242              	.LASF17:
 4243 00ca 6C6F6E67 		.ascii	"long double\000"
 4243      20646F75 
 4243      626C6500 
 4244              	.LASF51:
ARM GAS  C:\Users\jon\AppData\Local\Temp\ccwaPz7c.s 			page 123


 4245 00d6 6D6F6465 		.ascii	"mode\000"
 4245      00
 4246              	.LASF76:
 4247 00db 55534255 		.ascii	"USBUART_1_ReInitComponent\000"
 4247      4152545F 
 4247      315F5265 
 4247      496E6974 
 4247      436F6D70 
 4248              	.LASF99:
 4249 00f5 433A5C55 		.ascii	"C:\\Users\\jon\\Sync\\Research\\PSoC Projects\\Cont"
 4249      73657273 
 4249      5C6A6F6E 
 4249      5C53796E 
 4249      635C5265 
 4250 0122 726F6C6C 		.ascii	"roller.cydsn\000"
 4250      65722E63 
 4250      7964736E 
 4250      00
 4251              	.LASF62:
 4252 012f 55534255 		.ascii	"USBUART_1_LoadInEP\000"
 4252      4152545F 
 4252      315F4C6F 
 4252      6164496E 
 4252      455000
 4253              	.LASF46:
 4254 0142 55534255 		.ascii	"USBUART_1_arb_eps_struct\000"
 4254      4152545F 
 4254      315F6172 
 4254      625F6570 
 4254      735F7374 
 4255              	.LASF77:
 4256 015b 55534255 		.ascii	"USBUART_1_EnableSofInt\000"
 4256      4152545F 
 4256      315F456E 
 4256      61626C65 
 4256      536F6649 
 4257              	.LASF10:
 4258 0172 75696E74 		.ascii	"uint16\000"
 4258      313600
 4259              	.LASF39:
 4260 0179 72775261 		.ascii	"rwRa\000"
 4260      00
 4261              	.LASF93:
 4262 017e 4379496E 		.ascii	"CyIntSetPriority\000"
 4262      74536574 
 4262      5072696F 
 4262      72697479 
 4262      00
 4263              	.LASF65:
 4264 018f 55534255 		.ascii	"USBUART_1_ReadOutEP\000"
 4264      4152545F 
 4264      315F5265 
 4264      61644F75 
 4264      74455000 
 4265              	.LASF88:
 4266 01a3 55534255 		.ascii	"USBUART_1_EP\000"
 4266      4152545F 
ARM GAS  C:\Users\jon\AppData\Local\Temp\ccwaPz7c.s 			page 124


 4266      315F4550 
 4266      00
 4267              	.LASF43:
 4268 01b0 73696545 		.ascii	"sieEp\000"
 4268      7000
 4269              	.LASF58:
 4270 01b6 55534255 		.ascii	"USBUART_1_IsConfigurationChanged\000"
 4270      4152545F 
 4270      315F4973 
 4270      436F6E66 
 4270      69677572 
 4271              	.LASF75:
 4272 01d7 55534255 		.ascii	"USBUART_1_GetDeviceAddress\000"
 4272      4152545F 
 4272      315F4765 
 4272      74446576 
 4272      69636541 
 4273              	.LASF98:
 4274 01f2 47656E65 		.ascii	"Generated_Source\\PSoC5\\USBUART_1.c\000"
 4274      72617465 
 4274      645F536F 
 4274      75726365 
 4274      5C50536F 
 4275              	.LASF64:
 4276 0215 6C656E67 		.ascii	"length\000"
 4276      746800
 4277              	.LASF50:
 4278 021c 64657669 		.ascii	"device\000"
 4278      636500
 4279              	.LASF12:
 4280 0223 666C6F61 		.ascii	"float\000"
 4280      7400
 4281              	.LASF80:
 4282 0229 55534255 		.ascii	"USBUART_1_device\000"
 4282      4152545F 
 4282      315F6465 
 4282      76696365 
 4282      00
 4283              	.LASF6:
 4284 023a 6C6F6E67 		.ascii	"long long int\000"
 4284      206C6F6E 
 4284      6720696E 
 4284      7400
 4285              	.LASF31:
 4286 0248 65704372 		.ascii	"epCr0\000"
 4286      3000
 4287              	.LASF32:
 4288 024e 55534255 		.ascii	"USBUART_1_sie_ep_struct\000"
 4288      4152545F 
 4288      315F7369 
 4288      655F6570 
 4288      5F737472 
 4289              	.LASF74:
 4290 0266 55534255 		.ascii	"USBUART_1_GetConfiguration\000"
 4290      4152545F 
 4290      315F4765 
 4290      74436F6E 
ARM GAS  C:\Users\jon\AppData\Local\Temp\ccwaPz7c.s 			page 125


 4290      66696775 
 4291              	.LASF33:
 4292 0281 65704366 		.ascii	"epCfg\000"
 4292      6700
 4293              	.LASF4:
 4294 0287 6C6F6E67 		.ascii	"long int\000"
 4294      20696E74 
 4294      00
 4295              	.LASF100:
 4296 0290 55534255 		.ascii	"USBUART_1_GetEPCount\000"
 4296      4152545F 
 4296      315F4765 
 4296      74455043 
 4296      6F756E74 
 4297              	.LASF23:
 4298 02a5 61646472 		.ascii	"addr\000"
 4298      00
 4299              	.LASF73:
 4300 02aa 72657375 		.ascii	"result\000"
 4300      6C7400
 4301              	.LASF81:
 4302 02b1 55534255 		.ascii	"USBUART_1_transferState\000"
 4302      4152545F 
 4302      315F7472 
 4302      616E7366 
 4302      65725374 
 4303              	.LASF97:
 4304 02c9 474E5520 		.ascii	"GNU C11 5.4.1 20160609 (release) [ARM/embedded-5-br"
 4304      43313120 
 4304      352E342E 
 4304      31203230 
 4304      31363036 
 4305 02fc 616E6368 		.ascii	"anch revision 237715] -mcpu=cortex-m3 -mthumb -g -O"
 4305      20726576 
 4305      6973696F 
 4305      6E203233 
 4305      37373135 
 4306 032f 33202D66 		.ascii	"3 -ffunction-sections -ffat-lto-objects\000"
 4306      66756E63 
 4306      74696F6E 
 4306      2D736563 
 4306      74696F6E 
 4307              	.LASF47:
 4308 0357 65704E75 		.ascii	"epNumber\000"
 4308      6D626572 
 4308      00
 4309              	.LASF25:
 4310 0360 62756666 		.ascii	"buffOffset\000"
 4310      4F666673 
 4310      657400
 4311              	.LASF91:
 4312 036b 43794465 		.ascii	"CyDelayUs\000"
 4312      6C617955 
 4312      7300
 4313              	.LASF1:
 4314 0375 756E7369 		.ascii	"unsigned char\000"
 4314      676E6564 
ARM GAS  C:\Users\jon\AppData\Local\Temp\ccwaPz7c.s 			page 126


 4314      20636861 
 4314      7200
 4315              	.LASF38:
 4316 0383 72775761 		.ascii	"rwWaMsb\000"
 4316      4D736200 
 4317              	.LASF35:
 4318 038b 65705372 		.ascii	"epSr\000"
 4318      00
 4319              	.LASF66:
 4320 0390 55534255 		.ascii	"USBUART_1_DisableOutEP\000"
 4320      4152545F 
 4320      315F4469 
 4320      7361626C 
 4320      654F7574 
 4321              	.LASF0:
 4322 03a7 7369676E 		.ascii	"signed char\000"
 4322      65642063 
 4322      68617200 
 4323              	.LASF7:
 4324 03b3 6C6F6E67 		.ascii	"long long unsigned int\000"
 4324      206C6F6E 
 4324      6720756E 
 4324      7369676E 
 4324      65642069 
 4325              	.LASF37:
 4326 03ca 72775761 		.ascii	"rwWa\000"
 4326      00
 4327              	.LASF59:
 4328 03cf 55534255 		.ascii	"USBUART_1_GetInterfaceSetting\000"
 4328      4152545F 
 4328      315F4765 
 4328      74496E74 
 4328      65726661 
 4329              	.LASF8:
 4330 03ed 756E7369 		.ascii	"unsigned int\000"
 4330      676E6564 
 4330      20696E74 
 4330      00
 4331              	.LASF41:
 4332 03fa 72774472 		.ascii	"rwDr\000"
 4332      00
 4333              	.LASF28:
 4334 03ff 545F5553 		.ascii	"T_USBUART_1_EP_CTL_BLOCK\000"
 4334      42554152 
 4334      545F315F 
 4334      45505F43 
 4334      544C5F42 
 4335              	.LASF95:
 4336 0418 43794465 		.ascii	"CyDelayCycles\000"
 4336      6C617943 
 4336      79636C65 
 4336      7300
 4337              	.LASF87:
 4338 0426 55534255 		.ascii	"USBUART_1_deviceAddress\000"
 4338      4152545F 
 4338      315F6465 
 4338      76696365 
ARM GAS  C:\Users\jon\AppData\Local\Temp\ccwaPz7c.s 			page 127


 4338      41646472 
 4339              	.LASF16:
 4340 043e 72656733 		.ascii	"reg32\000"
 4340      3200
 4341              	.LASF3:
 4342 0444 73686F72 		.ascii	"short unsigned int\000"
 4342      7420756E 
 4342      7369676E 
 4342      65642069 
 4342      6E7400
 4343              	.LASF40:
 4344 0457 72775261 		.ascii	"rwRaMsb\000"
 4344      4D736200 
 4345              	.LASF19:
 4346 045f 61747472 		.ascii	"attrib\000"
 4346      696200
 4347              	.LASF96:
 4348 0466 55534255 		.ascii	"USBUART_1_Dp_ClearInterrupt\000"
 4348      4152545F 
 4348      315F4470 
 4348      5F436C65 
 4348      6172496E 
 4349              	.LASF14:
 4350 0482 63686172 		.ascii	"char\000"
 4350      00
 4351              	.LASF82:
 4352 0487 55534255 		.ascii	"USBUART_1_configuration\000"
 4352      4152545F 
 4352      315F636F 
 4352      6E666967 
 4352      75726174 
 4353              	.LASF69:
 4354 049f 55534255 		.ascii	"USBUART_1_GetEPAckState\000"
 4354      4152545F 
 4354      315F4765 
 4354      74455041 
 4354      636B5374 
 4355              	.LASF72:
 4356 04b7 55534255 		.ascii	"USBUART_1_RWUEnabled\000"
 4356      4152545F 
 4356      315F5257 
 4356      55456E61 
 4356      626C6564 
 4357              	.LASF90:
 4358 04cc 4379456E 		.ascii	"CyEnterCriticalSection\000"
 4358      74657243 
 4358      72697469 
 4358      63616C53 
 4358      65637469 
 4359              	.LASF29:
 4360 04e3 6570436E 		.ascii	"epCnt0\000"
 4360      743000
 4361              	.LASF9:
 4362 04ea 75696E74 		.ascii	"uint8\000"
 4362      3800
 4363              	.LASF89:
 4364 04f0 55534255 		.ascii	"USBUART_1_lastPacketSize\000"
ARM GAS  C:\Users\jon\AppData\Local\Temp\ccwaPz7c.s 			page 128


 4364      4152545F 
 4364      315F6C61 
 4364      73745061 
 4364      636B6574 
 4365              	.LASF56:
 4366 0509 63723152 		.ascii	"cr1Reg\000"
 4366      656700
 4367              	.LASF30:
 4368 0510 6570436E 		.ascii	"epCnt1\000"
 4368      743100
 4369              	.LASF86:
 4370 0517 55534255 		.ascii	"USBUART_1_interfaceSetting\000"
 4370      4152545F 
 4370      315F696E 
 4370      74657266 
 4370      61636553 
 4371              	.LASF21:
 4372 0532 68774570 		.ascii	"hwEpState\000"
 4372      53746174 
 4372      6500
 4373              	.LASF11:
 4374 053c 75696E74 		.ascii	"uint32\000"
 4374      333200
 4375              	.LASF15:
 4376 0543 72656738 		.ascii	"reg8\000"
 4376      00
 4377              	.LASF5:
 4378 0548 6C6F6E67 		.ascii	"long unsigned int\000"
 4378      20756E73 
 4378      69676E65 
 4378      6420696E 
 4378      7400
 4379              	.LASF13:
 4380 055a 646F7562 		.ascii	"double\000"
 4380      6C6500
 4381              	.LASF20:
 4382 0561 61706945 		.ascii	"apiEpState\000"
 4382      70537461 
 4382      746500
 4383              	.LASF44:
 4384 056c 55534255 		.ascii	"USBUART_1_sie_eps_struct\000"
 4384      4152545F 
 4384      315F7369 
 4384      655F6570 
 4384      735F7374 
 4385              	.LASF26:
 4386 0585 62756666 		.ascii	"bufferSize\000"
 4386      65725369 
 4386      7A6500
 4387              	.LASF70:
 4388 0590 55534255 		.ascii	"USBUART_1_SetPowerStatus\000"
 4388      4152545F 
 4388      315F5365 
 4388      74506F77 
 4388      65725374 
 4389              	.LASF48:
 4390 05a9 55534255 		.ascii	"USBUART_1_EnableOutEP\000"
ARM GAS  C:\Users\jon\AppData\Local\Temp\ccwaPz7c.s 			page 129


 4390      4152545F 
 4390      315F456E 
 4390      61626C65 
 4390      4F757445 
 4391              	.LASF94:
 4392 05bf 4379496E 		.ascii	"CyIntSetVector\000"
 4392      74536574 
 4392      56656374 
 4392      6F7200
 4393              	.LASF18:
 4394 05ce 73697A65 		.ascii	"sizetype\000"
 4394      74797065 
 4394      00
 4395              	.LASF79:
 4396 05d7 55534255 		.ascii	"USBUART_1_initVar\000"
 4396      4152545F 
 4396      315F696E 
 4396      69745661 
 4396      7200
 4397              	.LASF52:
 4398 05e9 55534255 		.ascii	"USBUART_1_Init\000"
 4398      4152545F 
 4398      315F496E 
 4398      697400
 4399              	.LASF78:
 4400 05f8 55534255 		.ascii	"USBUART_1_DisableSofInt\000"
 4400      4152545F 
 4400      315F4469 
 4400      7361626C 
 4400      65536F66 
 4401              	.LASF49:
 4402 0610 55534255 		.ascii	"USBUART_1_InitComponent\000"
 4402      4152545F 
 4402      315F496E 
 4402      6974436F 
 4402      6D706F6E 
 4403              	.LASF83:
 4404 0628 55534255 		.ascii	"USBUART_1_configurationChanged\000"
 4404      4152545F 
 4404      315F636F 
 4404      6E666967 
 4404      75726174 
 4405              	.LASF36:
 4406 0647 72657365 		.ascii	"reserved\000"
 4406      72766564 
 4406      00
 4407              	.LASF27:
 4408 0650 696E7465 		.ascii	"interface\000"
 4408      72666163 
 4408      6500
 4409              	.LASF68:
 4410 065a 62537461 		.ascii	"bState\000"
 4410      746500
 4411              	.LASF55:
 4412 0661 656E6162 		.ascii	"enableInterrupts\000"
 4412      6C65496E 
 4412      74657272 
ARM GAS  C:\Users\jon\AppData\Local\Temp\ccwaPz7c.s 			page 130


 4412      75707473 
 4412      00
 4413              	.LASF42:
 4414 0672 55534255 		.ascii	"USBUART_1_arb_ep_struct\000"
 4414      4152545F 
 4414      315F6172 
 4414      625F6570 
 4414      5F737472 
 4415              	.LASF57:
 4416 068a 55534255 		.ascii	"USBUART_1_CheckActivity\000"
 4416      4152545F 
 4416      315F4368 
 4416      65636B41 
 4416      63746976 
 4417              	.LASF53:
 4418 06a2 55534255 		.ascii	"USBUART_1_Start\000"
 4418      4152545F 
 4418      315F5374 
 4418      61727400 
 4419              		.ident	"GCC: (GNU Tools for ARM Embedded Processors) 5.4.1 20160609 (release) [ARM/embedded-5-bran
